Archive member included because of file (symbol)

d:/devkitPro/libnds/lib\libul.a(ulib.o)
                              main.o (ulInit)
d:/devkitPro/libnds/lib\libul.a(drawing.o)
                              main.o (ulInitGfx)
d:/devkitPro/libnds/lib\libul.a(text.o)
                              main.o (ulInitText)
d:/devkitPro/libnds/lib\libul.a(VirtualFile.o)
                              d:/devkitPro/libnds/lib\libul.a(text.o) (VirtualFileSources)
d:/devkitPro/libnds/lib\libul.a(texVramManager.o)
                              d:/devkitPro/libnds/lib\libul.a(ulib.o) (ulTexVramInit)
d:/devkitPro/libnds/lib\libul.a(texPalManager.o)
                              d:/devkitPro/libnds/lib\libul.a(ulib.o) (ulTexPalInit)
d:/devkitPro/libnds/lib\libul.a(keys.o)
                              main.o (ulReadKeys)
d:/devkitPro/libnds/lib\libul.a(ulDrawImage.o)
                              main.o (ulDrawImage)
d:/devkitPro/libnds/lib\libul.a(ulCreateImagePalette.o)
                              d:/devkitPro/libnds/lib\libul.a(drawing.o) (ulCreateImagePalette)
d:/devkitPro/libnds/lib\libul.a(ulDrawGradientRect.o)
                              main.o (ulDrawGradientRect)
d:/devkitPro/libnds/lib\libul.a(ulLoadImageFilePNG.o)
                              main.o (ulLoadImageFilePNG)
d:/devkitPro/libnds/lib\libul.a(glWrapper.o)
                              d:/devkitPro/libnds/lib\libul.a(texVramManager.o) (ulChangeVramAllocation)
d:/devkitPro/libnds/lib\libul.a(libLoadPng.o)
                              d:/devkitPro/libnds/lib\libul.a(ulLoadImageFilePNG.o) (ulLoadImagePNG)
d:/devkitPro/libnds/lib\libul.a(loading_utility.o)
                              d:/devkitPro/libnds/lib\libul.a(ulLoadImageFilePNG.o) (ul_loadUtilActiveSource)
d:/devkitPro/libnds/lib\libpng.a(png.o)
                              d:/devkitPro/libnds/lib\libul.a(libLoadPng.o) (png_get_io_ptr)
d:/devkitPro/libnds/lib\libpng.a(pngread.o)
                              d:/devkitPro/libnds/lib\libul.a(libLoadPng.o) (png_destroy_read_struct)
d:/devkitPro/libnds/lib\libpng.a(pngrio.o)
                              d:/devkitPro/libnds/lib\libul.a(libLoadPng.o) (png_set_read_fn)
d:/devkitPro/libnds/lib\libpng.a(pngrtran.o)
                              d:/devkitPro/libnds/lib\libpng.a(pngread.o) (png_set_strip_16)
d:/devkitPro/libnds/lib\libpng.a(pngmem.o)
                              d:/devkitPro/libnds/lib\libpng.a(pngread.o) (png_set_mem_fn)
d:/devkitPro/libnds/lib\libpng.a(pngerror.o)
                              d:/devkitPro/libnds/lib\libpng.a(pngread.o) (png_set_error_fn)
d:/devkitPro/libnds/lib\libpng.a(pngget.o)
                              d:/devkitPro/libnds/lib\libpng.a(pngread.o) (png_get_valid)
d:/devkitPro/libnds/lib\libpng.a(pngrutil.o)
                              d:/devkitPro/libnds/lib\libpng.a(pngread.o) (png_read_filter_row)
d:/devkitPro/libnds/lib\libpng.a(pngtrans.o)
                              d:/devkitPro/libnds/lib\libpng.a(pngread.o) (png_set_bgr)
d:/devkitPro/libnds/lib\libpng.a(pngset.o)
                              d:/devkitPro/libnds/lib\libpng.a(pngrutil.o) (png_set_cHRM)
d:/devkitPro/libnds/lib\libz.a(crc32.o)
                              d:/devkitPro/libnds/lib\libpng.a(png.o) (crc32)
d:/devkitPro/libnds/lib\libz.a(inflate.o)
                              d:/devkitPro/libnds/lib\libpng.a(png.o) (inflateReset)
d:/devkitPro/libnds/lib\libz.a(inftrees.o)
                              d:/devkitPro/libnds/lib\libz.a(inflate.o) (inflate_table)
d:/devkitPro/libnds/lib\libz.a(inffast.o)
                              d:/devkitPro/libnds/lib\libz.a(inflate.o) (inflate_fast)
d:/devkitPro/libnds/lib\libz.a(adler32.o)
                              d:/devkitPro/libnds/lib\libz.a(inflate.o) (adler32)
d:/devkitPro/libnds/lib\libz.a(zutil.o)
                              d:/devkitPro/libnds/lib\libz.a(inflate.o) (zcfree)
d:/devkitPro/libnds/lib\libnds9.a(dynamicArray.o)
                              d:/devkitPro/libnds/lib\libul.a(texVramManager.o) (DynamicArraySet)
d:/devkitPro/libnds/lib\libnds9.a(keys.o)
                              d:/devkitPro/libnds/lib\libul.a(keys.o) (keysCurrent)
d:/devkitPro/libnds/lib\libnds9.a(system.o)
                              d:/devkitPro/libnds/lib\libul.a(ulib.o) (powerOn)
d:/devkitPro/libnds/lib\libnds9.a(touch.o)
                              d:/devkitPro/libnds/lib\libul.a(keys.o) (touchRead)
d:/devkitPro/libnds/lib\libnds9.a(trig.o)
                              d:/devkitPro/libnds/lib\libul.a(ulDrawImage.o) (sinLerp)
d:/devkitPro/libnds/lib\libnds9.a(videoGL.o)
                              d:/devkitPro/libnds/lib\libul.a(texVramManager.o) (glGlobalData)
d:/devkitPro/libnds/lib\libnds9.a(initSystem.o)
                              d:/devkitpro/devkitarm/bin/../lib/gcc/arm-eabi/4.5.1/../../../../arm-eabi/lib/ds_arm9_crt0.o (initSystem)
d:/devkitPro/libnds/lib\libnds9.a(fifosystem.o)
                              d:/devkitPro/libnds/lib\libnds9.a(system.o) (fifoSendValue32)
d:/devkitPro/libnds/lib\libnds9.a(interrupts.o)
                              d:/devkitPro/libnds/lib\libnds9.a(fifosystem.o) (irqSet)
d:/devkitPro/libnds/lib\libnds9.a(libnds_exit.o)
                              d:/devkitpro/devkitarm/bin/../lib/gcc/arm-eabi/4.5.1/../../../../arm-eabi/lib/ds_arm9_crt0.o (__libnds_exit)
d:/devkitPro/libnds/lib\libnds9.a(mpu_setup.o)
                              d:/devkitpro/devkitarm/bin/../lib/gcc/arm-eabi/4.5.1/../../../../arm-eabi/lib/ds_arm9_crt0.o (__libnds_mpu_setup)
d:/devkitPro/libnds/lib\libnds9.a(biosCalls.o)
                              d:/devkitPro/libnds/lib\libnds9.a(system.o) (swiDelay)
d:/devkitPro/libnds/lib\libnds9.a(interruptDispatcher.o)
                              d:/devkitPro/libnds/lib\libnds9.a(interrupts.o) (IntrMain)
d:/devkitPro/libnds/lib\libnds9.a(swiSoftReset.o)
                              d:/devkitPro/libnds/lib\libnds9.a(fifosystem.o) (swiSoftReset)
d:/devkitPro/libnds/lib\libnds9.a(video.o)
                              d:/devkitPro/libnds/lib\libnds9.a(videoGL.o) (vramSetPrimaryBanks)
d:/devkitpro/devkitarm/bin/../lib/gcc/arm-eabi/4.5.1/../../../../arm-eabi/lib\libm.a(lib_a-s_cos.o)
                              d:/devkitPro/libnds/lib\libul.a(ulib.o) (cos)
d:/devkitpro/devkitarm/bin/../lib/gcc/arm-eabi/4.5.1/../../../../arm-eabi/lib\libm.a(lib_a-s_sin.o)
                              d:/devkitPro/libnds/lib\libul.a(ulib.o) (sin)
d:/devkitpro/devkitarm/bin/../lib/gcc/arm-eabi/4.5.1/../../../../arm-eabi/lib\libm.a(lib_a-w_pow.o)
                              d:/devkitPro/libnds/lib\libpng.a(pngrtran.o) (pow)
d:/devkitpro/devkitarm/bin/../lib/gcc/arm-eabi/4.5.1/../../../../arm-eabi/lib\libm.a(lib_a-e_pow.o)
                              d:/devkitpro/devkitarm/bin/../lib/gcc/arm-eabi/4.5.1/../../../../arm-eabi/lib\libm.a(lib_a-w_pow.o) (__ieee754_pow)
d:/devkitpro/devkitarm/bin/../lib/gcc/arm-eabi/4.5.1/../../../../arm-eabi/lib\libm.a(lib_a-e_rem_pio2.o)
                              d:/devkitpro/devkitarm/bin/../lib/gcc/arm-eabi/4.5.1/../../../../arm-eabi/lib\libm.a(lib_a-s_cos.o) (__ieee754_rem_pio2)
d:/devkitpro/devkitarm/bin/../lib/gcc/arm-eabi/4.5.1/../../../../arm-eabi/lib\libm.a(lib_a-e_sqrt.o)
                              d:/devkitpro/devkitarm/bin/../lib/gcc/arm-eabi/4.5.1/../../../../arm-eabi/lib\libm.a(lib_a-e_pow.o) (__ieee754_sqrt)
d:/devkitpro/devkitarm/bin/../lib/gcc/arm-eabi/4.5.1/../../../../arm-eabi/lib\libm.a(lib_a-k_cos.o)
                              d:/devkitpro/devkitarm/bin/../lib/gcc/arm-eabi/4.5.1/../../../../arm-eabi/lib\libm.a(lib_a-s_cos.o) (__kernel_cos)
d:/devkitpro/devkitarm/bin/../lib/gcc/arm-eabi/4.5.1/../../../../arm-eabi/lib\libm.a(lib_a-k_rem_pio2.o)
                              d:/devkitpro/devkitarm/bin/../lib/gcc/arm-eabi/4.5.1/../../../../arm-eabi/lib\libm.a(lib_a-e_rem_pio2.o) (__kernel_rem_pio2)
d:/devkitpro/devkitarm/bin/../lib/gcc/arm-eabi/4.5.1/../../../../arm-eabi/lib\libm.a(lib_a-k_sin.o)
                              d:/devkitpro/devkitarm/bin/../lib/gcc/arm-eabi/4.5.1/../../../../arm-eabi/lib\libm.a(lib_a-s_cos.o) (__kernel_sin)
d:/devkitpro/devkitarm/bin/../lib/gcc/arm-eabi/4.5.1/../../../../arm-eabi/lib\libm.a(lib_a-s_fabs.o)
                              d:/devkitpro/devkitarm/bin/../lib/gcc/arm-eabi/4.5.1/../../../../arm-eabi/lib\libm.a(lib_a-e_pow.o) (fabs)
d:/devkitpro/devkitarm/bin/../lib/gcc/arm-eabi/4.5.1/../../../../arm-eabi/lib\libm.a(lib_a-s_finite.o)
                              d:/devkitpro/devkitarm/bin/../lib/gcc/arm-eabi/4.5.1/../../../../arm-eabi/lib\libm.a(lib_a-w_pow.o) (finite)
d:/devkitpro/devkitarm/bin/../lib/gcc/arm-eabi/4.5.1/../../../../arm-eabi/lib\libm.a(lib_a-s_floor.o)
                              d:/devkitpro/devkitarm/bin/../lib/gcc/arm-eabi/4.5.1/../../../../arm-eabi/lib\libm.a(lib_a-k_rem_pio2.o) (floor)
d:/devkitpro/devkitarm/bin/../lib/gcc/arm-eabi/4.5.1/../../../../arm-eabi/lib\libm.a(lib_a-s_fpclassify.o)
                              d:/devkitpro/devkitarm/bin/../lib/gcc/arm-eabi/4.5.1/../../../../arm-eabi/lib\libm.a(lib_a-w_pow.o) (__fpclassifyd)
d:/devkitpro/devkitarm/bin/../lib/gcc/arm-eabi/4.5.1/../../../../arm-eabi/lib\libm.a(lib_a-s_lib_ver.o)
                              d:/devkitpro/devkitarm/bin/../lib/gcc/arm-eabi/4.5.1/../../../../arm-eabi/lib\libm.a(lib_a-w_pow.o) (__fdlib_version)
d:/devkitpro/devkitarm/bin/../lib/gcc/arm-eabi/4.5.1/../../../../arm-eabi/lib\libm.a(lib_a-s_matherr.o)
                              d:/devkitpro/devkitarm/bin/../lib/gcc/arm-eabi/4.5.1/../../../../arm-eabi/lib\libm.a(lib_a-w_pow.o) (matherr)
d:/devkitpro/devkitarm/bin/../lib/gcc/arm-eabi/4.5.1/../../../../arm-eabi/lib\libm.a(lib_a-s_nan.o)
                              d:/devkitpro/devkitarm/bin/../lib/gcc/arm-eabi/4.5.1/../../../../arm-eabi/lib\libm.a(lib_a-e_pow.o) (nan)
d:/devkitpro/devkitarm/bin/../lib/gcc/arm-eabi/4.5.1/../../../../arm-eabi/lib\libm.a(lib_a-s_rint.o)
                              d:/devkitpro/devkitarm/bin/../lib/gcc/arm-eabi/4.5.1/../../../../arm-eabi/lib\libm.a(lib_a-w_pow.o) (rint)
d:/devkitpro/devkitarm/bin/../lib/gcc/arm-eabi/4.5.1/../../../../arm-eabi/lib\libm.a(lib_a-s_scalbn.o)
                              d:/devkitpro/devkitarm/bin/../lib/gcc/arm-eabi/4.5.1/../../../../arm-eabi/lib\libm.a(lib_a-e_pow.o) (scalbn)
d:/devkitpro/devkitarm/bin/../lib/gcc/arm-eabi/4.5.1/../../../../arm-eabi/lib\libm.a(lib_a-s_copysign.o)
                              d:/devkitpro/devkitarm/bin/../lib/gcc/arm-eabi/4.5.1/../../../../arm-eabi/lib\libm.a(lib_a-s_scalbn.o) (copysign)
d:/devkitpro/devkitarm/bin/../lib/gcc/arm-eabi/4.5.1\libgcc.a(_udivsi3.o)
                              d:/devkitPro/libnds/lib\libul.a(libLoadPng.o) (__aeabi_uidiv)
d:/devkitpro/devkitarm/bin/../lib/gcc/arm-eabi/4.5.1\libgcc.a(_divsi3.o)
                              d:/devkitPro/libnds/lib\libul.a(ulDrawImage.o) (__aeabi_idiv)
d:/devkitpro/devkitarm/bin/../lib/gcc/arm-eabi/4.5.1\libgcc.a(_dvmd_tls.o)
                              d:/devkitpro/devkitarm/bin/../lib/gcc/arm-eabi/4.5.1\libgcc.a(_udivsi3.o) (__aeabi_idiv0)
d:/devkitpro/devkitarm/bin/../lib/gcc/arm-eabi/4.5.1\libgcc.a(_arm_addsubdf3.o)
                              d:/devkitPro/libnds/lib\libpng.a(pngrtran.o) (__aeabi_dsub)
d:/devkitpro/devkitarm/bin/../lib/gcc/arm-eabi/4.5.1\libgcc.a(_arm_muldivdf3.o)
                              d:/devkitPro/libnds/lib\libul.a(ulib.o) (__aeabi_dmul)
d:/devkitpro/devkitarm/bin/../lib/gcc/arm-eabi/4.5.1\libgcc.a(_arm_cmpdf2.o)
                              d:/devkitpro/devkitarm/bin/../lib/gcc/arm-eabi/4.5.1/../../../../arm-eabi/lib\libm.a(lib_a-w_pow.o) (__aeabi_dcmpeq)
d:/devkitpro/devkitarm/bin/../lib/gcc/arm-eabi/4.5.1\libgcc.a(_arm_fixdfsi.o)
                              d:/devkitPro/libnds/lib\libul.a(ulib.o) (__aeabi_d2iz)
d:/devkitpro/devkitarm/bin/../lib/gcc/arm-eabi/4.5.1\libgcc.a(_arm_fixunsdfsi.o)
                              d:/devkitPro/libnds/lib\libpng.a(pngrtran.o) (__aeabi_d2uiz)
d:/devkitpro/devkitarm/bin/../lib/gcc/arm-eabi/4.5.1\libgcc.a(_arm_truncdfsf2.o)
                              d:/devkitPro/libnds/lib\libpng.a(pngrtran.o) (__aeabi_d2f)
d:/devkitpro/devkitarm/bin/../lib/gcc/arm-eabi/4.5.1\libgcc.a(_arm_addsubsf3.o)
                              d:/devkitPro/libnds/lib\libpng.a(pngget.o) (__aeabi_ui2f)
d:/devkitpro/devkitarm/bin/../lib/gcc/arm-eabi/4.5.1\libgcc.a(_arm_muldivsf3.o)
                              d:/devkitPro/libnds/lib\libul.a(ulib.o) (__aeabi_fmul)
d:/devkitpro/devkitarm/bin/../lib/gcc/arm-eabi/4.5.1\libgcc.a(_arm_cmpsf2.o)
                              d:/devkitPro/libnds/lib\libpng.a(pngrtran.o) (__aeabi_fcmpeq)
d:/devkitpro/devkitarm/bin/../lib/gcc/arm-eabi/4.5.1\libgcc.a(_muldi3.o)
                              d:/devkitPro/libnds/lib\libnds9.a(videoGL.o) (__aeabi_lmul)
d:/devkitpro/devkitarm/bin/../lib/gcc/arm-eabi/4.5.1/../../../../arm-eabi/lib\libg.a(lib_a-abort.o)
                              d:/devkitPro/libnds/lib\libpng.a(pngread.o) (abort)
d:/devkitpro/devkitarm/bin/../lib/gcc/arm-eabi/4.5.1/../../../../arm-eabi/lib\libg.a(lib_a-bsearch.o)
                              d:/devkitPro/libnds/lib\libnds9.a(trig.o) (bsearch)
d:/devkitpro/devkitarm/bin/../lib/gcc/arm-eabi/4.5.1/../../../../arm-eabi/lib\libg.a(lib_a-errno.o)
                              d:/devkitpro/devkitarm/bin/../lib/gcc/arm-eabi/4.5.1/../../../../arm-eabi/lib\libm.a(lib_a-w_pow.o) (__errno)
d:/devkitpro/devkitarm/bin/../lib/gcc/arm-eabi/4.5.1/../../../../arm-eabi/lib\libg.a(lib_a-fprintf.o)
                              d:/devkitPro/libnds/lib\libpng.a(pngerror.o) (fprintf)
d:/devkitpro/devkitarm/bin/../lib/gcc/arm-eabi/4.5.1/../../../../arm-eabi/lib\libg.a(lib_a-fread.o)
                              d:/devkitPro/libnds/lib\libpng.a(pngrio.o) (fread)
d:/devkitpro/devkitarm/bin/../lib/gcc/arm-eabi/4.5.1/../../../../arm-eabi/lib\libg.a(lib_a-freer.o)
                              d:/devkitpro/devkitarm/bin/../lib/gcc/arm-eabi/4.5.1/../../../../arm-eabi/lib\libg.a(lib_a-fread.o) (_free_r)
d:/devkitpro/devkitarm/bin/../lib/gcc/arm-eabi/4.5.1/../../../../arm-eabi/lib\libg.a(lib_a-impure.o)
                              d:/devkitPro/libnds/lib\libpng.a(pngerror.o) (_impure_ptr)
d:/devkitpro/devkitarm/bin/../lib/gcc/arm-eabi/4.5.1/../../../../arm-eabi/lib\libg.a(lib_a-init.o)
                              d:/devkitpro/devkitarm/bin/../lib/gcc/arm-eabi/4.5.1/../../../../arm-eabi/lib/ds_arm9_crt0.o (__libc_init_array)
d:/devkitpro/devkitarm/bin/../lib/gcc/arm-eabi/4.5.1/../../../../arm-eabi/lib\libg.a(lib_a-malloc.o)
                              d:/devkitPro/libnds/lib\libul.a(drawing.o) (malloc)
d:/devkitpro/devkitarm/bin/../lib/gcc/arm-eabi/4.5.1/../../../../arm-eabi/lib\libg.a(lib_a-mallocr.o)
                              d:/devkitpro/devkitarm/bin/../lib/gcc/arm-eabi/4.5.1/../../../../arm-eabi/lib\libg.a(lib_a-malloc.o) (_malloc_r)
d:/devkitpro/devkitarm/bin/../lib/gcc/arm-eabi/4.5.1/../../../../arm-eabi/lib\libg.a(lib_a-memcmp.o)
                              d:/devkitPro/libnds/lib\libpng.a(png.o) (memcmp)
d:/devkitpro/devkitarm/bin/../lib/gcc/arm-eabi/4.5.1/../../../../arm-eabi/lib\libg.a(lib_a-memcpy.o)
                              d:/devkitPro/libnds/lib\libul.a(VirtualFile.o) (memcpy)
d:/devkitpro/devkitarm/bin/../lib/gcc/arm-eabi/4.5.1/../../../../arm-eabi/lib\libg.a(lib_a-memmove.o)
                              d:/devkitPro/libnds/lib\libul.a(texVramManager.o) (memmove)
d:/devkitpro/devkitarm/bin/../lib/gcc/arm-eabi/4.5.1/../../../../arm-eabi/lib\libg.a(lib_a-memset.o)
                              d:/devkitPro/libnds/lib\libul.a(drawing.o) (memset)
d:/devkitpro/devkitarm/bin/../lib/gcc/arm-eabi/4.5.1/../../../../arm-eabi/lib\libg.a(lib_a-mlock.o)
                              d:/devkitpro/devkitarm/bin/../lib/gcc/arm-eabi/4.5.1/../../../../arm-eabi/lib\libg.a(lib_a-freer.o) (__malloc_lock)
d:/devkitpro/devkitarm/bin/../lib/gcc/arm-eabi/4.5.1/../../../../arm-eabi/lib\libg.a(lib_a-realloc.o)
                              d:/devkitPro/libnds/lib\libul.a(texVramManager.o) (realloc)
d:/devkitpro/devkitarm/bin/../lib/gcc/arm-eabi/4.5.1/../../../../arm-eabi/lib\libg.a(lib_a-reallocr.o)
                              d:/devkitpro/devkitarm/bin/../lib/gcc/arm-eabi/4.5.1/../../../../arm-eabi/lib\libg.a(lib_a-realloc.o) (_realloc_r)
d:/devkitpro/devkitarm/bin/../lib/gcc/arm-eabi/4.5.1/../../../../arm-eabi/lib\libg.a(lib_a-refill.o)
                              d:/devkitpro/devkitarm/bin/../lib/gcc/arm-eabi/4.5.1/../../../../arm-eabi/lib\libg.a(lib_a-fread.o) (__srefill_r)
d:/devkitpro/devkitarm/bin/../lib/gcc/arm-eabi/4.5.1/../../../../arm-eabi/lib\libg.a(lib_a-setjmp.o)
                              d:/devkitPro/libnds/lib\libul.a(libLoadPng.o) (setjmp)
d:/devkitpro/devkitarm/bin/../lib/gcc/arm-eabi/4.5.1/../../../../arm-eabi/lib\libg.a(lib_a-signal.o)
                              d:/devkitpro/devkitarm/bin/../lib/gcc/arm-eabi/4.5.1/../../../../arm-eabi/lib\libg.a(lib_a-abort.o) (raise)
d:/devkitpro/devkitarm/bin/../lib/gcc/arm-eabi/4.5.1/../../../../arm-eabi/lib\libg.a(lib_a-snprintf.o)
                              d:/devkitPro/libnds/lib\libpng.a(png.o) (snprintf)
d:/devkitpro/devkitarm/bin/../lib/gcc/arm-eabi/4.5.1/../../../../arm-eabi/lib\libg.a(lib_a-strcmp.o)
                              d:/devkitPro/libnds/lib\libul.a(text.o) (strcmp)
d:/devkitpro/devkitarm/bin/../lib/gcc/arm-eabi/4.5.1/../../../../arm-eabi/lib\libg.a(lib_a-strlen.o)
                              d:/devkitPro/libnds/lib\libul.a(VirtualFile.o) (strlen)
d:/devkitpro/devkitarm/bin/../lib/gcc/arm-eabi/4.5.1/../../../../arm-eabi/lib\libg.a(lib_a-strtod.o)
                              d:/devkitPro/libnds/lib\libpng.a(pngrutil.o) (strtod)
d:/devkitpro/devkitarm/bin/../lib/gcc/arm-eabi/4.5.1/../../../../arm-eabi/lib\libg.a(lib_a-svfprintf.o)
                              d:/devkitpro/devkitarm/bin/../lib/gcc/arm-eabi/4.5.1/../../../../arm-eabi/lib\libg.a(lib_a-snprintf.o) (_svfprintf_r)
d:/devkitpro/devkitarm/bin/../lib/gcc/arm-eabi/4.5.1/../../../../arm-eabi/lib\libg.a(lib_a-vfprintf.o)
                              d:/devkitpro/devkitarm/bin/../lib/gcc/arm-eabi/4.5.1/../../../../arm-eabi/lib\libg.a(lib_a-fprintf.o) (_vfprintf_r)
d:/devkitpro/devkitarm/bin/../lib/gcc/arm-eabi/4.5.1/../../../../arm-eabi/lib\libg.a(lib_a-wcrtomb.o)
                              d:/devkitpro/devkitarm/bin/../lib/gcc/arm-eabi/4.5.1/../../../../arm-eabi/lib\libg.a(lib_a-svfprintf.o) (_wcrtomb_r)
d:/devkitpro/devkitarm/bin/../lib/gcc/arm-eabi/4.5.1/../../../../arm-eabi/lib\libg.a(lib_a-wcsrtombs.o)
                              d:/devkitpro/devkitarm/bin/../lib/gcc/arm-eabi/4.5.1/../../../../arm-eabi/lib\libg.a(lib_a-svfprintf.o) (_wcsrtombs_r)
d:/devkitpro/devkitarm/bin/../lib/gcc/arm-eabi/4.5.1/../../../../arm-eabi/lib\libg.a(lib_a-wctomb_r.o)
                              d:/devkitpro/devkitarm/bin/../lib/gcc/arm-eabi/4.5.1/../../../../arm-eabi/lib\libg.a(lib_a-wcrtomb.o) (__wctomb)
d:/devkitpro/devkitarm/bin/../lib/gcc/arm-eabi/4.5.1/../../../../arm-eabi/lib\libg.a(lib_a-wsetup.o)
                              d:/devkitpro/devkitarm/bin/../lib/gcc/arm-eabi/4.5.1/../../../../arm-eabi/lib\libg.a(lib_a-vfprintf.o) (__swsetup_r)
d:/devkitpro/devkitarm/bin/../lib/gcc/arm-eabi/4.5.1/../../../../arm-eabi/lib\libg.a(lib_a-dtoa.o)
                              d:/devkitpro/devkitarm/bin/../lib/gcc/arm-eabi/4.5.1/../../../../arm-eabi/lib\libg.a(lib_a-svfprintf.o) (_dtoa_r)
d:/devkitpro/devkitarm/bin/../lib/gcc/arm-eabi/4.5.1/../../../../arm-eabi/lib\libg.a(lib_a-fflush.o)
                              d:/devkitpro/devkitarm/bin/../lib/gcc/arm-eabi/4.5.1/../../../../arm-eabi/lib\libg.a(lib_a-refill.o) (_fflush_r)
d:/devkitpro/devkitarm/bin/../lib/gcc/arm-eabi/4.5.1/../../../../arm-eabi/lib\libg.a(lib_a-findfp.o)
                              d:/devkitpro/devkitarm/bin/../lib/gcc/arm-eabi/4.5.1/../../../../arm-eabi/lib\libg.a(lib_a-fread.o) (__sinit)
d:/devkitpro/devkitarm/bin/../lib/gcc/arm-eabi/4.5.1/../../../../arm-eabi/lib\libg.a(lib_a-fwalk.o)
                              d:/devkitpro/devkitarm/bin/../lib/gcc/arm-eabi/4.5.1/../../../../arm-eabi/lib\libg.a(lib_a-refill.o) (_fwalk)
d:/devkitpro/devkitarm/bin/../lib/gcc/arm-eabi/4.5.1/../../../../arm-eabi/lib\libg.a(lib_a-gdtoa-gethex.o)
                              d:/devkitpro/devkitarm/bin/../lib/gcc/arm-eabi/4.5.1/../../../../arm-eabi/lib\libg.a(lib_a-strtod.o) (__gethex)
d:/devkitpro/devkitarm/bin/../lib/gcc/arm-eabi/4.5.1/../../../../arm-eabi/lib\libg.a(lib_a-gdtoa-hexnan.o)
                              d:/devkitpro/devkitarm/bin/../lib/gcc/arm-eabi/4.5.1/../../../../arm-eabi/lib\libg.a(lib_a-strtod.o) (__hexnan)
d:/devkitpro/devkitarm/bin/../lib/gcc/arm-eabi/4.5.1/../../../../arm-eabi/lib\libg.a(lib_a-locale.o)
                              d:/devkitpro/devkitarm/bin/../lib/gcc/arm-eabi/4.5.1/../../../../arm-eabi/lib\libg.a(lib_a-svfprintf.o) (__locale_charset)
d:/devkitpro/devkitarm/bin/../lib/gcc/arm-eabi/4.5.1/../../../../arm-eabi/lib\libg.a(lib_a-makebuf.o)
                              d:/devkitpro/devkitarm/bin/../lib/gcc/arm-eabi/4.5.1/../../../../arm-eabi/lib\libg.a(lib_a-refill.o) (__smakebuf_r)
d:/devkitpro/devkitarm/bin/../lib/gcc/arm-eabi/4.5.1/../../../../arm-eabi/lib\libg.a(lib_a-mbtowc_r.o)
                              d:/devkitpro/devkitarm/bin/../lib/gcc/arm-eabi/4.5.1/../../../../arm-eabi/lib\libg.a(lib_a-locale.o) (__utf8_mbtowc)
d:/devkitpro/devkitarm/bin/../lib/gcc/arm-eabi/4.5.1/../../../../arm-eabi/lib\libg.a(lib_a-memchr.o)
                              d:/devkitpro/devkitarm/bin/../lib/gcc/arm-eabi/4.5.1/../../../../arm-eabi/lib\libg.a(lib_a-svfprintf.o) (memchr)
d:/devkitpro/devkitarm/bin/../lib/gcc/arm-eabi/4.5.1/../../../../arm-eabi/lib\libg.a(lib_a-mprec.o)
                              d:/devkitpro/devkitarm/bin/../lib/gcc/arm-eabi/4.5.1/../../../../arm-eabi/lib\libg.a(lib_a-strtod.o) (_Balloc)
d:/devkitpro/devkitarm/bin/../lib/gcc/arm-eabi/4.5.1/../../../../arm-eabi/lib\libg.a(lib_a-sf_nan.o)
                              d:/devkitpro/devkitarm/bin/../lib/gcc/arm-eabi/4.5.1/../../../../arm-eabi/lib\libg.a(lib_a-strtod.o) (nanf)
d:/devkitpro/devkitarm/bin/../lib/gcc/arm-eabi/4.5.1/../../../../arm-eabi/lib\libg.a(lib_a-stdio.o)
                              d:/devkitpro/devkitarm/bin/../lib/gcc/arm-eabi/4.5.1/../../../../arm-eabi/lib\libg.a(lib_a-findfp.o) (__sread)
d:/devkitpro/devkitarm/bin/../lib/gcc/arm-eabi/4.5.1/../../../../arm-eabi/lib\libg.a(lib_a-strcasecmp.o)
                              d:/devkitpro/devkitarm/bin/../lib/gcc/arm-eabi/4.5.1/../../../../arm-eabi/lib\libg.a(lib_a-locale.o) (strcasecmp)
d:/devkitpro/devkitarm/bin/../lib/gcc/arm-eabi/4.5.1/../../../../arm-eabi/lib\libg.a(lib_a-strcat.o)
                              d:/devkitpro/devkitarm/bin/../lib/gcc/arm-eabi/4.5.1/../../../../arm-eabi/lib\libg.a(lib_a-locale.o) (strcat)
d:/devkitpro/devkitarm/bin/../lib/gcc/arm-eabi/4.5.1/../../../../arm-eabi/lib\libg.a(lib_a-strchr.o)
                              d:/devkitpro/devkitarm/bin/../lib/gcc/arm-eabi/4.5.1/../../../../arm-eabi/lib\libg.a(lib_a-locale.o) (strchr)
d:/devkitpro/devkitarm/bin/../lib/gcc/arm-eabi/4.5.1/../../../../arm-eabi/lib\libg.a(lib_a-strcpy.o)
                              d:/devkitpro/devkitarm/bin/../lib/gcc/arm-eabi/4.5.1/../../../../arm-eabi/lib\libg.a(lib_a-locale.o) (strcpy)
d:/devkitpro/devkitarm/bin/../lib/gcc/arm-eabi/4.5.1/../../../../arm-eabi/lib\libg.a(lib_a-strlcpy.o)
                              d:/devkitpro/devkitarm/bin/../lib/gcc/arm-eabi/4.5.1/../../../../arm-eabi/lib\libg.a(lib_a-locale.o) (strlcpy)
d:/devkitpro/devkitarm/bin/../lib/gcc/arm-eabi/4.5.1/../../../../arm-eabi/lib\libg.a(lib_a-strncasecmp.o)
                              d:/devkitpro/devkitarm/bin/../lib/gcc/arm-eabi/4.5.1/../../../../arm-eabi/lib\libg.a(lib_a-locale.o) (strncasecmp)
d:/devkitpro/devkitarm/bin/../lib/gcc/arm-eabi/4.5.1/../../../../arm-eabi/lib\libg.a(lib_a-strncmp.o)
                              d:/devkitpro/devkitarm/bin/../lib/gcc/arm-eabi/4.5.1/../../../../arm-eabi/lib\libg.a(lib_a-strtod.o) (strncmp)
d:/devkitpro/devkitarm/bin/../lib/gcc/arm-eabi/4.5.1/../../../../arm-eabi/lib\libg.a(lib_a-strncpy.o)
                              d:/devkitpro/devkitarm/bin/../lib/gcc/arm-eabi/4.5.1/../../../../arm-eabi/lib\libg.a(lib_a-locale.o) (strncpy)
d:/devkitpro/devkitarm/bin/../lib/gcc/arm-eabi/4.5.1/../../../../arm-eabi/lib\libg.a(lib_a-strtol.o)
                              d:/devkitpro/devkitarm/bin/../lib/gcc/arm-eabi/4.5.1/../../../../arm-eabi/lib\libg.a(lib_a-locale.o) (_strtol_r)
d:/devkitpro/devkitarm/bin/../lib/gcc/arm-eabi/4.5.1/../../../../arm-eabi/lib\libg.a(lib_a-svfiprintf.o)
                              d:/devkitpro/devkitarm/bin/../lib/gcc/arm-eabi/4.5.1/../../../../arm-eabi/lib\libg.a(lib_a-svfprintf.o) (__ssprint_r)
d:/devkitpro/devkitarm/bin/../lib/gcc/arm-eabi/4.5.1/../../../../arm-eabi/lib\libg.a(lib_a-vfiprintf.o)
                              d:/devkitpro/devkitarm/bin/../lib/gcc/arm-eabi/4.5.1/../../../../arm-eabi/lib\libg.a(lib_a-vfprintf.o) (__sprint_r)
d:/devkitpro/devkitarm/bin/../lib/gcc/arm-eabi/4.5.1/../../../../arm-eabi/lib\libg.a(lib_a-wcsnrtombs.o)
                              d:/devkitpro/devkitarm/bin/../lib/gcc/arm-eabi/4.5.1/../../../../arm-eabi/lib\libg.a(lib_a-wcsrtombs.o) (_wcsnrtombs_r)
d:/devkitpro/devkitarm/bin/../lib/gcc/arm-eabi/4.5.1/../../../../arm-eabi/lib\libg.a(lib_a-callocr.o)
                              d:/devkitpro/devkitarm/bin/../lib/gcc/arm-eabi/4.5.1/../../../../arm-eabi/lib\libg.a(lib_a-mprec.o) (_calloc_r)
d:/devkitpro/devkitarm/bin/../lib/gcc/arm-eabi/4.5.1/../../../../arm-eabi/lib\libg.a(lib_a-ctype_.o)
                              d:/devkitpro/devkitarm/bin/../lib/gcc/arm-eabi/4.5.1/../../../../arm-eabi/lib\libg.a(lib_a-locale.o) (__set_ctype)
d:/devkitpro/devkitarm/bin/../lib/gcc/arm-eabi/4.5.1/../../../../arm-eabi/lib\libg.a(lib_a-fclose.o)
                              d:/devkitpro/devkitarm/bin/../lib/gcc/arm-eabi/4.5.1/../../../../arm-eabi/lib\libg.a(lib_a-findfp.o) (fclose)
d:/devkitpro/devkitarm/bin/../lib/gcc/arm-eabi/4.5.1/../../../../arm-eabi/lib\libg.a(lib_a-fputwc.o)
                              d:/devkitpro/devkitarm/bin/../lib/gcc/arm-eabi/4.5.1/../../../../arm-eabi/lib\libg.a(lib_a-vfiprintf.o) (_fputwc_r)
d:/devkitpro/devkitarm/bin/../lib/gcc/arm-eabi/4.5.1/../../../../arm-eabi/lib\libg.a(lib_a-fvwrite.o)
                              d:/devkitpro/devkitarm/bin/../lib/gcc/arm-eabi/4.5.1/../../../../arm-eabi/lib\libg.a(lib_a-vfiprintf.o) (__sfvwrite_r)
d:/devkitpro/devkitarm/bin/../lib/gcc/arm-eabi/4.5.1/../../../../arm-eabi/lib\libg.a(lib_a-getenv_r.o)
                              d:/devkitpro/devkitarm/bin/../lib/gcc/arm-eabi/4.5.1/../../../../arm-eabi/lib\libg.a(lib_a-locale.o) (_getenv_r)
d:/devkitpro/devkitarm/bin/../lib/gcc/arm-eabi/4.5.1/../../../../arm-eabi/lib\libg.a(lib_a-wbuf.o)
                              d:/devkitpro/devkitarm/bin/../lib/gcc/arm-eabi/4.5.1/../../../../arm-eabi/lib\libg.a(lib_a-fputwc.o) (__swbuf_r)
d:/devkitpro/devkitarm/bin/../lib/gcc/arm-eabi/4.5.1/../../../../arm-eabi/lib\libg.a(lib_a-environ.o)
                              d:/devkitpro/devkitarm/bin/../lib/gcc/arm-eabi/4.5.1/../../../../arm-eabi/lib\libg.a(lib_a-getenv_r.o) (environ)
d:/devkitpro/devkitarm/bin/../lib/gcc/arm-eabi/4.5.1/../../../../arm-eabi/lib\libg.a(lib_a-envlock.o)
                              d:/devkitpro/devkitarm/bin/../lib/gcc/arm-eabi/4.5.1/../../../../arm-eabi/lib\libg.a(lib_a-getenv_r.o) (__env_lock)
d:/devkitpro/devkitarm/bin/../lib/gcc/arm-eabi/4.5.1/../../../../arm-eabi/lib\libsysbase.a(close.o)
                              d:/devkitpro/devkitarm/bin/../lib/gcc/arm-eabi/4.5.1/../../../../arm-eabi/lib\libg.a(lib_a-stdio.o) (_close_r)
d:/devkitpro/devkitarm/bin/../lib/gcc/arm-eabi/4.5.1/../../../../arm-eabi/lib\libsysbase.a(fstat.o)
                              d:/devkitpro/devkitarm/bin/../lib/gcc/arm-eabi/4.5.1/../../../../arm-eabi/lib\libg.a(lib_a-makebuf.o) (_fstat_r)
d:/devkitpro/devkitarm/bin/../lib/gcc/arm-eabi/4.5.1/../../../../arm-eabi/lib\libsysbase.a(getpid.o)
                              d:/devkitpro/devkitarm/bin/../lib/gcc/arm-eabi/4.5.1/../../../../arm-eabi/lib\libg.a(lib_a-signal.o) (_getpid_r)
d:/devkitpro/devkitarm/bin/../lib/gcc/arm-eabi/4.5.1/../../../../arm-eabi/lib\libsysbase.a(isatty.o)
                              d:/devkitpro/devkitarm/bin/../lib/gcc/arm-eabi/4.5.1/../../../../arm-eabi/lib\libg.a(lib_a-makebuf.o) (_isatty_r)
d:/devkitpro/devkitarm/bin/../lib/gcc/arm-eabi/4.5.1/../../../../arm-eabi/lib\libsysbase.a(kill.o)
                              d:/devkitpro/devkitarm/bin/../lib/gcc/arm-eabi/4.5.1/../../../../arm-eabi/lib\libg.a(lib_a-signal.o) (_kill_r)
d:/devkitpro/devkitarm/bin/../lib/gcc/arm-eabi/4.5.1/../../../../arm-eabi/lib\libsysbase.a(lseek.o)
                              d:/devkitpro/devkitarm/bin/../lib/gcc/arm-eabi/4.5.1/../../../../arm-eabi/lib\libg.a(lib_a-stdio.o) (_lseek_r)
d:/devkitpro/devkitarm/bin/../lib/gcc/arm-eabi/4.5.1/../../../../arm-eabi/lib\libsysbase.a(read.o)
                              d:/devkitpro/devkitarm/bin/../lib/gcc/arm-eabi/4.5.1/../../../../arm-eabi/lib\libg.a(lib_a-stdio.o) (_read_r)
d:/devkitpro/devkitarm/bin/../lib/gcc/arm-eabi/4.5.1/../../../../arm-eabi/lib\libsysbase.a(sbrk.o)
                              d:/devkitpro/devkitarm/bin/../lib/gcc/arm-eabi/4.5.1/../../../../arm-eabi/lib\libg.a(lib_a-freer.o) (_sbrk_r)
d:/devkitpro/devkitarm/bin/../lib/gcc/arm-eabi/4.5.1/../../../../arm-eabi/lib\libsysbase.a(times.o)
                              d:/devkitPro/libnds/lib\libnds9.a(initSystem.o) (punixTime)
d:/devkitpro/devkitarm/bin/../lib/gcc/arm-eabi/4.5.1/../../../../arm-eabi/lib\libsysbase.a(write.o)
                              d:/devkitpro/devkitarm/bin/../lib/gcc/arm-eabi/4.5.1/../../../../arm-eabi/lib\libg.a(lib_a-stdio.o) (_write_r)
d:/devkitpro/devkitarm/bin/../lib/gcc/arm-eabi/4.5.1/../../../../arm-eabi/lib\libsysbase.a(_exit.o)
                              d:/devkitpro/devkitarm/bin/../lib/gcc/arm-eabi/4.5.1/../../../../arm-eabi/lib\libg.a(lib_a-abort.o) (_exit)
d:/devkitpro/devkitarm/bin/../lib/gcc/arm-eabi/4.5.1/../../../../arm-eabi/lib\libsysbase.a(malloc_vars.o)
                              d:/devkitpro/devkitarm/bin/../lib/gcc/arm-eabi/4.5.1/../../../../arm-eabi/lib/ds_arm9_crt0.o (fake_heap_end)
d:/devkitpro/devkitarm/bin/../lib/gcc/arm-eabi/4.5.1/../../../../arm-eabi/lib\libsysbase.a(build_argv.o)
                              d:/devkitpro/devkitarm/bin/../lib/gcc/arm-eabi/4.5.1/../../../../arm-eabi/lib/ds_arm9_crt0.o (build_argv)
d:/devkitpro/devkitarm/bin/../lib/gcc/arm-eabi/4.5.1/../../../../arm-eabi/lib\libsysbase.a(syscall_support.o)
                              d:/devkitPro/libnds/lib\libnds9.a(initSystem.o) (__syscalls)
d:/devkitpro/devkitarm/bin/../lib/gcc/arm-eabi/4.5.1/../../../../arm-eabi/lib\libsysbase.a(handle_manager.o)
                              d:/devkitpro/devkitarm/bin/../lib/gcc/arm-eabi/4.5.1/../../../../arm-eabi/lib\libsysbase.a(close.o) (__release_handle)
d:/devkitpro/devkitarm/bin/../lib/gcc/arm-eabi/4.5.1/../../../../arm-eabi/lib\libsysbase.a(iosupport.o)
                              d:/devkitpro/devkitarm/bin/../lib/gcc/arm-eabi/4.5.1/../../../../arm-eabi/lib\libsysbase.a(close.o) (devoptab_list)
d:/devkitpro/devkitarm/bin/../lib/gcc/arm-eabi/4.5.1\libgcc.a(_aeabi_uldivmod.o)
                              d:/devkitpro/devkitarm/bin/../lib/gcc/arm-eabi/4.5.1/../../../../arm-eabi/lib\libg.a(lib_a-svfprintf.o) (__aeabi_uldivmod)
d:/devkitpro/devkitarm/bin/../lib/gcc/arm-eabi/4.5.1\libgcc.a(bpabi.o)
                              d:/devkitpro/devkitarm/bin/../lib/gcc/arm-eabi/4.5.1\libgcc.a(_aeabi_uldivmod.o) (__gnu_uldivmod_helper)
d:/devkitpro/devkitarm/bin/../lib/gcc/arm-eabi/4.5.1\libgcc.a(unwind-arm.o)
                              d:/devkitpro/devkitarm/bin/../lib/gcc/arm-eabi/4.5.1\libgcc.a(bpabi.o) (__aeabi_unwind_cpp_pr0)
d:/devkitpro/devkitarm/bin/../lib/gcc/arm-eabi/4.5.1\libgcc.a(libunwind.o)
                              d:/devkitpro/devkitarm/bin/../lib/gcc/arm-eabi/4.5.1\libgcc.a(unwind-arm.o) (restore_core_regs)
d:/devkitpro/devkitarm/bin/../lib/gcc/arm-eabi/4.5.1\libgcc.a(pr-support.o)
                              d:/devkitpro/devkitarm/bin/../lib/gcc/arm-eabi/4.5.1\libgcc.a(unwind-arm.o) (__gnu_unwind_execute)
d:/devkitpro/devkitarm/bin/../lib/gcc/arm-eabi/4.5.1\libgcc.a(_divdi3.o)
                              d:/devkitpro/devkitarm/bin/../lib/gcc/arm-eabi/4.5.1\libgcc.a(bpabi.o) (__divdi3)
d:/devkitpro/devkitarm/bin/../lib/gcc/arm-eabi/4.5.1\libgcc.a(_udivdi3.o)
                              d:/devkitpro/devkitarm/bin/../lib/gcc/arm-eabi/4.5.1\libgcc.a(bpabi.o) (__udivdi3)
d:/devkitpro/devkitarm/bin/../lib/gcc/arm-eabi/4.5.1\libgcc.a(_clzsi2.o)
                              d:/devkitpro/devkitarm/bin/../lib/gcc/arm-eabi/4.5.1\libgcc.a(_divdi3.o) (__clzsi2)

Allocating common symbols
Common symbol       size              file

ul_colorKeyValue32  0x4               d:/devkitPro/libnds/lib\libul.a(drawing.o)
fifo_datamsg_data   0x40              d:/devkitPro/libnds/lib\libnds9.a(fifosystem.o)
ulTextureMax        0x4               d:/devkitPro/libnds/lib\libul.a(texVramManager.o)
__dsimode           0x1               d:/devkitPro/libnds/lib\libnds9.a(initSystem.o)
ulTextureParams     0x4               d:/devkitPro/libnds/lib\libul.a(texVramManager.o)
ul_cos              0x400             d:/devkitPro/libnds/lib\libul.a(ulib.o)
fifo_buffer         0x800             d:/devkitPro/libnds/lib\libnds9.a(fifosystem.o)
ulTexRamBlocksNb    0x4               d:/devkitPro/libnds/lib\libul.a(texVramManager.o)
fifo_value32_func   0x40              d:/devkitPro/libnds/lib\libnds9.a(fifosystem.o)
fifo_address_func   0x40              d:/devkitPro/libnds/lib\libnds9.a(fifosystem.o)
ulTexPalBlocksNb    0x4               d:/devkitPro/libnds/lib\libul.a(texPalManager.o)
__hexdig            0x100             d:/devkitpro/devkitarm/bin/../lib/gcc/arm-eabi/4.5.1/../../../../arm-eabi/lib\libg.a(lib_a-gdtoa-gethex.o)
ul_colorKeyValue    0x2               d:/devkitPro/libnds/lib\libul.a(drawing.o)
VirtualFileSources  0x40              d:/devkitPro/libnds/lib\libul.a(VirtualFile.o)
ulDualScreenSprites
                    0x400             d:/devkitPro/libnds/lib\libul.a(drawing.o)
ulTextureNb         0x4               d:/devkitPro/libnds/lib\libul.a(texVramManager.o)
fifo_value32_data   0x40              d:/devkitPro/libnds/lib\libnds9.a(fifosystem.o)
ulTexRamBlocksMax   0x4               d:/devkitPro/libnds/lib\libul.a(texVramManager.o)
ulTexPalBlocks      0x4               d:/devkitPro/libnds/lib\libul.a(texPalManager.o)
ul_virtualFileList  0x4               d:/devkitPro/libnds/lib\libul.a(VirtualFile.o)
fifo_value32_queue  0x40              d:/devkitPro/libnds/lib\libnds9.a(fifosystem.o)
fifo_data_queue     0x40              d:/devkitPro/libnds/lib\libnds9.a(fifosystem.o)
ulTexRamBlocks      0x4               d:/devkitPro/libnds/lib\libul.a(texVramManager.o)
ul_autoDepth        0x1               d:/devkitPro/libnds/lib\libul.a(drawing.o)
ul_dualScreenMode   0x1               d:/devkitPro/libnds/lib\libul.a(drawing.o)
ulTexPalBlocksMax   0x4               d:/devkitPro/libnds/lib\libul.a(texPalManager.o)
ul_frameNumber      0x1               d:/devkitPro/libnds/lib\libul.a(drawing.o)
punixTime           0x4               d:/devkitpro/devkitarm/bin/../lib/gcc/arm-eabi/4.5.1/../../../../arm-eabi/lib\libsysbase.a(times.o)
fifo_address_data   0x40              d:/devkitPro/libnds/lib\libnds9.a(fifosystem.o)
ul_sin              0x400             d:/devkitPro/libnds/lib\libul.a(ulib.o)
ul_currentDepth     0x4               d:/devkitPro/libnds/lib\libul.a(drawing.o)
glGlobalData        0x4c              d:/devkitPro/libnds/lib\libnds9.a(videoGL.o)
ulTextureActive     0x4               d:/devkitPro/libnds/lib\libul.a(texVramManager.o)
ul_colorKeyEnabled  0x1               d:/devkitPro/libnds/lib\libul.a(drawing.o)
fifo_datamsg_func   0x40              d:/devkitPro/libnds/lib\libnds9.a(fifosystem.o)
fifo_address_queue  0x40              d:/devkitPro/libnds/lib\libnds9.a(fifosystem.o)

Memory Configuration

Name             Origin             Length             Attributes
rom              0x08000000         0x02000000
ewram            0x02000000         0x003ff000
dtcm             0x0b000000         0x00004000
vectors          0x01000000         0x00000100
itcm             0x01000100         0x00007f00
*default*        0x00000000         0xffffffff

Linker script and memory map

                0x01000000                __vectors_start = 0x1000000
                0x01000100                __itcm_start = 0x1000100
                0x023ff000                __ewram_end = 0x23ff000
                0x023ff000                __eheap_end = 0x23ff000
                0x0b000000                __dtcm_start = 0xb000000
                0x0b004000                __dtcm_top = 0xb004000
                0x0b003ff8                __irq_flags = (__dtcm_top - 0x8)
                0x0b003ffc                __irq_vector = (__dtcm_top - 0x4)
                0x0b003f00                __sp_svc = (__dtcm_top - 0x100)
                0x0b003e00                __sp_irq = (__sp_svc - 0x100)
                0x0b003d00                __sp_usr = (__sp_irq - 0x100)

.init           0x02000000      0x248
                0x02000000                __text_start = .
 *(.init)
 .init          0x02000000      0x230 d:/devkitpro/devkitarm/bin/../lib/gcc/arm-eabi/4.5.1/../../../../arm-eabi/lib/ds_arm9_crt0.o
                0x02000000                _start
 .init          0x02000230        0xc d:/devkitpro/devkitarm/bin/../lib/gcc/arm-eabi/4.5.1/crti.o
                0x02000230                _init
 .init          0x0200023c        0xc d:/devkitpro/devkitarm/bin/../lib/gcc/arm-eabi/4.5.1/crtn.o
                0x02000248                . = ALIGN (0x4)

.plt
 *(.plt)

.text           0x02000250    0x31050
 *(EXCLUDE_FILE(*.itcm*) .text)
 .text          0x02000250        0x0 d:/devkitpro/devkitarm/bin/../lib/gcc/arm-eabi/4.5.1/../../../../arm-eabi/lib/ds_arm9_crt0.o
 .text          0x02000250        0x0 d:/devkitpro/devkitarm/bin/../lib/gcc/arm-eabi/4.5.1/crti.o
 .text          0x02000250       0x94 d:/devkitpro/devkitarm/bin/../lib/gcc/arm-eabi/4.5.1/crtbegin.o
 .text          0x020002e4        0x0 james.png.o
 .text          0x020002e4      0x16c main.o
                0x020002e4                main
 .text          0x02000450      0x15c d:/devkitPro/libnds/lib\libul.a(ulib.o)
                0x02000450                _initSinTables
                0x0200053c                ulInit
                0x02000574                ulTerminate
                0x02000578                ulGetPowerOf2Count
 .text          0x020005ac     0x148c d:/devkitPro/libnds/lib\libul.a(drawing.o)
                0x020005ac                ulInitGfx
                0x02000620                ulInitDualScreenMode
                0x02000754                ulStopDualScreenMode
                0x02000768                ulSetRegCapture
                0x020007cc                ulEndDrawing
                0x020007fc                ulSetScreenWindow
                0x02000a9c                ulSetScreenClipping
                0x02000d40                ulResetScreenClipping
                0x02000fa4                ulEndFrame
                0x020010d0                ulSyncFrame
                0x0200110c                ulResetScreenView
                0x02001350                ulStartDrawing2D
                0x02001404                ulMoveScreenView
                0x0200141c                ulScaleScreenView
                0x02001434                ulRotateScreenView
                0x02001494                ulSetAlpha
                0x020014b4                ulRealizeImage
                0x02001618                ulSetTexture
                0x02001688                ulResetImageProperties
                0x020016d8                ulDeleteImage
                0x02001758                ulCreateImage
                0x020019c4                ulSetScreenBackgroundColor
                0x020019d0                ulSetTransparentColor
 .text          0x02001a38      0xa58 d:/devkitPro/libnds/lib\libul.a(text.o)
                0x02001a38                ulDrawChar1BitToImage
                0x02001b8c                ulCreateFont
                0x02001e94                ulLoadFont
                0x0200203c                ulDeleteFont
                0x02002068                ulDrawTile
                0x02002160                ulDrawChar
                0x0200220c                ulDrawString
                0x020022e0                ulDrawTextBox
                0x02002448                ulSetTextColor
                0x02002458                ulInitText
 .text          0x02002490      0x5fc d:/devkitPro/libnds/lib\libul.a(VirtualFile.o)
                0x02002490                vfsMemClose
                0x02002498                vfsMemGetc
                0x020024dc                vfsMemPutc
                0x02002528                vfsMemGets
                0x020026d4                vfsMemSeek
                0x02002748                vfsMemEof
                0x02002760                vfsMemPuts
                0x0200279c                vfsMemRead
                0x020027f0                vfsMemWrite
                0x0200284c                VirtualFileRegisterSource
                0x0200287c                VirtualFileOpen
                0x02002918                VirtualFileClose
                0x02002950                ulSetVirtualFilenameList
                0x0200296c                ulFindFileInVirtualFilenameList
                0x020029fc                vfsMemOpen
                0x02002a3c                VirtualFileInit
 .text          0x02002a8c      0x8c0 d:/devkitPro/libnds/lib\libul.a(texVramManager.o)
                0x02002a8c                ulTexVramInit
                0x02002aec                ulTexVramAllocBlock
                0x02002c54                ulTexVramFreeBlock
                0x02002da4                ulTexImage2D
                0x02002fa8                ulInitTextures
                0x02002ffc                ulGetNextAvailableTexture
                0x020030e0                ulGenTextures
                0x02003138                ulFreeTextures
                0x0200319c                ulTexParameter
                0x020031d4                ulBindTexture
                0x020031fc                ulBindTextureToGl
                0x02003238                ulSetTexVramParameters
                0x020032d8                ulGetTexVramAvailMemory
                0x02003304                ulGetTexVramTotalMemory
                0x02003314                ulGetTexVramUsedMemory
 .text          0x0200334c      0x584 d:/devkitPro/libnds/lib\libul.a(texPalManager.o)
                0x0200334c                ulTexPalInit
                0x020033ac                ulTexPalAllocBlock
                0x020035bc                ulTexPalFreeBlock
                0x0200370c                uluTexUnloadPal
                0x02003714                ulTexLoadPal
                0x02003760                uluTexLoadPal
                0x020037bc                ulSetTexPalVramParameters
                0x0200385c                ulGetTexPalAvailMemory
                0x02003888                ulGetTexPalTotalMemory
                0x02003898                ulGetTexPalUsedMemory
 .text          0x020038d0      0x190 d:/devkitPro/libnds/lib\libul.a(keys.o)
                0x020038d0                ulReadKeys
 .text          0x02003a60      0x348 d:/devkitPro/libnds/lib\libul.a(ulDrawImage.o)
                0x02003a60                ulDrawImage
 .text          0x02003da8       0xe8 d:/devkitPro/libnds/lib\libul.a(ulCreateImagePalette.o)
                0x02003da8                ulCreateImagePalette
 .text          0x02003e90       0xbc d:/devkitPro/libnds/lib\libul.a(ulDrawGradientRect.o)
                0x02003e90                ulDrawGradientRect
 .text          0x02003f4c       0x68 d:/devkitPro/libnds/lib\libul.a(ulLoadImageFilePNG.o)
                0x02003f4c                ulLoadImageFilePNG
 .text          0x02003fb4       0x7c d:/devkitPro/libnds/lib\libul.a(glWrapper.o)
                0x02003fb4                ulChangeVramAllocation
 .text          0x02004030      0x97c d:/devkitPro/libnds/lib\libul.a(libLoadPng.o)
                0x02004114                ulLoadImagePNG
 .text          0x020049ac        0x0 d:/devkitPro/libnds/lib\libul.a(loading_utility.o)
 .text          0x020049ac      0xa58 d:/devkitPro/libnds/lib\libpng.a(png.o)
                0x020049ac                png_data_freer
                0x020049e4                png_get_io_ptr
                0x020049f0                png_init_io
                0x020049fc                png_get_copyright
                0x02004a08                png_get_libpng_ver
                0x02004a14                png_get_header_ver
                0x02004a20                png_get_header_version
                0x02004a2c                png_access_version_number
                0x02004a38                png_mmx_support
                0x02004a40                png_64bit_product
                0x02004a8c                png_check_cHRM_fixed
                0x02004b88                png_reset_zstream
                0x02004bac                png_handle_as_unknown
                0x02004c14                png_sig_cmp
                0x02004c88                png_check_sig
                0x02004cb0                png_zalloc
                0x02004d04                png_convert_to_rfc1123
                0x02004dc8                png_zfree
                0x02004de0                png_free_data
                0x02005214                png_info_init_3
                0x02005254                png_info_destroy
                0x020052b0                png_info_init
                0x020052d8                png_destroy_info_struct
                0x02005324                png_create_info_struct
                0x0200536c                png_calculate_crc
                0x020053b0                png_reset_crc
                0x020053d4                png_set_sig_bytes
 .text          0x02005404     0x1a04 d:/devkitPro/libnds/lib\libpng.a(pngread.o)
                0x02005404                png_set_read_status_fn
                0x02005410                png_read_destroy
                0x0200565c                png_destroy_read_struct
                0x0200573c                png_read_end
                0x02005be4                png_start_read_image
                0x02005c0c                png_read_row
                0x02006064                png_read_image
                0x020060c8                png_read_rows
                0x02006194                png_read_update_info
                0x020061cc                png_read_info
                0x0200673c                png_read_png
                0x0200690c                png_read_init_3
                0x02006a60                png_read_init_2
                0x02006b28                png_read_init
                0x02006b3c                png_create_read_struct_2
                0x02006de0                png_create_read_struct
 .text          0x02006e08       0xa0 d:/devkitPro/libnds/lib\libpng.a(pngrio.o)
                0x02006e08                png_set_read_fn
                0x02006e3c                png_default_read_data
                0x02006e78                png_read_data
 .text          0x02006ea8     0x5814 d:/devkitPro/libnds/lib\libpng.a(pngrtran.o)
                0x02006ea8                png_set_crc_action
                0x02006f50                png_set_strip_16
                0x02006f64                png_set_strip_alpha
                0x02006f78                png_set_gamma
                0x02007034                png_set_expand
                0x0200705c                png_set_palette_to_rgb
                0x02007084                png_set_expand_gray_1_2_4_to_8
                0x020070a8                png_set_gray_1_2_4_to_8
                0x020070c0                png_set_tRNS_to_alpha
                0x020070e0                png_set_gray_to_rgb
                0x020070fc                png_set_rgb_to_gray_fixed
                0x020071fc                png_set_rgb_to_gray
                0x02007298                png_set_read_user_transform_fn
                0x020072b0                png_read_transform_info
                0x02007508                png_do_unpack
                0x02007658                png_do_unshift
                0x02007870                png_do_chop
                0x020078c8                png_do_read_swap_alpha
                0x02007a08                png_do_read_invert_alpha
                0x02007b08                png_do_read_filler
                0x02007e00                png_do_gray_to_rgb
                0x02007ff4                png_do_rgb_to_gray
                0x02008690                png_build_grayscale_palette
                0x02008744                png_do_gamma
                0x02008b90                png_do_expand_palette
                0x02008e30                png_do_expand
                0x020092ac                png_do_dither
                0x02009420                png_do_read_intrapixel
                0x02009534                png_build_gamma_table
                0x02009c50                png_init_read_transformations
                0x0200a988                png_do_background
                0x0200b9bc                png_set_background
                0x0200ba24                png_do_read_transformations
                0x0200be90                png_set_dither
 .text          0x0200c6bc      0x270 d:/devkitPro/libnds/lib\libpng.a(pngmem.o)
                0x0200c6bc                png_set_mem_fn
                0x0200c6d0                png_get_mem_ptr
                0x0200c6dc                png_memset_check
                0x0200c700                png_memcpy_check
                0x0200c724                png_free_default
                0x0200c748                png_free
                0x0200c78c                png_destroy_struct_2
                0x0200c7d0                png_destroy_struct
                0x0200c7dc                png_malloc_default
                0x0200c804                png_malloc
                0x0200c868                png_malloc_warn
                0x0200c89c                png_create_struct_2
                0x0200c920                png_create_struct
 .text          0x0200c92c      0x128 d:/devkitPro/libnds/lib\libpng.a(pngerror.o)
                0x0200c92c                png_set_error_fn
                0x0200c940                png_get_error_ptr
                0x0200c94c                png_set_strip_error_numbers
                0x0200c964                png_err
 .text          0x0200ca54      0xb28 d:/devkitPro/libnds/lib\libpng.a(pngget.o)
                0x0200ca54                png_get_valid
                0x0200ca70                png_get_rowbytes
                0x0200ca88                png_get_rows
                0x0200caa0                png_get_image_width
                0x0200cab8                png_get_image_height
                0x0200cad0                png_get_bit_depth
                0x0200cae8                png_get_color_type
                0x0200cb00                png_get_filter_type
                0x0200cb18                png_get_interlace_type
                0x0200cb30                png_get_compression_type
                0x0200cb48                png_get_x_pixels_per_meter
                0x0200cb78                png_get_y_pixels_per_meter
                0x0200cba8                png_get_pixels_per_meter
                0x0200cbe4                png_get_pixel_aspect_ratio
                0x0200cc44                png_get_x_offset_microns
                0x0200cc74                png_get_y_offset_microns
                0x0200cca4                png_get_x_offset_pixels
                0x0200ccd4                png_get_y_offset_pixels
                0x0200cd04                png_get_channels
                0x0200cd1c                png_get_signature
                0x0200cd34                png_get_bKGD
                0x0200cd6c                png_get_cHRM
                0x0200ce68                png_get_cHRM_fixed
                0x0200cf0c                png_get_gAMA
                0x0200cf58                png_get_gAMA_fixed
                0x0200cf90                png_get_sRGB
                0x0200cfc8                png_get_iCCP
                0x0200d03c                png_get_sPLT
                0x0200d064                png_get_hIST
                0x0200d09c                png_get_oFFs
                0x0200d104                png_get_pCAL
                0x0200d1b0                png_get_sCAL
                0x0200d20c                png_get_pHYs
                0x0200d26c                png_get_PLTE
                0x0200d2b4                png_get_sBIT
                0x0200d2ec                png_get_text
                0x0200d33c                png_get_tIME
                0x0200d374                png_get_tRNS
                0x0200d408                png_get_unknown_chunks
                0x0200d430                png_get_rgb_to_gray_status
                0x0200d43c                png_get_user_chunk_ptr
                0x0200d448                png_get_asm_flags
                0x0200d450                png_get_asm_flagmask
                0x0200d458                png_get_mmx_flagmask
                0x0200d468                png_get_mmx_bitdepth_threshold
                0x0200d470                png_get_mmx_rowbytes_threshold
                0x0200d478                png_get_user_width_max
                0x0200d484                png_get_user_height_max
                0x0200d490                png_get_IHDR
 .text          0x0200d57c     0x32c0 d:/devkitPro/libnds/lib\libpng.a(pngrutil.o)
                0x0200d57c                png_get_uint_32
                0x0200d59c                png_get_int_32
                0x0200d5bc                png_get_uint_16
                0x0200d5d4                png_read_filter_row
                0x0200d7a0                png_check_chunk_name
                0x0200d858                png_get_uint_31
                0x0200d888                png_read_start_row
                0x0200db98                png_crc_error
                0x0200dc20                png_do_read_interlace
                0x0200e028                png_combine_row
                0x0200e2e0                png_decompress_chunk
                0x0200e634                png_crc_read
                0x0200e664                png_crc_finish
                0x0200e6ec                png_handle_IEND
                0x0200e72c                png_read_finish_row
                0x0200e980                png_handle_unknown
                0x0200eae4                png_handle_zTXt
                0x0200ec6c                png_handle_tEXt
                0x0200eda0                png_handle_tIME
                0x0200ee80                png_handle_sCAL
                0x0200f044                png_handle_pCAL
                0x0200f304                png_handle_oFFs
                0x0200f3e4                png_handle_pHYs
                0x0200f4c4                png_handle_hIST
                0x0200f5b4                png_handle_bKGD
                0x0200f758                png_handle_tRNS
                0x0200f8f0                png_handle_sPLT
                0x0200fb48                png_handle_iCCP
                0x0200fcf8                png_handle_sRGB
                0x0200fde8                png_handle_cHRM
                0x020102bc                png_handle_sBIT
                0x020103c8                png_handle_gAMA
                0x0201050c                png_handle_PLTE
                0x0201066c                png_handle_IHDR
                0x020107c4                png_read_chunk_header
 .text          0x0201083c      0x704 d:/devkitPro/libnds/lib\libpng.a(pngtrans.o)
                0x0201083c                png_set_bgr
                0x02010850                png_set_swap
                0x02010870                png_set_packing
                0x02010898                png_set_packswap
                0x020108b8                png_set_shift
                0x020108f0                png_set_interlace_handling
                0x02010920                png_set_filler
                0x02010988                png_set_add_alpha
                0x020109ac                png_set_swap_alpha
                0x020109c0                png_set_invert_alpha
                0x020109d4                png_set_invert_mono
                0x020109e8                png_do_invert
                0x02010aa4                png_do_swap
                0x02010ae8                png_do_packswap
                0x02010b48                png_do_strip_filler
                0x02010dfc                png_do_bgr
                0x02010f20                png_set_user_transform_info
                0x02010f34                png_get_user_transform_ptr
 .text          0x02010f40     0x1438 d:/devkitPro/libnds/lib\libpng.a(pngset.o)
                0x02010f40                png_set_cHRM
                0x02011148                png_set_gAMA
                0x020111e0                png_set_gAMA_fixed
                0x02011238                png_set_oFFs
                0x02011268                png_set_sCAL
                0x020112ac                png_set_pHYs
                0x020112dc                png_set_sRGB
                0x020112f8                png_set_unknown_chunk_location
                0x02011330                png_permit_empty_plte
                0x0201134c                png_permit_mng_features
                0x02011360                png_set_read_user_chunk_fn
                0x02011370                png_set_invalid
                0x02011388                png_set_asm_flags
                0x02011398                png_set_mmx_thresholds
                0x0201139c                png_set_user_limits
                0x020113ac                png_set_rows
                0x02011408                png_set_tRNS
                0x020114c0                png_set_tIME
                0x02011504                png_set_sBIT
                0x0201153c                png_set_bKGD
                0x02011574                png_set_keep_unknown_chunks
                0x02011670                png_set_unknown_chunks
                0x0201177c                png_set_hIST
                0x02011830                png_set_sPLT
                0x02011978                png_set_text_2
                0x02011b58                png_set_iCCP
                0x02011c40                png_set_text
                0x02011c60                png_set_IHDR
                0x02011e6c                png_set_cHRM_fixed
                0x02011fe8                png_set_sRGB_gAMA_and_cHRM
                0x0201215c                png_set_PLTE
                0x0201221c                png_set_pCAL
 .text          0x02012378      0x934 d:/devkitPro/libnds/lib\libz.a(crc32.o)
                0x02012378                get_crc_table
                0x02012384                crc32
                0x02012ac8                crc32_combine
 .text          0x02012cac     0x1e8c d:/devkitPro/libnds/lib\libz.a(inflate.o)
                0x02012cac                inflateReset
                0x02012d28                inflatePrime
                0x02012d84                inflateInit2_
                0x02012ea0                inflateInit_
                0x02012eb0                inflateEnd
                0x02012f18                inflateGetHeader
                0x02012f54                inflateSync
                0x020130f8                inflateSyncPoint
                0x02013134                inflateCopy
                0x020133fc                inflateSetDictionary
                0x020134f4                inflate
 .text          0x02014b38      0x590 d:/devkitPro/libnds/lib\libz.a(inftrees.o)
                0x02014b38                inflate_table
 .text          0x020150c8      0x570 d:/devkitPro/libnds/lib\libz.a(inffast.o)
                0x020150c8                inflate_fast
 .text          0x02015638      0x3fc d:/devkitPro/libnds/lib\libz.a(adler32.o)
                0x02015638                adler32
                0x02015978                adler32_combine
 .text          0x02015a34       0x60 d:/devkitPro/libnds/lib\libz.a(zutil.o)
                0x02015a34                zlibVersion
                0x02015a40                zlibCompileFlags
                0x02015a48                zError
                0x02015a5c                zcfree
                0x02015a78                zcalloc
 .text          0x02015a94       0x94 d:/devkitPro/libnds/lib\libnds9.a(dynamicArray.o)
                0x02015a94                DynamicArrayInit
                0x02015aac                DynamicArrayDelete
                0x02015ac0                DynamicArrayGet
                0x02015adc                DynamicArraySet
 .text          0x02015b28       0xf8 d:/devkitPro/libnds/lib\libnds9.a(keys.o)
                0x02015b28                scanKeys
                0x02015b98                keysHeld
                0x02015ba4                keysDown
                0x02015bb4                keysDownRepeat
                0x02015bc4                keysSetRepeat
                0x02015bdc                keysUp
                0x02015bec                keysCurrent
 .text          0x02015c20       0xf4 d:/devkitPro/libnds/lib\libnds9.a(system.o)
                0x02015c20                systemMsgHandler
                0x02015c64                systemSleep
                0x02015c7c                powerValueHandler
                0x02015c8c                powerOn
                0x02015cb8                powerOff
                0x02015ce0                ledBlink
                0x02015cf4                getBatteryLevel
 .text          0x02015d14       0x4c d:/devkitPro/libnds/lib\libnds9.a(touch.o)
                0x02015d14                touchRead
                0x02015d3c                touchReadXY
 .text          0x02015d60      0x238 d:/devkitPro/libnds/lib\libnds9.a(trig.o)
                0x02015d60                asinComp
                0x02015d84                sinLutLookup
                0x02015dc0                sinLerp
                0x02015df4                cosLerp
                0x02015e0c                tanLutLookup
                0x02015e44                tanLerp
                0x02015ef4                asinLerp
                0x02015f5c                acosLerp
                0x02015f74                atanComp
 .text          0x02015f98     0x14b8 d:/devkitPro/libnds/lib\libnds9.a(videoGL.o)
                0x02015f98                glGetGlobals
                0x02015fa0                glRotatef32i
                0x0201627c                glMaterialf
                0x020162ec                glTexCoord2f32
                0x02016360                vramBlock_init
                0x020163cc                vramBlock_Construct
                0x020163f4                vramBlock_terminate
                0x02016420                vramBlock_Deconstruct
                0x02016434                vramBlock__allocateBlock
                0x02016594                vramBlock__deallocateBlock
                0x020166ac                vramBlock_examineSpecial
                0x020168e8                vramBlock_allocateSpecial
                0x02016954                vramBlock_allocateBlock
                0x0201698c                vramBlock_deallocateBlock
                0x020169d0                vramBlock_deallocateAll
                0x020169e0                vramBlock_getAddr
                0x020169f4                vramBlock_getSize
                0x02016a08                glInit_C
                0x02016ba8                glResetTextures
                0x02016c30                removePaletteFromTexture
                0x02016ca0                glGenTextures
                0x02016d3c                glDeleteTextures
                0x02016e14                vramGetBank
                0x02016ed4                glBindTexture
                0x02016f38                glColorTableEXT
                0x020170a0                glAssignColorTable
                0x02017114                glTexParameter
                0x0201714c                glGetTexturePointer
                0x0201716c                glGetTexParameter
                0x0201718c                glTexImage2D
 .text          0x02017450      0x14c d:/devkitPro/libnds/lib\libnds9.a(initSystem.o)
                0x02017450                initSystem
 .text          0x0201759c      0xc98 d:/devkitPro/libnds/lib\libnds9.a(fifosystem.o)
                0x0201780c                fifoSendAddress
                0x02017838                fifoSendValue32
                0x02017878                fifoSendDatamsg
                0x020178f0                fifoGetAddress
                0x02017960                fifoSetAddressHandler
                0x020179d4                fifoGetValue32
                0x02017a40                fifoSetValue32Handler
                0x02017ab4                fifoGetDatamsg
                0x02017f44                fifoSetDatamsgHandler
                0x02017fdc                fifoCheckAddress
                0x02018000                fifoCheckDatamsg
                0x02018024                fifoCheckValue32
                0x02018048                fifoInit
 .text          0x02018234      0x1cc d:/devkitPro/libnds/lib\libnds9.a(interrupts.o)
                0x02018234                irqDummy
                0x02018238                irqSet
                0x020182a4                irqInit
                0x020182f0                irqInitHandler
                0x02018320                irqEnable
                0x02018380                irqDisable
                0x020183d4                irqClear
 .text          0x02018400       0x40 d:/devkitPro/libnds/lib\libnds9.a(libnds_exit.o)
                0x02018400                systemErrorExit
                0x02018404                __libnds_exit
 .text          0x02018440      0x1b4 d:/devkitPro/libnds/lib\libnds9.a(mpu_setup.o)
                0x02018440                __libnds_mpu_setup
                0x02018580                memCached
                0x02018598                memUncached
 *fill*         0x020185f4        0xc ff
 .text          0x02018600       0x70 d:/devkitPro/libnds/lib\libnds9.a(biosCalls.o)
                0x02018600                swiDelay
                0x02018604                swiIntrWait
                0x02018608                swiWaitForVBlank
                0x0201860c                swiSleep
                0x02018610                swiChangeSoundBias
                0x02018614                swiDivide
                0x02018618                swiRemainder
                0x0201861e                swiDivMod
                0x0201862a                swiCopy
                0x0201862e                swiFastCopy
                0x02018632                swiSqrt
                0x02018636                swiCRC16
                0x0201863a                swiIsDebugger
                0x0201863e                swiUnpackBits
                0x02018642                swiDecompressLZSSWram
                0x02018646                swiDecompressLZSSVramNTR
                0x0201864a                swiDecompressLZSSVramTWL
                0x0201864e                swiDecompressHuffman
                0x02018652                swiDecompressRLEWram
                0x02018656                swiDecompressRLEVram
                0x0201865a                swiWaitForIRQ
                0x0201865e                swiDecodeDelta8
                0x02018662                swiDecodeDelta16
                0x02018666                swiSetHaltCR
 .text          0x02018670        0x0 d:/devkitPro/libnds/lib\libnds9.a(interruptDispatcher.o)
 .text          0x02018670       0x30 d:/devkitPro/libnds/lib\libnds9.a(swiSoftReset.o)
                0x02018670                swiSoftReset
 .text          0x020186a0      0x148 d:/devkitPro/libnds/lib\libnds9.a(video.o)
                0x020186a0                vramSetPrimaryBanks
                0x020186e4                vramSetMainBanks
                0x02018728                vramSetBanks_EFG
                0x02018760                vramRestorePrimaryBanks
                0x0201876c                vramRestoreMainBanks
                0x02018778                vramRestoreBanks_EFG
                0x02018784                setBrightness
                0x020187c4                vramDefault
 .text          0x020187e8      0x104 d:/devkitpro/devkitarm/bin/../lib/gcc/arm-eabi/4.5.1/../../../../arm-eabi/lib\libm.a(lib_a-s_cos.o)
                0x020187e8                cos
 .text          0x020188ec      0x110 d:/devkitpro/devkitarm/bin/../lib/gcc/arm-eabi/4.5.1/../../../../arm-eabi/lib\libm.a(lib_a-s_sin.o)
                0x020188ec                sin
 .text          0x020189fc      0x520 d:/devkitpro/devkitarm/bin/../lib/gcc/arm-eabi/4.5.1/../../../../arm-eabi/lib\libm.a(lib_a-w_pow.o)
                0x020189fc                pow
 *fill*         0x02018f1c        0x4 ff
 .text          0x02018f20      0xff8 d:/devkitpro/devkitarm/bin/../lib/gcc/arm-eabi/4.5.1/../../../../arm-eabi/lib\libm.a(lib_a-e_pow.o)
                0x02018f20                __ieee754_pow
 .text          0x02019f18      0x678 d:/devkitpro/devkitarm/bin/../lib/gcc/arm-eabi/4.5.1/../../../../arm-eabi/lib\libm.a(lib_a-e_rem_pio2.o)
                0x02019f18                __ieee754_rem_pio2
 .text          0x0201a590      0x238 d:/devkitpro/devkitarm/bin/../lib/gcc/arm-eabi/4.5.1/../../../../arm-eabi/lib\libm.a(lib_a-e_sqrt.o)
                0x0201a590                __ieee754_sqrt
 .text          0x0201a7c8      0x358 d:/devkitpro/devkitarm/bin/../lib/gcc/arm-eabi/4.5.1/../../../../arm-eabi/lib\libm.a(lib_a-k_cos.o)
                0x0201a7c8                __kernel_cos
 .text          0x0201ab20      0xb08 d:/devkitpro/devkitarm/bin/../lib/gcc/arm-eabi/4.5.1/../../../../arm-eabi/lib\libm.a(lib_a-k_rem_pio2.o)
                0x0201ab20                __kernel_rem_pio2
 .text          0x0201b628      0x218 d:/devkitpro/devkitarm/bin/../lib/gcc/arm-eabi/4.5.1/../../../../arm-eabi/lib\libm.a(lib_a-k_sin.o)
                0x0201b628                __kernel_sin
 .text          0x0201b840       0x14 d:/devkitpro/devkitarm/bin/../lib/gcc/arm-eabi/4.5.1/../../../../arm-eabi/lib\libm.a(lib_a-s_fabs.o)
                0x0201b840                fabs
 .text          0x0201b854       0x14 d:/devkitpro/devkitarm/bin/../lib/gcc/arm-eabi/4.5.1/../../../../arm-eabi/lib\libm.a(lib_a-s_finite.o)
                0x0201b854                finite
 .text          0x0201b868      0x198 d:/devkitpro/devkitarm/bin/../lib/gcc/arm-eabi/4.5.1/../../../../arm-eabi/lib\libm.a(lib_a-s_floor.o)
                0x0201b868                floor
 .text          0x0201ba00       0x8c d:/devkitpro/devkitarm/bin/../lib/gcc/arm-eabi/4.5.1/../../../../arm-eabi/lib\libm.a(lib_a-s_fpclassify.o)
                0x0201ba00                __fpclassifyd
 .text          0x0201ba8c        0x0 d:/devkitpro/devkitarm/bin/../lib/gcc/arm-eabi/4.5.1/../../../../arm-eabi/lib\libm.a(lib_a-s_lib_ver.o)
 .text          0x0201ba8c        0x8 d:/devkitpro/devkitarm/bin/../lib/gcc/arm-eabi/4.5.1/../../../../arm-eabi/lib\libm.a(lib_a-s_matherr.o)
                0x0201ba8c                matherr
 .text          0x0201ba94       0x10 d:/devkitpro/devkitarm/bin/../lib/gcc/arm-eabi/4.5.1/../../../../arm-eabi/lib\libm.a(lib_a-s_nan.o)
                0x0201ba94                nan
 .text          0x0201baa4      0x19c d:/devkitpro/devkitarm/bin/../lib/gcc/arm-eabi/4.5.1/../../../../arm-eabi/lib\libm.a(lib_a-s_rint.o)
                0x0201baa4                rint
 .text          0x0201bc40      0x1a8 d:/devkitpro/devkitarm/bin/../lib/gcc/arm-eabi/4.5.1/../../../../arm-eabi/lib\libm.a(lib_a-s_scalbn.o)
                0x0201bc40                scalbn
 .text          0x0201bde8       0x24 d:/devkitpro/devkitarm/bin/../lib/gcc/arm-eabi/4.5.1/../../../../arm-eabi/lib\libm.a(lib_a-s_copysign.o)
                0x0201bde8                copysign
 .text          0x0201be0c      0x114 d:/devkitpro/devkitarm/bin/../lib/gcc/arm-eabi/4.5.1\libgcc.a(_udivsi3.o)
                0x0201be0c                __aeabi_uidiv
                0x0201be0c                __udivsi3
                0x0201bf00                __aeabi_uidivmod
 .text          0x0201bf20      0x148 d:/devkitpro/devkitarm/bin/../lib/gcc/arm-eabi/4.5.1\libgcc.a(_divsi3.o)
                0x0201bf20                __divsi3
                0x0201bf20                __aeabi_idiv
                0x0201c048                __aeabi_idivmod
 .text          0x0201c068        0x4 d:/devkitpro/devkitarm/bin/../lib/gcc/arm-eabi/4.5.1\libgcc.a(_dvmd_tls.o)
                0x0201c068                __aeabi_idiv0
                0x0201c068                __aeabi_ldiv0
 .text          0x0201c06c      0x41c d:/devkitpro/devkitarm/bin/../lib/gcc/arm-eabi/4.5.1\libgcc.a(_arm_addsubdf3.o)
                0x0201c06c                __aeabi_drsub
                0x0201c074                __aeabi_dsub
                0x0201c074                __subdf3
                0x0201c078                __aeabi_dadd
                0x0201c078                __adddf3
                0x0201c388                __floatunsidf
                0x0201c388                __aeabi_ui2d
                0x0201c3ac                __floatsidf
                0x0201c3ac                __aeabi_i2d
                0x0201c3d4                __aeabi_f2d
                0x0201c3d4                __extendsfdf2
                0x0201c414                __floatundidf
                0x0201c414                __aeabi_ul2d
                0x0201c428                __floatdidf
                0x0201c428                __aeabi_l2d
 .text          0x0201c488      0x49c d:/devkitpro/devkitarm/bin/../lib/gcc/arm-eabi/4.5.1\libgcc.a(_arm_muldivdf3.o)
                0x0201c488                __aeabi_dmul
                0x0201c488                __muldf3
                0x0201c718                __divdf3
                0x0201c718                __aeabi_ddiv
 .text          0x0201c924      0x144 d:/devkitpro/devkitarm/bin/../lib/gcc/arm-eabi/4.5.1\libgcc.a(_arm_cmpdf2.o)
                0x0201c924                __gtdf2
                0x0201c924                __gedf2
                0x0201c92c                __ltdf2
                0x0201c92c                __ledf2
                0x0201c934                __nedf2
                0x0201c934                __eqdf2
                0x0201c934                __cmpdf2
                0x0201c9bc                __aeabi_cdrcmple
                0x0201c9d8                __aeabi_cdcmpeq
                0x0201c9d8                __aeabi_cdcmple
                0x0201c9f0                __aeabi_dcmpeq
                0x0201ca08                __aeabi_dcmplt
                0x0201ca20                __aeabi_dcmple
                0x0201ca38                __aeabi_dcmpge
                0x0201ca50                __aeabi_dcmpgt
 .text          0x0201ca68       0x5c d:/devkitpro/devkitarm/bin/../lib/gcc/arm-eabi/4.5.1\libgcc.a(_arm_fixdfsi.o)
                0x0201ca68                __aeabi_d2iz
                0x0201ca68                __fixdfsi
 .text          0x0201cac4       0x54 d:/devkitpro/devkitarm/bin/../lib/gcc/arm-eabi/4.5.1\libgcc.a(_arm_fixunsdfsi.o)
                0x0201cac4                __aeabi_d2uiz
                0x0201cac4                __fixunsdfsi
 .text          0x0201cb18       0xa0 d:/devkitpro/devkitarm/bin/../lib/gcc/arm-eabi/4.5.1\libgcc.a(_arm_truncdfsf2.o)
                0x0201cb18                __truncdfsf2
                0x0201cb18                __aeabi_d2f
 .text          0x0201cbb8      0x2ac d:/devkitpro/devkitarm/bin/../lib/gcc/arm-eabi/4.5.1\libgcc.a(_arm_addsubsf3.o)
                0x0201cbb8                __aeabi_frsub
                0x0201cbc0                __subsf3
                0x0201cbc0                __aeabi_fsub
                0x0201cbc4                __aeabi_fadd
                0x0201cbc4                __addsf3
                0x0201cd80                __aeabi_ui2f
                0x0201cd80                __floatunsisf
                0x0201cd88                __aeabi_i2f
                0x0201cd88                __floatsisf
                0x0201cda8                __aeabi_ul2f
                0x0201cda8                __floatundisf
                0x0201cdb8                __aeabi_l2f
                0x0201cdb8                __floatdisf
 .text          0x0201ce64      0x2f8 d:/devkitpro/devkitarm/bin/../lib/gcc/arm-eabi/4.5.1\libgcc.a(_arm_muldivsf3.o)
                0x0201ce64                __mulsf3
                0x0201ce64                __aeabi_fmul
                0x0201cffc                __aeabi_fdiv
                0x0201cffc                __divsf3
 .text          0x0201d15c      0x114 d:/devkitpro/devkitarm/bin/../lib/gcc/arm-eabi/4.5.1\libgcc.a(_arm_cmpsf2.o)
                0x0201d15c                __gesf2
                0x0201d15c                __gtsf2
                0x0201d164                __lesf2
                0x0201d164                __ltsf2
                0x0201d16c                __nesf2
                0x0201d16c                __eqsf2
                0x0201d16c                __cmpsf2
                0x0201d1d0                __aeabi_cfrcmple
                0x0201d1e0                __aeabi_cfcmpeq
                0x0201d1e0                __aeabi_cfcmple
                0x0201d1f8                __aeabi_fcmpeq
                0x0201d210                __aeabi_fcmplt
                0x0201d228                __aeabi_fcmple
                0x0201d240                __aeabi_fcmpge
                0x0201d258                __aeabi_fcmpgt
 .text          0x0201d270       0x48 d:/devkitpro/devkitarm/bin/../lib/gcc/arm-eabi/4.5.1\libgcc.a(_muldi3.o)
                0x0201d270                __muldi3
                0x0201d270                __aeabi_lmul
 .text          0x0201d2b8       0x14 d:/devkitpro/devkitarm/bin/../lib/gcc/arm-eabi/4.5.1/../../../../arm-eabi/lib\libg.a(lib_a-abort.o)
                0x0201d2b8                abort
 .text          0x0201d2cc       0x7c d:/devkitpro/devkitarm/bin/../lib/gcc/arm-eabi/4.5.1/../../../../arm-eabi/lib\libg.a(lib_a-bsearch.o)
                0x0201d2cc                bsearch
 .text          0x0201d348       0x10 d:/devkitpro/devkitarm/bin/../lib/gcc/arm-eabi/4.5.1/../../../../arm-eabi/lib\libg.a(lib_a-errno.o)
                0x0201d348                __errno
 .text          0x0201d358       0x70 d:/devkitpro/devkitarm/bin/../lib/gcc/arm-eabi/4.5.1/../../../../arm-eabi/lib\libg.a(lib_a-fprintf.o)
                0x0201d358                _fprintf_r
                0x0201d388                fprintf
 .text          0x0201d3c8      0x270 d:/devkitpro/devkitarm/bin/../lib/gcc/arm-eabi/4.5.1/../../../../arm-eabi/lib\libg.a(lib_a-fread.o)
                0x0201d3c8                _fread_r
                0x0201d5f4                fread
 .text          0x0201d638      0x360 d:/devkitpro/devkitarm/bin/../lib/gcc/arm-eabi/4.5.1/../../../../arm-eabi/lib\libg.a(lib_a-freer.o)
                0x0201d638                _malloc_trim_r
                0x0201d734                _free_r
 .text          0x0201d998        0x0 d:/devkitpro/devkitarm/bin/../lib/gcc/arm-eabi/4.5.1/../../../../arm-eabi/lib\libg.a(lib_a-impure.o)
 .text          0x0201d998       0xc4 d:/devkitpro/devkitarm/bin/../lib/gcc/arm-eabi/4.5.1/../../../../arm-eabi/lib\libg.a(lib_a-init.o)
                0x0201d998                __libc_init_array
                0x0201da18                __libc_fini_array
 .text          0x0201da5c       0x40 d:/devkitpro/devkitarm/bin/../lib/gcc/arm-eabi/4.5.1/../../../../arm-eabi/lib\libg.a(lib_a-malloc.o)
                0x0201da5c                malloc
                0x0201da7c                free
 .text          0x0201da9c      0x710 d:/devkitpro/devkitarm/bin/../lib/gcc/arm-eabi/4.5.1/../../../../arm-eabi/lib\libg.a(lib_a-mallocr.o)
                0x0201da9c                _malloc_r
 .text          0x0201e1ac       0xa8 d:/devkitpro/devkitarm/bin/../lib/gcc/arm-eabi/4.5.1/../../../../arm-eabi/lib\libg.a(lib_a-memcmp.o)
                0x0201e1ac                memcmp
 .text          0x0201e254       0xf8 d:/devkitpro/devkitarm/bin/../lib/gcc/arm-eabi/4.5.1/../../../../arm-eabi/lib\libg.a(lib_a-memcpy.o)
                0x0201e254                memcpy
 .text          0x0201e34c      0x138 d:/devkitpro/devkitarm/bin/../lib/gcc/arm-eabi/4.5.1/../../../../arm-eabi/lib\libg.a(lib_a-memmove.o)
                0x0201e34c                memmove
 .text          0x0201e484      0x100 d:/devkitpro/devkitarm/bin/../lib/gcc/arm-eabi/4.5.1/../../../../arm-eabi/lib\libg.a(lib_a-memset.o)
                0x0201e484                memset
 .text          0x0201e584        0x8 d:/devkitpro/devkitarm/bin/../lib/gcc/arm-eabi/4.5.1/../../../../arm-eabi/lib\libg.a(lib_a-mlock.o)
                0x0201e584                __malloc_lock
                0x0201e588                __malloc_unlock
 .text          0x0201e58c       0x28 d:/devkitpro/devkitarm/bin/../lib/gcc/arm-eabi/4.5.1/../../../../arm-eabi/lib\libg.a(lib_a-realloc.o)
                0x0201e58c                realloc
 .text          0x0201e5b4      0x5c0 d:/devkitpro/devkitarm/bin/../lib/gcc/arm-eabi/4.5.1/../../../../arm-eabi/lib\libg.a(lib_a-reallocr.o)
                0x0201e5b4                _realloc_r
 .text          0x0201eb74      0x1d0 d:/devkitpro/devkitarm/bin/../lib/gcc/arm-eabi/4.5.1/../../../../arm-eabi/lib\libg.a(lib_a-refill.o)
                0x0201eb9c                __srefill_r
 .text          0x0201ed44       0x2c d:/devkitpro/devkitarm/bin/../lib/gcc/arm-eabi/4.5.1/../../../../arm-eabi/lib\libg.a(lib_a-setjmp.o)
                0x0201ed44                setjmp
                0x0201ed58                longjmp
 .text          0x0201ed70      0x238 d:/devkitpro/devkitarm/bin/../lib/gcc/arm-eabi/4.5.1/../../../../arm-eabi/lib\libg.a(lib_a-signal.o)
                0x0201ed70                _init_signal_r
                0x0201edc4                _signal_r
                0x0201ee2c                _raise_r
                0x0201eec0                __sigtramp_r
                0x0201ef54                raise
                0x0201ef68                signal
                0x0201ef84                _init_signal
                0x0201ef94                __sigtramp
 .text          0x0201efa8      0x130 d:/devkitpro/devkitarm/bin/../lib/gcc/arm-eabi/4.5.1/../../../../arm-eabi/lib\libg.a(lib_a-snprintf.o)
                0x0201efa8                _snprintf_r
                0x0201f03c                snprintf
 .text          0x0201f0d8      0x230 d:/devkitpro/devkitarm/bin/../lib/gcc/arm-eabi/4.5.1/../../../../arm-eabi/lib\libg.a(lib_a-strcmp.o)
                0x0201f0d8                strcmp
 .text          0x0201f308       0x60 d:/devkitpro/devkitarm/bin/../lib/gcc/arm-eabi/4.5.1/../../../../arm-eabi/lib\libg.a(lib_a-strlen.o)
                0x0201f308                strlen
 .text          0x0201f368     0x16a0 d:/devkitpro/devkitarm/bin/../lib/gcc/arm-eabi/4.5.1/../../../../arm-eabi/lib\libg.a(lib_a-strtod.o)
                0x0201f3b0                _strtod_r
                0x0202099c                strtod
                0x020209b8                strtof
 .text          0x02020a08     0x233c d:/devkitpro/devkitarm/bin/../lib/gcc/arm-eabi/4.5.1/../../../../arm-eabi/lib\libg.a(lib_a-svfprintf.o)
                0x02020a08                _svfprintf_r
 .text          0x02022d44     0x2588 d:/devkitpro/devkitarm/bin/../lib/gcc/arm-eabi/4.5.1/../../../../arm-eabi/lib\libg.a(lib_a-vfprintf.o)
                0x02022d44                _vfprintf_r
                0x020252a0                vfprintf
 .text          0x020252cc      0x14c d:/devkitpro/devkitarm/bin/../lib/gcc/arm-eabi/4.5.1/../../../../arm-eabi/lib\libg.a(lib_a-wcrtomb.o)
                0x020252cc                _wcrtomb_r
                0x02025368                wcrtomb
 .text          0x02025418       0x68 d:/devkitpro/devkitarm/bin/../lib/gcc/arm-eabi/4.5.1/../../../../arm-eabi/lib\libg.a(lib_a-wcsrtombs.o)
                0x02025418                _wcsrtombs_r
                0x02025440                wcsrtombs
 .text          0x02025480      0x3a8 d:/devkitpro/devkitarm/bin/../lib/gcc/arm-eabi/4.5.1/../../../../arm-eabi/lib\libg.a(lib_a-wctomb_r.o)
                0x02025480                __utf8_wctomb
                0x0202559c                _wctomb_r
                0x020255ec                __ascii_wctomb
                0x02025618                __sjis_wctomb
                0x02025698                __eucjp_wctomb
                0x02025750                __jis_wctomb
 .text          0x02025828      0x134 d:/devkitpro/devkitarm/bin/../lib/gcc/arm-eabi/4.5.1/../../../../arm-eabi/lib\libg.a(lib_a-wsetup.o)
                0x02025828                __swsetup_r
 *fill*         0x0202595c        0x4 ff
 .text          0x02025960     0x1810 d:/devkitpro/devkitarm/bin/../lib/gcc/arm-eabi/4.5.1/../../../../arm-eabi/lib\libg.a(lib_a-dtoa.o)
                0x02025b30                _dtoa_r
 .text          0x02027170      0x298 d:/devkitpro/devkitarm/bin/../lib/gcc/arm-eabi/4.5.1/../../../../arm-eabi/lib\libg.a(lib_a-fflush.o)
                0x02027170                _fflush_r
                0x020273c8                fflush
 .text          0x02027408      0x334 d:/devkitpro/devkitarm/bin/../lib/gcc/arm-eabi/4.5.1/../../../../arm-eabi/lib\libg.a(lib_a-findfp.o)
                0x02027418                _cleanup_r
                0x02027430                __sfmoreglue
                0x02027478                _cleanup
                0x02027488                __sinit
                0x020275f0                __sfp
                0x020276e4                __sfp_lock_acquire
                0x020276e8                __sfp_lock_release
                0x020276ec                __sinit_lock_acquire
                0x020276f0                __sinit_lock_release
                0x020276f4                __fp_lock_all
                0x02027718                __fp_unlock_all
 .text          0x0202773c      0x10c d:/devkitpro/devkitarm/bin/../lib/gcc/arm-eabi/4.5.1/../../../../arm-eabi/lib\libg.a(lib_a-fwalk.o)
                0x0202773c                _fwalk
                0x020277c0                _fwalk_reent
 .text          0x02027848      0x9b4 d:/devkitpro/devkitarm/bin/../lib/gcc/arm-eabi/4.5.1/../../../../arm-eabi/lib\libg.a(lib_a-gdtoa-gethex.o)
                0x02027924                __hexdig_init
                0x020279a8                __gethex
 .text          0x020281fc      0x2bc d:/devkitpro/devkitarm/bin/../lib/gcc/arm-eabi/4.5.1/../../../../arm-eabi/lib\libg.a(lib_a-gdtoa-hexnan.o)
                0x020281fc                __hexnan
 .text          0x020284b8      0xbb0 d:/devkitpro/devkitarm/bin/../lib/gcc/arm-eabi/4.5.1/../../../../arm-eabi/lib\libg.a(lib_a-locale.o)
                0x02028cd0                _setlocale_r
                0x0202900c                __locale_charset
                0x02029018                __locale_msgcharset
                0x02029024                __locale_cjk_lang
                0x02029034                _localeconv_r
                0x02029040                setlocale
                0x0202905c                localeconv
 .text          0x02029068      0x164 d:/devkitpro/devkitarm/bin/../lib/gcc/arm-eabi/4.5.1/../../../../arm-eabi/lib\libg.a(lib_a-makebuf.o)
                0x02029068                __smakebuf_r
 .text          0x020291cc      0x720 d:/devkitpro/devkitarm/bin/../lib/gcc/arm-eabi/4.5.1/../../../../arm-eabi/lib\libg.a(lib_a-mbtowc_r.o)
                0x020291cc                __utf8_mbtowc
                0x020294d0                _mbtowc_r
                0x02029524                __ascii_mbtowc
                0x02029568                __sjis_mbtowc
                0x0202963c                __eucjp_mbtowc
                0x02029768                __jis_mbtowc
 .text          0x020298ec      0x108 d:/devkitpro/devkitarm/bin/../lib/gcc/arm-eabi/4.5.1/../../../../arm-eabi/lib\libg.a(lib_a-memchr.o)
                0x020298ec                memchr
 .text          0x020299f4      0xd3c d:/devkitpro/devkitarm/bin/../lib/gcc/arm-eabi/4.5.1/../../../../arm-eabi/lib\libg.a(lib_a-mprec.o)
                0x020299f4                _Balloc
                0x02029a7c                _Bfree
                0x02029a98                __multadd
                0x02029b74                __s2b
                0x02029c64                __hi0bits
                0x02029cb4                __lo0bits
                0x02029d44                __i2b
                0x02029d68                __multiply
                0x02029f58                __pow5mult
                0x0202a050                __lshift
                0x0202a154                __mcmp
                0x0202a1b4                __mdiff
                0x0202a30c                __ulp
                0x0202a36c                __b2d
                0x0202a434                __d2b
                0x0202a540                __ratio
                0x0202a5e0                _mprec_log10
                0x0202a634                __copybits
                0x0202a6a8                __any_on
 .text          0x0202a730        0xc d:/devkitpro/devkitarm/bin/../lib/gcc/arm-eabi/4.5.1/../../../../arm-eabi/lib\libg.a(lib_a-sf_nan.o)
                0x0202a730                nanf
 .text          0x0202a73c       0xe0 d:/devkitpro/devkitarm/bin/../lib/gcc/arm-eabi/4.5.1/../../../../arm-eabi/lib\libg.a(lib_a-stdio.o)
                0x0202a73c                __sread
                0x0202a770                __seofread
                0x0202a778                __swrite
                0x0202a7d0                __sseek
                0x0202a808                __sclose
 .text          0x0202a81c       0x64 d:/devkitpro/devkitarm/bin/../lib/gcc/arm-eabi/4.5.1/../../../../arm-eabi/lib\libg.a(lib_a-strcasecmp.o)
                0x0202a81c                strcasecmp
 .text          0x0202a880       0xb0 d:/devkitpro/devkitarm/bin/../lib/gcc/arm-eabi/4.5.1/../../../../arm-eabi/lib\libg.a(lib_a-strcat.o)
                0x0202a880                strcat
 .text          0x0202a930      0x23c d:/devkitpro/devkitarm/bin/../lib/gcc/arm-eabi/4.5.1/../../../../arm-eabi/lib\libg.a(lib_a-strchr.o)
                0x0202a930                strchr
 .text          0x0202ab6c       0xf0 d:/devkitpro/devkitarm/bin/../lib/gcc/arm-eabi/4.5.1/../../../../arm-eabi/lib\libg.a(lib_a-strcpy.o)
                0x0202ab6c                strcpy
 .text          0x0202ac5c       0x7c d:/devkitpro/devkitarm/bin/../lib/gcc/arm-eabi/4.5.1/../../../../arm-eabi/lib\libg.a(lib_a-strlcpy.o)
                0x0202ac5c                strlcpy
 .text          0x0202acd8       0x7c d:/devkitpro/devkitarm/bin/../lib/gcc/arm-eabi/4.5.1/../../../../arm-eabi/lib\libg.a(lib_a-strncasecmp.o)
                0x0202acd8                strncasecmp
 .text          0x0202ad54      0x170 d:/devkitpro/devkitarm/bin/../lib/gcc/arm-eabi/4.5.1/../../../../arm-eabi/lib\libg.a(lib_a-strncmp.o)
                0x0202ad54                strncmp
 .text          0x0202aec4       0xec d:/devkitpro/devkitarm/bin/../lib/gcc/arm-eabi/4.5.1/../../../../arm-eabi/lib\libg.a(lib_a-strncpy.o)
                0x0202aec4                strncpy
 .text          0x0202afb0      0x1f4 d:/devkitpro/devkitarm/bin/../lib/gcc/arm-eabi/4.5.1/../../../../arm-eabi/lib\libg.a(lib_a-strtol.o)
                0x0202afb0                _strtol_r
                0x0202b178                strtol
 .text          0x0202b1a4     0x16b4 d:/devkitpro/devkitarm/bin/../lib/gcc/arm-eabi/4.5.1/../../../../arm-eabi/lib\libg.a(lib_a-svfiprintf.o)
                0x0202b1a4                __ssprint_r
                0x0202b338                _svfiprintf_r
 .text          0x0202c858     0x16dc d:/devkitpro/devkitarm/bin/../lib/gcc/arm-eabi/4.5.1/../../../../arm-eabi/lib\libg.a(lib_a-vfiprintf.o)
                0x0202c858                __sprint_r
                0x0202c918                _vfiprintf_r
                0x0202df08                vfiprintf
 .text          0x0202df34      0x1dc d:/devkitpro/devkitarm/bin/../lib/gcc/arm-eabi/4.5.1/../../../../arm-eabi/lib\libg.a(lib_a-wcsnrtombs.o)
                0x0202df34                _wcsnrtombs_r
                0x0202e0c4                wcsnrtombs
 .text          0x0202e110       0x9c d:/devkitpro/devkitarm/bin/../lib/gcc/arm-eabi/4.5.1/../../../../arm-eabi/lib\libg.a(lib_a-callocr.o)
                0x0202e110                _calloc_r
 .text          0x0202e1ac       0x18 d:/devkitpro/devkitarm/bin/../lib/gcc/arm-eabi/4.5.1/../../../../arm-eabi/lib\libg.a(lib_a-ctype_.o)
                0x0202e1ac                __set_ctype
 .text          0x0202e1c4      0x10c d:/devkitpro/devkitarm/bin/../lib/gcc/arm-eabi/4.5.1/../../../../arm-eabi/lib\libg.a(lib_a-fclose.o)
                0x0202e1c4                _fclose_r
                0x0202e2bc                fclose
 .text          0x0202e2d0      0x1c0 d:/devkitpro/devkitarm/bin/../lib/gcc/arm-eabi/4.5.1/../../../../arm-eabi/lib\libg.a(lib_a-fputwc.o)
                0x0202e2d0                _fputwc_r
                0x0202e444                fputwc
 .text          0x0202e490      0x4ac d:/devkitpro/devkitarm/bin/../lib/gcc/arm-eabi/4.5.1/../../../../arm-eabi/lib\libg.a(lib_a-fvwrite.o)
                0x0202e490                __sfvwrite_r
 .text          0x0202e93c      0x100 d:/devkitpro/devkitarm/bin/../lib/gcc/arm-eabi/4.5.1/../../../../arm-eabi/lib\libg.a(lib_a-getenv_r.o)
                0x0202e93c                _findenv_r
                0x0202ea20                _getenv_r
 .text          0x0202ea3c      0x15c d:/devkitpro/devkitarm/bin/../lib/gcc/arm-eabi/4.5.1/../../../../arm-eabi/lib\libg.a(lib_a-wbuf.o)
                0x0202ea3c                __swbuf_r
                0x0202eb7c                __swbuf
 .text          0x0202eb98        0x0 d:/devkitpro/devkitarm/bin/../lib/gcc/arm-eabi/4.5.1/../../../../arm-eabi/lib\libg.a(lib_a-environ.o)
 .text          0x0202eb98        0x8 d:/devkitpro/devkitarm/bin/../lib/gcc/arm-eabi/4.5.1/../../../../arm-eabi/lib\libg.a(lib_a-envlock.o)
                0x0202eb98                __env_lock
                0x0202eb9c                __env_unlock
 .text          0x0202eba0       0x78 d:/devkitpro/devkitarm/bin/../lib/gcc/arm-eabi/4.5.1/../../../../arm-eabi/lib\libsysbase.a(close.o)
                0x0202eba0                _close_r
 .text          0x0202ec18       0x88 d:/devkitpro/devkitarm/bin/../lib/gcc/arm-eabi/4.5.1/../../../../arm-eabi/lib\libsysbase.a(fstat.o)
                0x0202ec18                _fstat_r
 .text          0x0202eca0       0x10 d:/devkitpro/devkitarm/bin/../lib/gcc/arm-eabi/4.5.1/../../../../arm-eabi/lib\libsysbase.a(getpid.o)
                0x0202eca0                _getpid_r
 .text          0x0202ecb0        0x8 d:/devkitpro/devkitarm/bin/../lib/gcc/arm-eabi/4.5.1/../../../../arm-eabi/lib\libsysbase.a(isatty.o)
                0x0202ecb0                _isatty_r
 .text          0x0202ecb8       0x10 d:/devkitpro/devkitarm/bin/../lib/gcc/arm-eabi/4.5.1/../../../../arm-eabi/lib\libsysbase.a(kill.o)
                0x0202ecb8                _kill_r
 .text          0x0202ecc8       0x8c d:/devkitpro/devkitarm/bin/../lib/gcc/arm-eabi/4.5.1/../../../../arm-eabi/lib\libsysbase.a(lseek.o)
                0x0202ecc8                _lseek_r
 .text          0x0202ed54       0x8c d:/devkitpro/devkitarm/bin/../lib/gcc/arm-eabi/4.5.1/../../../../arm-eabi/lib\libsysbase.a(read.o)
                0x0202ed54                _read_r
 .text          0x0202ede0       0x78 d:/devkitpro/devkitarm/bin/../lib/gcc/arm-eabi/4.5.1/../../../../arm-eabi/lib\libsysbase.a(sbrk.o)
                0x0202ede0                _sbrk_r
 .text          0x0202ee58       0x68 d:/devkitpro/devkitarm/bin/../lib/gcc/arm-eabi/4.5.1/../../../../arm-eabi/lib\libsysbase.a(times.o)
                0x0202ee58                _times
                0x0202ee74                _times_r
                0x0202ee7c                _gettimeofday_r
 .text          0x0202eec0       0x8c d:/devkitpro/devkitarm/bin/../lib/gcc/arm-eabi/4.5.1/../../../../arm-eabi/lib\libsysbase.a(write.o)
                0x0202eec0                _write_r
 .text          0x0202ef4c       0x20 d:/devkitpro/devkitarm/bin/../lib/gcc/arm-eabi/4.5.1/../../../../arm-eabi/lib\libsysbase.a(_exit.o)
                0x0202ef4c                _exit
 .text          0x0202ef6c        0x0 d:/devkitpro/devkitarm/bin/../lib/gcc/arm-eabi/4.5.1/../../../../arm-eabi/lib\libsysbase.a(malloc_vars.o)
 .text          0x0202ef6c       0x84 d:/devkitpro/devkitarm/bin/../lib/gcc/arm-eabi/4.5.1/../../../../arm-eabi/lib\libsysbase.a(build_argv.o)
                0x0202ef6c                build_argv
 .text          0x0202eff0        0x0 d:/devkitpro/devkitarm/bin/../lib/gcc/arm-eabi/4.5.1/../../../../arm-eabi/lib\libsysbase.a(syscall_support.o)
 .text          0x0202eff0       0xac d:/devkitpro/devkitarm/bin/../lib/gcc/arm-eabi/4.5.1/../../../../arm-eabi/lib\libsysbase.a(handle_manager.o)
                0x0202eff0                __release_handle
                0x0202f028                __alloc_handle
                0x0202f080                __get_handle
 .text          0x0202f09c      0x1b4 d:/devkitpro/devkitarm/bin/../lib/gcc/arm-eabi/4.5.1/../../../../arm-eabi/lib\libsysbase.a(iosupport.o)
                0x0202f09c                setDefaultDevice
                0x0202f0b4                FindDevice
                0x0202f160                RemoveDevice
                0x0202f190                AddDevice
                0x0202f228                GetDeviceOpTab
 .text          0x0202f250       0x3c d:/devkitpro/devkitarm/bin/../lib/gcc/arm-eabi/4.5.1\libgcc.a(_aeabi_uldivmod.o)
                0x0202f250                __aeabi_uldivmod
 .text          0x0202f28c       0x80 d:/devkitpro/devkitarm/bin/../lib/gcc/arm-eabi/4.5.1\libgcc.a(bpabi.o)
                0x0202f28c                __gnu_ldivmod_helper
                0x0202f2cc                __gnu_uldivmod_helper
 .text          0x0202f30c      0xf3c d:/devkitpro/devkitarm/bin/../lib/gcc/arm-eabi/4.5.1\libgcc.a(unwind-arm.o)
                0x0202f744                _Unwind_VRS_Get
                0x0202f7b8                _Unwind_VRS_Set
                0x0202fc24                __aeabi_unwind_cpp_pr2
                0x0202fc2c                __aeabi_unwind_cpp_pr1
                0x0202fc34                __aeabi_unwind_cpp_pr0
                0x0202fc3c                _Unwind_VRS_Pop
                0x0202ffd8                _Unwind_GetCFA
                0x0202ffe0                __gnu_Unwind_RaiseException
                0x02030094                __gnu_Unwind_ForcedUnwind
                0x020300b8                __gnu_Unwind_Resume
                0x02030124                __gnu_Unwind_Resume_or_Rethrow
                0x02030144                _Unwind_Complete
                0x02030148                _Unwind_DeleteException
                0x0203016c                __gnu_Unwind_Backtrace
 .text          0x02030248      0x1b0 d:/devkitpro/devkitarm/bin/../lib/gcc/arm-eabi/4.5.1\libgcc.a(libunwind.o)
                0x02030248                __restore_core_regs
                0x02030248                restore_core_regs
                0x02030264                __gnu_Unwind_Restore_VFP
                0x0203026c                __gnu_Unwind_Save_VFP
                0x02030274                __gnu_Unwind_Restore_VFP_D
                0x0203027c                __gnu_Unwind_Save_VFP_D
                0x02030284                __gnu_Unwind_Restore_VFP_D_16_to_31
                0x0203028c                __gnu_Unwind_Save_VFP_D_16_to_31
                0x02030294                __gnu_Unwind_Restore_WMMXD
                0x020302d8                __gnu_Unwind_Save_WMMXD
                0x0203031c                __gnu_Unwind_Restore_WMMXC
                0x02030330                __gnu_Unwind_Save_WMMXC
                0x02030344                ___Unwind_RaiseException
                0x02030344                _Unwind_RaiseException
                0x02030368                _Unwind_Resume
                0x02030368                ___Unwind_Resume
                0x0203038c                _Unwind_Resume_or_Rethrow
                0x0203038c                ___Unwind_Resume_or_Rethrow
                0x020303b0                _Unwind_ForcedUnwind
                0x020303b0                ___Unwind_ForcedUnwind
                0x020303d4                ___Unwind_Backtrace
                0x020303d4                _Unwind_Backtrace
 .text          0x020303f8      0x554 d:/devkitpro/devkitarm/bin/../lib/gcc/arm-eabi/4.5.1\libgcc.a(pr-support.o)
                0x02030498                __gnu_unwind_execute
                0x020308c0                __gnu_unwind_frame
                0x02030908                _Unwind_GetRegionStart
                0x0203091c                _Unwind_GetLanguageSpecificData
                0x0203093c                _Unwind_GetDataRelBase
                0x02030944                _Unwind_GetTextRelBase
 .text          0x0203094c      0x4b8 d:/devkitpro/devkitarm/bin/../lib/gcc/arm-eabi/4.5.1\libgcc.a(_divdi3.o)
                0x0203094c                __divdi3
 .text          0x02030e04      0x44c d:/devkitpro/devkitarm/bin/../lib/gcc/arm-eabi/4.5.1\libgcc.a(_udivdi3.o)
                0x02030e04                __udivdi3
 .text          0x02031250       0x48 d:/devkitpro/devkitarm/bin/../lib/gcc/arm-eabi/4.5.1\libgcc.a(_clzsi2.o)
                0x02031250                __clzsi2
 .text          0x02031298        0x0 d:/devkitpro/devkitarm/bin/../lib/gcc/arm-eabi/4.5.1/crtend.o
 .text          0x02031298        0x0 d:/devkitpro/devkitarm/bin/../lib/gcc/arm-eabi/4.5.1/crtn.o
 .text.stub     0x02031298        0x8 linker stubs
 *(.text.*)
 *(.stub)
 *(.gnu.warning)
 *(.gnu.linkonce.t*)
 *(.glue_7)
 .glue_7        0x00000000        0x0 linker stubs
 *(.glue_7t)
 .glue_7t       0x00000000        0x0 linker stubs
                0x020312a0                . = ALIGN (0x4)

.vfp11_veneer   0x00000000        0x0 load address 0x020312a0
 .vfp11_veneer  0x00000000        0x0 linker stubs

.v4_bx          0x00000000        0x0 load address 0x020312a0
 .v4_bx         0x00000000        0x0 linker stubs

.fini           0x020312a0       0x18
 *(.fini)
 .fini          0x020312a0        0xc d:/devkitpro/devkitarm/bin/../lib/gcc/arm-eabi/4.5.1/crti.o
                0x020312a0                _fini
 .fini          0x020312ac        0xc d:/devkitpro/devkitarm/bin/../lib/gcc/arm-eabi/4.5.1/crtn.o
                0x020312b8                __text_end = .

.rodata         0x020312b8     0x4ba8
 *(.rodata)
 .rodata        0x020312b8      0x48c james.png.o
                0x020312b8                james_png
                0x02031740                james_png_size
                0x02031740                james_png_end
 .rodata        0x02031744       0x10 main.o
 .rodata        0x02031754       0x48 d:/devkitPro/libnds/lib\libul.a(drawing.o)
                0x02031754                ul_pixelSizes
                0x02031760                ul_pixelWidth
                0x02031784                ul_paletteSizes
                0x02031790                ul_pixelsPerByte
 .rodata        0x0203179c      0x810 d:/devkitPro/libnds/lib\libul.a(text.o)
                0x020317ac                ul_lcdFont_data
 .rodata        0x02031fac       0xfc d:/devkitPro/libnds/lib\libpng.a(png.o)
                0x02031fac                png_libpng_ver
                0x02031fbe                png_sig
                0x02031fc8                png_pass_start
                0x02031fe4                png_pass_inc
                0x02032000                png_pass_ystart
                0x0203201c                png_pass_yinc
                0x02032038                png_pass_mask
                0x02032054                png_pass_dsp_mask
 .rodata        0x020320a8       0x24 d:/devkitPro/libnds/lib\libpng.a(pngrtran.o)
 .rodata        0x020320cc       0x1f d:/devkitPro/libnds/lib\libpng.a(pngrutil.o)
 .rodata        0x020320eb      0x300 d:/devkitPro/libnds/lib\libpng.a(pngtrans.o)
 *fill*         0x020323eb        0x1 ff
 .rodata        0x020323ec     0x2000 d:/devkitPro/libnds/lib\libz.a(crc32.o)
 .rodata        0x020343ec      0x8a6 d:/devkitPro/libnds/lib\libz.a(inflate.o)
 .rodata        0x02034c92      0x12c d:/devkitPro/libnds/lib\libz.a(inftrees.o)
                0x02034c92                inflate_copyright
 *fill*         0x02034dbe        0x2 ff
 .rodata        0x02034dc0       0x28 d:/devkitPro/libnds/lib\libz.a(zutil.o)
                0x02034dc0                z_errmsg
 .rodata        0x02034de8      0x308 d:/devkitPro/libnds/lib\libnds9.a(trig.o)
                0x02034de8                SIN_LUT
                0x02034eec                TAN_LUT
 .rodata        0x020350f0       0x68 d:/devkitPro/libnds/lib\libnds9.a(videoGL.o)
 .rodata        0x02035158       0x30 d:/devkitpro/devkitarm/bin/../lib/gcc/arm-eabi/4.5.1/../../../../arm-eabi/lib\libm.a(lib_a-e_pow.o)
 .rodata        0x02035188      0x188 d:/devkitpro/devkitarm/bin/../lib/gcc/arm-eabi/4.5.1/../../../../arm-eabi/lib\libm.a(lib_a-e_rem_pio2.o)
 .rodata        0x02035310       0x50 d:/devkitpro/devkitarm/bin/../lib/gcc/arm-eabi/4.5.1/../../../../arm-eabi/lib\libm.a(lib_a-k_rem_pio2.o)
 .rodata        0x02035360       0x10 d:/devkitpro/devkitarm/bin/../lib/gcc/arm-eabi/4.5.1/../../../../arm-eabi/lib\libm.a(lib_a-s_rint.o)
 .rodata        0x02035370        0x4 d:/devkitpro/devkitarm/bin/../lib/gcc/arm-eabi/4.5.1/../../../../arm-eabi/lib\libg.a(lib_a-impure.o)
                0x02035370                _global_impure_ptr
 *fill*         0x02035374        0x4 ff
 .rodata        0x02035378       0x28 d:/devkitpro/devkitarm/bin/../lib/gcc/arm-eabi/4.5.1/../../../../arm-eabi/lib\libg.a(lib_a-strtod.o)
 .rodata        0x020353a0       0x20 d:/devkitpro/devkitarm/bin/../lib/gcc/arm-eabi/4.5.1/../../../../arm-eabi/lib\libg.a(lib_a-svfprintf.o)
 .rodata        0x020353c0       0x20 d:/devkitpro/devkitarm/bin/../lib/gcc/arm-eabi/4.5.1/../../../../arm-eabi/lib\libg.a(lib_a-vfprintf.o)
 .rodata        0x020353e0       0x54 d:/devkitpro/devkitarm/bin/../lib/gcc/arm-eabi/4.5.1/../../../../arm-eabi/lib\libg.a(lib_a-locale.o)
 .rodata        0x02035434       0x90 d:/devkitpro/devkitarm/bin/../lib/gcc/arm-eabi/4.5.1/../../../../arm-eabi/lib\libg.a(lib_a-mbtowc_r.o)
 *fill*         0x020354c4        0x4 ff
 .rodata        0x020354c8      0x128 d:/devkitpro/devkitarm/bin/../lib/gcc/arm-eabi/4.5.1/../../../../arm-eabi/lib\libg.a(lib_a-mprec.o)
                0x020354d8                __mprec_tens
                0x020355a0                __mprec_bigtens
                0x020355c8                __mprec_tinytens
 .rodata        0x020355f0       0x20 d:/devkitpro/devkitarm/bin/../lib/gcc/arm-eabi/4.5.1/../../../../arm-eabi/lib\libg.a(lib_a-svfiprintf.o)
 .rodata        0x02035610       0x20 d:/devkitpro/devkitarm/bin/../lib/gcc/arm-eabi/4.5.1/../../../../arm-eabi/lib\libg.a(lib_a-vfiprintf.o)
 .rodata        0x02035630      0x104 d:/devkitpro/devkitarm/bin/../lib/gcc/arm-eabi/4.5.1/../../../../arm-eabi/lib\libg.a(lib_a-ctype_.o)
                0x02035630                _ctype_
 .rodata        0x02035734       0x64 d:/devkitpro/devkitarm/bin/../lib/gcc/arm-eabi/4.5.1/../../../../arm-eabi/lib\libsysbase.a(iosupport.o)
                0x02035734                dotab_stdnull
 *all.rodata*(*)
 *(.roda)
 *(.rodata.*)
 .rodata.str1.4
                0x02035798        0xc d:/devkitPro/libnds/lib\libul.a(text.o)
 .rodata.str1.1
                0x020357a4        0x6 d:/devkitPro/libnds/lib\libul.a(libLoadPng.o)
 .rodata.str1.1
                0x020357aa      0x117 d:/devkitPro/libnds/lib\libpng.a(png.o)
 .rodata.str1.1
                0x020358c1       0x83 d:/devkitPro/libnds/lib\libpng.a(pngread.o)
 .rodata.str1.1
                0x02035944       0x25 d:/devkitPro/libnds/lib\libpng.a(pngrtran.o)
 .rodata.str1.1
                0x02035969       0x48 d:/devkitPro/libnds/lib\libpng.a(pngerror.o)
 .rodata.str1.1
                0x020359b1      0x119 d:/devkitPro/libnds/lib\libpng.a(pngrutil.o)
 .rodata.str1.1
                0x02035aca      0x1a8 d:/devkitPro/libnds/lib\libz.a(inflate.o)
 .rodata.str1.1
                0x00000000       0x50 d:/devkitPro/libnds/lib\libz.a(inffast.o)
 .rodata.str1.1
                0x02035c72       0x74 d:/devkitPro/libnds/lib\libz.a(zutil.o)
                                 0x7b (size before relaxing)
 *fill*         0x02035ce6        0x2 ff
 .rodata.str1.4
                0x02035ce8        0x4 d:/devkitpro/devkitarm/bin/../lib/gcc/arm-eabi/4.5.1/../../../../arm-eabi/lib\libm.a(lib_a-w_pow.o)
 .rodata.str1.4
                0x00000000        0x4 d:/devkitpro/devkitarm/bin/../lib/gcc/arm-eabi/4.5.1/../../../../arm-eabi/lib\libm.a(lib_a-e_pow.o)
 .rodata.str1.4
                0x02035cec        0x2 d:/devkitpro/devkitarm/bin/../lib/gcc/arm-eabi/4.5.1/../../../../arm-eabi/lib\libg.a(lib_a-impure.o)
                                  0x4 (size before relaxing)
 *fill*         0x02035cee        0x2 ff
 .rodata.str1.4
                0x02035cf0        0xf d:/devkitpro/devkitarm/bin/../lib/gcc/arm-eabi/4.5.1/../../../../arm-eabi/lib\libg.a(lib_a-strtod.o)
                                 0x10 (size before relaxing)
 *fill*         0x02035cff        0x1 ff
 .rodata.str1.4
                0x02035d00       0x42 d:/devkitpro/devkitarm/bin/../lib/gcc/arm-eabi/4.5.1/../../../../arm-eabi/lib\libg.a(lib_a-svfprintf.o)
                                 0x44 (size before relaxing)
 .rodata.str1.4
                0x00000000       0x44 d:/devkitpro/devkitarm/bin/../lib/gcc/arm-eabi/4.5.1/../../../../arm-eabi/lib\libg.a(lib_a-vfprintf.o)
 *fill*         0x02035d42        0x2 ff
 .rodata.str1.4
                0x02035d44       0x10 d:/devkitpro/devkitarm/bin/../lib/gcc/arm-eabi/4.5.1/../../../../arm-eabi/lib\libg.a(lib_a-dtoa.o)
                                 0x14 (size before relaxing)
 .rodata.str1.4
                0x02035d54       0x1b d:/devkitpro/devkitarm/bin/../lib/gcc/arm-eabi/4.5.1/../../../../arm-eabi/lib\libg.a(lib_a-gdtoa-gethex.o)
                                 0x1c (size before relaxing)
 *fill*         0x02035d6f        0x1 ff
 .rodata.str1.4
                0x02035d70       0xe8 d:/devkitpro/devkitarm/bin/../lib/gcc/arm-eabi/4.5.1/../../../../arm-eabi/lib\libg.a(lib_a-locale.o)
                                 0xf0 (size before relaxing)
 .rodata.str1.4
                0x00000000       0x30 d:/devkitpro/devkitarm/bin/../lib/gcc/arm-eabi/4.5.1/../../../../arm-eabi/lib\libg.a(lib_a-svfiprintf.o)
 .rodata.str1.4
                0x00000000       0x30 d:/devkitpro/devkitarm/bin/../lib/gcc/arm-eabi/4.5.1/../../../../arm-eabi/lib\libg.a(lib_a-vfiprintf.o)
 .rodata.str1.4
                0x02035e58        0x8 d:/devkitpro/devkitarm/bin/../lib/gcc/arm-eabi/4.5.1/../../../../arm-eabi/lib\libsysbase.a(iosupport.o)
 *(.gnu.linkonce.r*)
                0x02035e60                . = ALIGN (0x4)

.ARM.extab      0x02035e60       0x30
 *(.ARM.extab* .gnu.linkonce.armextab.*)
 .ARM.extab     0x02035e60        0x0 d:/devkitpro/devkitarm/bin/../lib/gcc/arm-eabi/4.5.1\libgcc.a(bpabi.o)
 .ARM.extab     0x02035e60       0x18 d:/devkitpro/devkitarm/bin/../lib/gcc/arm-eabi/4.5.1\libgcc.a(unwind-arm.o)
 .ARM.extab     0x02035e78       0x18 d:/devkitpro/devkitarm/bin/../lib/gcc/arm-eabi/4.5.1\libgcc.a(pr-support.o)
 .ARM.extab     0x02035e90        0x0 d:/devkitpro/devkitarm/bin/../lib/gcc/arm-eabi/4.5.1\libgcc.a(_divdi3.o)
 .ARM.extab     0x02035e90        0x0 d:/devkitpro/devkitarm/bin/../lib/gcc/arm-eabi/4.5.1\libgcc.a(_udivdi3.o)
                0x02035e90                __exidx_start = .

.ARM.exidx      0x02035e90       0xe0
 *(.ARM.exidx* .gnu.linkonce.armexidx.*)
 .ARM.exidx     0x02035e90        0x8 d:/devkitpro/devkitarm/bin/../lib/gcc/arm-eabi/4.5.1\libgcc.a(bpabi.o)
                                 0x10 (size before relaxing)
 .ARM.exidx     0x02035e98       0x88 d:/devkitpro/devkitarm/bin/../lib/gcc/arm-eabi/4.5.1\libgcc.a(unwind-arm.o)
                                 0xc0 (size before relaxing)
 .ARM.exidx     0x02035f20       0x38 d:/devkitpro/devkitarm/bin/../lib/gcc/arm-eabi/4.5.1\libgcc.a(pr-support.o)
                                 0x48 (size before relaxing)
 .ARM.exidx     0x02035f58        0x8 d:/devkitpro/devkitarm/bin/../lib/gcc/arm-eabi/4.5.1\libgcc.a(_divdi3.o)
 .ARM.exidx     0x02035f60       0x10 d:/devkitpro/devkitarm/bin/../lib/gcc/arm-eabi/4.5.1\libgcc.a(_udivdi3.o)
                                  0x8 (size before relaxing)
                0x02035f70                __exidx_end = .
                0x02035f70                . = ALIGN (0x4)
                0x02035f70                PROVIDE (__preinit_array_start, .)

.preinit_array
 *(.preinit_array)
                0x02035f70                PROVIDE (__preinit_array_end, .)
                0x02035f70                PROVIDE (__init_array_start, .)

.init_array     0x02035f70        0x4
 *(SORT(.init_array.*))
 *(.init_array)
 .init_array    0x02035f70        0x4 d:/devkitpro/devkitarm/bin/../lib/gcc/arm-eabi/4.5.1/crtbegin.o
                0x02035f74                PROVIDE (__init_array_end, .)
                0x02035f74                PROVIDE (__fini_array_start, .)

.fini_array     0x02035f74        0x4
 *(.fini_array)
 .fini_array    0x02035f74        0x4 d:/devkitpro/devkitarm/bin/../lib/gcc/arm-eabi/4.5.1/crtbegin.o
 *(SORT(.fini_array.*))
                0x02035f78                PROVIDE (__fini_array_end, .)

.ctors          0x02035f78        0x0
 *crtbegin.o(.ctors)
 *(EXCLUDE_FILE(*crtend.o) .ctors)
 *(SORT(.ctors.*))
 *(.ctors)
                0x02035f78                . = ALIGN (0x4)

.dtors          0x02035f78        0x0
 *crtbegin.o(.dtors)
 *(EXCLUDE_FILE(*crtend.o) .dtors)
 *(SORT(.dtors.*))
 *(.dtors)
                0x02035f78                . = ALIGN (0x4)

.eh_frame       0x02035f78        0x4
 *(.eh_frame)
 .eh_frame      0x02035f78        0x0 d:/devkitpro/devkitarm/bin/../lib/gcc/arm-eabi/4.5.1/crtbegin.o
 .eh_frame      0x02035f78        0x4 d:/devkitpro/devkitarm/bin/../lib/gcc/arm-eabi/4.5.1/crtend.o
                0x02035f7c                . = ALIGN (0x4)

.gcc_except_table
                0x02035f7c        0x0
 *(.gcc_except_table)
                0x02035f7c                . = ALIGN (0x4)

.jcr            0x02035f7c        0x4
 *(.jcr)
 .jcr           0x02035f7c        0x0 d:/devkitpro/devkitarm/bin/../lib/gcc/arm-eabi/4.5.1/crtbegin.o
 .jcr           0x02035f7c        0x4 d:/devkitpro/devkitarm/bin/../lib/gcc/arm-eabi/4.5.1/crtend.o

.got
 *(.got.plt)
 *(.got)
 *(.rel.got)

.ewram          0x02035f80        0x0
                0x02035f80                __ewram_start = ABSOLUTE (.)
 *(.ewram)
 *ewram.*(.text)
                0x02035f80                . = ALIGN (0x4)

.data           0x02035f80      0xb28
                0x02035f80                __data_start = ABSOLUTE (.)
 *(.data)
 .data          0x02035f80        0x0 d:/devkitpro/devkitarm/bin/../lib/gcc/arm-eabi/4.5.1/../../../../arm-eabi/lib/ds_arm9_crt0.o
 .data          0x02035f80        0x0 d:/devkitpro/devkitarm/bin/../lib/gcc/arm-eabi/4.5.1/crti.o
 .data          0x02035f80        0x4 d:/devkitpro/devkitarm/bin/../lib/gcc/arm-eabi/4.5.1/crtbegin.o
                0x02035f80                __dso_handle
 .data          0x02035f84        0x0 james.png.o
 .data          0x02035f84        0x0 main.o
 .data          0x02035f84        0x0 d:/devkitPro/libnds/lib\libul.a(ulib.o)
 .data          0x02035f84        0x0 d:/devkitPro/libnds/lib\libul.a(drawing.o)
 .data          0x02035f84       0x28 d:/devkitPro/libnds/lib\libul.a(text.o)
                0x02035f84                ul_curTextColor
                0x02035f88                ul_lcdFontInfo
 .data          0x02035fac       0x2c d:/devkitPro/libnds/lib\libul.a(VirtualFile.o)
                0x02035fac                VF_MEMORY
                0x02035fb0                vfsMemory
 .data          0x02035fd8       0x10 d:/devkitPro/libnds/lib\libul.a(texVramManager.o)
                0x02035fd8                ul_texVramSize
                0x02035fdc                ul_optimizeTextureSize
                0x02035fe0                ul_texVramBase
                0x02035fe4                ul_texVramBanks
                0x02035fe6                ul_initTexturesToZero
 .data          0x02035fe8        0xc d:/devkitPro/libnds/lib\libul.a(texPalManager.o)
                0x02035fe8                ul_texPalVramSize
                0x02035fec                ul_texPalVramBanks
                0x02035ff0                ul_texPalVramBase
 .data          0x02035ff4       0x28 d:/devkitPro/libnds/lib\libul.a(keys.o)
                0x02035ff4                ul_keys
 .data          0x0203601c        0x0 d:/devkitPro/libnds/lib\libul.a(ulDrawImage.o)
 .data          0x0203601c        0x0 d:/devkitPro/libnds/lib\libul.a(ulCreateImagePalette.o)
 .data          0x0203601c        0x0 d:/devkitPro/libnds/lib\libul.a(ulDrawGradientRect.o)
 .data          0x0203601c        0x0 d:/devkitPro/libnds/lib\libul.a(ulLoadImageFilePNG.o)
 .data          0x0203601c        0x0 d:/devkitPro/libnds/lib\libul.a(glWrapper.o)
 .data          0x0203601c        0x0 d:/devkitPro/libnds/lib\libul.a(libLoadPng.o)
 .data          0x0203601c        0x4 d:/devkitPro/libnds/lib\libul.a(loading_utility.o)
                0x0203601c                ul_loadUtilActiveSource
 .data          0x02036020       0x69 d:/devkitPro/libnds/lib\libpng.a(png.o)
                0x02036020                png_IHDR
                0x02036025                png_IDAT
                0x0203602a                png_IEND
                0x0203602f                png_PLTE
                0x02036034                png_bKGD
                0x02036039                png_cHRM
                0x0203603e                png_gAMA
                0x02036043                png_hIST
                0x02036048                png_iCCP
                0x0203604d                png_iTXt
                0x02036052                png_oFFs
                0x02036057                png_pCAL
                0x0203605c                png_sCAL
                0x02036061                png_pHYs
                0x02036066                png_sBIT
                0x0203606b                png_sPLT
                0x02036070                png_sRGB
                0x02036075                png_tEXt
                0x0203607a                png_tIME
                0x0203607f                png_tRNS
                0x02036084                png_zTXt
 .data          0x02036089        0x0 d:/devkitPro/libnds/lib\libpng.a(pngread.o)
 .data          0x02036089        0x0 d:/devkitPro/libnds/lib\libpng.a(pngrio.o)
 .data          0x02036089        0x0 d:/devkitPro/libnds/lib\libpng.a(pngrtran.o)
 .data          0x02036089        0x0 d:/devkitPro/libnds/lib\libpng.a(pngmem.o)
 .data          0x02036089        0x0 d:/devkitPro/libnds/lib\libpng.a(pngerror.o)
 .data          0x02036089        0x0 d:/devkitPro/libnds/lib\libpng.a(pngget.o)
 .data          0x02036089        0x0 d:/devkitPro/libnds/lib\libpng.a(pngrutil.o)
 .data          0x02036089        0x0 d:/devkitPro/libnds/lib\libpng.a(pngtrans.o)
 .data          0x02036089        0x0 d:/devkitPro/libnds/lib\libpng.a(pngset.o)
 .data          0x02036089        0x0 d:/devkitPro/libnds/lib\libz.a(crc32.o)
 .data          0x02036089        0x0 d:/devkitPro/libnds/lib\libz.a(inflate.o)
 .data          0x02036089        0x0 d:/devkitPro/libnds/lib\libz.a(inftrees.o)
 .data          0x02036089        0x0 d:/devkitPro/libnds/lib\libz.a(inffast.o)
 .data          0x02036089        0x0 d:/devkitPro/libnds/lib\libz.a(adler32.o)
 .data          0x02036089        0x0 d:/devkitPro/libnds/lib\libz.a(zutil.o)
 .data          0x02036089        0x0 d:/devkitPro/libnds/lib\libnds9.a(dynamicArray.o)
 .data          0x02036089        0x3 d:/devkitPro/libnds/lib\libnds9.a(keys.o)
 .data          0x0203608c        0x0 d:/devkitPro/libnds/lib\libnds9.a(system.o)
 .data          0x0203608c        0x0 d:/devkitPro/libnds/lib\libnds9.a(touch.o)
 .data          0x0203608c        0x0 d:/devkitPro/libnds/lib\libnds9.a(trig.o)
 .data          0x0203608c        0x4 d:/devkitPro/libnds/lib\libnds9.a(videoGL.o)
 .data          0x02036090        0x0 d:/devkitPro/libnds/lib\libnds9.a(initSystem.o)
 .data          0x02036090       0x10 d:/devkitPro/libnds/lib\libnds9.a(fifosystem.o)
                0x02036090                fifo_freewords
                0x02036094                fifo_buffer_free
                0x02036098                fifo_send_queue
                0x0203609c                fifo_receive_queue
 .data          0x020360a0        0x0 d:/devkitPro/libnds/lib\libnds9.a(interrupts.o)
 .data          0x020360a0        0x0 d:/devkitPro/libnds/lib\libnds9.a(libnds_exit.o)
 .data          0x020360a0        0x0 d:/devkitPro/libnds/lib\libnds9.a(mpu_setup.o)
 .data          0x020360a0        0x0 d:/devkitPro/libnds/lib\libnds9.a(biosCalls.o)
 .data          0x020360a0        0x0 d:/devkitPro/libnds/lib\libnds9.a(interruptDispatcher.o)
 .data          0x020360a0        0x0 d:/devkitPro/libnds/lib\libnds9.a(swiSoftReset.o)
 .data          0x020360a0        0x0 d:/devkitPro/libnds/lib\libnds9.a(video.o)
 .data          0x020360a0        0x0 d:/devkitpro/devkitarm/bin/../lib/gcc/arm-eabi/4.5.1/../../../../arm-eabi/lib\libm.a(lib_a-s_cos.o)
 .data          0x020360a0        0x0 d:/devkitpro/devkitarm/bin/../lib/gcc/arm-eabi/4.5.1/../../../../arm-eabi/lib\libm.a(lib_a-s_sin.o)
 .data          0x020360a0        0x0 d:/devkitpro/devkitarm/bin/../lib/gcc/arm-eabi/4.5.1/../../../../arm-eabi/lib\libm.a(lib_a-w_pow.o)
 .data          0x020360a0        0x0 d:/devkitpro/devkitarm/bin/../lib/gcc/arm-eabi/4.5.1/../../../../arm-eabi/lib\libm.a(lib_a-e_pow.o)
 .data          0x020360a0        0x0 d:/devkitpro/devkitarm/bin/../lib/gcc/arm-eabi/4.5.1/../../../../arm-eabi/lib\libm.a(lib_a-e_rem_pio2.o)
 .data          0x020360a0        0x0 d:/devkitpro/devkitarm/bin/../lib/gcc/arm-eabi/4.5.1/../../../../arm-eabi/lib\libm.a(lib_a-e_sqrt.o)
 .data          0x020360a0        0x0 d:/devkitpro/devkitarm/bin/../lib/gcc/arm-eabi/4.5.1/../../../../arm-eabi/lib\libm.a(lib_a-k_cos.o)
 .data          0x020360a0        0x0 d:/devkitpro/devkitarm/bin/../lib/gcc/arm-eabi/4.5.1/../../../../arm-eabi/lib\libm.a(lib_a-k_rem_pio2.o)
 .data          0x020360a0        0x0 d:/devkitpro/devkitarm/bin/../lib/gcc/arm-eabi/4.5.1/../../../../arm-eabi/lib\libm.a(lib_a-k_sin.o)
 .data          0x020360a0        0x0 d:/devkitpro/devkitarm/bin/../lib/gcc/arm-eabi/4.5.1/../../../../arm-eabi/lib\libm.a(lib_a-s_fabs.o)
 .data          0x020360a0        0x0 d:/devkitpro/devkitarm/bin/../lib/gcc/arm-eabi/4.5.1/../../../../arm-eabi/lib\libm.a(lib_a-s_finite.o)
 .data          0x020360a0        0x0 d:/devkitpro/devkitarm/bin/../lib/gcc/arm-eabi/4.5.1/../../../../arm-eabi/lib\libm.a(lib_a-s_floor.o)
 .data          0x020360a0        0x0 d:/devkitpro/devkitarm/bin/../lib/gcc/arm-eabi/4.5.1/../../../../arm-eabi/lib\libm.a(lib_a-s_fpclassify.o)
 .data          0x020360a0        0x1 d:/devkitpro/devkitarm/bin/../lib/gcc/arm-eabi/4.5.1/../../../../arm-eabi/lib\libm.a(lib_a-s_lib_ver.o)
                0x020360a0                __fdlib_version
 .data          0x020360a1        0x0 d:/devkitpro/devkitarm/bin/../lib/gcc/arm-eabi/4.5.1/../../../../arm-eabi/lib\libm.a(lib_a-s_matherr.o)
 .data          0x020360a1        0x0 d:/devkitpro/devkitarm/bin/../lib/gcc/arm-eabi/4.5.1/../../../../arm-eabi/lib\libm.a(lib_a-s_nan.o)
 .data          0x020360a1        0x0 d:/devkitpro/devkitarm/bin/../lib/gcc/arm-eabi/4.5.1/../../../../arm-eabi/lib\libm.a(lib_a-s_rint.o)
 .data          0x020360a1        0x0 d:/devkitpro/devkitarm/bin/../lib/gcc/arm-eabi/4.5.1/../../../../arm-eabi/lib\libm.a(lib_a-s_scalbn.o)
 .data          0x020360a1        0x0 d:/devkitpro/devkitarm/bin/../lib/gcc/arm-eabi/4.5.1/../../../../arm-eabi/lib\libm.a(lib_a-s_copysign.o)
 .data          0x020360a1        0x0 d:/devkitpro/devkitarm/bin/../lib/gcc/arm-eabi/4.5.1\libgcc.a(_udivsi3.o)
 .data          0x020360a1        0x0 d:/devkitpro/devkitarm/bin/../lib/gcc/arm-eabi/4.5.1\libgcc.a(_divsi3.o)
 .data          0x020360a1        0x0 d:/devkitpro/devkitarm/bin/../lib/gcc/arm-eabi/4.5.1\libgcc.a(_dvmd_tls.o)
 .data          0x020360a1        0x0 d:/devkitpro/devkitarm/bin/../lib/gcc/arm-eabi/4.5.1\libgcc.a(_arm_addsubdf3.o)
 .data          0x020360a1        0x0 d:/devkitpro/devkitarm/bin/../lib/gcc/arm-eabi/4.5.1\libgcc.a(_arm_muldivdf3.o)
 .data          0x020360a1        0x0 d:/devkitpro/devkitarm/bin/../lib/gcc/arm-eabi/4.5.1\libgcc.a(_arm_cmpdf2.o)
 .data          0x020360a1        0x0 d:/devkitpro/devkitarm/bin/../lib/gcc/arm-eabi/4.5.1\libgcc.a(_arm_fixdfsi.o)
 .data          0x020360a1        0x0 d:/devkitpro/devkitarm/bin/../lib/gcc/arm-eabi/4.5.1\libgcc.a(_arm_fixunsdfsi.o)
 .data          0x020360a1        0x0 d:/devkitpro/devkitarm/bin/../lib/gcc/arm-eabi/4.5.1\libgcc.a(_arm_truncdfsf2.o)
 .data          0x020360a1        0x0 d:/devkitpro/devkitarm/bin/../lib/gcc/arm-eabi/4.5.1\libgcc.a(_arm_addsubsf3.o)
 .data          0x020360a1        0x0 d:/devkitpro/devkitarm/bin/../lib/gcc/arm-eabi/4.5.1\libgcc.a(_arm_muldivsf3.o)
 .data          0x020360a1        0x0 d:/devkitpro/devkitarm/bin/../lib/gcc/arm-eabi/4.5.1\libgcc.a(_arm_cmpsf2.o)
 .data          0x020360a1        0x0 d:/devkitpro/devkitarm/bin/../lib/gcc/arm-eabi/4.5.1\libgcc.a(_muldi3.o)
 .data          0x020360a1        0x0 d:/devkitpro/devkitarm/bin/../lib/gcc/arm-eabi/4.5.1/../../../../arm-eabi/lib\libg.a(lib_a-abort.o)
 .data          0x020360a1        0x0 d:/devkitpro/devkitarm/bin/../lib/gcc/arm-eabi/4.5.1/../../../../arm-eabi/lib\libg.a(lib_a-bsearch.o)
 .data          0x020360a1        0x0 d:/devkitpro/devkitarm/bin/../lib/gcc/arm-eabi/4.5.1/../../../../arm-eabi/lib\libg.a(lib_a-errno.o)
 .data          0x020360a1        0x0 d:/devkitpro/devkitarm/bin/../lib/gcc/arm-eabi/4.5.1/../../../../arm-eabi/lib\libg.a(lib_a-fprintf.o)
 .data          0x020360a1        0x0 d:/devkitpro/devkitarm/bin/../lib/gcc/arm-eabi/4.5.1/../../../../arm-eabi/lib\libg.a(lib_a-fread.o)
 .data          0x020360a1        0x0 d:/devkitpro/devkitarm/bin/../lib/gcc/arm-eabi/4.5.1/../../../../arm-eabi/lib\libg.a(lib_a-freer.o)
 *fill*         0x020360a1        0x7 ff
 .data          0x020360a8      0x430 d:/devkitpro/devkitarm/bin/../lib/gcc/arm-eabi/4.5.1/../../../../arm-eabi/lib\libg.a(lib_a-impure.o)
                0x020360a8                _impure_ptr
 .data          0x020364d8        0x0 d:/devkitpro/devkitarm/bin/../lib/gcc/arm-eabi/4.5.1/../../../../arm-eabi/lib\libg.a(lib_a-init.o)
 .data          0x020364d8        0x0 d:/devkitpro/devkitarm/bin/../lib/gcc/arm-eabi/4.5.1/../../../../arm-eabi/lib\libg.a(lib_a-malloc.o)
 .data          0x020364d8      0x410 d:/devkitpro/devkitarm/bin/../lib/gcc/arm-eabi/4.5.1/../../../../arm-eabi/lib\libg.a(lib_a-mallocr.o)
                0x020364d8                __malloc_av_
                0x020368e0                __malloc_sbrk_base
                0x020368e4                __malloc_trim_threshold
 .data          0x020368e8        0x0 d:/devkitpro/devkitarm/bin/../lib/gcc/arm-eabi/4.5.1/../../../../arm-eabi/lib\libg.a(lib_a-memcmp.o)
 .data          0x020368e8        0x0 d:/devkitpro/devkitarm/bin/../lib/gcc/arm-eabi/4.5.1/../../../../arm-eabi/lib\libg.a(lib_a-memcpy.o)
 .data          0x020368e8        0x0 d:/devkitpro/devkitarm/bin/../lib/gcc/arm-eabi/4.5.1/../../../../arm-eabi/lib\libg.a(lib_a-memmove.o)
 .data          0x020368e8        0x0 d:/devkitpro/devkitarm/bin/../lib/gcc/arm-eabi/4.5.1/../../../../arm-eabi/lib\libg.a(lib_a-memset.o)
 .data          0x020368e8        0x0 d:/devkitpro/devkitarm/bin/../lib/gcc/arm-eabi/4.5.1/../../../../arm-eabi/lib\libg.a(lib_a-mlock.o)
 .data          0x020368e8        0x0 d:/devkitpro/devkitarm/bin/../lib/gcc/arm-eabi/4.5.1/../../../../arm-eabi/lib\libg.a(lib_a-realloc.o)
 .data          0x020368e8        0x0 d:/devkitpro/devkitarm/bin/../lib/gcc/arm-eabi/4.5.1/../../../../arm-eabi/lib\libg.a(lib_a-reallocr.o)
 .data          0x020368e8        0x0 d:/devkitpro/devkitarm/bin/../lib/gcc/arm-eabi/4.5.1/../../../../arm-eabi/lib\libg.a(lib_a-refill.o)
 .data          0x020368e8        0x0 d:/devkitpro/devkitarm/bin/../lib/gcc/arm-eabi/4.5.1/../../../../arm-eabi/lib\libg.a(lib_a-setjmp.o)
 .data          0x020368e8        0x0 d:/devkitpro/devkitarm/bin/../lib/gcc/arm-eabi/4.5.1/../../../../arm-eabi/lib\libg.a(lib_a-signal.o)
 .data          0x020368e8        0x0 d:/devkitpro/devkitarm/bin/../lib/gcc/arm-eabi/4.5.1/../../../../arm-eabi/lib\libg.a(lib_a-snprintf.o)
 .data          0x020368e8        0x0 d:/devkitpro/devkitarm/bin/../lib/gcc/arm-eabi/4.5.1/../../../../arm-eabi/lib\libg.a(lib_a-strcmp.o)
 .data          0x020368e8        0x0 d:/devkitpro/devkitarm/bin/../lib/gcc/arm-eabi/4.5.1/../../../../arm-eabi/lib\libg.a(lib_a-strlen.o)
 .data          0x020368e8       0x28 d:/devkitpro/devkitarm/bin/../lib/gcc/arm-eabi/4.5.1/../../../../arm-eabi/lib\libg.a(lib_a-strtod.o)
 .data          0x02036910        0x0 d:/devkitpro/devkitarm/bin/../lib/gcc/arm-eabi/4.5.1/../../../../arm-eabi/lib\libg.a(lib_a-svfprintf.o)
 .data          0x02036910        0x0 d:/devkitpro/devkitarm/bin/../lib/gcc/arm-eabi/4.5.1/../../../../arm-eabi/lib\libg.a(lib_a-vfprintf.o)
 .data          0x02036910        0x0 d:/devkitpro/devkitarm/bin/../lib/gcc/arm-eabi/4.5.1/../../../../arm-eabi/lib\libg.a(lib_a-wcrtomb.o)
 .data          0x02036910        0x0 d:/devkitpro/devkitarm/bin/../lib/gcc/arm-eabi/4.5.1/../../../../arm-eabi/lib\libg.a(lib_a-wcsrtombs.o)
 .data          0x02036910        0x4 d:/devkitpro/devkitarm/bin/../lib/gcc/arm-eabi/4.5.1/../../../../arm-eabi/lib\libg.a(lib_a-wctomb_r.o)
                0x02036910                __wctomb
 .data          0x02036914        0x0 d:/devkitpro/devkitarm/bin/../lib/gcc/arm-eabi/4.5.1/../../../../arm-eabi/lib\libg.a(lib_a-wsetup.o)
 .data          0x02036914        0x0 d:/devkitpro/devkitarm/bin/../lib/gcc/arm-eabi/4.5.1/../../../../arm-eabi/lib\libg.a(lib_a-dtoa.o)
 .data          0x02036914        0x0 d:/devkitpro/devkitarm/bin/../lib/gcc/arm-eabi/4.5.1/../../../../arm-eabi/lib\libg.a(lib_a-fflush.o)
 .data          0x02036914        0x0 d:/devkitpro/devkitarm/bin/../lib/gcc/arm-eabi/4.5.1/../../../../arm-eabi/lib\libg.a(lib_a-findfp.o)
 .data          0x02036914        0x0 d:/devkitpro/devkitarm/bin/../lib/gcc/arm-eabi/4.5.1/../../../../arm-eabi/lib\libg.a(lib_a-fwalk.o)
 .data          0x02036914        0x0 d:/devkitpro/devkitarm/bin/../lib/gcc/arm-eabi/4.5.1/../../../../arm-eabi/lib\libg.a(lib_a-gdtoa-gethex.o)
 .data          0x02036914        0x0 d:/devkitpro/devkitarm/bin/../lib/gcc/arm-eabi/4.5.1/../../../../arm-eabi/lib\libg.a(lib_a-gdtoa-hexnan.o)
 .data          0x02036914      0x144 d:/devkitpro/devkitarm/bin/../lib/gcc/arm-eabi/4.5.1/../../../../arm-eabi/lib\libg.a(lib_a-locale.o)
                0x02036914                __default_locale
                0x02036954                __mb_cur_max
 .data          0x02036a58        0x0 d:/devkitpro/devkitarm/bin/../lib/gcc/arm-eabi/4.5.1/../../../../arm-eabi/lib\libg.a(lib_a-makebuf.o)
 .data          0x02036a58        0x4 d:/devkitpro/devkitarm/bin/../lib/gcc/arm-eabi/4.5.1/../../../../arm-eabi/lib\libg.a(lib_a-mbtowc_r.o)
                0x02036a58                __mbtowc
 .data          0x02036a5c        0x0 d:/devkitpro/devkitarm/bin/../lib/gcc/arm-eabi/4.5.1/../../../../arm-eabi/lib\libg.a(lib_a-memchr.o)
 .data          0x02036a5c        0x0 d:/devkitpro/devkitarm/bin/../lib/gcc/arm-eabi/4.5.1/../../../../arm-eabi/lib\libg.a(lib_a-mprec.o)
 .data          0x02036a5c        0x0 d:/devkitpro/devkitarm/bin/../lib/gcc/arm-eabi/4.5.1/../../../../arm-eabi/lib\libg.a(lib_a-sf_nan.o)
 .data          0x02036a5c        0x0 d:/devkitpro/devkitarm/bin/../lib/gcc/arm-eabi/4.5.1/../../../../arm-eabi/lib\libg.a(lib_a-stdio.o)
 .data          0x02036a5c        0x0 d:/devkitpro/devkitarm/bin/../lib/gcc/arm-eabi/4.5.1/../../../../arm-eabi/lib\libg.a(lib_a-strcasecmp.o)
 .data          0x02036a5c        0x0 d:/devkitpro/devkitarm/bin/../lib/gcc/arm-eabi/4.5.1/../../../../arm-eabi/lib\libg.a(lib_a-strcat.o)
 .data          0x02036a5c        0x0 d:/devkitpro/devkitarm/bin/../lib/gcc/arm-eabi/4.5.1/../../../../arm-eabi/lib\libg.a(lib_a-strchr.o)
 .data          0x02036a5c        0x0 d:/devkitpro/devkitarm/bin/../lib/gcc/arm-eabi/4.5.1/../../../../arm-eabi/lib\libg.a(lib_a-strcpy.o)
 .data          0x02036a5c        0x0 d:/devkitpro/devkitarm/bin/../lib/gcc/arm-eabi/4.5.1/../../../../arm-eabi/lib\libg.a(lib_a-strlcpy.o)
 .data          0x02036a5c        0x0 d:/devkitpro/devkitarm/bin/../lib/gcc/arm-eabi/4.5.1/../../../../arm-eabi/lib\libg.a(lib_a-strncasecmp.o)
 .data          0x02036a5c        0x0 d:/devkitpro/devkitarm/bin/../lib/gcc/arm-eabi/4.5.1/../../../../arm-eabi/lib\libg.a(lib_a-strncmp.o)
 .data          0x02036a5c        0x0 d:/devkitpro/devkitarm/bin/../lib/gcc/arm-eabi/4.5.1/../../../../arm-eabi/lib\libg.a(lib_a-strncpy.o)
 .data          0x02036a5c        0x0 d:/devkitpro/devkitarm/bin/../lib/gcc/arm-eabi/4.5.1/../../../../arm-eabi/lib\libg.a(lib_a-strtol.o)
 .data          0x02036a5c        0x0 d:/devkitpro/devkitarm/bin/../lib/gcc/arm-eabi/4.5.1/../../../../arm-eabi/lib\libg.a(lib_a-svfiprintf.o)
 .data          0x02036a5c        0x0 d:/devkitpro/devkitarm/bin/../lib/gcc/arm-eabi/4.5.1/../../../../arm-eabi/lib\libg.a(lib_a-vfiprintf.o)
 .data          0x02036a5c        0x0 d:/devkitpro/devkitarm/bin/../lib/gcc/arm-eabi/4.5.1/../../../../arm-eabi/lib\libg.a(lib_a-wcsnrtombs.o)
 .data          0x02036a5c        0x0 d:/devkitpro/devkitarm/bin/../lib/gcc/arm-eabi/4.5.1/../../../../arm-eabi/lib\libg.a(lib_a-callocr.o)
 .data          0x02036a5c        0x4 d:/devkitpro/devkitarm/bin/../lib/gcc/arm-eabi/4.5.1/../../../../arm-eabi/lib\libg.a(lib_a-ctype_.o)
                0x02036a5c                __ctype_ptr__
 .data          0x02036a60        0x0 d:/devkitpro/devkitarm/bin/../lib/gcc/arm-eabi/4.5.1/../../../../arm-eabi/lib\libg.a(lib_a-fclose.o)
 .data          0x02036a60        0x0 d:/devkitpro/devkitarm/bin/../lib/gcc/arm-eabi/4.5.1/../../../../arm-eabi/lib\libg.a(lib_a-fputwc.o)
 .data          0x02036a60        0x0 d:/devkitpro/devkitarm/bin/../lib/gcc/arm-eabi/4.5.1/../../../../arm-eabi/lib\libg.a(lib_a-fvwrite.o)
 .data          0x02036a60        0x0 d:/devkitpro/devkitarm/bin/../lib/gcc/arm-eabi/4.5.1/../../../../arm-eabi/lib\libg.a(lib_a-getenv_r.o)
 .data          0x02036a60        0x0 d:/devkitpro/devkitarm/bin/../lib/gcc/arm-eabi/4.5.1/../../../../arm-eabi/lib\libg.a(lib_a-wbuf.o)
 .data          0x02036a60        0x4 d:/devkitpro/devkitarm/bin/../lib/gcc/arm-eabi/4.5.1/../../../../arm-eabi/lib\libg.a(lib_a-environ.o)
                0x02036a60                environ
 .data          0x02036a64        0x0 d:/devkitpro/devkitarm/bin/../lib/gcc/arm-eabi/4.5.1/../../../../arm-eabi/lib\libg.a(lib_a-envlock.o)
 .data          0x02036a64        0x0 d:/devkitpro/devkitarm/bin/../lib/gcc/arm-eabi/4.5.1/../../../../arm-eabi/lib\libsysbase.a(close.o)
 .data          0x02036a64        0x0 d:/devkitpro/devkitarm/bin/../lib/gcc/arm-eabi/4.5.1/../../../../arm-eabi/lib\libsysbase.a(fstat.o)
 .data          0x02036a64        0x0 d:/devkitpro/devkitarm/bin/../lib/gcc/arm-eabi/4.5.1/../../../../arm-eabi/lib\libsysbase.a(getpid.o)
 .data          0x02036a64        0x0 d:/devkitpro/devkitarm/bin/../lib/gcc/arm-eabi/4.5.1/../../../../arm-eabi/lib\libsysbase.a(isatty.o)
 .data          0x02036a64        0x0 d:/devkitpro/devkitarm/bin/../lib/gcc/arm-eabi/4.5.1/../../../../arm-eabi/lib\libsysbase.a(kill.o)
 .data          0x02036a64        0x0 d:/devkitpro/devkitarm/bin/../lib/gcc/arm-eabi/4.5.1/../../../../arm-eabi/lib\libsysbase.a(lseek.o)
 .data          0x02036a64        0x0 d:/devkitpro/devkitarm/bin/../lib/gcc/arm-eabi/4.5.1/../../../../arm-eabi/lib\libsysbase.a(read.o)
 .data          0x02036a64        0x0 d:/devkitpro/devkitarm/bin/../lib/gcc/arm-eabi/4.5.1/../../../../arm-eabi/lib\libsysbase.a(sbrk.o)
 .data          0x02036a64        0x0 d:/devkitpro/devkitarm/bin/../lib/gcc/arm-eabi/4.5.1/../../../../arm-eabi/lib\libsysbase.a(times.o)
 .data          0x02036a64        0x0 d:/devkitpro/devkitarm/bin/../lib/gcc/arm-eabi/4.5.1/../../../../arm-eabi/lib\libsysbase.a(write.o)
 .data          0x02036a64        0x0 d:/devkitpro/devkitarm/bin/../lib/gcc/arm-eabi/4.5.1/../../../../arm-eabi/lib\libsysbase.a(_exit.o)
 .data          0x02036a64        0x0 d:/devkitpro/devkitarm/bin/../lib/gcc/arm-eabi/4.5.1/../../../../arm-eabi/lib\libsysbase.a(malloc_vars.o)
 .data          0x02036a64        0x0 d:/devkitpro/devkitarm/bin/../lib/gcc/arm-eabi/4.5.1/../../../../arm-eabi/lib\libsysbase.a(build_argv.o)
 .data          0x02036a64        0x0 d:/devkitpro/devkitarm/bin/../lib/gcc/arm-eabi/4.5.1/../../../../arm-eabi/lib\libsysbase.a(syscall_support.o)
 .data          0x02036a64        0x0 d:/devkitpro/devkitarm/bin/../lib/gcc/arm-eabi/4.5.1/../../../../arm-eabi/lib\libsysbase.a(handle_manager.o)
 .data          0x02036a64       0x44 d:/devkitpro/devkitarm/bin/../lib/gcc/arm-eabi/4.5.1/../../../../arm-eabi/lib\libsysbase.a(iosupport.o)
                0x02036a68                devoptab_list
 .data          0x02036aa8        0x0 d:/devkitpro/devkitarm/bin/../lib/gcc/arm-eabi/4.5.1\libgcc.a(_aeabi_uldivmod.o)
 .data          0x02036aa8        0x0 d:/devkitpro/devkitarm/bin/../lib/gcc/arm-eabi/4.5.1\libgcc.a(bpabi.o)
 .data          0x02036aa8        0x0 d:/devkitpro/devkitarm/bin/../lib/gcc/arm-eabi/4.5.1\libgcc.a(unwind-arm.o)
 .data          0x02036aa8        0x0 d:/devkitpro/devkitarm/bin/../lib/gcc/arm-eabi/4.5.1\libgcc.a(libunwind.o)
 .data          0x02036aa8        0x0 d:/devkitpro/devkitarm/bin/../lib/gcc/arm-eabi/4.5.1\libgcc.a(pr-support.o)
 .data          0x02036aa8        0x0 d:/devkitpro/devkitarm/bin/../lib/gcc/arm-eabi/4.5.1\libgcc.a(_divdi3.o)
 .data          0x02036aa8        0x0 d:/devkitpro/devkitarm/bin/../lib/gcc/arm-eabi/4.5.1\libgcc.a(_udivdi3.o)
 .data          0x02036aa8        0x0 d:/devkitpro/devkitarm/bin/../lib/gcc/arm-eabi/4.5.1\libgcc.a(_clzsi2.o)
 .data          0x02036aa8        0x0 d:/devkitpro/devkitarm/bin/../lib/gcc/arm-eabi/4.5.1/crtend.o
 .data          0x02036aa8        0x0 d:/devkitpro/devkitarm/bin/../lib/gcc/arm-eabi/4.5.1/crtn.o
 *(.data.*)
 *(.gnu.linkonce.d*)
                0x02036aa8                . = ALIGN (0x4)
                0x02036aa8                __data_end = ABSOLUTE (.)
                0x02036aa8                __dtcm_lma = .
                0x02036aa8                __bss_vma = .

.dtcm           0x0b000000        0x0 load address 0x02036aa8
 *(.dtcm)
 *(.dtcm.*)
                0x0b000000                . = ALIGN (0x4)
                0x0b000000                __dtcm_end = ABSOLUTE (.)
                0x02036aa8                __itcm_lma = (__dtcm_lma + SIZEOF (.dtcm))

.itcm           0x01000100      0x194 load address 0x02036aa8
 *(.itcm)
 .itcm          0x01000100       0xc8 d:/devkitPro/libnds/lib\libnds9.a(interrupts.o)
                0x01000100                irqTable
 .itcm          0x010001c8       0xcc d:/devkitPro/libnds/lib\libnds9.a(interruptDispatcher.o)
                0x010001c8                IntrMain
 *itcm.*(.text)
                0x01000294                . = ALIGN (0x4)
                0x01000294                __itcm_end = ABSOLUTE (.)
                0x02036c3c                __vectors_lma = (__itcm_lma + SIZEOF (.itcm))

.vectors        0x01000000        0x0 load address 0x02036c3c
 *(.vectors)
 *vectors.*(.text)
                0x01000000                . = ALIGN (0x4)
                0x01000000                __vectors_end = ABSOLUTE (.)

.sbss           0x0b000000        0x0
                0x0b000000                __sbss_start = ABSOLUTE (.)
                0x0b000000                __sbss_start__ = ABSOLUTE (.)
 *(.sbss)
                0x0b000000                . = ALIGN (0x4)
                0x0b000000                __sbss_end = ABSOLUTE (.)

.bss            0x02036aa8     0x2b64
                0x02036aa8                __bss_start = ABSOLUTE (.)
                0x02036aa8                __bss_start__ = ABSOLUTE (.)
 *(.dynbss)
 *(.gnu.linkonce.b*)
 *(.bss*)
 .bss           0x02036aa8        0x0 d:/devkitpro/devkitarm/bin/../lib/gcc/arm-eabi/4.5.1/../../../../arm-eabi/lib/ds_arm9_crt0.o
 .bss           0x02036aa8        0x0 d:/devkitpro/devkitarm/bin/../lib/gcc/arm-eabi/4.5.1/crti.o
 .bss           0x02036aa8       0x1c d:/devkitpro/devkitarm/bin/../lib/gcc/arm-eabi/4.5.1/crtbegin.o
 .bss           0x02036ac4        0x0 james.png.o
 .bss           0x02036ac4        0x0 main.o
 .bss           0x02036ac4        0x4 d:/devkitPro/libnds/lib\libul.a(ulib.o)
                0x02036ac4                ul_isConsoleInited
 .bss           0x02036ac8        0x3 d:/devkitPro/libnds/lib\libul.a(drawing.o)
                0x02036ac8                ul_drawingStarted
                0x02036ac9                ul_screenClippingChanged
                0x02036aca                ul_firstPaletteColorOpaque
 *fill*         0x02036acb        0x1 00
 .bss           0x02036acc        0x8 d:/devkitPro/libnds/lib\libul.a(text.o)
                0x02036acc                ul_curFont
                0x02036ad0                ul_lcdFont
 .bss           0x02036ad4        0x8 d:/devkitPro/libnds/lib\libul.a(VirtualFile.o)
                0x02036ad4                VirtualFileSourcesNb
                0x02036ad8                ul_virtualFileListNumber
 .bss           0x02036adc        0x0 d:/devkitPro/libnds/lib\libul.a(texVramManager.o)
 .bss           0x02036adc        0x0 d:/devkitPro/libnds/lib\libul.a(texPalManager.o)
 .bss           0x02036adc        0x0 d:/devkitPro/libnds/lib\libul.a(keys.o)
 .bss           0x02036adc        0x0 d:/devkitPro/libnds/lib\libul.a(ulDrawImage.o)
 .bss           0x02036adc        0x0 d:/devkitPro/libnds/lib\libul.a(ulCreateImagePalette.o)
 .bss           0x02036adc        0x0 d:/devkitPro/libnds/lib\libul.a(ulDrawGradientRect.o)
 .bss           0x02036adc        0x0 d:/devkitPro/libnds/lib\libul.a(ulLoadImageFilePNG.o)
 .bss           0x02036adc        0x0 d:/devkitPro/libnds/lib\libul.a(glWrapper.o)
 .bss           0x02036adc        0x0 d:/devkitPro/libnds/lib\libul.a(libLoadPng.o)
 .bss           0x02036adc        0x0 d:/devkitPro/libnds/lib\libul.a(loading_utility.o)
 .bss           0x02036adc        0x0 d:/devkitPro/libnds/lib\libpng.a(png.o)
 .bss           0x02036adc        0x0 d:/devkitPro/libnds/lib\libpng.a(pngread.o)
 .bss           0x02036adc        0x0 d:/devkitPro/libnds/lib\libpng.a(pngrio.o)
 .bss           0x02036adc        0x0 d:/devkitPro/libnds/lib\libpng.a(pngrtran.o)
 .bss           0x02036adc        0x0 d:/devkitPro/libnds/lib\libpng.a(pngmem.o)
 .bss           0x02036adc        0x0 d:/devkitPro/libnds/lib\libpng.a(pngerror.o)
 .bss           0x02036adc        0x0 d:/devkitPro/libnds/lib\libpng.a(pngget.o)
 .bss           0x02036adc        0x0 d:/devkitPro/libnds/lib\libpng.a(pngrutil.o)
 .bss           0x02036adc        0x0 d:/devkitPro/libnds/lib\libpng.a(pngtrans.o)
 .bss           0x02036adc        0x0 d:/devkitPro/libnds/lib\libpng.a(pngset.o)
 .bss           0x02036adc        0x0 d:/devkitPro/libnds/lib\libz.a(crc32.o)
 .bss           0x02036adc        0x0 d:/devkitPro/libnds/lib\libz.a(inflate.o)
 .bss           0x02036adc        0x0 d:/devkitPro/libnds/lib\libz.a(inftrees.o)
 .bss           0x02036adc        0x0 d:/devkitPro/libnds/lib\libz.a(inffast.o)
 .bss           0x02036adc        0x0 d:/devkitPro/libnds/lib\libz.a(adler32.o)
 .bss           0x02036adc        0x0 d:/devkitPro/libnds/lib\libz.a(zutil.o)
 .bss           0x02036adc        0x0 d:/devkitPro/libnds/lib\libnds9.a(dynamicArray.o)
 .bss           0x02036adc        0x6 d:/devkitPro/libnds/lib\libnds9.a(keys.o)
 .bss           0x02036ae2        0x0 d:/devkitPro/libnds/lib\libnds9.a(system.o)
 .bss           0x02036ae2        0x0 d:/devkitPro/libnds/lib\libnds9.a(touch.o)
 .bss           0x02036ae2        0x0 d:/devkitPro/libnds/lib\libnds9.a(trig.o)
 *fill*         0x02036ae2        0x2 00
 .bss           0x02036ae4        0x8 d:/devkitPro/libnds/lib\libnds9.a(videoGL.o)
 .bss           0x02036aec        0x0 d:/devkitPro/libnds/lib\libnds9.a(initSystem.o)
 .bss           0x02036aec        0x8 d:/devkitPro/libnds/lib\libnds9.a(fifosystem.o)
                0x02036af0                processing
 .bss           0x02036af4        0x0 d:/devkitPro/libnds/lib\libnds9.a(interrupts.o)
 .bss           0x02036af4        0x0 d:/devkitPro/libnds/lib\libnds9.a(libnds_exit.o)
 .bss           0x02036af4        0x0 d:/devkitPro/libnds/lib\libnds9.a(mpu_setup.o)
 .bss           0x02036af4        0x0 d:/devkitPro/libnds/lib\libnds9.a(biosCalls.o)
 .bss           0x02036af4        0x0 d:/devkitPro/libnds/lib\libnds9.a(interruptDispatcher.o)
 .bss           0x02036af4        0x0 d:/devkitPro/libnds/lib\libnds9.a(swiSoftReset.o)
 .bss           0x02036af4        0x0 d:/devkitPro/libnds/lib\libnds9.a(video.o)
 .bss           0x02036af4        0x0 d:/devkitpro/devkitarm/bin/../lib/gcc/arm-eabi/4.5.1/../../../../arm-eabi/lib\libm.a(lib_a-s_cos.o)
 .bss           0x02036af4        0x0 d:/devkitpro/devkitarm/bin/../lib/gcc/arm-eabi/4.5.1/../../../../arm-eabi/lib\libm.a(lib_a-s_sin.o)
 .bss           0x02036af4        0x0 d:/devkitpro/devkitarm/bin/../lib/gcc/arm-eabi/4.5.1/../../../../arm-eabi/lib\libm.a(lib_a-w_pow.o)
 .bss           0x02036af4        0x0 d:/devkitpro/devkitarm/bin/../lib/gcc/arm-eabi/4.5.1/../../../../arm-eabi/lib\libm.a(lib_a-e_pow.o)
 .bss           0x02036af4        0x0 d:/devkitpro/devkitarm/bin/../lib/gcc/arm-eabi/4.5.1/../../../../arm-eabi/lib\libm.a(lib_a-e_rem_pio2.o)
 .bss           0x02036af4        0x0 d:/devkitpro/devkitarm/bin/../lib/gcc/arm-eabi/4.5.1/../../../../arm-eabi/lib\libm.a(lib_a-e_sqrt.o)
 .bss           0x02036af4        0x0 d:/devkitpro/devkitarm/bin/../lib/gcc/arm-eabi/4.5.1/../../../../arm-eabi/lib\libm.a(lib_a-k_cos.o)
 .bss           0x02036af4        0x0 d:/devkitpro/devkitarm/bin/../lib/gcc/arm-eabi/4.5.1/../../../../arm-eabi/lib\libm.a(lib_a-k_rem_pio2.o)
 .bss           0x02036af4        0x0 d:/devkitpro/devkitarm/bin/../lib/gcc/arm-eabi/4.5.1/../../../../arm-eabi/lib\libm.a(lib_a-k_sin.o)
 .bss           0x02036af4        0x0 d:/devkitpro/devkitarm/bin/../lib/gcc/arm-eabi/4.5.1/../../../../arm-eabi/lib\libm.a(lib_a-s_fabs.o)
 .bss           0x02036af4        0x0 d:/devkitpro/devkitarm/bin/../lib/gcc/arm-eabi/4.5.1/../../../../arm-eabi/lib\libm.a(lib_a-s_finite.o)
 .bss           0x02036af4        0x0 d:/devkitpro/devkitarm/bin/../lib/gcc/arm-eabi/4.5.1/../../../../arm-eabi/lib\libm.a(lib_a-s_floor.o)
 .bss           0x02036af4        0x0 d:/devkitpro/devkitarm/bin/../lib/gcc/arm-eabi/4.5.1/../../../../arm-eabi/lib\libm.a(lib_a-s_fpclassify.o)
 .bss           0x02036af4        0x0 d:/devkitpro/devkitarm/bin/../lib/gcc/arm-eabi/4.5.1/../../../../arm-eabi/lib\libm.a(lib_a-s_lib_ver.o)
 .bss           0x02036af4        0x0 d:/devkitpro/devkitarm/bin/../lib/gcc/arm-eabi/4.5.1/../../../../arm-eabi/lib\libm.a(lib_a-s_matherr.o)
 .bss           0x02036af4        0x0 d:/devkitpro/devkitarm/bin/../lib/gcc/arm-eabi/4.5.1/../../../../arm-eabi/lib\libm.a(lib_a-s_nan.o)
 .bss           0x02036af4        0x0 d:/devkitpro/devkitarm/bin/../lib/gcc/arm-eabi/4.5.1/../../../../arm-eabi/lib\libm.a(lib_a-s_rint.o)
 .bss           0x02036af4        0x0 d:/devkitpro/devkitarm/bin/../lib/gcc/arm-eabi/4.5.1/../../../../arm-eabi/lib\libm.a(lib_a-s_scalbn.o)
 .bss           0x02036af4        0x0 d:/devkitpro/devkitarm/bin/../lib/gcc/arm-eabi/4.5.1/../../../../arm-eabi/lib\libm.a(lib_a-s_copysign.o)
 .bss           0x02036af4        0x0 d:/devkitpro/devkitarm/bin/../lib/gcc/arm-eabi/4.5.1\libgcc.a(_udivsi3.o)
 .bss           0x02036af4        0x0 d:/devkitpro/devkitarm/bin/../lib/gcc/arm-eabi/4.5.1\libgcc.a(_divsi3.o)
 .bss           0x02036af4        0x0 d:/devkitpro/devkitarm/bin/../lib/gcc/arm-eabi/4.5.1\libgcc.a(_dvmd_tls.o)
 .bss           0x02036af4        0x0 d:/devkitpro/devkitarm/bin/../lib/gcc/arm-eabi/4.5.1\libgcc.a(_arm_addsubdf3.o)
 .bss           0x02036af4        0x0 d:/devkitpro/devkitarm/bin/../lib/gcc/arm-eabi/4.5.1\libgcc.a(_arm_muldivdf3.o)
 .bss           0x02036af4        0x0 d:/devkitpro/devkitarm/bin/../lib/gcc/arm-eabi/4.5.1\libgcc.a(_arm_cmpdf2.o)
 .bss           0x02036af4        0x0 d:/devkitpro/devkitarm/bin/../lib/gcc/arm-eabi/4.5.1\libgcc.a(_arm_fixdfsi.o)
 .bss           0x02036af4        0x0 d:/devkitpro/devkitarm/bin/../lib/gcc/arm-eabi/4.5.1\libgcc.a(_arm_fixunsdfsi.o)
 .bss           0x02036af4        0x0 d:/devkitpro/devkitarm/bin/../lib/gcc/arm-eabi/4.5.1\libgcc.a(_arm_truncdfsf2.o)
 .bss           0x02036af4        0x0 d:/devkitpro/devkitarm/bin/../lib/gcc/arm-eabi/4.5.1\libgcc.a(_arm_addsubsf3.o)
 .bss           0x02036af4        0x0 d:/devkitpro/devkitarm/bin/../lib/gcc/arm-eabi/4.5.1\libgcc.a(_arm_muldivsf3.o)
 .bss           0x02036af4        0x0 d:/devkitpro/devkitarm/bin/../lib/gcc/arm-eabi/4.5.1\libgcc.a(_arm_cmpsf2.o)
 .bss           0x02036af4        0x0 d:/devkitpro/devkitarm/bin/../lib/gcc/arm-eabi/4.5.1\libgcc.a(_muldi3.o)
 .bss           0x02036af4        0x0 d:/devkitpro/devkitarm/bin/../lib/gcc/arm-eabi/4.5.1/../../../../arm-eabi/lib\libg.a(lib_a-abort.o)
 .bss           0x02036af4        0x0 d:/devkitpro/devkitarm/bin/../lib/gcc/arm-eabi/4.5.1/../../../../arm-eabi/lib\libg.a(lib_a-bsearch.o)
 .bss           0x02036af4        0x0 d:/devkitpro/devkitarm/bin/../lib/gcc/arm-eabi/4.5.1/../../../../arm-eabi/lib\libg.a(lib_a-errno.o)
 .bss           0x02036af4        0x0 d:/devkitpro/devkitarm/bin/../lib/gcc/arm-eabi/4.5.1/../../../../arm-eabi/lib\libg.a(lib_a-fprintf.o)
 .bss           0x02036af4        0x0 d:/devkitpro/devkitarm/bin/../lib/gcc/arm-eabi/4.5.1/../../../../arm-eabi/lib\libg.a(lib_a-fread.o)
 .bss           0x02036af4        0x0 d:/devkitpro/devkitarm/bin/../lib/gcc/arm-eabi/4.5.1/../../../../arm-eabi/lib\libg.a(lib_a-freer.o)
 .bss           0x02036af4        0x0 d:/devkitpro/devkitarm/bin/../lib/gcc/arm-eabi/4.5.1/../../../../arm-eabi/lib\libg.a(lib_a-impure.o)
 .bss           0x02036af4        0x0 d:/devkitpro/devkitarm/bin/../lib/gcc/arm-eabi/4.5.1/../../../../arm-eabi/lib\libg.a(lib_a-init.o)
 .bss           0x02036af4        0x0 d:/devkitpro/devkitarm/bin/../lib/gcc/arm-eabi/4.5.1/../../../../arm-eabi/lib\libg.a(lib_a-malloc.o)
 .bss           0x02036af4       0x34 d:/devkitpro/devkitarm/bin/../lib/gcc/arm-eabi/4.5.1/../../../../arm-eabi/lib\libg.a(lib_a-mallocr.o)
                0x02036af4                __malloc_top_pad
                0x02036af8                __malloc_current_mallinfo
                0x02036b20                __malloc_max_sbrked_mem
                0x02036b24                __malloc_max_total_mem
 .bss           0x02036b28        0x0 d:/devkitpro/devkitarm/bin/../lib/gcc/arm-eabi/4.5.1/../../../../arm-eabi/lib\libg.a(lib_a-memcmp.o)
 .bss           0x02036b28        0x0 d:/devkitpro/devkitarm/bin/../lib/gcc/arm-eabi/4.5.1/../../../../arm-eabi/lib\libg.a(lib_a-memcpy.o)
 .bss           0x02036b28        0x0 d:/devkitpro/devkitarm/bin/../lib/gcc/arm-eabi/4.5.1/../../../../arm-eabi/lib\libg.a(lib_a-memmove.o)
 .bss           0x02036b28        0x0 d:/devkitpro/devkitarm/bin/../lib/gcc/arm-eabi/4.5.1/../../../../arm-eabi/lib\libg.a(lib_a-memset.o)
 .bss           0x02036b28        0x0 d:/devkitpro/devkitarm/bin/../lib/gcc/arm-eabi/4.5.1/../../../../arm-eabi/lib\libg.a(lib_a-mlock.o)
 .bss           0x02036b28        0x0 d:/devkitpro/devkitarm/bin/../lib/gcc/arm-eabi/4.5.1/../../../../arm-eabi/lib\libg.a(lib_a-realloc.o)
 .bss           0x02036b28        0x0 d:/devkitpro/devkitarm/bin/../lib/gcc/arm-eabi/4.5.1/../../../../arm-eabi/lib\libg.a(lib_a-reallocr.o)
 .bss           0x02036b28        0x0 d:/devkitpro/devkitarm/bin/../lib/gcc/arm-eabi/4.5.1/../../../../arm-eabi/lib\libg.a(lib_a-refill.o)
 .bss           0x02036b28        0x0 d:/devkitpro/devkitarm/bin/../lib/gcc/arm-eabi/4.5.1/../../../../arm-eabi/lib\libg.a(lib_a-setjmp.o)
 .bss           0x02036b28        0x0 d:/devkitpro/devkitarm/bin/../lib/gcc/arm-eabi/4.5.1/../../../../arm-eabi/lib\libg.a(lib_a-signal.o)
 .bss           0x02036b28        0x0 d:/devkitpro/devkitarm/bin/../lib/gcc/arm-eabi/4.5.1/../../../../arm-eabi/lib\libg.a(lib_a-snprintf.o)
 .bss           0x02036b28        0x0 d:/devkitpro/devkitarm/bin/../lib/gcc/arm-eabi/4.5.1/../../../../arm-eabi/lib\libg.a(lib_a-strcmp.o)
 .bss           0x02036b28        0x0 d:/devkitpro/devkitarm/bin/../lib/gcc/arm-eabi/4.5.1/../../../../arm-eabi/lib\libg.a(lib_a-strlen.o)
 .bss           0x02036b28        0x0 d:/devkitpro/devkitarm/bin/../lib/gcc/arm-eabi/4.5.1/../../../../arm-eabi/lib\libg.a(lib_a-strtod.o)
 .bss           0x02036b28        0x0 d:/devkitpro/devkitarm/bin/../lib/gcc/arm-eabi/4.5.1/../../../../arm-eabi/lib\libg.a(lib_a-svfprintf.o)
 .bss           0x02036b28        0x0 d:/devkitpro/devkitarm/bin/../lib/gcc/arm-eabi/4.5.1/../../../../arm-eabi/lib\libg.a(lib_a-vfprintf.o)
 .bss           0x02036b28        0x0 d:/devkitpro/devkitarm/bin/../lib/gcc/arm-eabi/4.5.1/../../../../arm-eabi/lib\libg.a(lib_a-wcrtomb.o)
 .bss           0x02036b28        0x0 d:/devkitpro/devkitarm/bin/../lib/gcc/arm-eabi/4.5.1/../../../../arm-eabi/lib\libg.a(lib_a-wcsrtombs.o)
 .bss           0x02036b28        0x0 d:/devkitpro/devkitarm/bin/../lib/gcc/arm-eabi/4.5.1/../../../../arm-eabi/lib\libg.a(lib_a-wctomb_r.o)
 .bss           0x02036b28        0x0 d:/devkitpro/devkitarm/bin/../lib/gcc/arm-eabi/4.5.1/../../../../arm-eabi/lib\libg.a(lib_a-wsetup.o)
 .bss           0x02036b28        0x0 d:/devkitpro/devkitarm/bin/../lib/gcc/arm-eabi/4.5.1/../../../../arm-eabi/lib\libg.a(lib_a-dtoa.o)
 .bss           0x02036b28        0x0 d:/devkitpro/devkitarm/bin/../lib/gcc/arm-eabi/4.5.1/../../../../arm-eabi/lib\libg.a(lib_a-fflush.o)
 .bss           0x02036b28        0x0 d:/devkitpro/devkitarm/bin/../lib/gcc/arm-eabi/4.5.1/../../../../arm-eabi/lib\libg.a(lib_a-findfp.o)
 .bss           0x02036b28        0x0 d:/devkitpro/devkitarm/bin/../lib/gcc/arm-eabi/4.5.1/../../../../arm-eabi/lib\libg.a(lib_a-fwalk.o)
 .bss           0x02036b28        0x0 d:/devkitpro/devkitarm/bin/../lib/gcc/arm-eabi/4.5.1/../../../../arm-eabi/lib\libg.a(lib_a-gdtoa-gethex.o)
 .bss           0x02036b28        0x0 d:/devkitpro/devkitarm/bin/../lib/gcc/arm-eabi/4.5.1/../../../../arm-eabi/lib\libg.a(lib_a-gdtoa-hexnan.o)
 .bss           0x02036b28      0x2b8 d:/devkitpro/devkitarm/bin/../lib/gcc/arm-eabi/4.5.1/../../../../arm-eabi/lib\libg.a(lib_a-locale.o)
                0x02036dd4                __nlocale_changed
                0x02036dd8                __mlocale_changed
                0x02036ddc                _PathLocale
 .bss           0x02036de0        0x0 d:/devkitpro/devkitarm/bin/../lib/gcc/arm-eabi/4.5.1/../../../../arm-eabi/lib\libg.a(lib_a-makebuf.o)
 .bss           0x02036de0        0x0 d:/devkitpro/devkitarm/bin/../lib/gcc/arm-eabi/4.5.1/../../../../arm-eabi/lib\libg.a(lib_a-mbtowc_r.o)
 .bss           0x02036de0        0x0 d:/devkitpro/devkitarm/bin/../lib/gcc/arm-eabi/4.5.1/../../../../arm-eabi/lib\libg.a(lib_a-memchr.o)
 .bss           0x02036de0        0x0 d:/devkitpro/devkitarm/bin/../lib/gcc/arm-eabi/4.5.1/../../../../arm-eabi/lib\libg.a(lib_a-mprec.o)
 .bss           0x02036de0        0x0 d:/devkitpro/devkitarm/bin/../lib/gcc/arm-eabi/4.5.1/../../../../arm-eabi/lib\libg.a(lib_a-sf_nan.o)
 .bss           0x02036de0        0x0 d:/devkitpro/devkitarm/bin/../lib/gcc/arm-eabi/4.5.1/../../../../arm-eabi/lib\libg.a(lib_a-stdio.o)
 .bss           0x02036de0        0x0 d:/devkitpro/devkitarm/bin/../lib/gcc/arm-eabi/4.5.1/../../../../arm-eabi/lib\libg.a(lib_a-strcasecmp.o)
 .bss           0x02036de0        0x0 d:/devkitpro/devkitarm/bin/../lib/gcc/arm-eabi/4.5.1/../../../../arm-eabi/lib\libg.a(lib_a-strcat.o)
 .bss           0x02036de0        0x0 d:/devkitpro/devkitarm/bin/../lib/gcc/arm-eabi/4.5.1/../../../../arm-eabi/lib\libg.a(lib_a-strchr.o)
 .bss           0x02036de0        0x0 d:/devkitpro/devkitarm/bin/../lib/gcc/arm-eabi/4.5.1/../../../../arm-eabi/lib\libg.a(lib_a-strcpy.o)
 .bss           0x02036de0        0x0 d:/devkitpro/devkitarm/bin/../lib/gcc/arm-eabi/4.5.1/../../../../arm-eabi/lib\libg.a(lib_a-strlcpy.o)
 .bss           0x02036de0        0x0 d:/devkitpro/devkitarm/bin/../lib/gcc/arm-eabi/4.5.1/../../../../arm-eabi/lib\libg.a(lib_a-strncasecmp.o)
 .bss           0x02036de0        0x0 d:/devkitpro/devkitarm/bin/../lib/gcc/arm-eabi/4.5.1/../../../../arm-eabi/lib\libg.a(lib_a-strncmp.o)
 .bss           0x02036de0        0x0 d:/devkitpro/devkitarm/bin/../lib/gcc/arm-eabi/4.5.1/../../../../arm-eabi/lib\libg.a(lib_a-strncpy.o)
 .bss           0x02036de0        0x0 d:/devkitpro/devkitarm/bin/../lib/gcc/arm-eabi/4.5.1/../../../../arm-eabi/lib\libg.a(lib_a-strtol.o)
 .bss           0x02036de0        0x0 d:/devkitpro/devkitarm/bin/../lib/gcc/arm-eabi/4.5.1/../../../../arm-eabi/lib\libg.a(lib_a-svfiprintf.o)
 .bss           0x02036de0        0x0 d:/devkitpro/devkitarm/bin/../lib/gcc/arm-eabi/4.5.1/../../../../arm-eabi/lib\libg.a(lib_a-vfiprintf.o)
 .bss           0x02036de0        0x0 d:/devkitpro/devkitarm/bin/../lib/gcc/arm-eabi/4.5.1/../../../../arm-eabi/lib\libg.a(lib_a-wcsnrtombs.o)
 .bss           0x02036de0        0x0 d:/devkitpro/devkitarm/bin/../lib/gcc/arm-eabi/4.5.1/../../../../arm-eabi/lib\libg.a(lib_a-callocr.o)
 .bss           0x02036de0        0x0 d:/devkitpro/devkitarm/bin/../lib/gcc/arm-eabi/4.5.1/../../../../arm-eabi/lib\libg.a(lib_a-ctype_.o)
 .bss           0x02036de0        0x0 d:/devkitpro/devkitarm/bin/../lib/gcc/arm-eabi/4.5.1/../../../../arm-eabi/lib\libg.a(lib_a-fclose.o)
 .bss           0x02036de0        0x0 d:/devkitpro/devkitarm/bin/../lib/gcc/arm-eabi/4.5.1/../../../../arm-eabi/lib\libg.a(lib_a-fputwc.o)
 .bss           0x02036de0        0x0 d:/devkitpro/devkitarm/bin/../lib/gcc/arm-eabi/4.5.1/../../../../arm-eabi/lib\libg.a(lib_a-fvwrite.o)
 .bss           0x02036de0        0x0 d:/devkitpro/devkitarm/bin/../lib/gcc/arm-eabi/4.5.1/../../../../arm-eabi/lib\libg.a(lib_a-getenv_r.o)
 .bss           0x02036de0        0x0 d:/devkitpro/devkitarm/bin/../lib/gcc/arm-eabi/4.5.1/../../../../arm-eabi/lib\libg.a(lib_a-wbuf.o)
 .bss           0x02036de0        0x4 d:/devkitpro/devkitarm/bin/../lib/gcc/arm-eabi/4.5.1/../../../../arm-eabi/lib\libg.a(lib_a-environ.o)
 .bss           0x02036de4        0x0 d:/devkitpro/devkitarm/bin/../lib/gcc/arm-eabi/4.5.1/../../../../arm-eabi/lib\libg.a(lib_a-envlock.o)
 .bss           0x02036de4        0x0 d:/devkitpro/devkitarm/bin/../lib/gcc/arm-eabi/4.5.1/../../../../arm-eabi/lib\libsysbase.a(close.o)
 .bss           0x02036de4        0x0 d:/devkitpro/devkitarm/bin/../lib/gcc/arm-eabi/4.5.1/../../../../arm-eabi/lib\libsysbase.a(fstat.o)
 .bss           0x02036de4        0x0 d:/devkitpro/devkitarm/bin/../lib/gcc/arm-eabi/4.5.1/../../../../arm-eabi/lib\libsysbase.a(getpid.o)
 .bss           0x02036de4        0x0 d:/devkitpro/devkitarm/bin/../lib/gcc/arm-eabi/4.5.1/../../../../arm-eabi/lib\libsysbase.a(isatty.o)
 .bss           0x02036de4        0x0 d:/devkitpro/devkitarm/bin/../lib/gcc/arm-eabi/4.5.1/../../../../arm-eabi/lib\libsysbase.a(kill.o)
 .bss           0x02036de4        0x0 d:/devkitpro/devkitarm/bin/../lib/gcc/arm-eabi/4.5.1/../../../../arm-eabi/lib\libsysbase.a(lseek.o)
 .bss           0x02036de4        0x0 d:/devkitpro/devkitarm/bin/../lib/gcc/arm-eabi/4.5.1/../../../../arm-eabi/lib\libsysbase.a(read.o)
 .bss           0x02036de4        0x4 d:/devkitpro/devkitarm/bin/../lib/gcc/arm-eabi/4.5.1/../../../../arm-eabi/lib\libsysbase.a(sbrk.o)
 .bss           0x02036de8        0x0 d:/devkitpro/devkitarm/bin/../lib/gcc/arm-eabi/4.5.1/../../../../arm-eabi/lib\libsysbase.a(times.o)
 .bss           0x02036de8        0x0 d:/devkitpro/devkitarm/bin/../lib/gcc/arm-eabi/4.5.1/../../../../arm-eabi/lib\libsysbase.a(write.o)
 .bss           0x02036de8        0x0 d:/devkitpro/devkitarm/bin/../lib/gcc/arm-eabi/4.5.1/../../../../arm-eabi/lib\libsysbase.a(_exit.o)
 .bss           0x02036de8        0x8 d:/devkitpro/devkitarm/bin/../lib/gcc/arm-eabi/4.5.1/../../../../arm-eabi/lib\libsysbase.a(malloc_vars.o)
                0x02036de8                fake_heap_end
                0x02036dec                fake_heap_start
 .bss           0x02036df0        0x0 d:/devkitpro/devkitarm/bin/../lib/gcc/arm-eabi/4.5.1/../../../../arm-eabi/lib\libsysbase.a(build_argv.o)
 .bss           0x02036df0        0x8 d:/devkitpro/devkitarm/bin/../lib/gcc/arm-eabi/4.5.1/../../../../arm-eabi/lib\libsysbase.a(syscall_support.o)
                0x02036df0                __syscalls
 .bss           0x02036df8     0x1000 d:/devkitpro/devkitarm/bin/../lib/gcc/arm-eabi/4.5.1/../../../../arm-eabi/lib\libsysbase.a(handle_manager.o)
 .bss           0x02037df8        0x0 d:/devkitpro/devkitarm/bin/../lib/gcc/arm-eabi/4.5.1/../../../../arm-eabi/lib\libsysbase.a(iosupport.o)
 .bss           0x02037df8        0x0 d:/devkitpro/devkitarm/bin/../lib/gcc/arm-eabi/4.5.1\libgcc.a(_aeabi_uldivmod.o)
 .bss           0x02037df8        0x0 d:/devkitpro/devkitarm/bin/../lib/gcc/arm-eabi/4.5.1\libgcc.a(bpabi.o)
 .bss           0x02037df8        0x0 d:/devkitpro/devkitarm/bin/../lib/gcc/arm-eabi/4.5.1\libgcc.a(unwind-arm.o)
 .bss           0x02037df8        0x0 d:/devkitpro/devkitarm/bin/../lib/gcc/arm-eabi/4.5.1\libgcc.a(libunwind.o)
 .bss           0x02037df8        0x0 d:/devkitpro/devkitarm/bin/../lib/gcc/arm-eabi/4.5.1\libgcc.a(pr-support.o)
 .bss           0x02037df8        0x0 d:/devkitpro/devkitarm/bin/../lib/gcc/arm-eabi/4.5.1\libgcc.a(_divdi3.o)
 .bss           0x02037df8        0x0 d:/devkitpro/devkitarm/bin/../lib/gcc/arm-eabi/4.5.1\libgcc.a(_udivdi3.o)
 .bss           0x02037df8        0x0 d:/devkitpro/devkitarm/bin/../lib/gcc/arm-eabi/4.5.1\libgcc.a(_clzsi2.o)
 .bss           0x02037df8        0x0 d:/devkitpro/devkitarm/bin/../lib/gcc/arm-eabi/4.5.1/crtend.o
 .bss           0x02037df8        0x0 d:/devkitpro/devkitarm/bin/../lib/gcc/arm-eabi/4.5.1/crtn.o
 *(COMMON)
 COMMON         0x02037df8      0x800 d:/devkitPro/libnds/lib\libul.a(ulib.o)
                0x02037df8                ul_cos
                0x020381f8                ul_sin
 COMMON         0x020385f8      0x411 d:/devkitPro/libnds/lib\libul.a(drawing.o)
                0x020385f8                ul_colorKeyValue32
                0x020385fc                ul_colorKeyValue
                0x02038600                ulDualScreenSprites
                0x02038a00                ul_autoDepth
                0x02038a01                ul_dualScreenMode
                0x02038a02                ul_frameNumber
                0x02038a04                ul_currentDepth
                0x02038a08                ul_colorKeyEnabled
 *fill*         0x02038a09        0x3 00
 COMMON         0x02038a0c       0x44 d:/devkitPro/libnds/lib\libul.a(VirtualFile.o)
                0x02038a0c                VirtualFileSources
                0x02038a4c                ul_virtualFileList
 COMMON         0x02038a50       0x1c d:/devkitPro/libnds/lib\libul.a(texVramManager.o)
                0x02038a50                ulTextureMax
                0x02038a54                ulTextureParams
                0x02038a58                ulTexRamBlocksNb
                0x02038a5c                ulTextureNb
                0x02038a60                ulTexRamBlocksMax
                0x02038a64                ulTexRamBlocks
                0x02038a68                ulTextureActive
 COMMON         0x02038a6c        0xc d:/devkitPro/libnds/lib\libul.a(texPalManager.o)
                0x02038a6c                ulTexPalBlocksNb
                0x02038a70                ulTexPalBlocks
                0x02038a74                ulTexPalBlocksMax
 COMMON         0x02038a78       0x4c d:/devkitPro/libnds/lib\libnds9.a(videoGL.o)
                0x02038a78                glGlobalData
 COMMON         0x02038ac4        0x1 d:/devkitPro/libnds/lib\libnds9.a(initSystem.o)
                0x02038ac4                __dsimode
 *fill*         0x02038ac5        0x3 00
 COMMON         0x02038ac8      0xa40 d:/devkitPro/libnds/lib\libnds9.a(fifosystem.o)
                0x02038ac8                fifo_datamsg_data
                0x02038b08                fifo_buffer
                0x02039308                fifo_value32_func
                0x02039348                fifo_address_func
                0x02039388                fifo_value32_data
                0x020393c8                fifo_value32_queue
                0x02039408                fifo_data_queue
                0x02039448                fifo_address_data
                0x02039488                fifo_datamsg_func
                0x020394c8                fifo_address_queue
 COMMON         0x02039508      0x100 d:/devkitpro/devkitarm/bin/../lib/gcc/arm-eabi/4.5.1/../../../../arm-eabi/lib\libg.a(lib_a-gdtoa-gethex.o)
                0x02039508                __hexdig
 COMMON         0x02039608        0x4 d:/devkitpro/devkitarm/bin/../lib/gcc/arm-eabi/4.5.1/../../../../arm-eabi/lib\libsysbase.a(times.o)
                0x02039608                punixTime
                0x0203960c                . = ALIGN (0x4)
                0x0203960c                __bss_end = ABSOLUTE (.)
                0x0203960c                __bss_end__ = __bss_end
                0x0203960c                _end = __bss_end__
                0x0203960c                __end__ = __bss_end__

.stab
 *(.stab)

.stabstr
 *(.stabstr)

.stab.excl
 *(.stab.excl)

.stab.exclstr
 *(.stab.exclstr)

.stab.index
 *(.stab.index)

.stab.indexstr
 *(.stab.indexstr)

.ARM.attributes
                0x00000000       0x2d load address 0x02036aa8
 .ARM.attributes
                0x00000000       0x21 d:/devkitpro/devkitarm/bin/../lib/gcc/arm-eabi/4.5.1/../../../../arm-eabi/lib/ds_arm9_crt0.o
 .ARM.attributes
                0x00000021       0x20 d:/devkitpro/devkitarm/bin/../lib/gcc/arm-eabi/4.5.1/crti.o
 .ARM.attributes
                0x00000041       0x30 d:/devkitpro/devkitarm/bin/../lib/gcc/arm-eabi/4.5.1/crtbegin.o
 .ARM.attributes
                0x00000071       0x14 james.png.o
 .ARM.attributes
                0x00000085       0x27 main.o
 .ARM.attributes
                0x000000ac       0x2d d:/devkitPro/libnds/lib\libul.a(ulib.o)
 .ARM.attributes
                0x000000d9       0x2d d:/devkitPro/libnds/lib\libul.a(drawing.o)
 .ARM.attributes
                0x00000106       0x2d d:/devkitPro/libnds/lib\libul.a(text.o)
 .ARM.attributes
                0x00000133       0x2d d:/devkitPro/libnds/lib\libul.a(VirtualFile.o)
 .ARM.attributes
                0x00000160       0x2d d:/devkitPro/libnds/lib\libul.a(texVramManager.o)
 .ARM.attributes
                0x0000018d       0x2d d:/devkitPro/libnds/lib\libul.a(texPalManager.o)
 .ARM.attributes
                0x000001ba       0x2d d:/devkitPro/libnds/lib\libul.a(keys.o)
 .ARM.attributes
                0x000001e7       0x2d d:/devkitPro/libnds/lib\libul.a(ulDrawImage.o)
 .ARM.attributes
                0x00000214       0x2d d:/devkitPro/libnds/lib\libul.a(ulCreateImagePalette.o)
 .ARM.attributes
                0x00000241       0x2d d:/devkitPro/libnds/lib\libul.a(ulDrawGradientRect.o)
 .ARM.attributes
                0x0000026e       0x2d d:/devkitPro/libnds/lib\libul.a(ulLoadImageFilePNG.o)
 .ARM.attributes
                0x0000029b       0x2d d:/devkitPro/libnds/lib\libul.a(glWrapper.o)
 .ARM.attributes
                0x000002c8       0x2d d:/devkitPro/libnds/lib\libul.a(libLoadPng.o)
 .ARM.attributes
                0x000002f5       0x2d d:/devkitPro/libnds/lib\libul.a(loading_utility.o)
 .ARM.attributes
                0x00000322       0x2e d:/devkitPro/libnds/lib\libpng.a(png.o)
 .ARM.attributes
                0x00000350       0x2e d:/devkitPro/libnds/lib\libpng.a(pngread.o)
 .ARM.attributes
                0x0000037e       0x2e d:/devkitPro/libnds/lib\libpng.a(pngrio.o)
 .ARM.attributes
                0x000003ac       0x2e d:/devkitPro/libnds/lib\libpng.a(pngrtran.o)
 .ARM.attributes
                0x000003da       0x2e d:/devkitPro/libnds/lib\libpng.a(pngmem.o)
 .ARM.attributes
                0x00000408       0x2e d:/devkitPro/libnds/lib\libpng.a(pngerror.o)
 .ARM.attributes
                0x00000436       0x2e d:/devkitPro/libnds/lib\libpng.a(pngget.o)
 .ARM.attributes
                0x00000464       0x2e d:/devkitPro/libnds/lib\libpng.a(pngrutil.o)
 .ARM.attributes
                0x00000492       0x2e d:/devkitPro/libnds/lib\libpng.a(pngtrans.o)
 .ARM.attributes
                0x000004c0       0x2e d:/devkitPro/libnds/lib\libpng.a(pngset.o)
 .ARM.attributes
                0x000004ee       0x2e d:/devkitPro/libnds/lib\libz.a(crc32.o)
 .ARM.attributes
                0x0000051c       0x2e d:/devkitPro/libnds/lib\libz.a(inflate.o)
 .ARM.attributes
                0x0000054a       0x2e d:/devkitPro/libnds/lib\libz.a(inftrees.o)
 .ARM.attributes
                0x00000578       0x2e d:/devkitPro/libnds/lib\libz.a(inffast.o)
 .ARM.attributes
                0x000005a6       0x2e d:/devkitPro/libnds/lib\libz.a(adler32.o)
 .ARM.attributes
                0x000005d4       0x2e d:/devkitPro/libnds/lib\libz.a(zutil.o)
 .ARM.attributes
                0x00000602       0x27 d:/devkitPro/libnds/lib\libnds9.a(dynamicArray.o)
 .ARM.attributes
                0x00000629       0x27 d:/devkitPro/libnds/lib\libnds9.a(keys.o)
 .ARM.attributes
                0x00000650       0x27 d:/devkitPro/libnds/lib\libnds9.a(system.o)
 .ARM.attributes
                0x00000677       0x27 d:/devkitPro/libnds/lib\libnds9.a(touch.o)
 .ARM.attributes
                0x0000069e       0x27 d:/devkitPro/libnds/lib\libnds9.a(trig.o)
 .ARM.attributes
                0x000006c5       0x27 d:/devkitPro/libnds/lib\libnds9.a(videoGL.o)
 .ARM.attributes
                0x000006ec       0x27 d:/devkitPro/libnds/lib\libnds9.a(initSystem.o)
 .ARM.attributes
                0x00000713       0x27 d:/devkitPro/libnds/lib\libnds9.a(fifosystem.o)
 .ARM.attributes
                0x0000073a       0x27 d:/devkitPro/libnds/lib\libnds9.a(interrupts.o)
 .ARM.attributes
                0x00000761       0x27 d:/devkitPro/libnds/lib\libnds9.a(libnds_exit.o)
 .ARM.attributes
                0x00000788       0x21 d:/devkitPro/libnds/lib\libnds9.a(mpu_setup.o)
 .ARM.attributes
                0x000007a9       0x1b d:/devkitPro/libnds/lib\libnds9.a(biosCalls.o)
 .ARM.attributes
                0x000007c4       0x1b d:/devkitPro/libnds/lib\libnds9.a(interruptDispatcher.o)
 .ARM.attributes
                0x000007df       0x21 d:/devkitPro/libnds/lib\libnds9.a(swiSoftReset.o)
 .ARM.attributes
                0x00000800       0x27 d:/devkitPro/libnds/lib\libnds9.a(video.o)
 .ARM.attributes
                0x00000827       0x30 d:/devkitpro/devkitarm/bin/../lib/gcc/arm-eabi/4.5.1/../../../../arm-eabi/lib\libm.a(lib_a-s_cos.o)
 .ARM.attributes
                0x00000857       0x30 d:/devkitpro/devkitarm/bin/../lib/gcc/arm-eabi/4.5.1/../../../../arm-eabi/lib\libm.a(lib_a-s_sin.o)
 .ARM.attributes
                0x00000887       0x30 d:/devkitpro/devkitarm/bin/../lib/gcc/arm-eabi/4.5.1/../../../../arm-eabi/lib\libm.a(lib_a-w_pow.o)
 .ARM.attributes
                0x000008b7       0x30 d:/devkitpro/devkitarm/bin/../lib/gcc/arm-eabi/4.5.1/../../../../arm-eabi/lib\libm.a(lib_a-e_pow.o)
 .ARM.attributes
                0x000008e7       0x30 d:/devkitpro/devkitarm/bin/../lib/gcc/arm-eabi/4.5.1/../../../../arm-eabi/lib\libm.a(lib_a-e_rem_pio2.o)
 .ARM.attributes
                0x00000917       0x30 d:/devkitpro/devkitarm/bin/../lib/gcc/arm-eabi/4.5.1/../../../../arm-eabi/lib\libm.a(lib_a-e_sqrt.o)
 .ARM.attributes
                0x00000947       0x30 d:/devkitpro/devkitarm/bin/../lib/gcc/arm-eabi/4.5.1/../../../../arm-eabi/lib\libm.a(lib_a-k_cos.o)
 .ARM.attributes
                0x00000977       0x30 d:/devkitpro/devkitarm/bin/../lib/gcc/arm-eabi/4.5.1/../../../../arm-eabi/lib\libm.a(lib_a-k_rem_pio2.o)
 .ARM.attributes
                0x000009a7       0x30 d:/devkitpro/devkitarm/bin/../lib/gcc/arm-eabi/4.5.1/../../../../arm-eabi/lib\libm.a(lib_a-k_sin.o)
 .ARM.attributes
                0x000009d7       0x30 d:/devkitpro/devkitarm/bin/../lib/gcc/arm-eabi/4.5.1/../../../../arm-eabi/lib\libm.a(lib_a-s_fabs.o)
 .ARM.attributes
                0x00000a07       0x30 d:/devkitpro/devkitarm/bin/../lib/gcc/arm-eabi/4.5.1/../../../../arm-eabi/lib\libm.a(lib_a-s_finite.o)
 .ARM.attributes
                0x00000a37       0x30 d:/devkitpro/devkitarm/bin/../lib/gcc/arm-eabi/4.5.1/../../../../arm-eabi/lib\libm.a(lib_a-s_floor.o)
 .ARM.attributes
                0x00000a67       0x30 d:/devkitpro/devkitarm/bin/../lib/gcc/arm-eabi/4.5.1/../../../../arm-eabi/lib\libm.a(lib_a-s_fpclassify.o)
 .ARM.attributes
                0x00000a97       0x30 d:/devkitpro/devkitarm/bin/../lib/gcc/arm-eabi/4.5.1/../../../../arm-eabi/lib\libm.a(lib_a-s_lib_ver.o)
 .ARM.attributes
                0x00000ac7       0x30 d:/devkitpro/devkitarm/bin/../lib/gcc/arm-eabi/4.5.1/../../../../arm-eabi/lib\libm.a(lib_a-s_matherr.o)
 .ARM.attributes
                0x00000af7       0x30 d:/devkitpro/devkitarm/bin/../lib/gcc/arm-eabi/4.5.1/../../../../arm-eabi/lib\libm.a(lib_a-s_nan.o)
 .ARM.attributes
                0x00000b27       0x30 d:/devkitpro/devkitarm/bin/../lib/gcc/arm-eabi/4.5.1/../../../../arm-eabi/lib\libm.a(lib_a-s_rint.o)
 .ARM.attributes
                0x00000b57       0x30 d:/devkitpro/devkitarm/bin/../lib/gcc/arm-eabi/4.5.1/../../../../arm-eabi/lib\libm.a(lib_a-s_scalbn.o)
 .ARM.attributes
                0x00000b87       0x30 d:/devkitpro/devkitarm/bin/../lib/gcc/arm-eabi/4.5.1/../../../../arm-eabi/lib\libm.a(lib_a-s_copysign.o)
 .ARM.attributes
                0x00000bb7       0x22 d:/devkitpro/devkitarm/bin/../lib/gcc/arm-eabi/4.5.1\libgcc.a(_udivsi3.o)
 .ARM.attributes
                0x00000bd9       0x22 d:/devkitpro/devkitarm/bin/../lib/gcc/arm-eabi/4.5.1\libgcc.a(_divsi3.o)
 .ARM.attributes
                0x00000bfb       0x22 d:/devkitpro/devkitarm/bin/../lib/gcc/arm-eabi/4.5.1\libgcc.a(_dvmd_tls.o)
 .ARM.attributes
                0x00000c1d       0x22 d:/devkitpro/devkitarm/bin/../lib/gcc/arm-eabi/4.5.1\libgcc.a(_arm_addsubdf3.o)
 .ARM.attributes
                0x00000c3f       0x22 d:/devkitpro/devkitarm/bin/../lib/gcc/arm-eabi/4.5.1\libgcc.a(_arm_muldivdf3.o)
 .ARM.attributes
                0x00000c61       0x22 d:/devkitpro/devkitarm/bin/../lib/gcc/arm-eabi/4.5.1\libgcc.a(_arm_cmpdf2.o)
 .ARM.attributes
                0x00000c83       0x22 d:/devkitpro/devkitarm/bin/../lib/gcc/arm-eabi/4.5.1\libgcc.a(_arm_fixdfsi.o)
 .ARM.attributes
                0x00000ca5       0x22 d:/devkitpro/devkitarm/bin/../lib/gcc/arm-eabi/4.5.1\libgcc.a(_arm_fixunsdfsi.o)
 .ARM.attributes
                0x00000cc7       0x22 d:/devkitpro/devkitarm/bin/../lib/gcc/arm-eabi/4.5.1\libgcc.a(_arm_truncdfsf2.o)
 .ARM.attributes
                0x00000ce9       0x22 d:/devkitpro/devkitarm/bin/../lib/gcc/arm-eabi/4.5.1\libgcc.a(_arm_addsubsf3.o)
 .ARM.attributes
                0x00000d0b       0x22 d:/devkitpro/devkitarm/bin/../lib/gcc/arm-eabi/4.5.1\libgcc.a(_arm_muldivsf3.o)
 .ARM.attributes
                0x00000d2d       0x22 d:/devkitpro/devkitarm/bin/../lib/gcc/arm-eabi/4.5.1\libgcc.a(_arm_cmpsf2.o)
 .ARM.attributes
                0x00000d4f       0x30 d:/devkitpro/devkitarm/bin/../lib/gcc/arm-eabi/4.5.1\libgcc.a(_muldi3.o)
 .ARM.attributes
                0x00000d7f       0x30 d:/devkitpro/devkitarm/bin/../lib/gcc/arm-eabi/4.5.1/../../../../arm-eabi/lib\libg.a(lib_a-abort.o)
 .ARM.attributes
                0x00000daf       0x30 d:/devkitpro/devkitarm/bin/../lib/gcc/arm-eabi/4.5.1/../../../../arm-eabi/lib\libg.a(lib_a-bsearch.o)
 .ARM.attributes
                0x00000ddf       0x30 d:/devkitpro/devkitarm/bin/../lib/gcc/arm-eabi/4.5.1/../../../../arm-eabi/lib\libg.a(lib_a-errno.o)
 .ARM.attributes
                0x00000e0f       0x30 d:/devkitpro/devkitarm/bin/../lib/gcc/arm-eabi/4.5.1/../../../../arm-eabi/lib\libg.a(lib_a-fprintf.o)
 .ARM.attributes
                0x00000e3f       0x30 d:/devkitpro/devkitarm/bin/../lib/gcc/arm-eabi/4.5.1/../../../../arm-eabi/lib\libg.a(lib_a-fread.o)
 .ARM.attributes
                0x00000e6f       0x30 d:/devkitpro/devkitarm/bin/../lib/gcc/arm-eabi/4.5.1/../../../../arm-eabi/lib\libg.a(lib_a-freer.o)
 .ARM.attributes
                0x00000e9f       0x30 d:/devkitpro/devkitarm/bin/../lib/gcc/arm-eabi/4.5.1/../../../../arm-eabi/lib\libg.a(lib_a-impure.o)
 .ARM.attributes
                0x00000ecf       0x30 d:/devkitpro/devkitarm/bin/../lib/gcc/arm-eabi/4.5.1/../../../../arm-eabi/lib\libg.a(lib_a-init.o)
 .ARM.attributes
                0x00000eff       0x30 d:/devkitpro/devkitarm/bin/../lib/gcc/arm-eabi/4.5.1/../../../../arm-eabi/lib\libg.a(lib_a-malloc.o)
 .ARM.attributes
                0x00000f2f       0x30 d:/devkitpro/devkitarm/bin/../lib/gcc/arm-eabi/4.5.1/../../../../arm-eabi/lib\libg.a(lib_a-mallocr.o)
 .ARM.attributes
                0x00000f5f       0x30 d:/devkitpro/devkitarm/bin/../lib/gcc/arm-eabi/4.5.1/../../../../arm-eabi/lib\libg.a(lib_a-memcmp.o)
 .ARM.attributes
                0x00000f8f       0x30 d:/devkitpro/devkitarm/bin/../lib/gcc/arm-eabi/4.5.1/../../../../arm-eabi/lib\libg.a(lib_a-memcpy.o)
 .ARM.attributes
                0x00000fbf       0x30 d:/devkitpro/devkitarm/bin/../lib/gcc/arm-eabi/4.5.1/../../../../arm-eabi/lib\libg.a(lib_a-memmove.o)
 .ARM.attributes
                0x00000fef       0x30 d:/devkitpro/devkitarm/bin/../lib/gcc/arm-eabi/4.5.1/../../../../arm-eabi/lib\libg.a(lib_a-memset.o)
 .ARM.attributes
                0x0000101f       0x30 d:/devkitpro/devkitarm/bin/../lib/gcc/arm-eabi/4.5.1/../../../../arm-eabi/lib\libg.a(lib_a-mlock.o)
 .ARM.attributes
                0x0000104f       0x30 d:/devkitpro/devkitarm/bin/../lib/gcc/arm-eabi/4.5.1/../../../../arm-eabi/lib\libg.a(lib_a-realloc.o)
 .ARM.attributes
                0x0000107f       0x30 d:/devkitpro/devkitarm/bin/../lib/gcc/arm-eabi/4.5.1/../../../../arm-eabi/lib\libg.a(lib_a-reallocr.o)
 .ARM.attributes
                0x000010af       0x30 d:/devkitpro/devkitarm/bin/../lib/gcc/arm-eabi/4.5.1/../../../../arm-eabi/lib\libg.a(lib_a-refill.o)
 .ARM.attributes
                0x000010df       0x20 d:/devkitpro/devkitarm/bin/../lib/gcc/arm-eabi/4.5.1/../../../../arm-eabi/lib\libg.a(lib_a-setjmp.o)
 .ARM.attributes
                0x000010ff       0x30 d:/devkitpro/devkitarm/bin/../lib/gcc/arm-eabi/4.5.1/../../../../arm-eabi/lib\libg.a(lib_a-signal.o)
 .ARM.attributes
                0x0000112f       0x30 d:/devkitpro/devkitarm/bin/../lib/gcc/arm-eabi/4.5.1/../../../../arm-eabi/lib\libg.a(lib_a-snprintf.o)
 .ARM.attributes
                0x0000115f       0x30 d:/devkitpro/devkitarm/bin/../lib/gcc/arm-eabi/4.5.1/../../../../arm-eabi/lib\libg.a(lib_a-strcmp.o)
 .ARM.attributes
                0x0000118f       0x30 d:/devkitpro/devkitarm/bin/../lib/gcc/arm-eabi/4.5.1/../../../../arm-eabi/lib\libg.a(lib_a-strlen.o)
 .ARM.attributes
                0x000011bf       0x30 d:/devkitpro/devkitarm/bin/../lib/gcc/arm-eabi/4.5.1/../../../../arm-eabi/lib\libg.a(lib_a-strtod.o)
 .ARM.attributes
                0x000011ef       0x30 d:/devkitpro/devkitarm/bin/../lib/gcc/arm-eabi/4.5.1/../../../../arm-eabi/lib\libg.a(lib_a-svfprintf.o)
 .ARM.attributes
                0x0000121f       0x30 d:/devkitpro/devkitarm/bin/../lib/gcc/arm-eabi/4.5.1/../../../../arm-eabi/lib\libg.a(lib_a-vfprintf.o)
 .ARM.attributes
                0x0000124f       0x30 d:/devkitpro/devkitarm/bin/../lib/gcc/arm-eabi/4.5.1/../../../../arm-eabi/lib\libg.a(lib_a-wcrtomb.o)
 .ARM.attributes
                0x0000127f       0x30 d:/devkitpro/devkitarm/bin/../lib/gcc/arm-eabi/4.5.1/../../../../arm-eabi/lib\libg.a(lib_a-wcsrtombs.o)
 .ARM.attributes
                0x000012af       0x30 d:/devkitpro/devkitarm/bin/../lib/gcc/arm-eabi/4.5.1/../../../../arm-eabi/lib\libg.a(lib_a-wctomb_r.o)
 .ARM.attributes
                0x000012df       0x30 d:/devkitpro/devkitarm/bin/../lib/gcc/arm-eabi/4.5.1/../../../../arm-eabi/lib\libg.a(lib_a-wsetup.o)
 .ARM.attributes
                0x0000130f       0x30 d:/devkitpro/devkitarm/bin/../lib/gcc/arm-eabi/4.5.1/../../../../arm-eabi/lib\libg.a(lib_a-dtoa.o)
 .ARM.attributes
                0x0000133f       0x30 d:/devkitpro/devkitarm/bin/../lib/gcc/arm-eabi/4.5.1/../../../../arm-eabi/lib\libg.a(lib_a-fflush.o)
 .ARM.attributes
                0x0000136f       0x30 d:/devkitpro/devkitarm/bin/../lib/gcc/arm-eabi/4.5.1/../../../../arm-eabi/lib\libg.a(lib_a-findfp.o)
 .ARM.attributes
                0x0000139f       0x30 d:/devkitpro/devkitarm/bin/../lib/gcc/arm-eabi/4.5.1/../../../../arm-eabi/lib\libg.a(lib_a-fwalk.o)
 .ARM.attributes
                0x000013cf       0x30 d:/devkitpro/devkitarm/bin/../lib/gcc/arm-eabi/4.5.1/../../../../arm-eabi/lib\libg.a(lib_a-gdtoa-gethex.o)
 .ARM.attributes
                0x000013ff       0x30 d:/devkitpro/devkitarm/bin/../lib/gcc/arm-eabi/4.5.1/../../../../arm-eabi/lib\libg.a(lib_a-gdtoa-hexnan.o)
 .ARM.attributes
                0x0000142f       0x30 d:/devkitpro/devkitarm/bin/../lib/gcc/arm-eabi/4.5.1/../../../../arm-eabi/lib\libg.a(lib_a-locale.o)
 .ARM.attributes
                0x0000145f       0x30 d:/devkitpro/devkitarm/bin/../lib/gcc/arm-eabi/4.5.1/../../../../arm-eabi/lib\libg.a(lib_a-makebuf.o)
 .ARM.attributes
                0x0000148f       0x30 d:/devkitpro/devkitarm/bin/../lib/gcc/arm-eabi/4.5.1/../../../../arm-eabi/lib\libg.a(lib_a-mbtowc_r.o)
 .ARM.attributes
                0x000014bf       0x30 d:/devkitpro/devkitarm/bin/../lib/gcc/arm-eabi/4.5.1/../../../../arm-eabi/lib\libg.a(lib_a-memchr.o)
 .ARM.attributes
                0x000014ef       0x30 d:/devkitpro/devkitarm/bin/../lib/gcc/arm-eabi/4.5.1/../../../../arm-eabi/lib\libg.a(lib_a-mprec.o)
 .ARM.attributes
                0x0000151f       0x30 d:/devkitpro/devkitarm/bin/../lib/gcc/arm-eabi/4.5.1/../../../../arm-eabi/lib\libg.a(lib_a-sf_nan.o)
 .ARM.attributes
                0x0000154f       0x30 d:/devkitpro/devkitarm/bin/../lib/gcc/arm-eabi/4.5.1/../../../../arm-eabi/lib\libg.a(lib_a-stdio.o)
 .ARM.attributes
                0x0000157f       0x30 d:/devkitpro/devkitarm/bin/../lib/gcc/arm-eabi/4.5.1/../../../../arm-eabi/lib\libg.a(lib_a-strcasecmp.o)
 .ARM.attributes
                0x000015af       0x30 d:/devkitpro/devkitarm/bin/../lib/gcc/arm-eabi/4.5.1/../../../../arm-eabi/lib\libg.a(lib_a-strcat.o)
 .ARM.attributes
                0x000015df       0x30 d:/devkitpro/devkitarm/bin/../lib/gcc/arm-eabi/4.5.1/../../../../arm-eabi/lib\libg.a(lib_a-strchr.o)
 .ARM.attributes
                0x0000160f       0x30 d:/devkitpro/devkitarm/bin/../lib/gcc/arm-eabi/4.5.1/../../../../arm-eabi/lib\libg.a(lib_a-strcpy.o)
 .ARM.attributes
                0x0000163f       0x30 d:/devkitpro/devkitarm/bin/../lib/gcc/arm-eabi/4.5.1/../../../../arm-eabi/lib\libg.a(lib_a-strlcpy.o)
 .ARM.attributes
                0x0000166f       0x30 d:/devkitpro/devkitarm/bin/../lib/gcc/arm-eabi/4.5.1/../../../../arm-eabi/lib\libg.a(lib_a-strncasecmp.o)
 .ARM.attributes
                0x0000169f       0x30 d:/devkitpro/devkitarm/bin/../lib/gcc/arm-eabi/4.5.1/../../../../arm-eabi/lib\libg.a(lib_a-strncmp.o)
 .ARM.attributes
                0x000016cf       0x30 d:/devkitpro/devkitarm/bin/../lib/gcc/arm-eabi/4.5.1/../../../../arm-eabi/lib\libg.a(lib_a-strncpy.o)
 .ARM.attributes
                0x000016ff       0x30 d:/devkitpro/devkitarm/bin/../lib/gcc/arm-eabi/4.5.1/../../../../arm-eabi/lib\libg.a(lib_a-strtol.o)
 .ARM.attributes
                0x0000172f       0x30 d:/devkitpro/devkitarm/bin/../lib/gcc/arm-eabi/4.5.1/../../../../arm-eabi/lib\libg.a(lib_a-svfiprintf.o)
 .ARM.attributes
                0x0000175f       0x30 d:/devkitpro/devkitarm/bin/../lib/gcc/arm-eabi/4.5.1/../../../../arm-eabi/lib\libg.a(lib_a-vfiprintf.o)
 .ARM.attributes
                0x0000178f       0x30 d:/devkitpro/devkitarm/bin/../lib/gcc/arm-eabi/4.5.1/../../../../arm-eabi/lib\libg.a(lib_a-wcsnrtombs.o)
 .ARM.attributes
                0x000017bf       0x30 d:/devkitpro/devkitarm/bin/../lib/gcc/arm-eabi/4.5.1/../../../../arm-eabi/lib\libg.a(lib_a-callocr.o)
 .ARM.attributes
                0x000017ef       0x30 d:/devkitpro/devkitarm/bin/../lib/gcc/arm-eabi/4.5.1/../../../../arm-eabi/lib\libg.a(lib_a-ctype_.o)
 .ARM.attributes
                0x0000181f       0x30 d:/devkitpro/devkitarm/bin/../lib/gcc/arm-eabi/4.5.1/../../../../arm-eabi/lib\libg.a(lib_a-fclose.o)
 .ARM.attributes
                0x0000184f       0x30 d:/devkitpro/devkitarm/bin/../lib/gcc/arm-eabi/4.5.1/../../../../arm-eabi/lib\libg.a(lib_a-fputwc.o)
 .ARM.attributes
                0x0000187f       0x30 d:/devkitpro/devkitarm/bin/../lib/gcc/arm-eabi/4.5.1/../../../../arm-eabi/lib\libg.a(lib_a-fvwrite.o)
 .ARM.attributes
                0x000018af       0x30 d:/devkitpro/devkitarm/bin/../lib/gcc/arm-eabi/4.5.1/../../../../arm-eabi/lib\libg.a(lib_a-getenv_r.o)
 .ARM.attributes
                0x000018df       0x30 d:/devkitpro/devkitarm/bin/../lib/gcc/arm-eabi/4.5.1/../../../../arm-eabi/lib\libg.a(lib_a-wbuf.o)
 .ARM.attributes
                0x0000190f       0x30 d:/devkitpro/devkitarm/bin/../lib/gcc/arm-eabi/4.5.1/../../../../arm-eabi/lib\libg.a(lib_a-environ.o)
 .ARM.attributes
                0x0000193f       0x30 d:/devkitpro/devkitarm/bin/../lib/gcc/arm-eabi/4.5.1/../../../../arm-eabi/lib\libg.a(lib_a-envlock.o)
 .ARM.attributes
                0x0000196f       0x30 d:/devkitpro/devkitarm/bin/../lib/gcc/arm-eabi/4.5.1/../../../../arm-eabi/lib\libsysbase.a(close.o)
 .ARM.attributes
                0x0000199f       0x30 d:/devkitpro/devkitarm/bin/../lib/gcc/arm-eabi/4.5.1/../../../../arm-eabi/lib\libsysbase.a(fstat.o)
 .ARM.attributes
                0x000019cf       0x30 d:/devkitpro/devkitarm/bin/../lib/gcc/arm-eabi/4.5.1/../../../../arm-eabi/lib\libsysbase.a(getpid.o)
 .ARM.attributes
                0x000019ff       0x30 d:/devkitpro/devkitarm/bin/../lib/gcc/arm-eabi/4.5.1/../../../../arm-eabi/lib\libsysbase.a(isatty.o)
 .ARM.attributes
                0x00001a2f       0x30 d:/devkitpro/devkitarm/bin/../lib/gcc/arm-eabi/4.5.1/../../../../arm-eabi/lib\libsysbase.a(kill.o)
 .ARM.attributes
                0x00001a5f       0x30 d:/devkitpro/devkitarm/bin/../lib/gcc/arm-eabi/4.5.1/../../../../arm-eabi/lib\libsysbase.a(lseek.o)
 .ARM.attributes
                0x00001a8f       0x30 d:/devkitpro/devkitarm/bin/../lib/gcc/arm-eabi/4.5.1/../../../../arm-eabi/lib\libsysbase.a(read.o)
 .ARM.attributes
                0x00001abf       0x30 d:/devkitpro/devkitarm/bin/../lib/gcc/arm-eabi/4.5.1/../../../../arm-eabi/lib\libsysbase.a(sbrk.o)
 .ARM.attributes
                0x00001aef       0x30 d:/devkitpro/devkitarm/bin/../lib/gcc/arm-eabi/4.5.1/../../../../arm-eabi/lib\libsysbase.a(times.o)
 .ARM.attributes
                0x00001b1f       0x30 d:/devkitpro/devkitarm/bin/../lib/gcc/arm-eabi/4.5.1/../../../../arm-eabi/lib\libsysbase.a(write.o)
 .ARM.attributes
                0x00001b4f       0x30 d:/devkitpro/devkitarm/bin/../lib/gcc/arm-eabi/4.5.1/../../../../arm-eabi/lib\libsysbase.a(_exit.o)
 .ARM.attributes
                0x00001b7f       0x30 d:/devkitpro/devkitarm/bin/../lib/gcc/arm-eabi/4.5.1/../../../../arm-eabi/lib\libsysbase.a(malloc_vars.o)
 .ARM.attributes
                0x00001baf       0x30 d:/devkitpro/devkitarm/bin/../lib/gcc/arm-eabi/4.5.1/../../../../arm-eabi/lib\libsysbase.a(build_argv.o)
 .ARM.attributes
                0x00001bdf       0x30 d:/devkitpro/devkitarm/bin/../lib/gcc/arm-eabi/4.5.1/../../../../arm-eabi/lib\libsysbase.a(syscall_support.o)
 .ARM.attributes
                0x00001c0f       0x30 d:/devkitpro/devkitarm/bin/../lib/gcc/arm-eabi/4.5.1/../../../../arm-eabi/lib\libsysbase.a(handle_manager.o)
 .ARM.attributes
                0x00001c3f       0x30 d:/devkitpro/devkitarm/bin/../lib/gcc/arm-eabi/4.5.1/../../../../arm-eabi/lib\libsysbase.a(iosupport.o)
 .ARM.attributes
                0x00001c6f       0x22 d:/devkitpro/devkitarm/bin/../lib/gcc/arm-eabi/4.5.1\libgcc.a(_aeabi_uldivmod.o)
 .ARM.attributes
                0x00001c91       0x30 d:/devkitpro/devkitarm/bin/../lib/gcc/arm-eabi/4.5.1\libgcc.a(bpabi.o)
 .ARM.attributes
                0x00001cc1       0x30 d:/devkitpro/devkitarm/bin/../lib/gcc/arm-eabi/4.5.1\libgcc.a(unwind-arm.o)
 .ARM.attributes
                0x00001cf1       0x1c d:/devkitpro/devkitarm/bin/../lib/gcc/arm-eabi/4.5.1\libgcc.a(libunwind.o)
 .ARM.attributes
                0x00001d0d       0x30 d:/devkitpro/devkitarm/bin/../lib/gcc/arm-eabi/4.5.1\libgcc.a(pr-support.o)
 .ARM.attributes
                0x00001d3d       0x30 d:/devkitpro/devkitarm/bin/../lib/gcc/arm-eabi/4.5.1\libgcc.a(_divdi3.o)
 .ARM.attributes
                0x00001d6d       0x30 d:/devkitpro/devkitarm/bin/../lib/gcc/arm-eabi/4.5.1\libgcc.a(_udivdi3.o)
 .ARM.attributes
                0x00001d9d       0x22 d:/devkitpro/devkitarm/bin/../lib/gcc/arm-eabi/4.5.1\libgcc.a(_clzsi2.o)
 .ARM.attributes
                0x00001dbf       0x30 d:/devkitpro/devkitarm/bin/../lib/gcc/arm-eabi/4.5.1/crtend.o
 .ARM.attributes
                0x00001def       0x20 d:/devkitpro/devkitarm/bin/../lib/gcc/arm-eabi/4.5.1/crtn.o

.comment        0x00000000      0x252 load address 0x02036aa8
 *(.comment)
 .comment       0x00000000       0x22 d:/devkitpro/devkitarm/bin/../lib/gcc/arm-eabi/4.5.1/crtbegin.o
                                 0x23 (size before relaxing)
 .comment       0x00000000       0x23 main.o
 .comment       0x00000000       0x23 d:/devkitPro/libnds/lib\libul.a(ulib.o)
 .comment       0x00000000       0x23 d:/devkitPro/libnds/lib\libul.a(drawing.o)
 .comment       0x00000000       0x23 d:/devkitPro/libnds/lib\libul.a(text.o)
 .comment       0x00000000       0x23 d:/devkitPro/libnds/lib\libul.a(VirtualFile.o)
 .comment       0x00000000       0x23 d:/devkitPro/libnds/lib\libul.a(texVramManager.o)
 .comment       0x00000000       0x23 d:/devkitPro/libnds/lib\libul.a(texPalManager.o)
 .comment       0x00000000       0x23 d:/devkitPro/libnds/lib\libul.a(keys.o)
 .comment       0x00000000       0x23 d:/devkitPro/libnds/lib\libul.a(ulDrawImage.o)
 .comment       0x00000000       0x23 d:/devkitPro/libnds/lib\libul.a(ulCreateImagePalette.o)
 .comment       0x00000000       0x23 d:/devkitPro/libnds/lib\libul.a(ulDrawGradientRect.o)
 .comment       0x00000000       0x23 d:/devkitPro/libnds/lib\libul.a(ulLoadImageFilePNG.o)
 .comment       0x00000000       0x23 d:/devkitPro/libnds/lib\libul.a(glWrapper.o)
 .comment       0x00000000       0x23 d:/devkitPro/libnds/lib\libul.a(libLoadPng.o)
 .comment       0x00000000       0x23 d:/devkitPro/libnds/lib\libul.a(loading_utility.o)
 .comment       0x00000022       0x23 d:/devkitPro/libnds/lib\libpng.a(png.o)
 .comment       0x00000045       0x23 d:/devkitPro/libnds/lib\libpng.a(pngread.o)
 .comment       0x00000068       0x23 d:/devkitPro/libnds/lib\libpng.a(pngrio.o)
 .comment       0x0000008b       0x23 d:/devkitPro/libnds/lib\libpng.a(pngrtran.o)
 .comment       0x000000ae       0x23 d:/devkitPro/libnds/lib\libpng.a(pngmem.o)
 .comment       0x000000d1       0x23 d:/devkitPro/libnds/lib\libpng.a(pngerror.o)
 .comment       0x000000f4       0x23 d:/devkitPro/libnds/lib\libpng.a(pngget.o)
 .comment       0x00000117       0x23 d:/devkitPro/libnds/lib\libpng.a(pngrutil.o)
 .comment       0x0000013a       0x23 d:/devkitPro/libnds/lib\libpng.a(pngtrans.o)
 .comment       0x0000015d       0x23 d:/devkitPro/libnds/lib\libpng.a(pngset.o)
 .comment       0x00000180       0x23 d:/devkitPro/libnds/lib\libz.a(crc32.o)
 .comment       0x000001a3       0x23 d:/devkitPro/libnds/lib\libz.a(inflate.o)
 .comment       0x000001c6       0x23 d:/devkitPro/libnds/lib\libz.a(inftrees.o)
 .comment       0x000001e9       0x23 d:/devkitPro/libnds/lib\libz.a(inffast.o)
 .comment       0x0000020c       0x23 d:/devkitPro/libnds/lib\libz.a(adler32.o)
 .comment       0x0000022f       0x23 d:/devkitPro/libnds/lib\libz.a(zutil.o)
 .comment       0x00000000       0x23 d:/devkitPro/libnds/lib\libnds9.a(dynamicArray.o)
 .comment       0x00000000       0x23 d:/devkitPro/libnds/lib\libnds9.a(keys.o)
 .comment       0x00000000       0x23 d:/devkitPro/libnds/lib\libnds9.a(system.o)
 .comment       0x00000000       0x23 d:/devkitPro/libnds/lib\libnds9.a(touch.o)
 .comment       0x00000000       0x23 d:/devkitPro/libnds/lib\libnds9.a(trig.o)
 .comment       0x00000000       0x23 d:/devkitPro/libnds/lib\libnds9.a(videoGL.o)
 .comment       0x00000000       0x23 d:/devkitPro/libnds/lib\libnds9.a(initSystem.o)
 .comment       0x00000000       0x23 d:/devkitPro/libnds/lib\libnds9.a(fifosystem.o)
 .comment       0x00000000       0x23 d:/devkitPro/libnds/lib\libnds9.a(interrupts.o)
 .comment       0x00000000       0x23 d:/devkitPro/libnds/lib\libnds9.a(libnds_exit.o)
 .comment       0x00000000       0x23 d:/devkitPro/libnds/lib\libnds9.a(video.o)
 .comment       0x00000000       0x23 d:/devkitpro/devkitarm/bin/../lib/gcc/arm-eabi/4.5.1/../../../../arm-eabi/lib\libm.a(lib_a-s_cos.o)
 .comment       0x00000000       0x23 d:/devkitpro/devkitarm/bin/../lib/gcc/arm-eabi/4.5.1/../../../../arm-eabi/lib\libm.a(lib_a-s_sin.o)
 .comment       0x00000000       0x23 d:/devkitpro/devkitarm/bin/../lib/gcc/arm-eabi/4.5.1/../../../../arm-eabi/lib\libm.a(lib_a-w_pow.o)
 .comment       0x00000000       0x23 d:/devkitpro/devkitarm/bin/../lib/gcc/arm-eabi/4.5.1/../../../../arm-eabi/lib\libm.a(lib_a-e_pow.o)
 .comment       0x00000000       0x23 d:/devkitpro/devkitarm/bin/../lib/gcc/arm-eabi/4.5.1/../../../../arm-eabi/lib\libm.a(lib_a-e_rem_pio2.o)
 .comment       0x00000000       0x23 d:/devkitpro/devkitarm/bin/../lib/gcc/arm-eabi/4.5.1/../../../../arm-eabi/lib\libm.a(lib_a-e_sqrt.o)
 .comment       0x00000000       0x23 d:/devkitpro/devkitarm/bin/../lib/gcc/arm-eabi/4.5.1/../../../../arm-eabi/lib\libm.a(lib_a-k_cos.o)
 .comment       0x00000000       0x23 d:/devkitpro/devkitarm/bin/../lib/gcc/arm-eabi/4.5.1/../../../../arm-eabi/lib\libm.a(lib_a-k_rem_pio2.o)
 .comment       0x00000000       0x23 d:/devkitpro/devkitarm/bin/../lib/gcc/arm-eabi/4.5.1/../../../../arm-eabi/lib\libm.a(lib_a-k_sin.o)
 .comment       0x00000000       0x23 d:/devkitpro/devkitarm/bin/../lib/gcc/arm-eabi/4.5.1/../../../../arm-eabi/lib\libm.a(lib_a-s_fabs.o)
 .comment       0x00000000       0x23 d:/devkitpro/devkitarm/bin/../lib/gcc/arm-eabi/4.5.1/../../../../arm-eabi/lib\libm.a(lib_a-s_finite.o)
 .comment       0x00000000       0x23 d:/devkitpro/devkitarm/bin/../lib/gcc/arm-eabi/4.5.1/../../../../arm-eabi/lib\libm.a(lib_a-s_floor.o)
 .comment       0x00000000       0x23 d:/devkitpro/devkitarm/bin/../lib/gcc/arm-eabi/4.5.1/../../../../arm-eabi/lib\libm.a(lib_a-s_fpclassify.o)
 .comment       0x00000000       0x23 d:/devkitpro/devkitarm/bin/../lib/gcc/arm-eabi/4.5.1/../../../../arm-eabi/lib\libm.a(lib_a-s_lib_ver.o)
 .comment       0x00000000       0x23 d:/devkitpro/devkitarm/bin/../lib/gcc/arm-eabi/4.5.1/../../../../arm-eabi/lib\libm.a(lib_a-s_matherr.o)
 .comment       0x00000000       0x23 d:/devkitpro/devkitarm/bin/../lib/gcc/arm-eabi/4.5.1/../../../../arm-eabi/lib\libm.a(lib_a-s_nan.o)
 .comment       0x00000000       0x23 d:/devkitpro/devkitarm/bin/../lib/gcc/arm-eabi/4.5.1/../../../../arm-eabi/lib\libm.a(lib_a-s_rint.o)
 .comment       0x00000000       0x23 d:/devkitpro/devkitarm/bin/../lib/gcc/arm-eabi/4.5.1/../../../../arm-eabi/lib\libm.a(lib_a-s_scalbn.o)
 .comment       0x00000000       0x23 d:/devkitpro/devkitarm/bin/../lib/gcc/arm-eabi/4.5.1/../../../../arm-eabi/lib\libm.a(lib_a-s_copysign.o)
 .comment       0x00000000       0x23 d:/devkitpro/devkitarm/bin/../lib/gcc/arm-eabi/4.5.1\libgcc.a(_muldi3.o)
 .comment       0x00000000       0x23 d:/devkitpro/devkitarm/bin/../lib/gcc/arm-eabi/4.5.1/../../../../arm-eabi/lib\libg.a(lib_a-abort.o)
 .comment       0x00000000       0x23 d:/devkitpro/devkitarm/bin/../lib/gcc/arm-eabi/4.5.1/../../../../arm-eabi/lib\libg.a(lib_a-bsearch.o)
 .comment       0x00000000       0x23 d:/devkitpro/devkitarm/bin/../lib/gcc/arm-eabi/4.5.1/../../../../arm-eabi/lib\libg.a(lib_a-errno.o)
 .comment       0x00000000       0x23 d:/devkitpro/devkitarm/bin/../lib/gcc/arm-eabi/4.5.1/../../../../arm-eabi/lib\libg.a(lib_a-fprintf.o)
 .comment       0x00000000       0x23 d:/devkitpro/devkitarm/bin/../lib/gcc/arm-eabi/4.5.1/../../../../arm-eabi/lib\libg.a(lib_a-fread.o)
 .comment       0x00000000       0x23 d:/devkitpro/devkitarm/bin/../lib/gcc/arm-eabi/4.5.1/../../../../arm-eabi/lib\libg.a(lib_a-freer.o)
 .comment       0x00000000       0x23 d:/devkitpro/devkitarm/bin/../lib/gcc/arm-eabi/4.5.1/../../../../arm-eabi/lib\libg.a(lib_a-impure.o)
 .comment       0x00000000       0x23 d:/devkitpro/devkitarm/bin/../lib/gcc/arm-eabi/4.5.1/../../../../arm-eabi/lib\libg.a(lib_a-init.o)
 .comment       0x00000000       0x23 d:/devkitpro/devkitarm/bin/../lib/gcc/arm-eabi/4.5.1/../../../../arm-eabi/lib\libg.a(lib_a-malloc.o)
 .comment       0x00000000       0x23 d:/devkitpro/devkitarm/bin/../lib/gcc/arm-eabi/4.5.1/../../../../arm-eabi/lib\libg.a(lib_a-mallocr.o)
 .comment       0x00000000       0x23 d:/devkitpro/devkitarm/bin/../lib/gcc/arm-eabi/4.5.1/../../../../arm-eabi/lib\libg.a(lib_a-memcmp.o)
 .comment       0x00000000       0x23 d:/devkitpro/devkitarm/bin/../lib/gcc/arm-eabi/4.5.1/../../../../arm-eabi/lib\libg.a(lib_a-memcpy.o)
 .comment       0x00000000       0x23 d:/devkitpro/devkitarm/bin/../lib/gcc/arm-eabi/4.5.1/../../../../arm-eabi/lib\libg.a(lib_a-memmove.o)
 .comment       0x00000000       0x23 d:/devkitpro/devkitarm/bin/../lib/gcc/arm-eabi/4.5.1/../../../../arm-eabi/lib\libg.a(lib_a-memset.o)
 .comment       0x00000000       0x23 d:/devkitpro/devkitarm/bin/../lib/gcc/arm-eabi/4.5.1/../../../../arm-eabi/lib\libg.a(lib_a-mlock.o)
 .comment       0x00000000       0x23 d:/devkitpro/devkitarm/bin/../lib/gcc/arm-eabi/4.5.1/../../../../arm-eabi/lib\libg.a(lib_a-realloc.o)
 .comment       0x00000000       0x23 d:/devkitpro/devkitarm/bin/../lib/gcc/arm-eabi/4.5.1/../../../../arm-eabi/lib\libg.a(lib_a-reallocr.o)
 .comment       0x00000000       0x23 d:/devkitpro/devkitarm/bin/../lib/gcc/arm-eabi/4.5.1/../../../../arm-eabi/lib\libg.a(lib_a-refill.o)
 .comment       0x00000000       0x23 d:/devkitpro/devkitarm/bin/../lib/gcc/arm-eabi/4.5.1/../../../../arm-eabi/lib\libg.a(lib_a-signal.o)
 .comment       0x00000000       0x23 d:/devkitpro/devkitarm/bin/../lib/gcc/arm-eabi/4.5.1/../../../../arm-eabi/lib\libg.a(lib_a-snprintf.o)
 .comment       0x00000000       0x23 d:/devkitpro/devkitarm/bin/../lib/gcc/arm-eabi/4.5.1/../../../../arm-eabi/lib\libg.a(lib_a-strcmp.o)
 .comment       0x00000000       0x23 d:/devkitpro/devkitarm/bin/../lib/gcc/arm-eabi/4.5.1/../../../../arm-eabi/lib\libg.a(lib_a-strlen.o)
 .comment       0x00000000       0x23 d:/devkitpro/devkitarm/bin/../lib/gcc/arm-eabi/4.5.1/../../../../arm-eabi/lib\libg.a(lib_a-strtod.o)
 .comment       0x00000000       0x23 d:/devkitpro/devkitarm/bin/../lib/gcc/arm-eabi/4.5.1/../../../../arm-eabi/lib\libg.a(lib_a-svfprintf.o)
 .comment       0x00000000       0x23 d:/devkitpro/devkitarm/bin/../lib/gcc/arm-eabi/4.5.1/../../../../arm-eabi/lib\libg.a(lib_a-vfprintf.o)
 .comment       0x00000000       0x23 d:/devkitpro/devkitarm/bin/../lib/gcc/arm-eabi/4.5.1/../../../../arm-eabi/lib\libg.a(lib_a-wcrtomb.o)
 .comment       0x00000000       0x23 d:/devkitpro/devkitarm/bin/../lib/gcc/arm-eabi/4.5.1/../../../../arm-eabi/lib\libg.a(lib_a-wcsrtombs.o)
 .comment       0x00000000       0x23 d:/devkitpro/devkitarm/bin/../lib/gcc/arm-eabi/4.5.1/../../../../arm-eabi/lib\libg.a(lib_a-wctomb_r.o)
 .comment       0x00000000       0x23 d:/devkitpro/devkitarm/bin/../lib/gcc/arm-eabi/4.5.1/../../../../arm-eabi/lib\libg.a(lib_a-wsetup.o)
 .comment       0x00000000       0x23 d:/devkitpro/devkitarm/bin/../lib/gcc/arm-eabi/4.5.1/../../../../arm-eabi/lib\libg.a(lib_a-dtoa.o)
 .comment       0x00000000       0x23 d:/devkitpro/devkitarm/bin/../lib/gcc/arm-eabi/4.5.1/../../../../arm-eabi/lib\libg.a(lib_a-fflush.o)
 .comment       0x00000000       0x23 d:/devkitpro/devkitarm/bin/../lib/gcc/arm-eabi/4.5.1/../../../../arm-eabi/lib\libg.a(lib_a-findfp.o)
 .comment       0x00000000       0x23 d:/devkitpro/devkitarm/bin/../lib/gcc/arm-eabi/4.5.1/../../../../arm-eabi/lib\libg.a(lib_a-fwalk.o)
 .comment       0x00000000       0x23 d:/devkitpro/devkitarm/bin/../lib/gcc/arm-eabi/4.5.1/../../../../arm-eabi/lib\libg.a(lib_a-gdtoa-gethex.o)
 .comment       0x00000000       0x23 d:/devkitpro/devkitarm/bin/../lib/gcc/arm-eabi/4.5.1/../../../../arm-eabi/lib\libg.a(lib_a-gdtoa-hexnan.o)
 .comment       0x00000000       0x23 d:/devkitpro/devkitarm/bin/../lib/gcc/arm-eabi/4.5.1/../../../../arm-eabi/lib\libg.a(lib_a-locale.o)
 .comment       0x00000000       0x23 d:/devkitpro/devkitarm/bin/../lib/gcc/arm-eabi/4.5.1/../../../../arm-eabi/lib\libg.a(lib_a-makebuf.o)
 .comment       0x00000000       0x23 d:/devkitpro/devkitarm/bin/../lib/gcc/arm-eabi/4.5.1/../../../../arm-eabi/lib\libg.a(lib_a-mbtowc_r.o)
 .comment       0x00000000       0x23 d:/devkitpro/devkitarm/bin/../lib/gcc/arm-eabi/4.5.1/../../../../arm-eabi/lib\libg.a(lib_a-memchr.o)
 .comment       0x00000000       0x23 d:/devkitpro/devkitarm/bin/../lib/gcc/arm-eabi/4.5.1/../../../../arm-eabi/lib\libg.a(lib_a-mprec.o)
 .comment       0x00000000       0x23 d:/devkitpro/devkitarm/bin/../lib/gcc/arm-eabi/4.5.1/../../../../arm-eabi/lib\libg.a(lib_a-sf_nan.o)
 .comment       0x00000000       0x23 d:/devkitpro/devkitarm/bin/../lib/gcc/arm-eabi/4.5.1/../../../../arm-eabi/lib\libg.a(lib_a-stdio.o)
 .comment       0x00000000       0x23 d:/devkitpro/devkitarm/bin/../lib/gcc/arm-eabi/4.5.1/../../../../arm-eabi/lib\libg.a(lib_a-strcasecmp.o)
 .comment       0x00000000       0x23 d:/devkitpro/devkitarm/bin/../lib/gcc/arm-eabi/4.5.1/../../../../arm-eabi/lib\libg.a(lib_a-strcat.o)
 .comment       0x00000000       0x23 d:/devkitpro/devkitarm/bin/../lib/gcc/arm-eabi/4.5.1/../../../../arm-eabi/lib\libg.a(lib_a-strchr.o)
 .comment       0x00000000       0x23 d:/devkitpro/devkitarm/bin/../lib/gcc/arm-eabi/4.5.1/../../../../arm-eabi/lib\libg.a(lib_a-strcpy.o)
 .comment       0x00000000       0x23 d:/devkitpro/devkitarm/bin/../lib/gcc/arm-eabi/4.5.1/../../../../arm-eabi/lib\libg.a(lib_a-strlcpy.o)
 .comment       0x00000000       0x23 d:/devkitpro/devkitarm/bin/../lib/gcc/arm-eabi/4.5.1/../../../../arm-eabi/lib\libg.a(lib_a-strncasecmp.o)
 .comment       0x00000000       0x23 d:/devkitpro/devkitarm/bin/../lib/gcc/arm-eabi/4.5.1/../../../../arm-eabi/lib\libg.a(lib_a-strncmp.o)
 .comment       0x00000000       0x23 d:/devkitpro/devkitarm/bin/../lib/gcc/arm-eabi/4.5.1/../../../../arm-eabi/lib\libg.a(lib_a-strncpy.o)
 .comment       0x00000000       0x23 d:/devkitpro/devkitarm/bin/../lib/gcc/arm-eabi/4.5.1/../../../../arm-eabi/lib\libg.a(lib_a-strtol.o)
 .comment       0x00000000       0x23 d:/devkitpro/devkitarm/bin/../lib/gcc/arm-eabi/4.5.1/../../../../arm-eabi/lib\libg.a(lib_a-svfiprintf.o)
 .comment       0x00000000       0x23 d:/devkitpro/devkitarm/bin/../lib/gcc/arm-eabi/4.5.1/../../../../arm-eabi/lib\libg.a(lib_a-vfiprintf.o)
 .comment       0x00000000       0x23 d:/devkitpro/devkitarm/bin/../lib/gcc/arm-eabi/4.5.1/../../../../arm-eabi/lib\libg.a(lib_a-wcsnrtombs.o)
 .comment       0x00000000       0x23 d:/devkitpro/devkitarm/bin/../lib/gcc/arm-eabi/4.5.1/../../../../arm-eabi/lib\libg.a(lib_a-callocr.o)
 .comment       0x00000000       0x23 d:/devkitpro/devkitarm/bin/../lib/gcc/arm-eabi/4.5.1/../../../../arm-eabi/lib\libg.a(lib_a-ctype_.o)
 .comment       0x00000000       0x23 d:/devkitpro/devkitarm/bin/../lib/gcc/arm-eabi/4.5.1/../../../../arm-eabi/lib\libg.a(lib_a-fclose.o)
 .comment       0x00000000       0x23 d:/devkitpro/devkitarm/bin/../lib/gcc/arm-eabi/4.5.1/../../../../arm-eabi/lib\libg.a(lib_a-fputwc.o)
 .comment       0x00000000       0x23 d:/devkitpro/devkitarm/bin/../lib/gcc/arm-eabi/4.5.1/../../../../arm-eabi/lib\libg.a(lib_a-fvwrite.o)
 .comment       0x00000000       0x23 d:/devkitpro/devkitarm/bin/../lib/gcc/arm-eabi/4.5.1/../../../../arm-eabi/lib\libg.a(lib_a-getenv_r.o)
 .comment       0x00000000       0x23 d:/devkitpro/devkitarm/bin/../lib/gcc/arm-eabi/4.5.1/../../../../arm-eabi/lib\libg.a(lib_a-wbuf.o)
 .comment       0x00000000       0x23 d:/devkitpro/devkitarm/bin/../lib/gcc/arm-eabi/4.5.1/../../../../arm-eabi/lib\libg.a(lib_a-environ.o)
 .comment       0x00000000       0x23 d:/devkitpro/devkitarm/bin/../lib/gcc/arm-eabi/4.5.1/../../../../arm-eabi/lib\libg.a(lib_a-envlock.o)
 .comment       0x00000000       0x23 d:/devkitpro/devkitarm/bin/../lib/gcc/arm-eabi/4.5.1/../../../../arm-eabi/lib\libsysbase.a(close.o)
 .comment       0x00000000       0x23 d:/devkitpro/devkitarm/bin/../lib/gcc/arm-eabi/4.5.1/../../../../arm-eabi/lib\libsysbase.a(fstat.o)
 .comment       0x00000000       0x23 d:/devkitpro/devkitarm/bin/../lib/gcc/arm-eabi/4.5.1/../../../../arm-eabi/lib\libsysbase.a(getpid.o)
 .comment       0x00000000       0x23 d:/devkitpro/devkitarm/bin/../lib/gcc/arm-eabi/4.5.1/../../../../arm-eabi/lib\libsysbase.a(isatty.o)
 .comment       0x00000000       0x23 d:/devkitpro/devkitarm/bin/../lib/gcc/arm-eabi/4.5.1/../../../../arm-eabi/lib\libsysbase.a(kill.o)
 .comment       0x00000000       0x23 d:/devkitpro/devkitarm/bin/../lib/gcc/arm-eabi/4.5.1/../../../../arm-eabi/lib\libsysbase.a(lseek.o)
 .comment       0x00000000       0x23 d:/devkitpro/devkitarm/bin/../lib/gcc/arm-eabi/4.5.1/../../../../arm-eabi/lib\libsysbase.a(read.o)
 .comment       0x00000000       0x23 d:/devkitpro/devkitarm/bin/../lib/gcc/arm-eabi/4.5.1/../../../../arm-eabi/lib\libsysbase.a(sbrk.o)
 .comment       0x00000000       0x23 d:/devkitpro/devkitarm/bin/../lib/gcc/arm-eabi/4.5.1/../../../../arm-eabi/lib\libsysbase.a(times.o)
 .comment       0x00000000       0x23 d:/devkitpro/devkitarm/bin/../lib/gcc/arm-eabi/4.5.1/../../../../arm-eabi/lib\libsysbase.a(write.o)
 .comment       0x00000000       0x23 d:/devkitpro/devkitarm/bin/../lib/gcc/arm-eabi/4.5.1/../../../../arm-eabi/lib\libsysbase.a(_exit.o)
 .comment       0x00000000       0x23 d:/devkitpro/devkitarm/bin/../lib/gcc/arm-eabi/4.5.1/../../../../arm-eabi/lib\libsysbase.a(malloc_vars.o)
 .comment       0x00000000       0x23 d:/devkitpro/devkitarm/bin/../lib/gcc/arm-eabi/4.5.1/../../../../arm-eabi/lib\libsysbase.a(build_argv.o)
 .comment       0x00000000       0x23 d:/devkitpro/devkitarm/bin/../lib/gcc/arm-eabi/4.5.1/../../../../arm-eabi/lib\libsysbase.a(syscall_support.o)
 .comment       0x00000000       0x23 d:/devkitpro/devkitarm/bin/../lib/gcc/arm-eabi/4.5.1/../../../../arm-eabi/lib\libsysbase.a(handle_manager.o)
 .comment       0x00000000       0x23 d:/devkitpro/devkitarm/bin/../lib/gcc/arm-eabi/4.5.1/../../../../arm-eabi/lib\libsysbase.a(iosupport.o)
 .comment       0x00000000       0x23 d:/devkitpro/devkitarm/bin/../lib/gcc/arm-eabi/4.5.1\libgcc.a(bpabi.o)
 .comment       0x00000000       0x23 d:/devkitpro/devkitarm/bin/../lib/gcc/arm-eabi/4.5.1\libgcc.a(unwind-arm.o)
 .comment       0x00000000       0x23 d:/devkitpro/devkitarm/bin/../lib/gcc/arm-eabi/4.5.1\libgcc.a(pr-support.o)
 .comment       0x00000000       0x23 d:/devkitpro/devkitarm/bin/../lib/gcc/arm-eabi/4.5.1\libgcc.a(_divdi3.o)
 .comment       0x00000000       0x23 d:/devkitpro/devkitarm/bin/../lib/gcc/arm-eabi/4.5.1\libgcc.a(_udivdi3.o)
 .comment       0x00000000       0x23 d:/devkitpro/devkitarm/bin/../lib/gcc/arm-eabi/4.5.1/crtend.o

.debug
 *(.debug)

.line
 *(.line)

.debug_srcinfo
 *(.debug_srcinfo)

.debug_sfnames
 *(.debug_sfnames)

.debug_aranges  0x00000000      0x3a0 load address 0x02036aa8
 *(.debug_aranges)
 .debug_aranges
                0x00000000       0x20 main.o
 .debug_aranges
                0x00000020       0x20 d:/devkitPro/libnds/lib\libul.a(ulib.o)
 .debug_aranges
                0x00000040       0x20 d:/devkitPro/libnds/lib\libul.a(drawing.o)
 .debug_aranges
                0x00000060       0x20 d:/devkitPro/libnds/lib\libul.a(text.o)
 .debug_aranges
                0x00000080       0x20 d:/devkitPro/libnds/lib\libul.a(VirtualFile.o)
 .debug_aranges
                0x000000a0       0x20 d:/devkitPro/libnds/lib\libul.a(texVramManager.o)
 .debug_aranges
                0x000000c0       0x20 d:/devkitPro/libnds/lib\libul.a(texPalManager.o)
 .debug_aranges
                0x000000e0       0x20 d:/devkitPro/libnds/lib\libul.a(keys.o)
 .debug_aranges
                0x00000100       0x20 d:/devkitPro/libnds/lib\libul.a(ulDrawImage.o)
 .debug_aranges
                0x00000120       0x20 d:/devkitPro/libnds/lib\libul.a(ulCreateImagePalette.o)
 .debug_aranges
                0x00000140       0x20 d:/devkitPro/libnds/lib\libul.a(ulDrawGradientRect.o)
 .debug_aranges
                0x00000160       0x20 d:/devkitPro/libnds/lib\libul.a(ulLoadImageFilePNG.o)
 .debug_aranges
                0x00000180       0x20 d:/devkitPro/libnds/lib\libul.a(glWrapper.o)
 .debug_aranges
                0x000001a0       0x20 d:/devkitPro/libnds/lib\libul.a(libLoadPng.o)
 .debug_aranges
                0x000001c0       0x20 d:/devkitPro/libnds/lib\libnds9.a(dynamicArray.o)
 .debug_aranges
                0x000001e0       0x20 d:/devkitPro/libnds/lib\libnds9.a(keys.o)
 .debug_aranges
                0x00000200       0x20 d:/devkitPro/libnds/lib\libnds9.a(system.o)
 .debug_aranges
                0x00000220       0x20 d:/devkitPro/libnds/lib\libnds9.a(touch.o)
 .debug_aranges
                0x00000240       0x20 d:/devkitPro/libnds/lib\libnds9.a(trig.o)
 .debug_aranges
                0x00000260       0x20 d:/devkitPro/libnds/lib\libnds9.a(videoGL.o)
 .debug_aranges
                0x00000280       0x20 d:/devkitPro/libnds/lib\libnds9.a(initSystem.o)
 .debug_aranges
                0x000002a0       0x20 d:/devkitPro/libnds/lib\libnds9.a(fifosystem.o)
 .debug_aranges
                0x000002c0       0x20 d:/devkitPro/libnds/lib\libnds9.a(interrupts.o)
 .debug_aranges
                0x000002e0       0x20 d:/devkitPro/libnds/lib\libnds9.a(libnds_exit.o)
 .debug_aranges
                0x00000300       0x20 d:/devkitPro/libnds/lib\libnds9.a(mpu_setup.o)
 .debug_aranges
                0x00000320       0x20 d:/devkitPro/libnds/lib\libnds9.a(biosCalls.o)
 .debug_aranges
                0x00000340       0x20 d:/devkitPro/libnds/lib\libnds9.a(interruptDispatcher.o)
 .debug_aranges
                0x00000360       0x20 d:/devkitPro/libnds/lib\libnds9.a(swiSoftReset.o)
 .debug_aranges
                0x00000380       0x20 d:/devkitPro/libnds/lib\libnds9.a(video.o)

.debug_pubnames
                0x00000000     0x14d6 load address 0x02036aa8
 *(.debug_pubnames)
 .debug_pubnames
                0x00000000       0x1b main.o
 .debug_pubnames
                0x0000001b       0x84 d:/devkitPro/libnds/lib\libul.a(ulib.o)
 .debug_pubnames
                0x0000009f      0x33e d:/devkitPro/libnds/lib\libul.a(drawing.o)
 .debug_pubnames
                0x000003dd      0x119 d:/devkitPro/libnds/lib\libul.a(text.o)
 .debug_pubnames
                0x000004f6      0x1c5 d:/devkitPro/libnds/lib\libul.a(VirtualFile.o)
 .debug_pubnames
                0x000006bb      0x259 d:/devkitPro/libnds/lib\libul.a(texVramManager.o)
 .debug_pubnames
                0x00000914      0x176 d:/devkitPro/libnds/lib\libul.a(texPalManager.o)
 .debug_pubnames
                0x00000a8a       0x2d d:/devkitPro/libnds/lib\libul.a(keys.o)
 .debug_pubnames
                0x00000ab7       0x22 d:/devkitPro/libnds/lib\libul.a(ulDrawImage.o)
 .debug_pubnames
                0x00000ad9       0x2b d:/devkitPro/libnds/lib\libul.a(ulCreateImagePalette.o)
 .debug_pubnames
                0x00000b04       0x29 d:/devkitPro/libnds/lib\libul.a(ulDrawGradientRect.o)
 .debug_pubnames
                0x00000b2d       0x29 d:/devkitPro/libnds/lib\libul.a(ulLoadImageFilePNG.o)
 .debug_pubnames
                0x00000b56       0x2d d:/devkitPro/libnds/lib\libul.a(glWrapper.o)
 .debug_pubnames
                0x00000b83       0x25 d:/devkitPro/libnds/lib\libul.a(libLoadPng.o)
 .debug_pubnames
                0x00000ba8       0x2e d:/devkitPro/libnds/lib\libul.a(loading_utility.o)
 .debug_pubnames
                0x00000bd6       0x66 d:/devkitPro/libnds/lib\libnds9.a(dynamicArray.o)
 .debug_pubnames
                0x00000c3c       0x79 d:/devkitPro/libnds/lib\libnds9.a(keys.o)
 .debug_pubnames
                0x00000cb5       0x87 d:/devkitPro/libnds/lib\libnds9.a(system.o)
 .debug_pubnames
                0x00000d3c       0x30 d:/devkitPro/libnds/lib\libnds9.a(touch.o)
 .debug_pubnames
                0x00000d6c       0xa4 d:/devkitPro/libnds/lib\libnds9.a(trig.o)
 .debug_pubnames
                0x00000e10      0x2c2 d:/devkitPro/libnds/lib\libnds9.a(videoGL.o)
 .debug_pubnames
                0x000010d2       0x2f d:/devkitPro/libnds/lib\libnds9.a(initSystem.o)
 .debug_pubnames
                0x00001101      0x259 d:/devkitPro/libnds/lib\libnds9.a(fifosystem.o)
 .debug_pubnames
                0x0000135a       0x80 d:/devkitPro/libnds/lib\libnds9.a(interrupts.o)
 .debug_pubnames
                0x000013da       0x38 d:/devkitPro/libnds/lib\libnds9.a(libnds_exit.o)
 .debug_pubnames
                0x00001412       0xc4 d:/devkitPro/libnds/lib\libnds9.a(video.o)

.debug_info     0x00000000    0x12fa2 load address 0x02036aa8
 *(.debug_info)
 .debug_info    0x00000000      0xc45 main.o
 .debug_info    0x00000c45      0x908 d:/devkitPro/libnds/lib\libul.a(ulib.o)
 .debug_info    0x0000154d     0x2312 d:/devkitPro/libnds/lib\libul.a(drawing.o)
 .debug_info    0x0000385f     0x1338 d:/devkitPro/libnds/lib\libul.a(text.o)
 .debug_info    0x00004b97      0xeef d:/devkitPro/libnds/lib\libul.a(VirtualFile.o)
 .debug_info    0x00005a86      0xebb d:/devkitPro/libnds/lib\libul.a(texVramManager.o)
 .debug_info    0x00006941      0xb0e d:/devkitPro/libnds/lib\libul.a(texPalManager.o)
 .debug_info    0x0000744f      0xa76 d:/devkitPro/libnds/lib\libul.a(keys.o)
 .debug_info    0x00007ec5      0x9da d:/devkitPro/libnds/lib\libul.a(ulDrawImage.o)
 .debug_info    0x0000889f      0x8d1 d:/devkitPro/libnds/lib\libul.a(ulCreateImagePalette.o)
 .debug_info    0x00009170      0x761 d:/devkitPro/libnds/lib\libul.a(ulDrawGradientRect.o)
 .debug_info    0x000098d1      0x8eb d:/devkitPro/libnds/lib\libul.a(ulLoadImageFilePNG.o)
 .debug_info    0x0000a1bc      0x795 d:/devkitPro/libnds/lib\libul.a(glWrapper.o)
 .debug_info    0x0000a951     0x240b d:/devkitPro/libnds/lib\libul.a(libLoadPng.o)
 .debug_info    0x0000cd5c       0x3f d:/devkitPro/libnds/lib\libul.a(loading_utility.o)
 .debug_info    0x0000cd9b      0x1e7 d:/devkitPro/libnds/lib\libnds9.a(dynamicArray.o)
 .debug_info    0x0000cf82      0x3d0 d:/devkitPro/libnds/lib\libnds9.a(keys.o)
 .debug_info    0x0000d352      0x6f4 d:/devkitPro/libnds/lib\libnds9.a(system.o)
 .debug_info    0x0000da46      0x2c2 d:/devkitPro/libnds/lib\libnds9.a(touch.o)
 .debug_info    0x0000dd08      0x4b6 d:/devkitPro/libnds/lib\libnds9.a(trig.o)
 .debug_info    0x0000e1be     0x1dc7 d:/devkitPro/libnds/lib\libnds9.a(videoGL.o)
 .debug_info    0x0000ff85      0xed0 d:/devkitPro/libnds/lib\libnds9.a(initSystem.o)
 .debug_info    0x00010e55     0x10ca d:/devkitPro/libnds/lib\libnds9.a(fifosystem.o)
 .debug_info    0x00011f1f      0x466 d:/devkitPro/libnds/lib\libnds9.a(interrupts.o)
 .debug_info    0x00012385      0x2a6 d:/devkitPro/libnds/lib\libnds9.a(libnds_exit.o)
 .debug_info    0x0001262b       0xca d:/devkitPro/libnds/lib\libnds9.a(mpu_setup.o)
 .debug_info    0x000126f5       0xc5 d:/devkitPro/libnds/lib\libnds9.a(biosCalls.o)
 .debug_info    0x000127ba       0xcf d:/devkitPro/libnds/lib\libnds9.a(interruptDispatcher.o)
 .debug_info    0x00012889       0xc8 d:/devkitPro/libnds/lib\libnds9.a(swiSoftReset.o)
 .debug_info    0x00012951      0x651 d:/devkitPro/libnds/lib\libnds9.a(video.o)

.debug_abbrev   0x00000000     0x3425 load address 0x02036aa8
 *(.debug_abbrev)
 .debug_abbrev  0x00000000      0x1f7 main.o
 .debug_abbrev  0x000001f7      0x1a9 d:/devkitPro/libnds/lib\libul.a(ulib.o)
 .debug_abbrev  0x000003a0      0x4ca d:/devkitPro/libnds/lib\libul.a(drawing.o)
 .debug_abbrev  0x0000086a      0x270 d:/devkitPro/libnds/lib\libul.a(text.o)
 .debug_abbrev  0x00000ada      0x29d d:/devkitPro/libnds/lib\libul.a(VirtualFile.o)
 .debug_abbrev  0x00000d77      0x30f d:/devkitPro/libnds/lib\libul.a(texVramManager.o)
 .debug_abbrev  0x00001086      0x245 d:/devkitPro/libnds/lib\libul.a(texPalManager.o)
 .debug_abbrev  0x000012cb      0x1cf d:/devkitPro/libnds/lib\libul.a(keys.o)
 .debug_abbrev  0x0000149a      0x1d7 d:/devkitPro/libnds/lib\libul.a(ulDrawImage.o)
 .debug_abbrev  0x00001671      0x16c d:/devkitPro/libnds/lib\libul.a(ulCreateImagePalette.o)
 .debug_abbrev  0x000017dd      0x13f d:/devkitPro/libnds/lib\libul.a(ulDrawGradientRect.o)
 .debug_abbrev  0x0000191c      0x164 d:/devkitPro/libnds/lib\libul.a(ulLoadImageFilePNG.o)
 .debug_abbrev  0x00001a80      0x171 d:/devkitPro/libnds/lib\libul.a(glWrapper.o)
 .debug_abbrev  0x00001bf1      0x289 d:/devkitPro/libnds/lib\libul.a(libLoadPng.o)
 .debug_abbrev  0x00001e7a       0x30 d:/devkitPro/libnds/lib\libul.a(loading_utility.o)
 .debug_abbrev  0x00001eaa       0xf6 d:/devkitPro/libnds/lib\libnds9.a(dynamicArray.o)
 .debug_abbrev  0x00001fa0      0x176 d:/devkitPro/libnds/lib\libnds9.a(keys.o)
 .debug_abbrev  0x00002116      0x19a d:/devkitPro/libnds/lib\libnds9.a(system.o)
 .debug_abbrev  0x000022b0      0x123 d:/devkitPro/libnds/lib\libnds9.a(touch.o)
 .debug_abbrev  0x000023d3      0x1c2 d:/devkitPro/libnds/lib\libnds9.a(trig.o)
 .debug_abbrev  0x00002595      0x390 d:/devkitPro/libnds/lib\libnds9.a(videoGL.o)
 .debug_abbrev  0x00002925      0x242 d:/devkitPro/libnds/lib\libnds9.a(initSystem.o)
 .debug_abbrev  0x00002b67      0x3af d:/devkitPro/libnds/lib\libnds9.a(fifosystem.o)
 .debug_abbrev  0x00002f16      0x1d5 d:/devkitPro/libnds/lib\libnds9.a(interrupts.o)
 .debug_abbrev  0x000030eb      0x131 d:/devkitPro/libnds/lib\libnds9.a(libnds_exit.o)
 .debug_abbrev  0x0000321c       0x14 d:/devkitPro/libnds/lib\libnds9.a(mpu_setup.o)
 .debug_abbrev  0x00003230       0x14 d:/devkitPro/libnds/lib\libnds9.a(biosCalls.o)
 .debug_abbrev  0x00003244       0x14 d:/devkitPro/libnds/lib\libnds9.a(interruptDispatcher.o)
 .debug_abbrev  0x00003258       0x14 d:/devkitPro/libnds/lib\libnds9.a(swiSoftReset.o)
 .debug_abbrev  0x0000326c      0x1b9 d:/devkitPro/libnds/lib\libnds9.a(video.o)

.debug_line     0x00000000     0x4feb load address 0x02036aa8
 *(.debug_line)
 .debug_line    0x00000000      0x26d main.o
 .debug_line    0x0000026d      0x1c8 d:/devkitPro/libnds/lib\libul.a(ulib.o)
 .debug_line    0x00000435      0x81c d:/devkitPro/libnds/lib\libul.a(drawing.o)
 .debug_line    0x00000c51      0x3dd d:/devkitPro/libnds/lib\libul.a(text.o)
 .debug_line    0x0000102e      0x2f3 d:/devkitPro/libnds/lib\libul.a(VirtualFile.o)
 .debug_line    0x00001321      0x385 d:/devkitPro/libnds/lib\libul.a(texVramManager.o)
 .debug_line    0x000016a6      0x29c d:/devkitPro/libnds/lib\libul.a(texPalManager.o)
 .debug_line    0x00001942      0x1c5 d:/devkitPro/libnds/lib\libul.a(keys.o)
 .debug_line    0x00001b07      0x2c1 d:/devkitPro/libnds/lib\libul.a(ulDrawImage.o)
 .debug_line    0x00001dc8      0x1e4 d:/devkitPro/libnds/lib\libul.a(ulCreateImagePalette.o)
 .debug_line    0x00001fac      0x1d9 d:/devkitPro/libnds/lib\libul.a(ulDrawGradientRect.o)
 .debug_line    0x00002185      0x1b0 d:/devkitPro/libnds/lib\libul.a(ulLoadImageFilePNG.o)
 .debug_line    0x00002335      0x190 d:/devkitPro/libnds/lib\libul.a(glWrapper.o)
 .debug_line    0x000024c5      0x442 d:/devkitPro/libnds/lib\libul.a(libLoadPng.o)
 .debug_line    0x00002907       0x3b d:/devkitPro/libnds/lib\libul.a(loading_utility.o)
 .debug_line    0x00002942      0x178 d:/devkitPro/libnds/lib\libnds9.a(dynamicArray.o)
 .debug_line    0x00002aba      0x254 d:/devkitPro/libnds/lib\libnds9.a(keys.o)
 .debug_line    0x00002d0e      0x26c d:/devkitPro/libnds/lib\libnds9.a(system.o)
 .debug_line    0x00002f7a      0x22d d:/devkitPro/libnds/lib\libnds9.a(touch.o)
 .debug_line    0x000031a7      0x224 d:/devkitPro/libnds/lib\libnds9.a(trig.o)
 .debug_line    0x000033cb      0x93f d:/devkitPro/libnds/lib\libnds9.a(videoGL.o)
 .debug_line    0x00003d0a      0x36c d:/devkitPro/libnds/lib\libnds9.a(initSystem.o)
 .debug_line    0x00004076      0x6c8 d:/devkitPro/libnds/lib\libnds9.a(fifosystem.o)
 .debug_line    0x0000473e      0x1d0 d:/devkitPro/libnds/lib\libnds9.a(interrupts.o)
 .debug_line    0x0000490e      0x1d8 d:/devkitPro/libnds/lib\libnds9.a(libnds_exit.o)
 .debug_line    0x00004ae6       0xe3 d:/devkitPro/libnds/lib\libnds9.a(mpu_setup.o)
 .debug_line    0x00004bc9       0xc5 d:/devkitPro/libnds/lib\libnds9.a(biosCalls.o)
 .debug_line    0x00004c8e       0xc4 d:/devkitPro/libnds/lib\libnds9.a(interruptDispatcher.o)
 .debug_line    0x00004d52       0x93 d:/devkitPro/libnds/lib\libnds9.a(swiSoftReset.o)
 .debug_line    0x00004de5      0x206 d:/devkitPro/libnds/lib\libnds9.a(video.o)

.debug_frame    0x00000000     0x1548 load address 0x02036aa8
 *(.debug_frame)
 .debug_frame   0x00000000       0x3c main.o
 .debug_frame   0x0000003c       0x70 d:/devkitPro/libnds/lib\libul.a(ulib.o)
 .debug_frame   0x000000ac      0x220 d:/devkitPro/libnds/lib\libul.a(drawing.o)
 .debug_frame   0x000002cc      0x160 d:/devkitPro/libnds/lib\libul.a(text.o)
 .debug_frame   0x0000042c      0x1b0 d:/devkitPro/libnds/lib\libul.a(VirtualFile.o)
 .debug_frame   0x000005dc      0x1a0 d:/devkitPro/libnds/lib\libul.a(texVramManager.o)
 .debug_frame   0x0000077c      0x10c d:/devkitPro/libnds/lib\libul.a(texPalManager.o)
 .debug_frame   0x00000888       0x30 d:/devkitPro/libnds/lib\libul.a(keys.o)
 .debug_frame   0x000008b8       0x3c d:/devkitPro/libnds/lib\libul.a(ulDrawImage.o)
 .debug_frame   0x000008f4       0x30 d:/devkitPro/libnds/lib\libul.a(ulCreateImagePalette.o)
 .debug_frame   0x00000924       0x38 d:/devkitPro/libnds/lib\libul.a(ulDrawGradientRect.o)
 .debug_frame   0x0000095c       0x2c d:/devkitPro/libnds/lib\libul.a(ulLoadImageFilePNG.o)
 .debug_frame   0x00000988       0x28 d:/devkitPro/libnds/lib\libul.a(glWrapper.o)
 .debug_frame   0x000009b0       0x68 d:/devkitPro/libnds/lib\libul.a(libLoadPng.o)
 .debug_frame   0x00000a18       0x78 d:/devkitPro/libnds/lib\libnds9.a(dynamicArray.o)
 .debug_frame   0x00000a90       0x8c d:/devkitPro/libnds/lib\libnds9.a(keys.o)
 .debug_frame   0x00000b1c       0xbc d:/devkitPro/libnds/lib\libnds9.a(system.o)
 .debug_frame   0x00000bd8       0x44 d:/devkitPro/libnds/lib\libnds9.a(touch.o)
 .debug_frame   0x00000c1c       0xf4 d:/devkitPro/libnds/lib\libnds9.a(trig.o)
 .debug_frame   0x00000d10      0x3b4 d:/devkitPro/libnds/lib\libnds9.a(videoGL.o)
 .debug_frame   0x000010c4       0x28 d:/devkitPro/libnds/lib\libnds9.a(initSystem.o)
 .debug_frame   0x000010ec      0x2b4 d:/devkitPro/libnds/lib\libnds9.a(fifosystem.o)
 .debug_frame   0x000013a0       0xb4 d:/devkitPro/libnds/lib\libnds9.a(interrupts.o)
 .debug_frame   0x00001454       0x38 d:/devkitPro/libnds/lib\libnds9.a(libnds_exit.o)
 .debug_frame   0x0000148c       0xbc d:/devkitPro/libnds/lib\libnds9.a(video.o)

.debug_str      0x00000000     0x4de5 load address 0x02036aa8
 *(.debug_str)
 .debug_str     0x00000000      0x70b main.o
                                0x79f (size before relaxing)
 .debug_str     0x0000070b      0x247 d:/devkitPro/libnds/lib\libul.a(ulib.o)
                                0x701 (size before relaxing)
 .debug_str     0x00000952      0xec7 d:/devkitPro/libnds/lib\libul.a(drawing.o)
                               0x1595 (size before relaxing)
 .debug_str     0x00001819      0x2cd d:/devkitPro/libnds/lib\libul.a(text.o)
                                0x949 (size before relaxing)
 .debug_str     0x00001ae6      0x1ca d:/devkitPro/libnds/lib\libul.a(VirtualFile.o)
                                0x720 (size before relaxing)
 .debug_str     0x00001cb0      0x30e d:/devkitPro/libnds/lib\libul.a(texVramManager.o)
                                0x8e1 (size before relaxing)
 .debug_str     0x00001fbe      0x151 d:/devkitPro/libnds/lib\libul.a(texPalManager.o)
                                0x784 (size before relaxing)
 .debug_str     0x0000210f       0xde d:/devkitPro/libnds/lib\libul.a(keys.o)
                                0x687 (size before relaxing)
 .debug_str     0x000021ed       0x38 d:/devkitPro/libnds/lib\libul.a(ulDrawImage.o)
                                0x57c (size before relaxing)
 .debug_str     0x00002225       0x32 d:/devkitPro/libnds/lib\libul.a(ulCreateImagePalette.o)
                                0x5ce (size before relaxing)
 .debug_str     0x00002257       0x4a d:/devkitPro/libnds/lib\libul.a(ulDrawGradientRect.o)
                                0x4b0 (size before relaxing)
 .debug_str     0x000022a1       0x75 d:/devkitPro/libnds/lib\libul.a(ulLoadImageFilePNG.o)
                                0x54f (size before relaxing)
 .debug_str     0x00002316       0x92 d:/devkitPro/libnds/lib\libul.a(glWrapper.o)
                                0x603 (size before relaxing)
 .debug_str     0x000023a8      0xd08 d:/devkitPro/libnds/lib\libul.a(libLoadPng.o)
                               0x14e8 (size before relaxing)
 .debug_str     0x000030b0       0x1b d:/devkitPro/libnds/lib\libul.a(loading_utility.o)
                                 0x5c (size before relaxing)
 .debug_str     0x000030cb       0xaf d:/devkitPro/libnds/lib\libnds9.a(dynamicArray.o)
                                0x18f (size before relaxing)
 .debug_str     0x0000317a      0x175 d:/devkitPro/libnds/lib\libnds9.a(keys.o)
                                0x2dc (size before relaxing)
 .debug_str     0x000032ef      0x348 d:/devkitPro/libnds/lib\libnds9.a(system.o)
                                0x510 (size before relaxing)
 .debug_str     0x00003637       0x72 d:/devkitPro/libnds/lib\libnds9.a(touch.o)
                                0x1f8 (size before relaxing)
 .debug_str     0x000036a9       0xe4 d:/devkitPro/libnds/lib\libnds9.a(trig.o)
                                0x1d7 (size before relaxing)
 .debug_str     0x0000378d      0xa1f d:/devkitPro/libnds/lib\libnds9.a(videoGL.o)
                               0x130f (size before relaxing)
 .debug_str     0x000041ac      0x449 d:/devkitPro/libnds/lib\libnds9.a(initSystem.o)
                                0x95d (size before relaxing)
 .debug_str     0x000045f5      0x524 d:/devkitPro/libnds/lib\libnds9.a(fifosystem.o)
                                0x74c (size before relaxing)
 .debug_str     0x00004b19      0x128 d:/devkitPro/libnds/lib\libnds9.a(interrupts.o)
                                0x34a (size before relaxing)
 .debug_str     0x00004c41       0x88 d:/devkitPro/libnds/lib\libnds9.a(libnds_exit.o)
                                0x298 (size before relaxing)
 .debug_str     0x00004cc9      0x11c d:/devkitPro/libnds/lib\libnds9.a(video.o)
                                0xb12 (size before relaxing)

.debug_loc      0x00000000     0x708f load address 0x02036aa8
 *(.debug_loc)
 .debug_loc     0x00000000       0xb8 main.o
 .debug_loc     0x000000b8       0xa4 d:/devkitPro/libnds/lib\libul.a(ulib.o)
 .debug_loc     0x0000015c      0xa4b d:/devkitPro/libnds/lib\libul.a(drawing.o)
 .debug_loc     0x00000ba7      0x7ed d:/devkitPro/libnds/lib\libul.a(text.o)
 .debug_loc     0x00001394      0x776 d:/devkitPro/libnds/lib\libul.a(VirtualFile.o)
 .debug_loc     0x00001b0a      0x81d d:/devkitPro/libnds/lib\libul.a(texVramManager.o)
 .debug_loc     0x00002327      0x413 d:/devkitPro/libnds/lib\libul.a(texPalManager.o)
 .debug_loc     0x0000273a       0x99 d:/devkitPro/libnds/lib\libul.a(keys.o)
 .debug_loc     0x000027d3      0x133 d:/devkitPro/libnds/lib\libul.a(ulDrawImage.o)
 .debug_loc     0x00002906       0xdd d:/devkitPro/libnds/lib\libul.a(ulCreateImagePalette.o)
 .debug_loc     0x000029e3       0x78 d:/devkitPro/libnds/lib\libul.a(ulDrawGradientRect.o)
 .debug_loc     0x00002a5b       0xd5 d:/devkitPro/libnds/lib\libul.a(ulLoadImageFilePNG.o)
 .debug_loc     0x00002b30       0x76 d:/devkitPro/libnds/lib\libul.a(glWrapper.o)
 .debug_loc     0x00002ba6      0x9ca d:/devkitPro/libnds/lib\libul.a(libLoadPng.o)
 .debug_loc     0x00003570      0x196 d:/devkitPro/libnds/lib\libnds9.a(dynamicArray.o)
 .debug_loc     0x00003706       0x20 d:/devkitPro/libnds/lib\libnds9.a(keys.o)
 .debug_loc     0x00003726      0x1ba d:/devkitPro/libnds/lib\libnds9.a(system.o)
 .debug_loc     0x000038e0       0x40 d:/devkitPro/libnds/lib\libnds9.a(touch.o)
 .debug_loc     0x00003920      0x5b9 d:/devkitPro/libnds/lib\libnds9.a(trig.o)
 .debug_loc     0x00003ed9     0x1c39 d:/devkitPro/libnds/lib\libnds9.a(videoGL.o)
 .debug_loc     0x00005b12       0x64 d:/devkitPro/libnds/lib\libnds9.a(initSystem.o)
 .debug_loc     0x00005b76     0x1131 d:/devkitPro/libnds/lib\libnds9.a(fifosystem.o)
 .debug_loc     0x00006ca7      0x17b d:/devkitPro/libnds/lib\libnds9.a(interrupts.o)
 .debug_loc     0x00006e22       0x5c d:/devkitPro/libnds/lib\libnds9.a(libnds_exit.o)
 .debug_loc     0x00006e7e      0x211 d:/devkitPro/libnds/lib\libnds9.a(video.o)

.debug_macinfo
 *(.debug_macinfo)

.debug_weaknames
 *(.debug_weaknames)

.debug_funcnames
 *(.debug_funcnames)

.debug_typenames
 *(.debug_typenames)

.debug_varnames
 *(.debug_varnames)

.stack          0x00080000        0x0 load address 0x02036aa8
                0x00080000                _stack = .
 *(.stack)
LOAD d:/devkitpro/devkitarm/bin/../lib/gcc/arm-eabi/4.5.1/../../../../arm-eabi/lib/ds_arm9_crt0.o
LOAD d:/devkitpro/devkitarm/bin/../lib/gcc/arm-eabi/4.5.1/crti.o
LOAD d:/devkitpro/devkitarm/bin/../lib/gcc/arm-eabi/4.5.1/crtbegin.o
LOAD james.png.o
LOAD main.o
LOAD d:/devkitPro/libnds/lib\libul.a
LOAD d:/devkitPro/libnds/lib\libpng.a
LOAD d:/devkitPro/libnds/lib\libz.a
LOAD d:/devkitPro/libnds/lib\libfat.a
LOAD d:/devkitPro/libnds/lib\libnds9.a
LOAD d:/devkitpro/devkitarm/bin/../lib/gcc/arm-eabi/4.5.1/../../../../arm-eabi/lib\libm.a
START GROUP
LOAD d:/devkitpro/devkitarm/bin/../lib/gcc/arm-eabi/4.5.1\libgcc.a
LOAD d:/devkitpro/devkitarm/bin/../lib/gcc/arm-eabi/4.5.1/../../../../arm-eabi/lib\libg.a
LOAD d:/devkitpro/devkitarm/bin/../lib/gcc/arm-eabi/4.5.1/../../../../arm-eabi/lib\libc.a
LOAD d:/devkitpro/devkitarm/bin/../lib/gcc/arm-eabi/4.5.1/../../../../arm-eabi/lib\libsysbase.a
END GROUP
LOAD d:/devkitpro/devkitarm/bin/../lib/gcc/arm-eabi/4.5.1/crtend.o
LOAD d:/devkitpro/devkitarm/bin/../lib/gcc/arm-eabi/4.5.1/crtn.o
OUTPUT(d:/devkitPro/uLibrary/Examples/Example02b/Example02b.elf elf32-littlearm)

.debug_pubtypes
                0x00000000     0x2882 load address 0x02036aa8
 .debug_pubtypes
                0x00000000      0x1e5 main.o
 .debug_pubtypes
                0x000001e5      0x192 d:/devkitPro/libnds/lib\libul.a(ulib.o)
 .debug_pubtypes
                0x00000377      0x335 d:/devkitPro/libnds/lib\libul.a(drawing.o)
 .debug_pubtypes
                0x000006ac      0x21f d:/devkitPro/libnds/lib\libul.a(text.o)
 .debug_pubtypes
                0x000008cb      0x1ab d:/devkitPro/libnds/lib\libul.a(VirtualFile.o)
 .debug_pubtypes
                0x00000a76      0x1d0 d:/devkitPro/libnds/lib\libul.a(texVramManager.o)
 .debug_pubtypes
                0x00000c46      0x19e d:/devkitPro/libnds/lib\libul.a(texPalManager.o)
 .debug_pubtypes
                0x00000de4      0x1c9 d:/devkitPro/libnds/lib\libul.a(keys.o)
 .debug_pubtypes
                0x00000fad      0x186 d:/devkitPro/libnds/lib\libul.a(ulDrawImage.o)
 .debug_pubtypes
                0x00001133      0x1b3 d:/devkitPro/libnds/lib\libul.a(ulCreateImagePalette.o)
 .debug_pubtypes
                0x000012e6      0x17d d:/devkitPro/libnds/lib\libul.a(ulDrawGradientRect.o)
 .debug_pubtypes
                0x00001463      0x197 d:/devkitPro/libnds/lib\libul.a(ulLoadImageFilePNG.o)
 .debug_pubtypes
                0x000015fa      0x19c d:/devkitPro/libnds/lib\libul.a(glWrapper.o)
 .debug_pubtypes
                0x00001796      0x67d d:/devkitPro/libnds/lib\libul.a(libLoadPng.o)
 .debug_pubtypes
                0x00001e13       0x3d d:/devkitPro/libnds/lib\libnds9.a(dynamicArray.o)
 .debug_pubtypes
                0x00001e50       0xdd d:/devkitPro/libnds/lib\libnds9.a(keys.o)
 .debug_pubtypes
                0x00001f2d      0x109 d:/devkitPro/libnds/lib\libnds9.a(system.o)
 .debug_pubtypes
                0x00002036       0xc4 d:/devkitPro/libnds/lib\libnds9.a(touch.o)
 .debug_pubtypes
                0x000020fa       0x58 d:/devkitPro/libnds/lib\libnds9.a(trig.o)
 .debug_pubtypes
                0x00002152      0x20c d:/devkitPro/libnds/lib\libnds9.a(videoGL.o)
 .debug_pubtypes
                0x0000235e      0x1e5 d:/devkitPro/libnds/lib\libnds9.a(initSystem.o)
 .debug_pubtypes
                0x00002543      0x126 d:/devkitPro/libnds/lib\libnds9.a(fifosystem.o)
 .debug_pubtypes
                0x00002669       0xaa d:/devkitPro/libnds/lib\libnds9.a(interrupts.o)
 .debug_pubtypes
                0x00002713       0x8b d:/devkitPro/libnds/lib\libnds9.a(libnds_exit.o)
 .debug_pubtypes
                0x0000279e       0xe4 d:/devkitPro/libnds/lib\libnds9.a(video.o)

.debug_ranges   0x00000000     0x1368 load address 0x02036aa8
 .debug_ranges  0x00000000       0x20 main.o
 .debug_ranges  0x00000020      0x4d8 d:/devkitPro/libnds/lib\libul.a(drawing.o)
 .debug_ranges  0x000004f8       0x40 d:/devkitPro/libnds/lib\libul.a(text.o)
 .debug_ranges  0x00000538      0x100 d:/devkitPro/libnds/lib\libul.a(texVramManager.o)
 .debug_ranges  0x00000638       0x38 d:/devkitPro/libnds/lib\libul.a(texPalManager.o)
 .debug_ranges  0x00000670       0xf8 d:/devkitPro/libnds/lib\libul.a(ulDrawImage.o)
 .debug_ranges  0x00000768       0x30 d:/devkitPro/libnds/lib\libul.a(glWrapper.o)
 .debug_ranges  0x00000798       0x30 d:/devkitPro/libnds/lib\libul.a(libLoadPng.o)
 .debug_ranges  0x000007c8       0x18 d:/devkitPro/libnds/lib\libnds9.a(touch.o)
 .debug_ranges  0x000007e0       0x80 d:/devkitPro/libnds/lib\libnds9.a(trig.o)
 .debug_ranges  0x00000860      0x730 d:/devkitPro/libnds/lib\libnds9.a(videoGL.o)
 .debug_ranges  0x00000f90      0x378 d:/devkitPro/libnds/lib\libnds9.a(fifosystem.o)
 .debug_ranges  0x00001308       0x30 d:/devkitPro/libnds/lib\libnds9.a(interrupts.o)
 .debug_ranges  0x00001338       0x30 d:/devkitPro/libnds/lib\libnds9.a(video.o)
