Archive member included because of file (symbol)

d:/devkitPro/libnds/lib\libul.a(ulib.o)
                              CBall.o (ul_sin)
d:/devkitPro/libnds/lib\libul.a(drawing.o)
                              main.o (ulInitGfx)
d:/devkitPro/libnds/lib\libul.a(text.o)
                              main.o (ulDrawString)
d:/devkitPro/libnds/lib\libul.a(VirtualFile.o)
                              d:/devkitPro/libnds/lib\libul.a(text.o) (VirtualFileSources)
d:/devkitPro/libnds/lib\libul.a(texVramManager.o)
                              d:/devkitPro/libnds/lib\libul.a(ulib.o) (ulTexVramInit)
d:/devkitPro/libnds/lib\libul.a(texPalManager.o)
                              d:/devkitPro/libnds/lib\libul.a(ulib.o) (ulTexPalInit)
d:/devkitPro/libnds/lib\libul.a(keys.o)
                              main.o (ulReadKeys)
d:/devkitPro/libnds/lib\libul.a(ulDrawImage.o)
                              CBall.o (ulDrawImage)
d:/devkitPro/libnds/lib\libul.a(ulCreateImagePalette.o)
                              d:/devkitPro/libnds/lib\libul.a(drawing.o) (ulCreateImagePalette)
d:/devkitPro/libnds/lib\libul.a(ulDrawGradientRect.o)
                              main.o (ulDrawGradientRect)
d:/devkitPro/libnds/lib\libul.a(ulLoadImageFilePNG.o)
                              CBall.o (ulLoadImageFilePNG)
d:/devkitPro/libnds/lib\libul.a(ulShowSplashScreen1.o)
                              main.o (ulShowSplashScreen1)
d:/devkitPro/libnds/lib\libul.a(ulShowSplashScreen2.o)
                              main.o (ulShowSplashScreen2)
d:/devkitPro/libnds/lib\libul.a(glWrapper.o)
                              d:/devkitPro/libnds/lib\libul.a(texVramManager.o) (ulChangeVramAllocation)
d:/devkitPro/libnds/lib\libul.a(libLoadPng.o)
                              d:/devkitPro/libnds/lib\libul.a(ulLoadImageFilePNG.o) (ulLoadImagePNG)
d:/devkitPro/libnds/lib\libul.a(ulDrawFillRect.o)
                              d:/devkitPro/libnds/lib\libul.a(ulShowSplashScreen1.o) (ulDrawFillRect)
d:/devkitPro/libnds/lib\libul.a(ulSetImagePixel.o)
                              d:/devkitPro/libnds/lib\libul.a(ulShowSplashScreen1.o) (ulSetImagePixel)
d:/devkitPro/libnds/lib\libul.a(ulGetImagePixel.o)
                              d:/devkitPro/libnds/lib\libul.a(ulShowSplashScreen1.o) (ulGetImagePixel)
d:/devkitPro/libnds/lib\libul.a(textSize.o)
                              d:/devkitPro/libnds/lib\libul.a(ulShowSplashScreen1.o) (ulGetStringWidth)
d:/devkitPro/libnds/lib\libul.a(loading_utility.o)
                              d:/devkitPro/libnds/lib\libul.a(ulLoadImageFilePNG.o) (ul_loadUtilActiveSource)
d:/devkitPro/libnds/lib\libul.a(ulLoadImageFileJPG.o)
                              d:/devkitPro/libnds/lib\libul.a(ulShowSplashScreen2.o) (ulLoadImageFileJPG)
d:/devkitPro/libnds/lib\libul.a(ulLoadImageFileGIF.o)
                              d:/devkitPro/libnds/lib\libul.a(ulShowSplashScreen1.o) (ulLoadImageFileGIF)
d:/devkitPro/libnds/lib\libul.a(libLoadJpg.o)
                              d:/devkitPro/libnds/lib\libul.a(ulLoadImageFileJPG.o) (ulLoadImageJPG)
d:/devkitPro/libnds/lib\libul.a(libLoadGif.o)
                              d:/devkitPro/libnds/lib\libul.a(ulLoadImageFileGIF.o) (ulLoadImageGIF)
d:/devkitPro/libnds/lib\libul.a(dgif_lib.o)
                              d:/devkitPro/libnds/lib\libul.a(libLoadGif.o) (DGifOpen)
d:/devkitPro/libnds/lib\libul.a(gif_err.o)
                              d:/devkitPro/libnds/lib\libul.a(dgif_lib.o) (_GifError)
d:/devkitPro/libnds/lib\libul.a(gifalloc.o)
                              d:/devkitPro/libnds/lib\libul.a(dgif_lib.o) (MakeMapObject)
d:/devkitPro/libnds/lib\libul.a(ulReadEntireFileToMemory.o)
                              d:/devkitPro/libnds/lib\libul.a(libLoadJpg.o) (ulReadEntireFileToMemory)
d:/devkitPro/libnds/lib\libul.a(gba-jpeg-decode.o)
                              d:/devkitPro/libnds/lib\libul.a(libLoadJpg.o) (JPEG_Decoder_ReadImage)
d:/devkitPro/libnds/lib\libpng.a(png.o)
                              d:/devkitPro/libnds/lib\libul.a(libLoadPng.o) (png_get_io_ptr)
d:/devkitPro/libnds/lib\libpng.a(pngread.o)
                              d:/devkitPro/libnds/lib\libul.a(libLoadPng.o) (png_destroy_read_struct)
d:/devkitPro/libnds/lib\libpng.a(pngrio.o)
                              d:/devkitPro/libnds/lib\libul.a(libLoadPng.o) (png_set_read_fn)
d:/devkitPro/libnds/lib\libpng.a(pngrtran.o)
                              d:/devkitPro/libnds/lib\libpng.a(pngread.o) (png_set_strip_16)
d:/devkitPro/libnds/lib\libpng.a(pngmem.o)
                              d:/devkitPro/libnds/lib\libpng.a(pngread.o) (png_set_mem_fn)
d:/devkitPro/libnds/lib\libpng.a(pngerror.o)
                              d:/devkitPro/libnds/lib\libpng.a(pngread.o) (png_set_error_fn)
d:/devkitPro/libnds/lib\libpng.a(pngget.o)
                              d:/devkitPro/libnds/lib\libpng.a(pngread.o) (png_get_valid)
d:/devkitPro/libnds/lib\libpng.a(pngrutil.o)
                              d:/devkitPro/libnds/lib\libpng.a(pngread.o) (png_read_filter_row)
d:/devkitPro/libnds/lib\libpng.a(pngtrans.o)
                              d:/devkitPro/libnds/lib\libpng.a(pngread.o) (png_set_bgr)
d:/devkitPro/libnds/lib\libpng.a(pngset.o)
                              d:/devkitPro/libnds/lib\libpng.a(pngrutil.o) (png_set_cHRM)
d:/devkitPro/libnds/lib\libz.a(crc32.o)
                              d:/devkitPro/libnds/lib\libpng.a(png.o) (crc32)
d:/devkitPro/libnds/lib\libz.a(inflate.o)
                              d:/devkitPro/libnds/lib\libpng.a(png.o) (inflateReset)
d:/devkitPro/libnds/lib\libz.a(inftrees.o)
                              d:/devkitPro/libnds/lib\libz.a(inflate.o) (inflate_table)
d:/devkitPro/libnds/lib\libz.a(inffast.o)
                              d:/devkitPro/libnds/lib\libz.a(inflate.o) (inflate_fast)
d:/devkitPro/libnds/lib\libz.a(adler32.o)
                              d:/devkitPro/libnds/lib\libz.a(inflate.o) (adler32)
d:/devkitPro/libnds/lib\libz.a(zutil.o)
                              d:/devkitPro/libnds/lib\libz.a(inflate.o) (zcfree)
d:/devkitPro/libnds/lib\libnds9.a(dynamicArray.o)
                              d:/devkitPro/libnds/lib\libul.a(texVramManager.o) (DynamicArraySet)
d:/devkitPro/libnds/lib\libnds9.a(keys.o)
                              d:/devkitPro/libnds/lib\libul.a(keys.o) (keysCurrent)
d:/devkitPro/libnds/lib\libnds9.a(system.o)
                              d:/devkitPro/libnds/lib\libul.a(ulib.o) (powerOn)
d:/devkitPro/libnds/lib\libnds9.a(touch.o)
                              d:/devkitPro/libnds/lib\libul.a(keys.o) (touchRead)
d:/devkitPro/libnds/lib\libnds9.a(trig.o)
                              d:/devkitPro/libnds/lib\libul.a(ulDrawImage.o) (sinLerp)
d:/devkitPro/libnds/lib\libnds9.a(videoGL.o)
                              d:/devkitPro/libnds/lib\libul.a(texVramManager.o) (glGlobalData)
d:/devkitPro/libnds/lib\libnds9.a(initSystem.o)
                              d:/devkitpro/devkitarm/bin/../lib/gcc/arm-eabi/4.5.1/../../../../arm-eabi/lib/ds_arm9_crt0.o (initSystem)
d:/devkitPro/libnds/lib\libnds9.a(fifosystem.o)
                              d:/devkitPro/libnds/lib\libnds9.a(system.o) (fifoSendValue32)
d:/devkitPro/libnds/lib\libnds9.a(interrupts.o)
                              d:/devkitPro/libnds/lib\libnds9.a(fifosystem.o) (irqSet)
d:/devkitPro/libnds/lib\libnds9.a(libnds_exit.o)
                              d:/devkitpro/devkitarm/bin/../lib/gcc/arm-eabi/4.5.1/../../../../arm-eabi/lib/ds_arm9_crt0.o (__libnds_exit)
d:/devkitPro/libnds/lib\libnds9.a(mpu_setup.o)
                              d:/devkitpro/devkitarm/bin/../lib/gcc/arm-eabi/4.5.1/../../../../arm-eabi/lib/ds_arm9_crt0.o (__libnds_mpu_setup)
d:/devkitPro/libnds/lib\libnds9.a(biosCalls.o)
                              d:/devkitPro/libnds/lib\libnds9.a(system.o) (swiDelay)
d:/devkitPro/libnds/lib\libnds9.a(interruptDispatcher.o)
                              d:/devkitPro/libnds/lib\libnds9.a(interrupts.o) (IntrMain)
d:/devkitPro/libnds/lib\libnds9.a(swiSoftReset.o)
                              d:/devkitPro/libnds/lib\libnds9.a(fifosystem.o) (swiSoftReset)
d:/devkitPro/libnds/lib\libnds9.a(video.o)
                              d:/devkitPro/libnds/lib\libnds9.a(videoGL.o) (vramSetPrimaryBanks)
d:/devkitpro/devkitarm/bin/../lib/gcc/arm-eabi/4.5.1/../../../../arm-eabi/lib\libstdc++.a(new_op.o)
                              main.o (operator new(unsigned int))
d:/devkitpro/devkitarm/bin/../lib/gcc/arm-eabi/4.5.1/../../../../arm-eabi/lib\libstdc++.a(eh_alloc.o)
                              d:/devkitpro/devkitarm/bin/../lib/gcc/arm-eabi/4.5.1/../../../../arm-eabi/lib\libstdc++.a(new_op.o) (__cxa_allocate_exception)
d:/devkitpro/devkitarm/bin/../lib/gcc/arm-eabi/4.5.1/../../../../arm-eabi/lib\libstdc++.a(eh_arm.o)
                              d:/devkitpro/devkitarm/bin/../lib/gcc/arm-eabi/4.5.1/../../../../arm-eabi/lib\libstdc++.a(new_op.o) (__cxa_end_cleanup)
d:/devkitpro/devkitarm/bin/../lib/gcc/arm-eabi/4.5.1/../../../../arm-eabi/lib\libstdc++.a(eh_aux_runtime.o)
                              d:/devkitpro/devkitarm/bin/../lib/gcc/arm-eabi/4.5.1/../../../../arm-eabi/lib\libstdc++.a(eh_arm.o) (__cxa_bad_typeid)
d:/devkitpro/devkitarm/bin/../lib/gcc/arm-eabi/4.5.1/../../../../arm-eabi/lib\libstdc++.a(eh_call.o)
                              d:/devkitpro/devkitarm/bin/../lib/gcc/arm-eabi/4.5.1/../../../../arm-eabi/lib\libstdc++.a(new_op.o) (__cxa_call_unexpected)
d:/devkitpro/devkitarm/bin/../lib/gcc/arm-eabi/4.5.1/../../../../arm-eabi/lib\libstdc++.a(eh_catch.o)
                              d:/devkitpro/devkitarm/bin/../lib/gcc/arm-eabi/4.5.1/../../../../arm-eabi/lib\libstdc++.a(eh_call.o) (__cxa_begin_catch)
d:/devkitpro/devkitarm/bin/../lib/gcc/arm-eabi/4.5.1/../../../../arm-eabi/lib\libstdc++.a(eh_exception.o)
                              d:/devkitpro/devkitarm/bin/../lib/gcc/arm-eabi/4.5.1/../../../../arm-eabi/lib\libstdc++.a(eh_call.o) (std::bad_exception::~bad_exception())
d:/devkitpro/devkitarm/bin/../lib/gcc/arm-eabi/4.5.1/../../../../arm-eabi/lib\libstdc++.a(eh_globals.o)
                              d:/devkitpro/devkitarm/bin/../lib/gcc/arm-eabi/4.5.1/../../../../arm-eabi/lib\libstdc++.a(eh_call.o) (__cxa_get_globals_fast)
d:/devkitpro/devkitarm/bin/../lib/gcc/arm-eabi/4.5.1/../../../../arm-eabi/lib\libstdc++.a(eh_personality.o)
                              d:/devkitpro/devkitarm/bin/../lib/gcc/arm-eabi/4.5.1/../../../../arm-eabi/lib\libstdc++.a(new_op.o) (__gxx_personality_v0)
d:/devkitpro/devkitarm/bin/../lib/gcc/arm-eabi/4.5.1/../../../../arm-eabi/lib\libstdc++.a(eh_terminate.o)
                              d:/devkitpro/devkitarm/bin/../lib/gcc/arm-eabi/4.5.1/../../../../arm-eabi/lib\libstdc++.a(eh_call.o) (__cxxabiv1::__terminate(void (*)()))
d:/devkitpro/devkitarm/bin/../lib/gcc/arm-eabi/4.5.1/../../../../arm-eabi/lib\libstdc++.a(eh_term_handler.o)
                              d:/devkitpro/devkitarm/bin/../lib/gcc/arm-eabi/4.5.1/../../../../arm-eabi/lib\libstdc++.a(eh_terminate.o) (__cxxabiv1::__terminate_handler)
d:/devkitpro/devkitarm/bin/../lib/gcc/arm-eabi/4.5.1/../../../../arm-eabi/lib\libstdc++.a(eh_throw.o)
                              d:/devkitpro/devkitarm/bin/../lib/gcc/arm-eabi/4.5.1/../../../../arm-eabi/lib\libstdc++.a(new_op.o) (__cxa_throw)
d:/devkitpro/devkitarm/bin/../lib/gcc/arm-eabi/4.5.1/../../../../arm-eabi/lib\libstdc++.a(eh_unex_handler.o)
                              d:/devkitpro/devkitarm/bin/../lib/gcc/arm-eabi/4.5.1/../../../../arm-eabi/lib\libstdc++.a(eh_terminate.o) (__cxxabiv1::__unexpected_handler)
d:/devkitpro/devkitarm/bin/../lib/gcc/arm-eabi/4.5.1/../../../../arm-eabi/lib\libstdc++.a(fundamental_type_info.o)
                              d:/devkitpro/devkitarm/bin/../lib/gcc/arm-eabi/4.5.1/../../../../arm-eabi/lib\libstdc++.a(eh_arm.o) (typeinfo for void)
d:/devkitpro/devkitarm/bin/../lib/gcc/arm-eabi/4.5.1/../../../../arm-eabi/lib\libstdc++.a(new_handler.o)
                              d:/devkitpro/devkitarm/bin/../lib/gcc/arm-eabi/4.5.1/../../../../arm-eabi/lib\libstdc++.a(new_op.o) (std::bad_alloc::~bad_alloc())
d:/devkitpro/devkitarm/bin/../lib/gcc/arm-eabi/4.5.1/../../../../arm-eabi/lib\libstdc++.a(pointer_type_info.o)
                              d:/devkitpro/devkitarm/bin/../lib/gcc/arm-eabi/4.5.1/../../../../arm-eabi/lib\libstdc++.a(fundamental_type_info.o) (vtable for __cxxabiv1::__pointer_type_info)
d:/devkitpro/devkitarm/bin/../lib/gcc/arm-eabi/4.5.1/../../../../arm-eabi/lib\libstdc++.a(pure.o)
                              d:/devkitpro/devkitarm/bin/../lib/gcc/arm-eabi/4.5.1/../../../../arm-eabi/lib\libstdc++.a(eh_exception.o) (__cxa_pure_virtual)
d:/devkitpro/devkitarm/bin/../lib/gcc/arm-eabi/4.5.1/../../../../arm-eabi/lib\libstdc++.a(si_class_type_info.o)
                              d:/devkitpro/devkitarm/bin/../lib/gcc/arm-eabi/4.5.1/../../../../arm-eabi/lib\libstdc++.a(eh_exception.o) (vtable for __cxxabiv1::__si_class_type_info)
d:/devkitpro/devkitarm/bin/../lib/gcc/arm-eabi/4.5.1/../../../../arm-eabi/lib\libstdc++.a(tinfo.o)
                              d:/devkitpro/devkitarm/bin/../lib/gcc/arm-eabi/4.5.1/../../../../arm-eabi/lib\libstdc++.a(fundamental_type_info.o) (std::type_info::~type_info())
d:/devkitpro/devkitarm/bin/../lib/gcc/arm-eabi/4.5.1/../../../../arm-eabi/lib\libstdc++.a(vterminate.o)
                              d:/devkitpro/devkitarm/bin/../lib/gcc/arm-eabi/4.5.1/../../../../arm-eabi/lib\libstdc++.a(eh_term_handler.o) (__gnu_cxx::__verbose_terminate_handler())
d:/devkitpro/devkitarm/bin/../lib/gcc/arm-eabi/4.5.1/../../../../arm-eabi/lib\libstdc++.a(bad_cast.o)
                              d:/devkitpro/devkitarm/bin/../lib/gcc/arm-eabi/4.5.1/../../../../arm-eabi/lib\libstdc++.a(eh_aux_runtime.o) (std::bad_cast::~bad_cast())
d:/devkitpro/devkitarm/bin/../lib/gcc/arm-eabi/4.5.1/../../../../arm-eabi/lib\libstdc++.a(bad_typeid.o)
                              d:/devkitpro/devkitarm/bin/../lib/gcc/arm-eabi/4.5.1/../../../../arm-eabi/lib\libstdc++.a(eh_aux_runtime.o) (std::bad_typeid::~bad_typeid())
d:/devkitpro/devkitarm/bin/../lib/gcc/arm-eabi/4.5.1/../../../../arm-eabi/lib\libstdc++.a(class_type_info.o)
                              d:/devkitpro/devkitarm/bin/../lib/gcc/arm-eabi/4.5.1/../../../../arm-eabi/lib\libstdc++.a(si_class_type_info.o) (__cxxabiv1::__class_type_info::__do_upcast(__cxxabiv1::__class_type_info const*, void**) const)
d:/devkitpro/devkitarm/bin/../lib/gcc/arm-eabi/4.5.1/../../../../arm-eabi/lib\libstdc++.a(cp-demangle.o)
                              d:/devkitpro/devkitarm/bin/../lib/gcc/arm-eabi/4.5.1/../../../../arm-eabi/lib\libstdc++.a(vterminate.o) (__cxa_demangle)
d:/devkitpro/devkitarm/bin/../lib/gcc/arm-eabi/4.5.1/../../../../arm-eabi/lib\libstdc++.a(del_op.o)
                              d:/devkitpro/devkitarm/bin/../lib/gcc/arm-eabi/4.5.1/../../../../arm-eabi/lib\libstdc++.a(eh_exception.o) (operator delete(void*))
d:/devkitpro/devkitarm/bin/../lib/gcc/arm-eabi/4.5.1/../../../../arm-eabi/lib\libstdc++.a(eh_type.o)
                              d:/devkitpro/devkitarm/bin/../lib/gcc/arm-eabi/4.5.1/../../../../arm-eabi/lib\libstdc++.a(vterminate.o) (__cxa_current_exception_type)
d:/devkitpro/devkitarm/bin/../lib/gcc/arm-eabi/4.5.1/../../../../arm-eabi/lib\libstdc++.a(pbase_type_info.o)
                              d:/devkitpro/devkitarm/bin/../lib/gcc/arm-eabi/4.5.1/../../../../arm-eabi/lib\libstdc++.a(pointer_type_info.o) (__cxxabiv1::__pbase_type_info::__do_catch(std::type_info const*, void**, unsigned int) const)
d:/devkitpro/devkitarm/bin/../lib/gcc/arm-eabi/4.5.1/../../../../arm-eabi/lib\libm.a(lib_a-s_cos.o)
                              d:/devkitPro/libnds/lib\libul.a(ulib.o) (cos)
d:/devkitpro/devkitarm/bin/../lib/gcc/arm-eabi/4.5.1/../../../../arm-eabi/lib\libm.a(lib_a-s_sin.o)
                              d:/devkitPro/libnds/lib\libul.a(ulib.o) (sin)
d:/devkitpro/devkitarm/bin/../lib/gcc/arm-eabi/4.5.1/../../../../arm-eabi/lib\libm.a(lib_a-w_pow.o)
                              d:/devkitPro/libnds/lib\libpng.a(pngrtran.o) (pow)
d:/devkitpro/devkitarm/bin/../lib/gcc/arm-eabi/4.5.1/../../../../arm-eabi/lib\libm.a(lib_a-e_pow.o)
                              d:/devkitpro/devkitarm/bin/../lib/gcc/arm-eabi/4.5.1/../../../../arm-eabi/lib\libm.a(lib_a-w_pow.o) (__ieee754_pow)
d:/devkitpro/devkitarm/bin/../lib/gcc/arm-eabi/4.5.1/../../../../arm-eabi/lib\libm.a(lib_a-e_rem_pio2.o)
                              d:/devkitpro/devkitarm/bin/../lib/gcc/arm-eabi/4.5.1/../../../../arm-eabi/lib\libm.a(lib_a-s_cos.o) (__ieee754_rem_pio2)
d:/devkitpro/devkitarm/bin/../lib/gcc/arm-eabi/4.5.1/../../../../arm-eabi/lib\libm.a(lib_a-e_sqrt.o)
                              d:/devkitpro/devkitarm/bin/../lib/gcc/arm-eabi/4.5.1/../../../../arm-eabi/lib\libm.a(lib_a-e_pow.o) (__ieee754_sqrt)
d:/devkitpro/devkitarm/bin/../lib/gcc/arm-eabi/4.5.1/../../../../arm-eabi/lib\libm.a(lib_a-k_cos.o)
                              d:/devkitpro/devkitarm/bin/../lib/gcc/arm-eabi/4.5.1/../../../../arm-eabi/lib\libm.a(lib_a-s_cos.o) (__kernel_cos)
d:/devkitpro/devkitarm/bin/../lib/gcc/arm-eabi/4.5.1/../../../../arm-eabi/lib\libm.a(lib_a-k_rem_pio2.o)
                              d:/devkitpro/devkitarm/bin/../lib/gcc/arm-eabi/4.5.1/../../../../arm-eabi/lib\libm.a(lib_a-e_rem_pio2.o) (__kernel_rem_pio2)
d:/devkitpro/devkitarm/bin/../lib/gcc/arm-eabi/4.5.1/../../../../arm-eabi/lib\libm.a(lib_a-k_sin.o)
                              d:/devkitpro/devkitarm/bin/../lib/gcc/arm-eabi/4.5.1/../../../../arm-eabi/lib\libm.a(lib_a-s_cos.o) (__kernel_sin)
d:/devkitpro/devkitarm/bin/../lib/gcc/arm-eabi/4.5.1/../../../../arm-eabi/lib\libm.a(lib_a-s_fabs.o)
                              d:/devkitpro/devkitarm/bin/../lib/gcc/arm-eabi/4.5.1/../../../../arm-eabi/lib\libm.a(lib_a-e_pow.o) (fabs)
d:/devkitpro/devkitarm/bin/../lib/gcc/arm-eabi/4.5.1/../../../../arm-eabi/lib\libm.a(lib_a-s_finite.o)
                              d:/devkitpro/devkitarm/bin/../lib/gcc/arm-eabi/4.5.1/../../../../arm-eabi/lib\libm.a(lib_a-w_pow.o) (finite)
d:/devkitpro/devkitarm/bin/../lib/gcc/arm-eabi/4.5.1/../../../../arm-eabi/lib\libm.a(lib_a-s_floor.o)
                              d:/devkitpro/devkitarm/bin/../lib/gcc/arm-eabi/4.5.1/../../../../arm-eabi/lib\libm.a(lib_a-k_rem_pio2.o) (floor)
d:/devkitpro/devkitarm/bin/../lib/gcc/arm-eabi/4.5.1/../../../../arm-eabi/lib\libm.a(lib_a-s_fpclassify.o)
                              d:/devkitpro/devkitarm/bin/../lib/gcc/arm-eabi/4.5.1/../../../../arm-eabi/lib\libm.a(lib_a-w_pow.o) (__fpclassifyd)
d:/devkitpro/devkitarm/bin/../lib/gcc/arm-eabi/4.5.1/../../../../arm-eabi/lib\libm.a(lib_a-s_lib_ver.o)
                              d:/devkitpro/devkitarm/bin/../lib/gcc/arm-eabi/4.5.1/../../../../arm-eabi/lib\libm.a(lib_a-w_pow.o) (__fdlib_version)
d:/devkitpro/devkitarm/bin/../lib/gcc/arm-eabi/4.5.1/../../../../arm-eabi/lib\libm.a(lib_a-s_matherr.o)
                              d:/devkitpro/devkitarm/bin/../lib/gcc/arm-eabi/4.5.1/../../../../arm-eabi/lib\libm.a(lib_a-w_pow.o) (matherr)
d:/devkitpro/devkitarm/bin/../lib/gcc/arm-eabi/4.5.1/../../../../arm-eabi/lib\libm.a(lib_a-s_nan.o)
                              d:/devkitpro/devkitarm/bin/../lib/gcc/arm-eabi/4.5.1/../../../../arm-eabi/lib\libm.a(lib_a-e_pow.o) (nan)
d:/devkitpro/devkitarm/bin/../lib/gcc/arm-eabi/4.5.1/../../../../arm-eabi/lib\libm.a(lib_a-s_rint.o)
                              d:/devkitpro/devkitarm/bin/../lib/gcc/arm-eabi/4.5.1/../../../../arm-eabi/lib\libm.a(lib_a-w_pow.o) (rint)
d:/devkitpro/devkitarm/bin/../lib/gcc/arm-eabi/4.5.1/../../../../arm-eabi/lib\libm.a(lib_a-s_scalbn.o)
                              d:/devkitpro/devkitarm/bin/../lib/gcc/arm-eabi/4.5.1/../../../../arm-eabi/lib\libm.a(lib_a-e_pow.o) (scalbn)
d:/devkitpro/devkitarm/bin/../lib/gcc/arm-eabi/4.5.1/../../../../arm-eabi/lib\libm.a(lib_a-s_copysign.o)
                              d:/devkitpro/devkitarm/bin/../lib/gcc/arm-eabi/4.5.1/../../../../arm-eabi/lib\libm.a(lib_a-s_scalbn.o) (copysign)
d:/devkitpro/devkitarm/bin/../lib/gcc/arm-eabi/4.5.1\libgcc.a(_udivsi3.o)
                              d:/devkitPro/libnds/lib\libul.a(libLoadPng.o) (__aeabi_uidiv)
d:/devkitpro/devkitarm/bin/../lib/gcc/arm-eabi/4.5.1\libgcc.a(_divsi3.o)
                              main.o (__aeabi_idiv)
d:/devkitpro/devkitarm/bin/../lib/gcc/arm-eabi/4.5.1\libgcc.a(_dvmd_tls.o)
                              d:/devkitpro/devkitarm/bin/../lib/gcc/arm-eabi/4.5.1\libgcc.a(_udivsi3.o) (__aeabi_idiv0)
d:/devkitpro/devkitarm/bin/../lib/gcc/arm-eabi/4.5.1\libgcc.a(_arm_addsubdf3.o)
                              d:/devkitPro/libnds/lib\libpng.a(pngrtran.o) (__aeabi_dsub)
d:/devkitpro/devkitarm/bin/../lib/gcc/arm-eabi/4.5.1\libgcc.a(_arm_muldivdf3.o)
                              d:/devkitPro/libnds/lib\libul.a(ulib.o) (__aeabi_dmul)
d:/devkitpro/devkitarm/bin/../lib/gcc/arm-eabi/4.5.1\libgcc.a(_arm_cmpdf2.o)
                              d:/devkitpro/devkitarm/bin/../lib/gcc/arm-eabi/4.5.1/../../../../arm-eabi/lib\libm.a(lib_a-w_pow.o) (__aeabi_dcmpeq)
d:/devkitpro/devkitarm/bin/../lib/gcc/arm-eabi/4.5.1\libgcc.a(_arm_fixdfsi.o)
                              d:/devkitPro/libnds/lib\libul.a(ulib.o) (__aeabi_d2iz)
d:/devkitpro/devkitarm/bin/../lib/gcc/arm-eabi/4.5.1\libgcc.a(_arm_fixunsdfsi.o)
                              d:/devkitPro/libnds/lib\libpng.a(pngrtran.o) (__aeabi_d2uiz)
d:/devkitpro/devkitarm/bin/../lib/gcc/arm-eabi/4.5.1\libgcc.a(_arm_truncdfsf2.o)
                              d:/devkitPro/libnds/lib\libpng.a(pngrtran.o) (__aeabi_d2f)
d:/devkitpro/devkitarm/bin/../lib/gcc/arm-eabi/4.5.1\libgcc.a(_arm_addsubsf3.o)
                              d:/devkitPro/libnds/lib\libul.a(ulShowSplashScreen2.o) (__aeabi_fsub)
d:/devkitpro/devkitarm/bin/../lib/gcc/arm-eabi/4.5.1\libgcc.a(_arm_muldivsf3.o)
                              d:/devkitPro/libnds/lib\libul.a(ulib.o) (__aeabi_fmul)
d:/devkitpro/devkitarm/bin/../lib/gcc/arm-eabi/4.5.1\libgcc.a(_arm_cmpsf2.o)
                              d:/devkitPro/libnds/lib\libpng.a(pngrtran.o) (__aeabi_fcmpeq)
d:/devkitpro/devkitarm/bin/../lib/gcc/arm-eabi/4.5.1\libgcc.a(_arm_fixsfsi.o)
                              d:/devkitPro/libnds/lib\libul.a(ulShowSplashScreen2.o) (__aeabi_f2iz)
d:/devkitpro/devkitarm/bin/../lib/gcc/arm-eabi/4.5.1\libgcc.a(_arm_fixunssfsi.o)
                              d:/devkitPro/libnds/lib\libul.a(ulShowSplashScreen2.o) (__aeabi_f2uiz)
d:/devkitpro/devkitarm/bin/../lib/gcc/arm-eabi/4.5.1\libgcc.a(_muldi3.o)
                              d:/devkitPro/libnds/lib\libnds9.a(videoGL.o) (__aeabi_lmul)
d:/devkitpro/devkitarm/bin/../lib/gcc/arm-eabi/4.5.1\libgcc.a(unwind-arm.o)
                              d:/devkitpro/devkitarm/bin/../lib/gcc/arm-eabi/4.5.1/../../../../arm-eabi/lib\libstdc++.a(eh_arm.o) (__aeabi_unwind_cpp_pr0)
d:/devkitpro/devkitarm/bin/../lib/gcc/arm-eabi/4.5.1\libgcc.a(libunwind.o)
                              d:/devkitpro/devkitarm/bin/../lib/gcc/arm-eabi/4.5.1\libgcc.a(unwind-arm.o) (restore_core_regs)
d:/devkitpro/devkitarm/bin/../lib/gcc/arm-eabi/4.5.1\libgcc.a(pr-support.o)
                              d:/devkitpro/devkitarm/bin/../lib/gcc/arm-eabi/4.5.1\libgcc.a(unwind-arm.o) (__gnu_unwind_execute)
d:/devkitpro/devkitarm/bin/../lib/gcc/arm-eabi/4.5.1/../../../../arm-eabi/lib\libg.a(lib_a-abort.o)
                              d:/devkitPro/libnds/lib\libpng.a(pngread.o) (abort)
d:/devkitpro/devkitarm/bin/../lib/gcc/arm-eabi/4.5.1/../../../../arm-eabi/lib\libg.a(lib_a-bsearch.o)
                              d:/devkitPro/libnds/lib\libnds9.a(trig.o) (bsearch)
d:/devkitpro/devkitarm/bin/../lib/gcc/arm-eabi/4.5.1/../../../../arm-eabi/lib\libg.a(lib_a-calloc.o)
                              d:/devkitPro/libnds/lib\libul.a(gifalloc.o) (calloc)
d:/devkitpro/devkitarm/bin/../lib/gcc/arm-eabi/4.5.1/../../../../arm-eabi/lib\libg.a(lib_a-callocr.o)
                              d:/devkitpro/devkitarm/bin/../lib/gcc/arm-eabi/4.5.1/../../../../arm-eabi/lib\libg.a(lib_a-calloc.o) (_calloc_r)
d:/devkitpro/devkitarm/bin/../lib/gcc/arm-eabi/4.5.1/../../../../arm-eabi/lib\libg.a(lib_a-errno.o)
                              d:/devkitpro/devkitarm/bin/../lib/gcc/arm-eabi/4.5.1/../../../../arm-eabi/lib\libm.a(lib_a-w_pow.o) (__errno)
d:/devkitpro/devkitarm/bin/../lib/gcc/arm-eabi/4.5.1/../../../../arm-eabi/lib\libg.a(lib_a-fclose.o)
                              d:/devkitPro/libnds/lib\libul.a(dgif_lib.o) (fclose)
d:/devkitpro/devkitarm/bin/../lib/gcc/arm-eabi/4.5.1/../../../../arm-eabi/lib\libg.a(lib_a-fflush.o)
                              d:/devkitpro/devkitarm/bin/../lib/gcc/arm-eabi/4.5.1/../../../../arm-eabi/lib\libg.a(lib_a-fclose.o) (_fflush_r)
d:/devkitpro/devkitarm/bin/../lib/gcc/arm-eabi/4.5.1/../../../../arm-eabi/lib\libg.a(lib_a-findfp.o)
                              d:/devkitpro/devkitarm/bin/../lib/gcc/arm-eabi/4.5.1/../../../../arm-eabi/lib\libg.a(lib_a-fclose.o) (__sinit)
d:/devkitpro/devkitarm/bin/../lib/gcc/arm-eabi/4.5.1/../../../../arm-eabi/lib\libg.a(lib_a-fprintf.o)
                              d:/devkitPro/libnds/lib\libpng.a(pngerror.o) (fprintf)
d:/devkitpro/devkitarm/bin/../lib/gcc/arm-eabi/4.5.1/../../../../arm-eabi/lib\libg.a(lib_a-fputc.o)
                              d:/devkitpro/devkitarm/bin/../lib/gcc/arm-eabi/4.5.1/../../../../arm-eabi/lib\libstdc++.a(vterminate.o) (fputc)
d:/devkitpro/devkitarm/bin/../lib/gcc/arm-eabi/4.5.1/../../../../arm-eabi/lib\libg.a(lib_a-fputs.o)
                              d:/devkitpro/devkitarm/bin/../lib/gcc/arm-eabi/4.5.1/../../../../arm-eabi/lib\libstdc++.a(vterminate.o) (fputs)
d:/devkitpro/devkitarm/bin/../lib/gcc/arm-eabi/4.5.1/../../../../arm-eabi/lib\libg.a(lib_a-fread.o)
                              d:/devkitPro/libnds/lib\libul.a(dgif_lib.o) (fread)
d:/devkitpro/devkitarm/bin/../lib/gcc/arm-eabi/4.5.1/../../../../arm-eabi/lib\libg.a(lib_a-freer.o)
                              d:/devkitpro/devkitarm/bin/../lib/gcc/arm-eabi/4.5.1/../../../../arm-eabi/lib\libg.a(lib_a-fclose.o) (_free_r)
d:/devkitpro/devkitarm/bin/../lib/gcc/arm-eabi/4.5.1/../../../../arm-eabi/lib\libg.a(lib_a-fvwrite.o)
                              d:/devkitpro/devkitarm/bin/../lib/gcc/arm-eabi/4.5.1/../../../../arm-eabi/lib\libg.a(lib_a-fputs.o) (__sfvwrite_r)
d:/devkitpro/devkitarm/bin/../lib/gcc/arm-eabi/4.5.1/../../../../arm-eabi/lib\libg.a(lib_a-fwalk.o)
                              d:/devkitpro/devkitarm/bin/../lib/gcc/arm-eabi/4.5.1/../../../../arm-eabi/lib\libg.a(lib_a-findfp.o) (_fwalk)
d:/devkitpro/devkitarm/bin/../lib/gcc/arm-eabi/4.5.1/../../../../arm-eabi/lib\libg.a(lib_a-fwrite.o)
                              d:/devkitpro/devkitarm/bin/../lib/gcc/arm-eabi/4.5.1/../../../../arm-eabi/lib\libstdc++.a(vterminate.o) (fwrite)
d:/devkitpro/devkitarm/bin/../lib/gcc/arm-eabi/4.5.1/../../../../arm-eabi/lib\libg.a(lib_a-impure.o)
                              d:/devkitPro/libnds/lib\libpng.a(pngerror.o) (_impure_ptr)
d:/devkitpro/devkitarm/bin/../lib/gcc/arm-eabi/4.5.1/../../../../arm-eabi/lib\libg.a(lib_a-init.o)
                              d:/devkitpro/devkitarm/bin/../lib/gcc/arm-eabi/4.5.1/../../../../arm-eabi/lib/ds_arm9_crt0.o (__libc_init_array)
d:/devkitpro/devkitarm/bin/../lib/gcc/arm-eabi/4.5.1/../../../../arm-eabi/lib\libg.a(lib_a-malloc.o)
                              d:/devkitPro/libnds/lib\libul.a(drawing.o) (malloc)
d:/devkitpro/devkitarm/bin/../lib/gcc/arm-eabi/4.5.1/../../../../arm-eabi/lib\libg.a(lib_a-mallocr.o)
                              d:/devkitpro/devkitarm/bin/../lib/gcc/arm-eabi/4.5.1/../../../../arm-eabi/lib\libg.a(lib_a-callocr.o) (_malloc_r)
d:/devkitpro/devkitarm/bin/../lib/gcc/arm-eabi/4.5.1/../../../../arm-eabi/lib\libg.a(lib_a-memchr.o)
                              d:/devkitpro/devkitarm/bin/../lib/gcc/arm-eabi/4.5.1/../../../../arm-eabi/lib\libg.a(lib_a-fvwrite.o) (memchr)
d:/devkitpro/devkitarm/bin/../lib/gcc/arm-eabi/4.5.1/../../../../arm-eabi/lib\libg.a(lib_a-memcmp.o)
                              d:/devkitPro/libnds/lib\libul.a(gifalloc.o) (memcmp)
d:/devkitpro/devkitarm/bin/../lib/gcc/arm-eabi/4.5.1/../../../../arm-eabi/lib\libg.a(lib_a-memcpy.o)
                              d:/devkitPro/libnds/lib\libul.a(VirtualFile.o) (memcpy)
d:/devkitpro/devkitarm/bin/../lib/gcc/arm-eabi/4.5.1/../../../../arm-eabi/lib\libg.a(lib_a-memmove.o)
                              d:/devkitPro/libnds/lib\libul.a(texVramManager.o) (memmove)
d:/devkitpro/devkitarm/bin/../lib/gcc/arm-eabi/4.5.1/../../../../arm-eabi/lib\libg.a(lib_a-memset.o)
                              d:/devkitPro/libnds/lib\libul.a(drawing.o) (memset)
d:/devkitpro/devkitarm/bin/../lib/gcc/arm-eabi/4.5.1/../../../../arm-eabi/lib\libg.a(lib_a-mlock.o)
                              d:/devkitpro/devkitarm/bin/../lib/gcc/arm-eabi/4.5.1/../../../../arm-eabi/lib\libg.a(lib_a-freer.o) (__malloc_lock)
d:/devkitpro/devkitarm/bin/../lib/gcc/arm-eabi/4.5.1/../../../../arm-eabi/lib\libg.a(lib_a-putc.o)
                              d:/devkitpro/devkitarm/bin/../lib/gcc/arm-eabi/4.5.1/../../../../arm-eabi/lib\libg.a(lib_a-fputc.o) (_putc_r)
d:/devkitpro/devkitarm/bin/../lib/gcc/arm-eabi/4.5.1/../../../../arm-eabi/lib\libg.a(lib_a-rand.o)
                              main.o (rand)
d:/devkitpro/devkitarm/bin/../lib/gcc/arm-eabi/4.5.1/../../../../arm-eabi/lib\libg.a(lib_a-realloc.o)
                              d:/devkitPro/libnds/lib\libul.a(texVramManager.o) (realloc)
d:/devkitpro/devkitarm/bin/../lib/gcc/arm-eabi/4.5.1/../../../../arm-eabi/lib\libg.a(lib_a-reallocr.o)
                              d:/devkitpro/devkitarm/bin/../lib/gcc/arm-eabi/4.5.1/../../../../arm-eabi/lib\libg.a(lib_a-fvwrite.o) (_realloc_r)
d:/devkitpro/devkitarm/bin/../lib/gcc/arm-eabi/4.5.1/../../../../arm-eabi/lib\libg.a(lib_a-refill.o)
                              d:/devkitpro/devkitarm/bin/../lib/gcc/arm-eabi/4.5.1/../../../../arm-eabi/lib\libg.a(lib_a-fread.o) (__srefill_r)
d:/devkitpro/devkitarm/bin/../lib/gcc/arm-eabi/4.5.1/../../../../arm-eabi/lib\libg.a(lib_a-setjmp.o)
                              d:/devkitPro/libnds/lib\libul.a(libLoadPng.o) (setjmp)
d:/devkitpro/devkitarm/bin/../lib/gcc/arm-eabi/4.5.1/../../../../arm-eabi/lib\libg.a(lib_a-signal.o)
                              d:/devkitpro/devkitarm/bin/../lib/gcc/arm-eabi/4.5.1/../../../../arm-eabi/lib\libg.a(lib_a-abort.o) (raise)
d:/devkitpro/devkitarm/bin/../lib/gcc/arm-eabi/4.5.1/../../../../arm-eabi/lib\libg.a(lib_a-snprintf.o)
                              d:/devkitPro/libnds/lib\libpng.a(png.o) (snprintf)
d:/devkitpro/devkitarm/bin/../lib/gcc/arm-eabi/4.5.1/../../../../arm-eabi/lib\libg.a(lib_a-sprintf.o)
                              main.o (sprintf)
d:/devkitpro/devkitarm/bin/../lib/gcc/arm-eabi/4.5.1/../../../../arm-eabi/lib\libg.a(lib_a-stdio.o)
                              d:/devkitpro/devkitarm/bin/../lib/gcc/arm-eabi/4.5.1/../../../../arm-eabi/lib\libg.a(lib_a-findfp.o) (__sread)
d:/devkitpro/devkitarm/bin/../lib/gcc/arm-eabi/4.5.1/../../../../arm-eabi/lib\libg.a(lib_a-strcmp.o)
                              d:/devkitPro/libnds/lib\libul.a(text.o) (strcmp)
d:/devkitpro/devkitarm/bin/../lib/gcc/arm-eabi/4.5.1/../../../../arm-eabi/lib\libg.a(lib_a-strcpy.o)
                              d:/devkitpro/devkitarm/bin/../lib/gcc/arm-eabi/4.5.1/../../../../arm-eabi/lib\libstdc++.a(cp-demangle.o) (strcpy)
d:/devkitpro/devkitarm/bin/../lib/gcc/arm-eabi/4.5.1/../../../../arm-eabi/lib\libg.a(lib_a-strlen.o)
                              d:/devkitPro/libnds/lib\libul.a(VirtualFile.o) (strlen)
d:/devkitpro/devkitarm/bin/../lib/gcc/arm-eabi/4.5.1/../../../../arm-eabi/lib\libg.a(lib_a-strncmp.o)
                              d:/devkitpro/devkitarm/bin/../lib/gcc/arm-eabi/4.5.1/../../../../arm-eabi/lib\libstdc++.a(cp-demangle.o) (strncmp)
d:/devkitpro/devkitarm/bin/../lib/gcc/arm-eabi/4.5.1/../../../../arm-eabi/lib\libg.a(lib_a-strtod.o)
                              d:/devkitPro/libnds/lib\libpng.a(pngrutil.o) (strtod)
d:/devkitpro/devkitarm/bin/../lib/gcc/arm-eabi/4.5.1/../../../../arm-eabi/lib\libg.a(lib_a-svfprintf.o)
                              d:/devkitpro/devkitarm/bin/../lib/gcc/arm-eabi/4.5.1/../../../../arm-eabi/lib\libg.a(lib_a-snprintf.o) (_svfprintf_r)
d:/devkitpro/devkitarm/bin/../lib/gcc/arm-eabi/4.5.1/../../../../arm-eabi/lib\libg.a(lib_a-syswrite.o)
                              d:/devkitpro/devkitarm/bin/../lib/gcc/arm-eabi/4.5.1/../../../../arm-eabi/lib\libstdc++.a(pure.o) (write)
d:/devkitpro/devkitarm/bin/../lib/gcc/arm-eabi/4.5.1/../../../../arm-eabi/lib\libg.a(lib_a-vfprintf.o)
                              d:/devkitpro/devkitarm/bin/../lib/gcc/arm-eabi/4.5.1/../../../../arm-eabi/lib\libg.a(lib_a-fprintf.o) (_vfprintf_r)
d:/devkitpro/devkitarm/bin/../lib/gcc/arm-eabi/4.5.1/../../../../arm-eabi/lib\libg.a(lib_a-wbuf.o)
                              d:/devkitpro/devkitarm/bin/../lib/gcc/arm-eabi/4.5.1/../../../../arm-eabi/lib\libg.a(lib_a-putc.o) (__swbuf_r)
d:/devkitpro/devkitarm/bin/../lib/gcc/arm-eabi/4.5.1/../../../../arm-eabi/lib\libg.a(lib_a-wcrtomb.o)
                              d:/devkitpro/devkitarm/bin/../lib/gcc/arm-eabi/4.5.1/../../../../arm-eabi/lib\libg.a(lib_a-svfprintf.o) (_wcrtomb_r)
d:/devkitpro/devkitarm/bin/../lib/gcc/arm-eabi/4.5.1/../../../../arm-eabi/lib\libg.a(lib_a-wcsrtombs.o)
                              d:/devkitpro/devkitarm/bin/../lib/gcc/arm-eabi/4.5.1/../../../../arm-eabi/lib\libg.a(lib_a-svfprintf.o) (_wcsrtombs_r)
d:/devkitpro/devkitarm/bin/../lib/gcc/arm-eabi/4.5.1/../../../../arm-eabi/lib\libg.a(lib_a-wctomb_r.o)
                              d:/devkitpro/devkitarm/bin/../lib/gcc/arm-eabi/4.5.1/../../../../arm-eabi/lib\libg.a(lib_a-wcrtomb.o) (__wctomb)
d:/devkitpro/devkitarm/bin/../lib/gcc/arm-eabi/4.5.1/../../../../arm-eabi/lib\libg.a(lib_a-wsetup.o)
                              d:/devkitpro/devkitarm/bin/../lib/gcc/arm-eabi/4.5.1/../../../../arm-eabi/lib\libg.a(lib_a-fvwrite.o) (__swsetup_r)
d:/devkitpro/devkitarm/bin/../lib/gcc/arm-eabi/4.5.1/../../../../arm-eabi/lib\libg.a(lib_a-dtoa.o)
                              d:/devkitpro/devkitarm/bin/../lib/gcc/arm-eabi/4.5.1/../../../../arm-eabi/lib\libg.a(lib_a-svfprintf.o) (_dtoa_r)
d:/devkitpro/devkitarm/bin/../lib/gcc/arm-eabi/4.5.1/../../../../arm-eabi/lib\libg.a(lib_a-gdtoa-gethex.o)
                              d:/devkitpro/devkitarm/bin/../lib/gcc/arm-eabi/4.5.1/../../../../arm-eabi/lib\libg.a(lib_a-strtod.o) (__gethex)
d:/devkitpro/devkitarm/bin/../lib/gcc/arm-eabi/4.5.1/../../../../arm-eabi/lib\libg.a(lib_a-gdtoa-hexnan.o)
                              d:/devkitpro/devkitarm/bin/../lib/gcc/arm-eabi/4.5.1/../../../../arm-eabi/lib\libg.a(lib_a-strtod.o) (__hexnan)
d:/devkitpro/devkitarm/bin/../lib/gcc/arm-eabi/4.5.1/../../../../arm-eabi/lib\libg.a(lib_a-locale.o)
                              d:/devkitpro/devkitarm/bin/../lib/gcc/arm-eabi/4.5.1/../../../../arm-eabi/lib\libg.a(lib_a-svfprintf.o) (__locale_charset)
d:/devkitpro/devkitarm/bin/../lib/gcc/arm-eabi/4.5.1/../../../../arm-eabi/lib\libg.a(lib_a-makebuf.o)
                              d:/devkitpro/devkitarm/bin/../lib/gcc/arm-eabi/4.5.1/../../../../arm-eabi/lib\libg.a(lib_a-refill.o) (__smakebuf_r)
d:/devkitpro/devkitarm/bin/../lib/gcc/arm-eabi/4.5.1/../../../../arm-eabi/lib\libg.a(lib_a-mbtowc_r.o)
                              d:/devkitpro/devkitarm/bin/../lib/gcc/arm-eabi/4.5.1/../../../../arm-eabi/lib\libg.a(lib_a-locale.o) (__utf8_mbtowc)
d:/devkitpro/devkitarm/bin/../lib/gcc/arm-eabi/4.5.1/../../../../arm-eabi/lib\libg.a(lib_a-mprec.o)
                              d:/devkitpro/devkitarm/bin/../lib/gcc/arm-eabi/4.5.1/../../../../arm-eabi/lib\libg.a(lib_a-strtod.o) (_Balloc)
d:/devkitpro/devkitarm/bin/../lib/gcc/arm-eabi/4.5.1/../../../../arm-eabi/lib\libg.a(lib_a-sf_nan.o)
                              d:/devkitpro/devkitarm/bin/../lib/gcc/arm-eabi/4.5.1/../../../../arm-eabi/lib\libg.a(lib_a-strtod.o) (nanf)
d:/devkitpro/devkitarm/bin/../lib/gcc/arm-eabi/4.5.1/../../../../arm-eabi/lib\libg.a(lib_a-strcasecmp.o)
                              d:/devkitpro/devkitarm/bin/../lib/gcc/arm-eabi/4.5.1/../../../../arm-eabi/lib\libg.a(lib_a-locale.o) (strcasecmp)
d:/devkitpro/devkitarm/bin/../lib/gcc/arm-eabi/4.5.1/../../../../arm-eabi/lib\libg.a(lib_a-strcat.o)
                              d:/devkitpro/devkitarm/bin/../lib/gcc/arm-eabi/4.5.1/../../../../arm-eabi/lib\libg.a(lib_a-locale.o) (strcat)
d:/devkitpro/devkitarm/bin/../lib/gcc/arm-eabi/4.5.1/../../../../arm-eabi/lib\libg.a(lib_a-strchr.o)
                              d:/devkitpro/devkitarm/bin/../lib/gcc/arm-eabi/4.5.1/../../../../arm-eabi/lib\libg.a(lib_a-locale.o) (strchr)
d:/devkitpro/devkitarm/bin/../lib/gcc/arm-eabi/4.5.1/../../../../arm-eabi/lib\libg.a(lib_a-strlcpy.o)
                              d:/devkitpro/devkitarm/bin/../lib/gcc/arm-eabi/4.5.1/../../../../arm-eabi/lib\libg.a(lib_a-locale.o) (strlcpy)
d:/devkitpro/devkitarm/bin/../lib/gcc/arm-eabi/4.5.1/../../../../arm-eabi/lib\libg.a(lib_a-strncasecmp.o)
                              d:/devkitpro/devkitarm/bin/../lib/gcc/arm-eabi/4.5.1/../../../../arm-eabi/lib\libg.a(lib_a-locale.o) (strncasecmp)
d:/devkitpro/devkitarm/bin/../lib/gcc/arm-eabi/4.5.1/../../../../arm-eabi/lib\libg.a(lib_a-strncpy.o)
                              d:/devkitpro/devkitarm/bin/../lib/gcc/arm-eabi/4.5.1/../../../../arm-eabi/lib\libg.a(lib_a-locale.o) (strncpy)
d:/devkitpro/devkitarm/bin/../lib/gcc/arm-eabi/4.5.1/../../../../arm-eabi/lib\libg.a(lib_a-strtol.o)
                              d:/devkitpro/devkitarm/bin/../lib/gcc/arm-eabi/4.5.1/../../../../arm-eabi/lib\libg.a(lib_a-locale.o) (_strtol_r)
d:/devkitpro/devkitarm/bin/../lib/gcc/arm-eabi/4.5.1/../../../../arm-eabi/lib\libg.a(lib_a-svfiprintf.o)
                              d:/devkitpro/devkitarm/bin/../lib/gcc/arm-eabi/4.5.1/../../../../arm-eabi/lib\libg.a(lib_a-svfprintf.o) (__ssprint_r)
d:/devkitpro/devkitarm/bin/../lib/gcc/arm-eabi/4.5.1/../../../../arm-eabi/lib\libg.a(lib_a-vfiprintf.o)
                              d:/devkitpro/devkitarm/bin/../lib/gcc/arm-eabi/4.5.1/../../../../arm-eabi/lib\libg.a(lib_a-vfprintf.o) (__sprint_r)
d:/devkitpro/devkitarm/bin/../lib/gcc/arm-eabi/4.5.1/../../../../arm-eabi/lib\libg.a(lib_a-wcsnrtombs.o)
                              d:/devkitpro/devkitarm/bin/../lib/gcc/arm-eabi/4.5.1/../../../../arm-eabi/lib\libg.a(lib_a-wcsrtombs.o) (_wcsnrtombs_r)
d:/devkitpro/devkitarm/bin/../lib/gcc/arm-eabi/4.5.1/../../../../arm-eabi/lib\libg.a(lib_a-ctype_.o)
                              d:/devkitpro/devkitarm/bin/../lib/gcc/arm-eabi/4.5.1/../../../../arm-eabi/lib\libg.a(lib_a-locale.o) (__set_ctype)
d:/devkitpro/devkitarm/bin/../lib/gcc/arm-eabi/4.5.1/../../../../arm-eabi/lib\libg.a(lib_a-fputwc.o)
                              d:/devkitpro/devkitarm/bin/../lib/gcc/arm-eabi/4.5.1/../../../../arm-eabi/lib\libg.a(lib_a-vfiprintf.o) (_fputwc_r)
d:/devkitpro/devkitarm/bin/../lib/gcc/arm-eabi/4.5.1/../../../../arm-eabi/lib\libg.a(lib_a-getenv_r.o)
                              d:/devkitpro/devkitarm/bin/../lib/gcc/arm-eabi/4.5.1/../../../../arm-eabi/lib\libg.a(lib_a-locale.o) (_getenv_r)
d:/devkitpro/devkitarm/bin/../lib/gcc/arm-eabi/4.5.1/../../../../arm-eabi/lib\libg.a(lib_a-environ.o)
                              d:/devkitpro/devkitarm/bin/../lib/gcc/arm-eabi/4.5.1/../../../../arm-eabi/lib\libg.a(lib_a-getenv_r.o) (environ)
d:/devkitpro/devkitarm/bin/../lib/gcc/arm-eabi/4.5.1/../../../../arm-eabi/lib\libg.a(lib_a-envlock.o)
                              d:/devkitpro/devkitarm/bin/../lib/gcc/arm-eabi/4.5.1/../../../../arm-eabi/lib\libg.a(lib_a-getenv_r.o) (__env_lock)
d:/devkitpro/devkitarm/bin/../lib/gcc/arm-eabi/4.5.1/../../../../arm-eabi/lib\libsysbase.a(close.o)
                              d:/devkitpro/devkitarm/bin/../lib/gcc/arm-eabi/4.5.1/../../../../arm-eabi/lib\libg.a(lib_a-stdio.o) (_close_r)
d:/devkitpro/devkitarm/bin/../lib/gcc/arm-eabi/4.5.1/../../../../arm-eabi/lib\libsysbase.a(fstat.o)
                              d:/devkitpro/devkitarm/bin/../lib/gcc/arm-eabi/4.5.1/../../../../arm-eabi/lib\libg.a(lib_a-makebuf.o) (_fstat_r)
d:/devkitpro/devkitarm/bin/../lib/gcc/arm-eabi/4.5.1/../../../../arm-eabi/lib\libsysbase.a(getpid.o)
                              d:/devkitpro/devkitarm/bin/../lib/gcc/arm-eabi/4.5.1/../../../../arm-eabi/lib\libg.a(lib_a-signal.o) (_getpid_r)
d:/devkitpro/devkitarm/bin/../lib/gcc/arm-eabi/4.5.1/../../../../arm-eabi/lib\libsysbase.a(isatty.o)
                              d:/devkitpro/devkitarm/bin/../lib/gcc/arm-eabi/4.5.1/../../../../arm-eabi/lib\libg.a(lib_a-makebuf.o) (_isatty_r)
d:/devkitpro/devkitarm/bin/../lib/gcc/arm-eabi/4.5.1/../../../../arm-eabi/lib\libsysbase.a(kill.o)
                              d:/devkitpro/devkitarm/bin/../lib/gcc/arm-eabi/4.5.1/../../../../arm-eabi/lib\libg.a(lib_a-signal.o) (_kill_r)
d:/devkitpro/devkitarm/bin/../lib/gcc/arm-eabi/4.5.1/../../../../arm-eabi/lib\libsysbase.a(lseek.o)
                              d:/devkitpro/devkitarm/bin/../lib/gcc/arm-eabi/4.5.1/../../../../arm-eabi/lib\libg.a(lib_a-stdio.o) (_lseek_r)
d:/devkitpro/devkitarm/bin/../lib/gcc/arm-eabi/4.5.1/../../../../arm-eabi/lib\libsysbase.a(read.o)
                              d:/devkitpro/devkitarm/bin/../lib/gcc/arm-eabi/4.5.1/../../../../arm-eabi/lib\libg.a(lib_a-stdio.o) (_read_r)
d:/devkitpro/devkitarm/bin/../lib/gcc/arm-eabi/4.5.1/../../../../arm-eabi/lib\libsysbase.a(sbrk.o)
                              d:/devkitpro/devkitarm/bin/../lib/gcc/arm-eabi/4.5.1/../../../../arm-eabi/lib\libg.a(lib_a-freer.o) (_sbrk_r)
d:/devkitpro/devkitarm/bin/../lib/gcc/arm-eabi/4.5.1/../../../../arm-eabi/lib\libsysbase.a(times.o)
                              d:/devkitPro/libnds/lib\libnds9.a(initSystem.o) (punixTime)
d:/devkitpro/devkitarm/bin/../lib/gcc/arm-eabi/4.5.1/../../../../arm-eabi/lib\libsysbase.a(write.o)
                              d:/devkitpro/devkitarm/bin/../lib/gcc/arm-eabi/4.5.1/../../../../arm-eabi/lib\libg.a(lib_a-stdio.o) (_write_r)
d:/devkitpro/devkitarm/bin/../lib/gcc/arm-eabi/4.5.1/../../../../arm-eabi/lib\libsysbase.a(_exit.o)
                              d:/devkitpro/devkitarm/bin/../lib/gcc/arm-eabi/4.5.1/../../../../arm-eabi/lib\libg.a(lib_a-abort.o) (_exit)
d:/devkitpro/devkitarm/bin/../lib/gcc/arm-eabi/4.5.1/../../../../arm-eabi/lib\libsysbase.a(malloc_vars.o)
                              d:/devkitpro/devkitarm/bin/../lib/gcc/arm-eabi/4.5.1/../../../../arm-eabi/lib/ds_arm9_crt0.o (fake_heap_end)
d:/devkitpro/devkitarm/bin/../lib/gcc/arm-eabi/4.5.1/../../../../arm-eabi/lib\libsysbase.a(build_argv.o)
                              d:/devkitpro/devkitarm/bin/../lib/gcc/arm-eabi/4.5.1/../../../../arm-eabi/lib/ds_arm9_crt0.o (build_argv)
d:/devkitpro/devkitarm/bin/../lib/gcc/arm-eabi/4.5.1/../../../../arm-eabi/lib\libsysbase.a(syscall_support.o)
                              d:/devkitPro/libnds/lib\libnds9.a(initSystem.o) (__syscalls)
d:/devkitpro/devkitarm/bin/../lib/gcc/arm-eabi/4.5.1/../../../../arm-eabi/lib\libsysbase.a(handle_manager.o)
                              d:/devkitpro/devkitarm/bin/../lib/gcc/arm-eabi/4.5.1/../../../../arm-eabi/lib\libsysbase.a(close.o) (__release_handle)
d:/devkitpro/devkitarm/bin/../lib/gcc/arm-eabi/4.5.1/../../../../arm-eabi/lib\libsysbase.a(iosupport.o)
                              d:/devkitpro/devkitarm/bin/../lib/gcc/arm-eabi/4.5.1/../../../../arm-eabi/lib\libsysbase.a(close.o) (devoptab_list)
d:/devkitpro/devkitarm/bin/../lib/gcc/arm-eabi/4.5.1\libgcc.a(_aeabi_uldivmod.o)
                              d:/devkitpro/devkitarm/bin/../lib/gcc/arm-eabi/4.5.1/../../../../arm-eabi/lib\libg.a(lib_a-svfprintf.o) (__aeabi_uldivmod)
d:/devkitpro/devkitarm/bin/../lib/gcc/arm-eabi/4.5.1\libgcc.a(bpabi.o)
                              d:/devkitpro/devkitarm/bin/../lib/gcc/arm-eabi/4.5.1\libgcc.a(_aeabi_uldivmod.o) (__gnu_uldivmod_helper)
d:/devkitpro/devkitarm/bin/../lib/gcc/arm-eabi/4.5.1\libgcc.a(_divdi3.o)
                              d:/devkitpro/devkitarm/bin/../lib/gcc/arm-eabi/4.5.1\libgcc.a(bpabi.o) (__divdi3)
d:/devkitpro/devkitarm/bin/../lib/gcc/arm-eabi/4.5.1\libgcc.a(_udivdi3.o)
                              d:/devkitpro/devkitarm/bin/../lib/gcc/arm-eabi/4.5.1\libgcc.a(bpabi.o) (__udivdi3)
d:/devkitpro/devkitarm/bin/../lib/gcc/arm-eabi/4.5.1\libgcc.a(_clzsi2.o)
                              d:/devkitpro/devkitarm/bin/../lib/gcc/arm-eabi/4.5.1\libgcc.a(_divdi3.o) (__clzsi2)

Allocating common symbols
Common symbol       size              file

ul_colorKeyValue32  0x4               d:/devkitPro/libnds/lib\libul.a(drawing.o)
fifo_datamsg_data   0x40              d:/devkitPro/libnds/lib\libnds9.a(fifosystem.o)
ulTextureMax        0x4               d:/devkitPro/libnds/lib\libul.a(texVramManager.o)
__dsimode           0x1               d:/devkitPro/libnds/lib\libnds9.a(initSystem.o)
ulTextureParams     0x4               d:/devkitPro/libnds/lib\libul.a(texVramManager.o)
ul_cos              0x400             d:/devkitPro/libnds/lib\libul.a(ulib.o)
fifo_buffer         0x800             d:/devkitPro/libnds/lib\libnds9.a(fifosystem.o)
ulTexRamBlocksNb    0x4               d:/devkitPro/libnds/lib\libul.a(texVramManager.o)
fifo_value32_func   0x40              d:/devkitPro/libnds/lib\libnds9.a(fifosystem.o)
fifo_address_func   0x40              d:/devkitPro/libnds/lib\libnds9.a(fifosystem.o)
temppalette         0x4               d:/devkitPro/libnds/lib\libul.a(libLoadGif.o)
ulTexPalBlocksNb    0x4               d:/devkitPro/libnds/lib\libul.a(texPalManager.o)
__hexdig            0x100             d:/devkitpro/devkitarm/bin/../lib/gcc/arm-eabi/4.5.1/../../../../arm-eabi/lib\libg.a(lib_a-gdtoa-gethex.o)
ul_colorKeyValue    0x2               d:/devkitPro/libnds/lib\libul.a(drawing.o)
ul_splash1_fadeDir  0x4               d:/devkitPro/libnds/lib\libul.a(ulShowSplashScreen1.o)
VirtualFileSources  0x40              d:/devkitPro/libnds/lib\libul.a(VirtualFile.o)
ulDualScreenSprites
                    0x400             d:/devkitPro/libnds/lib\libul.a(drawing.o)
ulTextureNb         0x4               d:/devkitPro/libnds/lib\libul.a(texVramManager.o)
ul_splash1_fade     0x4               d:/devkitPro/libnds/lib\libul.a(ulShowSplashScreen1.o)
LineBuf             0x800             d:/devkitPro/libnds/lib\libul.a(libLoadGif.o)
JPG_outEnd          0x4               d:/devkitPro/libnds/lib\libul.a(gba-jpeg-decode.o)
fifo_value32_data   0x40              d:/devkitPro/libnds/lib\libnds9.a(fifosystem.o)
ulTexRamBlocksMax   0x4               d:/devkitPro/libnds/lib\libul.a(texVramManager.o)
ulTexPalBlocks      0x4               d:/devkitPro/libnds/lib\libul.a(texPalManager.o)
ul_virtualFileList  0x4               d:/devkitPro/libnds/lib\libul.a(VirtualFile.o)
fifo_value32_queue  0x40              d:/devkitPro/libnds/lib\libnds9.a(fifosystem.o)
fifo_data_queue     0x40              d:/devkitPro/libnds/lib\libnds9.a(fifosystem.o)
ulTexRamBlocks      0x4               d:/devkitPro/libnds/lib\libul.a(texVramManager.o)
ul_autoDepth        0x1               d:/devkitPro/libnds/lib\libul.a(drawing.o)
ul_dualScreenMode   0x1               d:/devkitPro/libnds/lib\libul.a(drawing.o)
ul_neoflashlogo_positions
                    0xc00             d:/devkitPro/libnds/lib\libul.a(ulShowSplashScreen2.o)
ulTexPalBlocksMax   0x4               d:/devkitPro/libnds/lib\libul.a(texPalManager.o)
ul_frameNumber      0x1               d:/devkitPro/libnds/lib\libul.a(drawing.o)
punixTime           0x4               d:/devkitpro/devkitarm/bin/../lib/gcc/arm-eabi/4.5.1/../../../../arm-eabi/lib\libsysbase.a(times.o)
fifo_address_data   0x40              d:/devkitPro/libnds/lib\libnds9.a(fifosystem.o)
ul_sin              0x400             d:/devkitPro/libnds/lib\libul.a(ulib.o)
ul_currentDepth     0x4               d:/devkitPro/libnds/lib\libul.a(drawing.o)
glGlobalData        0x4c              d:/devkitPro/libnds/lib\libnds9.a(videoGL.o)
ulTextureActive     0x4               d:/devkitPro/libnds/lib\libul.a(texVramManager.o)
ul_colorKeyEnabled  0x1               d:/devkitPro/libnds/lib\libul.a(drawing.o)
JPG_outBegin        0x4               d:/devkitPro/libnds/lib\libul.a(gba-jpeg-decode.o)
fifo_datamsg_func   0x40              d:/devkitPro/libnds/lib\libnds9.a(fifosystem.o)
fifo_address_queue  0x40              d:/devkitPro/libnds/lib\libnds9.a(fifosystem.o)

Discarded input sections

 .group         0x00000000        0x8 d:/devkitpro/devkitarm/bin/../lib/gcc/arm-eabi/4.5.1/../../../../arm-eabi/lib\libstdc++.a(fundamental_type_info.o)
 .group         0x00000000        0x8 d:/devkitpro/devkitarm/bin/../lib/gcc/arm-eabi/4.5.1/../../../../arm-eabi/lib\libstdc++.a(fundamental_type_info.o)
 .group         0x00000000        0x8 d:/devkitpro/devkitarm/bin/../lib/gcc/arm-eabi/4.5.1/../../../../arm-eabi/lib\libstdc++.a(fundamental_type_info.o)
 .group         0x00000000        0x8 d:/devkitpro/devkitarm/bin/../lib/gcc/arm-eabi/4.5.1/../../../../arm-eabi/lib\libstdc++.a(fundamental_type_info.o)
 .group         0x00000000        0x8 d:/devkitpro/devkitarm/bin/../lib/gcc/arm-eabi/4.5.1/../../../../arm-eabi/lib\libstdc++.a(fundamental_type_info.o)
 .group         0x00000000        0x8 d:/devkitpro/devkitarm/bin/../lib/gcc/arm-eabi/4.5.1/../../../../arm-eabi/lib\libstdc++.a(fundamental_type_info.o)
 .group         0x00000000        0x8 d:/devkitpro/devkitarm/bin/../lib/gcc/arm-eabi/4.5.1/../../../../arm-eabi/lib\libstdc++.a(fundamental_type_info.o)
 .group         0x00000000        0x8 d:/devkitpro/devkitarm/bin/../lib/gcc/arm-eabi/4.5.1/../../../../arm-eabi/lib\libstdc++.a(fundamental_type_info.o)
 .group         0x00000000        0x8 d:/devkitpro/devkitarm/bin/../lib/gcc/arm-eabi/4.5.1/../../../../arm-eabi/lib\libstdc++.a(fundamental_type_info.o)
 .group         0x00000000        0x8 d:/devkitpro/devkitarm/bin/../lib/gcc/arm-eabi/4.5.1/../../../../arm-eabi/lib\libstdc++.a(fundamental_type_info.o)
 .group         0x00000000        0x8 d:/devkitpro/devkitarm/bin/../lib/gcc/arm-eabi/4.5.1/../../../../arm-eabi/lib\libstdc++.a(fundamental_type_info.o)
 .group         0x00000000        0x8 d:/devkitpro/devkitarm/bin/../lib/gcc/arm-eabi/4.5.1/../../../../arm-eabi/lib\libstdc++.a(fundamental_type_info.o)
 .group         0x00000000        0x8 d:/devkitpro/devkitarm/bin/../lib/gcc/arm-eabi/4.5.1/../../../../arm-eabi/lib\libstdc++.a(fundamental_type_info.o)
 .group         0x00000000        0x8 d:/devkitpro/devkitarm/bin/../lib/gcc/arm-eabi/4.5.1/../../../../arm-eabi/lib\libstdc++.a(fundamental_type_info.o)
 .group         0x00000000        0x8 d:/devkitpro/devkitarm/bin/../lib/gcc/arm-eabi/4.5.1/../../../../arm-eabi/lib\libstdc++.a(fundamental_type_info.o)
 .group         0x00000000        0x8 d:/devkitpro/devkitarm/bin/../lib/gcc/arm-eabi/4.5.1/../../../../arm-eabi/lib\libstdc++.a(fundamental_type_info.o)
 .group         0x00000000        0x8 d:/devkitpro/devkitarm/bin/../lib/gcc/arm-eabi/4.5.1/../../../../arm-eabi/lib\libstdc++.a(fundamental_type_info.o)
 .group         0x00000000        0x8 d:/devkitpro/devkitarm/bin/../lib/gcc/arm-eabi/4.5.1/../../../../arm-eabi/lib\libstdc++.a(fundamental_type_info.o)
 .group         0x00000000        0x8 d:/devkitpro/devkitarm/bin/../lib/gcc/arm-eabi/4.5.1/../../../../arm-eabi/lib\libstdc++.a(fundamental_type_info.o)
 .group         0x00000000        0x8 d:/devkitpro/devkitarm/bin/../lib/gcc/arm-eabi/4.5.1/../../../../arm-eabi/lib\libstdc++.a(fundamental_type_info.o)
 .group         0x00000000        0x8 d:/devkitpro/devkitarm/bin/../lib/gcc/arm-eabi/4.5.1/../../../../arm-eabi/lib\libstdc++.a(fundamental_type_info.o)
 .group         0x00000000        0x8 d:/devkitpro/devkitarm/bin/../lib/gcc/arm-eabi/4.5.1/../../../../arm-eabi/lib\libstdc++.a(fundamental_type_info.o)
 .group         0x00000000        0x8 d:/devkitpro/devkitarm/bin/../lib/gcc/arm-eabi/4.5.1/../../../../arm-eabi/lib\libstdc++.a(fundamental_type_info.o)
 .group         0x00000000        0x8 d:/devkitpro/devkitarm/bin/../lib/gcc/arm-eabi/4.5.1/../../../../arm-eabi/lib\libstdc++.a(fundamental_type_info.o)
 .group         0x00000000        0x8 d:/devkitpro/devkitarm/bin/../lib/gcc/arm-eabi/4.5.1/../../../../arm-eabi/lib\libstdc++.a(fundamental_type_info.o)
 .group         0x00000000        0x8 d:/devkitpro/devkitarm/bin/../lib/gcc/arm-eabi/4.5.1/../../../../arm-eabi/lib\libstdc++.a(fundamental_type_info.o)
 .group         0x00000000        0x8 d:/devkitpro/devkitarm/bin/../lib/gcc/arm-eabi/4.5.1/../../../../arm-eabi/lib\libstdc++.a(fundamental_type_info.o)
 .group         0x00000000        0x8 d:/devkitpro/devkitarm/bin/../lib/gcc/arm-eabi/4.5.1/../../../../arm-eabi/lib\libstdc++.a(fundamental_type_info.o)
 .group         0x00000000        0x8 d:/devkitpro/devkitarm/bin/../lib/gcc/arm-eabi/4.5.1/../../../../arm-eabi/lib\libstdc++.a(fundamental_type_info.o)
 .group         0x00000000        0x8 d:/devkitpro/devkitarm/bin/../lib/gcc/arm-eabi/4.5.1/../../../../arm-eabi/lib\libstdc++.a(fundamental_type_info.o)
 .group         0x00000000        0x8 d:/devkitpro/devkitarm/bin/../lib/gcc/arm-eabi/4.5.1/../../../../arm-eabi/lib\libstdc++.a(fundamental_type_info.o)
 .group         0x00000000        0x8 d:/devkitpro/devkitarm/bin/../lib/gcc/arm-eabi/4.5.1/../../../../arm-eabi/lib\libstdc++.a(fundamental_type_info.o)
 .group         0x00000000        0x8 d:/devkitpro/devkitarm/bin/../lib/gcc/arm-eabi/4.5.1/../../../../arm-eabi/lib\libstdc++.a(fundamental_type_info.o)
 .group         0x00000000        0x8 d:/devkitpro/devkitarm/bin/../lib/gcc/arm-eabi/4.5.1/../../../../arm-eabi/lib\libstdc++.a(fundamental_type_info.o)
 .group         0x00000000        0x8 d:/devkitpro/devkitarm/bin/../lib/gcc/arm-eabi/4.5.1/../../../../arm-eabi/lib\libstdc++.a(fundamental_type_info.o)
 .group         0x00000000        0x8 d:/devkitpro/devkitarm/bin/../lib/gcc/arm-eabi/4.5.1/../../../../arm-eabi/lib\libstdc++.a(fundamental_type_info.o)
 .group         0x00000000        0x8 d:/devkitpro/devkitarm/bin/../lib/gcc/arm-eabi/4.5.1/../../../../arm-eabi/lib\libstdc++.a(fundamental_type_info.o)
 .group         0x00000000        0x8 d:/devkitpro/devkitarm/bin/../lib/gcc/arm-eabi/4.5.1/../../../../arm-eabi/lib\libstdc++.a(fundamental_type_info.o)
 .group         0x00000000        0x8 d:/devkitpro/devkitarm/bin/../lib/gcc/arm-eabi/4.5.1/../../../../arm-eabi/lib\libstdc++.a(fundamental_type_info.o)
 .group         0x00000000        0x8 d:/devkitpro/devkitarm/bin/../lib/gcc/arm-eabi/4.5.1/../../../../arm-eabi/lib\libstdc++.a(fundamental_type_info.o)
 .group         0x00000000        0x8 d:/devkitpro/devkitarm/bin/../lib/gcc/arm-eabi/4.5.1/../../../../arm-eabi/lib\libstdc++.a(fundamental_type_info.o)
 .group         0x00000000        0x8 d:/devkitpro/devkitarm/bin/../lib/gcc/arm-eabi/4.5.1/../../../../arm-eabi/lib\libstdc++.a(fundamental_type_info.o)
 .group         0x00000000        0x8 d:/devkitpro/devkitarm/bin/../lib/gcc/arm-eabi/4.5.1/../../../../arm-eabi/lib\libstdc++.a(fundamental_type_info.o)
 .group         0x00000000        0x8 d:/devkitpro/devkitarm/bin/../lib/gcc/arm-eabi/4.5.1/../../../../arm-eabi/lib\libstdc++.a(fundamental_type_info.o)
 .group         0x00000000        0x8 d:/devkitpro/devkitarm/bin/../lib/gcc/arm-eabi/4.5.1/../../../../arm-eabi/lib\libstdc++.a(fundamental_type_info.o)
 .group         0x00000000        0x8 d:/devkitpro/devkitarm/bin/../lib/gcc/arm-eabi/4.5.1/../../../../arm-eabi/lib\libstdc++.a(fundamental_type_info.o)
 .group         0x00000000        0x8 d:/devkitpro/devkitarm/bin/../lib/gcc/arm-eabi/4.5.1/../../../../arm-eabi/lib\libstdc++.a(fundamental_type_info.o)
 .group         0x00000000        0x8 d:/devkitpro/devkitarm/bin/../lib/gcc/arm-eabi/4.5.1/../../../../arm-eabi/lib\libstdc++.a(fundamental_type_info.o)
 .group         0x00000000        0x8 d:/devkitpro/devkitarm/bin/../lib/gcc/arm-eabi/4.5.1/../../../../arm-eabi/lib\libstdc++.a(fundamental_type_info.o)
 .group         0x00000000        0x8 d:/devkitpro/devkitarm/bin/../lib/gcc/arm-eabi/4.5.1/../../../../arm-eabi/lib\libstdc++.a(fundamental_type_info.o)
 .group         0x00000000        0x8 d:/devkitpro/devkitarm/bin/../lib/gcc/arm-eabi/4.5.1/../../../../arm-eabi/lib\libstdc++.a(fundamental_type_info.o)
 .group         0x00000000        0x8 d:/devkitpro/devkitarm/bin/../lib/gcc/arm-eabi/4.5.1/../../../../arm-eabi/lib\libstdc++.a(fundamental_type_info.o)
 .group         0x00000000        0x8 d:/devkitpro/devkitarm/bin/../lib/gcc/arm-eabi/4.5.1/../../../../arm-eabi/lib\libstdc++.a(fundamental_type_info.o)
 .group         0x00000000        0x8 d:/devkitpro/devkitarm/bin/../lib/gcc/arm-eabi/4.5.1/../../../../arm-eabi/lib\libstdc++.a(fundamental_type_info.o)
 .group         0x00000000        0x8 d:/devkitpro/devkitarm/bin/../lib/gcc/arm-eabi/4.5.1/../../../../arm-eabi/lib\libstdc++.a(fundamental_type_info.o)
 .group         0x00000000        0x8 d:/devkitpro/devkitarm/bin/../lib/gcc/arm-eabi/4.5.1/../../../../arm-eabi/lib\libstdc++.a(fundamental_type_info.o)
 .group         0x00000000        0x8 d:/devkitpro/devkitarm/bin/../lib/gcc/arm-eabi/4.5.1/../../../../arm-eabi/lib\libstdc++.a(fundamental_type_info.o)
 .group         0x00000000        0x8 d:/devkitpro/devkitarm/bin/../lib/gcc/arm-eabi/4.5.1/../../../../arm-eabi/lib\libstdc++.a(fundamental_type_info.o)
 .group         0x00000000        0x8 d:/devkitpro/devkitarm/bin/../lib/gcc/arm-eabi/4.5.1/../../../../arm-eabi/lib\libstdc++.a(fundamental_type_info.o)
 .group         0x00000000        0x8 d:/devkitpro/devkitarm/bin/../lib/gcc/arm-eabi/4.5.1/../../../../arm-eabi/lib\libstdc++.a(fundamental_type_info.o)
 .group         0x00000000        0x8 d:/devkitpro/devkitarm/bin/../lib/gcc/arm-eabi/4.5.1/../../../../arm-eabi/lib\libstdc++.a(fundamental_type_info.o)
 .group         0x00000000        0x8 d:/devkitpro/devkitarm/bin/../lib/gcc/arm-eabi/4.5.1/../../../../arm-eabi/lib\libstdc++.a(fundamental_type_info.o)
 .group         0x00000000        0x8 d:/devkitpro/devkitarm/bin/../lib/gcc/arm-eabi/4.5.1/../../../../arm-eabi/lib\libstdc++.a(fundamental_type_info.o)
 .group         0x00000000        0x8 d:/devkitpro/devkitarm/bin/../lib/gcc/arm-eabi/4.5.1/../../../../arm-eabi/lib\libstdc++.a(fundamental_type_info.o)
 .group         0x00000000        0x8 d:/devkitpro/devkitarm/bin/../lib/gcc/arm-eabi/4.5.1/../../../../arm-eabi/lib\libstdc++.a(fundamental_type_info.o)
 .group         0x00000000        0x8 d:/devkitpro/devkitarm/bin/../lib/gcc/arm-eabi/4.5.1/../../../../arm-eabi/lib\libstdc++.a(fundamental_type_info.o)
 .group         0x00000000        0x8 d:/devkitpro/devkitarm/bin/../lib/gcc/arm-eabi/4.5.1/../../../../arm-eabi/lib\libstdc++.a(fundamental_type_info.o)
 .group         0x00000000        0x8 d:/devkitpro/devkitarm/bin/../lib/gcc/arm-eabi/4.5.1/../../../../arm-eabi/lib\libstdc++.a(fundamental_type_info.o)
 .group         0x00000000        0x8 d:/devkitpro/devkitarm/bin/../lib/gcc/arm-eabi/4.5.1/../../../../arm-eabi/lib\libstdc++.a(fundamental_type_info.o)
 .group         0x00000000        0x8 d:/devkitpro/devkitarm/bin/../lib/gcc/arm-eabi/4.5.1/../../../../arm-eabi/lib\libstdc++.a(fundamental_type_info.o)
 .group         0x00000000        0x8 d:/devkitpro/devkitarm/bin/../lib/gcc/arm-eabi/4.5.1/../../../../arm-eabi/lib\libstdc++.a(fundamental_type_info.o)
 .group         0x00000000        0x8 d:/devkitpro/devkitarm/bin/../lib/gcc/arm-eabi/4.5.1/../../../../arm-eabi/lib\libstdc++.a(fundamental_type_info.o)
 .group         0x00000000        0x8 d:/devkitpro/devkitarm/bin/../lib/gcc/arm-eabi/4.5.1/../../../../arm-eabi/lib\libstdc++.a(fundamental_type_info.o)
 .group         0x00000000        0x8 d:/devkitpro/devkitarm/bin/../lib/gcc/arm-eabi/4.5.1/../../../../arm-eabi/lib\libstdc++.a(fundamental_type_info.o)
 .group         0x00000000        0x8 d:/devkitpro/devkitarm/bin/../lib/gcc/arm-eabi/4.5.1/../../../../arm-eabi/lib\libstdc++.a(fundamental_type_info.o)
 .group         0x00000000        0x8 d:/devkitpro/devkitarm/bin/../lib/gcc/arm-eabi/4.5.1/../../../../arm-eabi/lib\libstdc++.a(fundamental_type_info.o)
 .group         0x00000000        0x8 d:/devkitpro/devkitarm/bin/../lib/gcc/arm-eabi/4.5.1/../../../../arm-eabi/lib\libstdc++.a(fundamental_type_info.o)
 .group         0x00000000        0x8 d:/devkitpro/devkitarm/bin/../lib/gcc/arm-eabi/4.5.1/../../../../arm-eabi/lib\libstdc++.a(fundamental_type_info.o)
 .group         0x00000000        0x8 d:/devkitpro/devkitarm/bin/../lib/gcc/arm-eabi/4.5.1/../../../../arm-eabi/lib\libstdc++.a(fundamental_type_info.o)
 .group         0x00000000        0x8 d:/devkitpro/devkitarm/bin/../lib/gcc/arm-eabi/4.5.1/../../../../arm-eabi/lib\libstdc++.a(fundamental_type_info.o)
 .group         0x00000000        0x8 d:/devkitpro/devkitarm/bin/../lib/gcc/arm-eabi/4.5.1/../../../../arm-eabi/lib\libstdc++.a(fundamental_type_info.o)
 .group         0x00000000        0x8 d:/devkitpro/devkitarm/bin/../lib/gcc/arm-eabi/4.5.1/../../../../arm-eabi/lib\libstdc++.a(fundamental_type_info.o)
 .group         0x00000000        0x8 d:/devkitpro/devkitarm/bin/../lib/gcc/arm-eabi/4.5.1/../../../../arm-eabi/lib\libstdc++.a(fundamental_type_info.o)
 .group         0x00000000        0x8 d:/devkitpro/devkitarm/bin/../lib/gcc/arm-eabi/4.5.1/../../../../arm-eabi/lib\libstdc++.a(fundamental_type_info.o)
 .group         0x00000000        0x8 d:/devkitpro/devkitarm/bin/../lib/gcc/arm-eabi/4.5.1/../../../../arm-eabi/lib\libstdc++.a(fundamental_type_info.o)
 .group         0x00000000        0x8 d:/devkitpro/devkitarm/bin/../lib/gcc/arm-eabi/4.5.1/../../../../arm-eabi/lib\libstdc++.a(fundamental_type_info.o)
 .group         0x00000000        0x8 d:/devkitpro/devkitarm/bin/../lib/gcc/arm-eabi/4.5.1/../../../../arm-eabi/lib\libstdc++.a(fundamental_type_info.o)
 .group         0x00000000        0x8 d:/devkitpro/devkitarm/bin/../lib/gcc/arm-eabi/4.5.1/../../../../arm-eabi/lib\libstdc++.a(fundamental_type_info.o)
 .group         0x00000000        0x8 d:/devkitpro/devkitarm/bin/../lib/gcc/arm-eabi/4.5.1/../../../../arm-eabi/lib\libstdc++.a(fundamental_type_info.o)
 .group         0x00000000        0x8 d:/devkitpro/devkitarm/bin/../lib/gcc/arm-eabi/4.5.1/../../../../arm-eabi/lib\libstdc++.a(fundamental_type_info.o)
 .group         0x00000000        0x8 d:/devkitpro/devkitarm/bin/../lib/gcc/arm-eabi/4.5.1/../../../../arm-eabi/lib\libstdc++.a(fundamental_type_info.o)
 .group         0x00000000        0x8 d:/devkitpro/devkitarm/bin/../lib/gcc/arm-eabi/4.5.1/../../../../arm-eabi/lib\libstdc++.a(fundamental_type_info.o)
 .group         0x00000000        0x8 d:/devkitpro/devkitarm/bin/../lib/gcc/arm-eabi/4.5.1/../../../../arm-eabi/lib\libstdc++.a(fundamental_type_info.o)
 .group         0x00000000        0x8 d:/devkitpro/devkitarm/bin/../lib/gcc/arm-eabi/4.5.1/../../../../arm-eabi/lib\libstdc++.a(fundamental_type_info.o)
 .group         0x00000000        0x8 d:/devkitpro/devkitarm/bin/../lib/gcc/arm-eabi/4.5.1/../../../../arm-eabi/lib\libstdc++.a(fundamental_type_info.o)
 .group         0x00000000        0x8 d:/devkitpro/devkitarm/bin/../lib/gcc/arm-eabi/4.5.1/../../../../arm-eabi/lib\libstdc++.a(fundamental_type_info.o)
 .group         0x00000000        0x8 d:/devkitpro/devkitarm/bin/../lib/gcc/arm-eabi/4.5.1/../../../../arm-eabi/lib\libstdc++.a(fundamental_type_info.o)
 .group         0x00000000        0x8 d:/devkitpro/devkitarm/bin/../lib/gcc/arm-eabi/4.5.1/../../../../arm-eabi/lib\libstdc++.a(fundamental_type_info.o)
 .group         0x00000000        0x8 d:/devkitpro/devkitarm/bin/../lib/gcc/arm-eabi/4.5.1/../../../../arm-eabi/lib\libstdc++.a(fundamental_type_info.o)
 .group         0x00000000        0x8 d:/devkitpro/devkitarm/bin/../lib/gcc/arm-eabi/4.5.1/../../../../arm-eabi/lib\libstdc++.a(fundamental_type_info.o)
 .group         0x00000000        0x8 d:/devkitpro/devkitarm/bin/../lib/gcc/arm-eabi/4.5.1/../../../../arm-eabi/lib\libstdc++.a(fundamental_type_info.o)
 .group         0x00000000        0x8 d:/devkitpro/devkitarm/bin/../lib/gcc/arm-eabi/4.5.1/../../../../arm-eabi/lib\libstdc++.a(fundamental_type_info.o)
 .group         0x00000000        0x8 d:/devkitpro/devkitarm/bin/../lib/gcc/arm-eabi/4.5.1/../../../../arm-eabi/lib\libstdc++.a(fundamental_type_info.o)
 .group         0x00000000        0x8 d:/devkitpro/devkitarm/bin/../lib/gcc/arm-eabi/4.5.1/../../../../arm-eabi/lib\libstdc++.a(fundamental_type_info.o)
 .group         0x00000000        0x8 d:/devkitpro/devkitarm/bin/../lib/gcc/arm-eabi/4.5.1/../../../../arm-eabi/lib\libstdc++.a(fundamental_type_info.o)
 .group         0x00000000        0x8 d:/devkitpro/devkitarm/bin/../lib/gcc/arm-eabi/4.5.1/../../../../arm-eabi/lib\libstdc++.a(fundamental_type_info.o)
 .group         0x00000000        0x8 d:/devkitpro/devkitarm/bin/../lib/gcc/arm-eabi/4.5.1/../../../../arm-eabi/lib\libstdc++.a(fundamental_type_info.o)
 .group         0x00000000        0x8 d:/devkitpro/devkitarm/bin/../lib/gcc/arm-eabi/4.5.1/../../../../arm-eabi/lib\libstdc++.a(fundamental_type_info.o)
 .group         0x00000000        0x8 d:/devkitpro/devkitarm/bin/../lib/gcc/arm-eabi/4.5.1/../../../../arm-eabi/lib\libstdc++.a(fundamental_type_info.o)
 .group         0x00000000        0x8 d:/devkitpro/devkitarm/bin/../lib/gcc/arm-eabi/4.5.1/../../../../arm-eabi/lib\libstdc++.a(fundamental_type_info.o)
 .group         0x00000000        0x8 d:/devkitpro/devkitarm/bin/../lib/gcc/arm-eabi/4.5.1/../../../../arm-eabi/lib\libstdc++.a(fundamental_type_info.o)
 .group         0x00000000        0x8 d:/devkitpro/devkitarm/bin/../lib/gcc/arm-eabi/4.5.1/../../../../arm-eabi/lib\libstdc++.a(fundamental_type_info.o)
 .group         0x00000000        0x8 d:/devkitpro/devkitarm/bin/../lib/gcc/arm-eabi/4.5.1/../../../../arm-eabi/lib\libstdc++.a(fundamental_type_info.o)
 .group         0x00000000        0x8 d:/devkitpro/devkitarm/bin/../lib/gcc/arm-eabi/4.5.1/../../../../arm-eabi/lib\libstdc++.a(fundamental_type_info.o)
 .group         0x00000000        0x8 d:/devkitpro/devkitarm/bin/../lib/gcc/arm-eabi/4.5.1/../../../../arm-eabi/lib\libstdc++.a(fundamental_type_info.o)
 .group         0x00000000        0x8 d:/devkitpro/devkitarm/bin/../lib/gcc/arm-eabi/4.5.1/../../../../arm-eabi/lib\libstdc++.a(fundamental_type_info.o)
 .group         0x00000000        0x8 d:/devkitpro/devkitarm/bin/../lib/gcc/arm-eabi/4.5.1/../../../../arm-eabi/lib\libstdc++.a(fundamental_type_info.o)
 .group         0x00000000        0x8 d:/devkitpro/devkitarm/bin/../lib/gcc/arm-eabi/4.5.1/../../../../arm-eabi/lib\libstdc++.a(fundamental_type_info.o)
 .group         0x00000000        0x8 d:/devkitpro/devkitarm/bin/../lib/gcc/arm-eabi/4.5.1/../../../../arm-eabi/lib\libstdc++.a(fundamental_type_info.o)
 .group         0x00000000        0x8 d:/devkitpro/devkitarm/bin/../lib/gcc/arm-eabi/4.5.1/../../../../arm-eabi/lib\libstdc++.a(fundamental_type_info.o)
 .group         0x00000000        0x8 d:/devkitpro/devkitarm/bin/../lib/gcc/arm-eabi/4.5.1/../../../../arm-eabi/lib\libstdc++.a(fundamental_type_info.o)
 .group         0x00000000        0x8 d:/devkitpro/devkitarm/bin/../lib/gcc/arm-eabi/4.5.1/../../../../arm-eabi/lib\libstdc++.a(fundamental_type_info.o)
 .group         0x00000000        0x8 d:/devkitpro/devkitarm/bin/../lib/gcc/arm-eabi/4.5.1/../../../../arm-eabi/lib\libstdc++.a(fundamental_type_info.o)
 .group         0x00000000        0x8 d:/devkitpro/devkitarm/bin/../lib/gcc/arm-eabi/4.5.1/../../../../arm-eabi/lib\libstdc++.a(fundamental_type_info.o)
 .group         0x00000000        0x8 d:/devkitpro/devkitarm/bin/../lib/gcc/arm-eabi/4.5.1/../../../../arm-eabi/lib\libstdc++.a(fundamental_type_info.o)
 .group         0x00000000        0x8 d:/devkitpro/devkitarm/bin/../lib/gcc/arm-eabi/4.5.1/../../../../arm-eabi/lib\libstdc++.a(fundamental_type_info.o)
 .group         0x00000000        0x8 d:/devkitpro/devkitarm/bin/../lib/gcc/arm-eabi/4.5.1/../../../../arm-eabi/lib\libstdc++.a(fundamental_type_info.o)
 .group         0x00000000        0x8 d:/devkitpro/devkitarm/bin/../lib/gcc/arm-eabi/4.5.1/../../../../arm-eabi/lib\libstdc++.a(fundamental_type_info.o)
 .group         0x00000000        0x8 d:/devkitpro/devkitarm/bin/../lib/gcc/arm-eabi/4.5.1/../../../../arm-eabi/lib\libstdc++.a(fundamental_type_info.o)
 .group         0x00000000        0x8 d:/devkitpro/devkitarm/bin/../lib/gcc/arm-eabi/4.5.1/../../../../arm-eabi/lib\libstdc++.a(fundamental_type_info.o)
 .group         0x00000000        0x8 d:/devkitpro/devkitarm/bin/../lib/gcc/arm-eabi/4.5.1/../../../../arm-eabi/lib\libstdc++.a(fundamental_type_info.o)
 .group         0x00000000        0x8 d:/devkitpro/devkitarm/bin/../lib/gcc/arm-eabi/4.5.1/../../../../arm-eabi/lib\libstdc++.a(fundamental_type_info.o)
 .group         0x00000000       0x10 d:/devkitpro/devkitarm/bin/../lib/gcc/arm-eabi/4.5.1/../../../../arm-eabi/lib\libstdc++.a(pbase_type_info.o)

Memory Configuration

Name             Origin             Length             Attributes
rom              0x08000000         0x02000000
ewram            0x02000000         0x003ff000
dtcm             0x0b000000         0x00004000
vectors          0x01000000         0x00000100
itcm             0x01000100         0x00007f00
*default*        0x00000000         0xffffffff

Linker script and memory map

                0x01000000                __vectors_start = 0x1000000
                0x01000100                __itcm_start = 0x1000100
                0x023ff000                __ewram_end = 0x23ff000
                0x023ff000                __eheap_end = 0x23ff000
                0x0b000000                __dtcm_start = 0xb000000
                0x0b004000                __dtcm_top = 0xb004000
                0x0b003ff8                __irq_flags = (__dtcm_top - 0x8)
                0x0b003ffc                __irq_vector = (__dtcm_top - 0x4)
                0x0b003f00                __sp_svc = (__dtcm_top - 0x100)
                0x0b003e00                __sp_irq = (__sp_svc - 0x100)
                0x0b003d00                __sp_usr = (__sp_irq - 0x100)

.init           0x02000000      0x248
                0x02000000                __text_start = .
 *(.init)
 .init          0x02000000      0x230 d:/devkitpro/devkitarm/bin/../lib/gcc/arm-eabi/4.5.1/../../../../arm-eabi/lib/ds_arm9_crt0.o
                0x02000000                _start
 .init          0x02000230        0xc d:/devkitpro/devkitarm/bin/../lib/gcc/arm-eabi/4.5.1/crti.o
                0x02000230                _init
 .init          0x0200023c        0xc d:/devkitpro/devkitarm/bin/../lib/gcc/arm-eabi/4.5.1/crtn.o
                0x02000248                . = ALIGN (0x4)

.plt
 *(.plt)

.text           0x02000250    0x3f8b0
 *(EXCLUDE_FILE(*.itcm*) .text)
 .text          0x02000250        0x0 d:/devkitpro/devkitarm/bin/../lib/gcc/arm-eabi/4.5.1/../../../../arm-eabi/lib/ds_arm9_crt0.o
 .text          0x02000250        0x0 d:/devkitpro/devkitarm/bin/../lib/gcc/arm-eabi/4.5.1/crti.o
 .text          0x02000250       0x94 d:/devkitpro/devkitarm/bin/../lib/gcc/arm-eabi/4.5.1/crtbegin.o
 .text          0x020002e4        0x0 ball.png.o
 .text          0x020002e4      0x1c0 CBall.o
                0x020002e4                CBall::CBall(int, int, int, int)
                0x020002e4                CBall::CBall(int, int, int, int)
                0x02000380                CBall::~CBall()
                0x02000380                CBall::~CBall()
                0x020003b4                CBall::handle()
                0x02000480                CBall::draw()
 .text          0x020004a4      0x1f4 main.o
                0x020004a4                main
 .text          0x02000698      0x15c d:/devkitPro/libnds/lib\libul.a(ulib.o)
                0x02000698                _initSinTables
                0x02000784                ulInit
                0x020007bc                ulTerminate
                0x020007c0                ulGetPowerOf2Count
 .text          0x020007f4     0x148c d:/devkitPro/libnds/lib\libul.a(drawing.o)
                0x020007f4                ulInitGfx
                0x02000868                ulInitDualScreenMode
                0x0200099c                ulStopDualScreenMode
                0x020009b0                ulSetRegCapture
                0x02000a14                ulEndDrawing
                0x02000a44                ulSetScreenWindow
                0x02000ce4                ulSetScreenClipping
                0x02000f88                ulResetScreenClipping
                0x020011ec                ulEndFrame
                0x02001318                ulSyncFrame
                0x02001354                ulResetScreenView
                0x02001598                ulStartDrawing2D
                0x0200164c                ulMoveScreenView
                0x02001664                ulScaleScreenView
                0x0200167c                ulRotateScreenView
                0x020016dc                ulSetAlpha
                0x020016fc                ulRealizeImage
                0x02001860                ulSetTexture
                0x020018d0                ulResetImageProperties
                0x02001920                ulDeleteImage
                0x020019a0                ulCreateImage
                0x02001c0c                ulSetScreenBackgroundColor
                0x02001c18                ulSetTransparentColor
 .text          0x02001c80      0xa58 d:/devkitPro/libnds/lib\libul.a(text.o)
                0x02001c80                ulDrawChar1BitToImage
                0x02001dd4                ulCreateFont
                0x020020dc                ulLoadFont
                0x02002284                ulDeleteFont
                0x020022b0                ulDrawTile
                0x020023a8                ulDrawChar
                0x02002454                ulDrawString
                0x02002528                ulDrawTextBox
                0x02002690                ulSetTextColor
                0x020026a0                ulInitText
 .text          0x020026d8      0x5fc d:/devkitPro/libnds/lib\libul.a(VirtualFile.o)
                0x020026d8                vfsMemClose
                0x020026e0                vfsMemGetc
                0x02002724                vfsMemPutc
                0x02002770                vfsMemGets
                0x0200291c                vfsMemSeek
                0x02002990                vfsMemEof
                0x020029a8                vfsMemPuts
                0x020029e4                vfsMemRead
                0x02002a38                vfsMemWrite
                0x02002a94                VirtualFileRegisterSource
                0x02002ac4                VirtualFileOpen
                0x02002b60                VirtualFileClose
                0x02002b98                ulSetVirtualFilenameList
                0x02002bb4                ulFindFileInVirtualFilenameList
                0x02002c44                vfsMemOpen
                0x02002c84                VirtualFileInit
 .text          0x02002cd4      0x8c0 d:/devkitPro/libnds/lib\libul.a(texVramManager.o)
                0x02002cd4                ulTexVramInit
                0x02002d34                ulTexVramAllocBlock
                0x02002e9c                ulTexVramFreeBlock
                0x02002fec                ulTexImage2D
                0x020031f0                ulInitTextures
                0x02003244                ulGetNextAvailableTexture
                0x02003328                ulGenTextures
                0x02003380                ulFreeTextures
                0x020033e4                ulTexParameter
                0x0200341c                ulBindTexture
                0x02003444                ulBindTextureToGl
                0x02003480                ulSetTexVramParameters
                0x02003520                ulGetTexVramAvailMemory
                0x0200354c                ulGetTexVramTotalMemory
                0x0200355c                ulGetTexVramUsedMemory
 .text          0x02003594      0x584 d:/devkitPro/libnds/lib\libul.a(texPalManager.o)
                0x02003594                ulTexPalInit
                0x020035f4                ulTexPalAllocBlock
                0x02003804                ulTexPalFreeBlock
                0x02003954                uluTexUnloadPal
                0x0200395c                ulTexLoadPal
                0x020039a8                uluTexLoadPal
                0x02003a04                ulSetTexPalVramParameters
                0x02003aa4                ulGetTexPalAvailMemory
                0x02003ad0                ulGetTexPalTotalMemory
                0x02003ae0                ulGetTexPalUsedMemory
 .text          0x02003b18      0x190 d:/devkitPro/libnds/lib\libul.a(keys.o)
                0x02003b18                ulReadKeys
 .text          0x02003ca8      0x348 d:/devkitPro/libnds/lib\libul.a(ulDrawImage.o)
                0x02003ca8                ulDrawImage
 .text          0x02003ff0       0xe8 d:/devkitPro/libnds/lib\libul.a(ulCreateImagePalette.o)
                0x02003ff0                ulCreateImagePalette
 .text          0x020040d8       0xbc d:/devkitPro/libnds/lib\libul.a(ulDrawGradientRect.o)
                0x020040d8                ulDrawGradientRect
 .text          0x02004194       0x68 d:/devkitPro/libnds/lib\libul.a(ulLoadImageFilePNG.o)
                0x02004194                ulLoadImageFilePNG
 .text          0x020041fc      0xb54 d:/devkitPro/libnds/lib\libul.a(ulShowSplashScreen1.o)
                0x020041fc                ul_splash1_applyMask
                0x0200429c                ul_splash1_createCircle
                0x02004358                ul_splash1_createMaskedImage
                0x02004468                ul_splash1_handleFade
                0x020044cc                ul_splash1_drawFade
                0x02004530                ul_splash1_fadeTerminated
                0x02004568                ul_splash1_drawBackText
                0x020045f4                ul_splash1_fillSecondScreen
                0x02004738                ulShowSplashScreen1
 .text          0x02004d50      0x65c d:/devkitPro/libnds/lib\libul.a(ulShowSplashScreen2.o)
                0x02004d50                ul_neoflashlogo_LogoDrawTiles
                0x02004e98                ulShowSplashScreen2
 .text          0x020053ac       0x7c d:/devkitPro/libnds/lib\libul.a(glWrapper.o)
                0x020053ac                ulChangeVramAllocation
 .text          0x02005428      0x97c d:/devkitPro/libnds/lib\libul.a(libLoadPng.o)
                0x0200550c                ulLoadImagePNG
 .text          0x02005da4       0x94 d:/devkitPro/libnds/lib\libul.a(ulDrawFillRect.o)
                0x02005da4                ulDrawFillRect
 .text          0x02005e38       0xb8 d:/devkitPro/libnds/lib\libul.a(ulSetImagePixel.o)
                0x02005e38                ulSetImagePixel
 .text          0x02005ef0       0xa8 d:/devkitPro/libnds/lib\libul.a(ulGetImagePixel.o)
                0x02005ef0                ulGetImagePixel
 .text          0x02005f98      0x124 d:/devkitPro/libnds/lib\libul.a(textSize.o)
                0x02005f98                ulGetStringWidth
                0x02005fcc                ulGetTextBoxHeight
 .text          0x020060bc        0x0 d:/devkitPro/libnds/lib\libul.a(loading_utility.o)
 .text          0x020060bc       0x68 d:/devkitPro/libnds/lib\libul.a(ulLoadImageFileJPG.o)
                0x020060bc                ulLoadImageFileJPG
 .text          0x02006124       0x68 d:/devkitPro/libnds/lib\libul.a(ulLoadImageFileGIF.o)
                0x02006124                ulLoadImageFileGIF
 .text          0x0200618c       0xf8 d:/devkitPro/libnds/lib\libul.a(libLoadJpg.o)
                0x0200618c                ulLoadImageJPG
 .text          0x02006284      0x65c d:/devkitPro/libnds/lib\libul.a(libLoadGif.o)
                0x02006284                fnGifReadFunc
                0x020062b8                fnCopyLine
                0x020063e8                DGifGetLineByte
                0x02006430                ulLoadImageGIF
 .text          0x020068e0     0x1198 d:/devkitPro/libnds/lib\libul.a(dgif_lib.o)
                0x02006e40                DGifGetScreenDesc
                0x02006ffc                DGifOpen
                0x02007124                DGifGetRecordType
                0x020071e4                DGifGetImageDesc
                0x02007548                DGifGetExtensionNext
                0x02007614                DGifGetExtension
                0x020076a4                DGifCloseFile
                0x02007768                DGifGetCodeNext
                0x0200783c                DGifGetCode
                0x02007880                DGifGetPixel
                0x0200792c                DGifGetLine
                0x020079c4                DGifGetLZCodes
 .text          0x02007a78       0x18 d:/devkitPro/libnds/lib\libul.a(gif_err.o)
                0x02007a78                GifLastError
 .text          0x02007a90      0x610 d:/devkitPro/libnds/lib\libul.a(gifalloc.o)
                0x02007a90                BitSize
                0x02007ab4                MakeMapObject
                0x02007b24                FreeMapObject
                0x02007b44                UnionColorMap
                0x02007d1c                ApplyTranslation
                0x02007d54                MakeExtension
                0x02007d5c                AddExtensionBlock
                0x02007e08                FreeExtension
                0x02007e5c                FreeLastSavedImage
                0x02007ec8                MakeSavedImage
                0x02008018                FreeSavedImages
 .text          0x020080a0       0xc0 d:/devkitPro/libnds/lib\libul.a(ulReadEntireFileToMemory.o)
                0x020080a0                ulReadEntireFileToMemory
 .text          0x02008160     0x198c d:/devkitPro/libnds/lib\libul.a(gba-jpeg-decode.o)
                0x02008bc0                JPEG_IDCT
                0x02008be8                JPEG_HuffmanTable_Read
                0x02008e00                JPEG_HuffmanTable_Skip
                0x02008e30                JPEG_Decoder_ReadImage
                0x020095ec                JPEG_FrameHeader_Read
                0x020096a4                JPEG_ScanHeader_Read
                0x02009740                JPEG_Decoder_ReadHeaders
                0x02009a48                JPEG_DecompressImage
                0x02009aac                JPEG_Match
 .text          0x02009aec      0xa58 d:/devkitPro/libnds/lib\libpng.a(png.o)
                0x02009aec                png_data_freer
                0x02009b24                png_get_io_ptr
                0x02009b30                png_init_io
                0x02009b3c                png_get_copyright
                0x02009b48                png_get_libpng_ver
                0x02009b54                png_get_header_ver
                0x02009b60                png_get_header_version
                0x02009b6c                png_access_version_number
                0x02009b78                png_mmx_support
                0x02009b80                png_64bit_product
                0x02009bcc                png_check_cHRM_fixed
                0x02009cc8                png_reset_zstream
                0x02009cec                png_handle_as_unknown
                0x02009d54                png_sig_cmp
                0x02009dc8                png_check_sig
                0x02009df0                png_zalloc
                0x02009e44                png_convert_to_rfc1123
                0x02009f08                png_zfree
                0x02009f20                png_free_data
                0x0200a354                png_info_init_3
                0x0200a394                png_info_destroy
                0x0200a3f0                png_info_init
                0x0200a418                png_destroy_info_struct
                0x0200a464                png_create_info_struct
                0x0200a4ac                png_calculate_crc
                0x0200a4f0                png_reset_crc
                0x0200a514                png_set_sig_bytes
 .text          0x0200a544     0x1a04 d:/devkitPro/libnds/lib\libpng.a(pngread.o)
                0x0200a544                png_set_read_status_fn
                0x0200a550                png_read_destroy
                0x0200a79c                png_destroy_read_struct
                0x0200a87c                png_read_end
                0x0200ad24                png_start_read_image
                0x0200ad4c                png_read_row
                0x0200b1a4                png_read_image
                0x0200b208                png_read_rows
                0x0200b2d4                png_read_update_info
                0x0200b30c                png_read_info
                0x0200b87c                png_read_png
                0x0200ba4c                png_read_init_3
                0x0200bba0                png_read_init_2
                0x0200bc68                png_read_init
                0x0200bc7c                png_create_read_struct_2
                0x0200bf20                png_create_read_struct
 .text          0x0200bf48       0xa0 d:/devkitPro/libnds/lib\libpng.a(pngrio.o)
                0x0200bf48                png_set_read_fn
                0x0200bf7c                png_default_read_data
                0x0200bfb8                png_read_data
 .text          0x0200bfe8     0x5814 d:/devkitPro/libnds/lib\libpng.a(pngrtran.o)
                0x0200bfe8                png_set_crc_action
                0x0200c090                png_set_strip_16
                0x0200c0a4                png_set_strip_alpha
                0x0200c0b8                png_set_gamma
                0x0200c174                png_set_expand
                0x0200c19c                png_set_palette_to_rgb
                0x0200c1c4                png_set_expand_gray_1_2_4_to_8
                0x0200c1e8                png_set_gray_1_2_4_to_8
                0x0200c200                png_set_tRNS_to_alpha
                0x0200c220                png_set_gray_to_rgb
                0x0200c23c                png_set_rgb_to_gray_fixed
                0x0200c33c                png_set_rgb_to_gray
                0x0200c3d8                png_set_read_user_transform_fn
                0x0200c3f0                png_read_transform_info
                0x0200c648                png_do_unpack
                0x0200c798                png_do_unshift
                0x0200c9b0                png_do_chop
                0x0200ca08                png_do_read_swap_alpha
                0x0200cb48                png_do_read_invert_alpha
                0x0200cc48                png_do_read_filler
                0x0200cf40                png_do_gray_to_rgb
                0x0200d134                png_do_rgb_to_gray
                0x0200d7d0                png_build_grayscale_palette
                0x0200d884                png_do_gamma
                0x0200dcd0                png_do_expand_palette
                0x0200df70                png_do_expand
                0x0200e3ec                png_do_dither
                0x0200e560                png_do_read_intrapixel
                0x0200e674                png_build_gamma_table
                0x0200ed90                png_init_read_transformations
                0x0200fac8                png_do_background
                0x02010afc                png_set_background
                0x02010b64                png_do_read_transformations
                0x02010fd0                png_set_dither
 .text          0x020117fc      0x270 d:/devkitPro/libnds/lib\libpng.a(pngmem.o)
                0x020117fc                png_set_mem_fn
                0x02011810                png_get_mem_ptr
                0x0201181c                png_memset_check
                0x02011840                png_memcpy_check
                0x02011864                png_free_default
                0x02011888                png_free
                0x020118cc                png_destroy_struct_2
                0x02011910                png_destroy_struct
                0x0201191c                png_malloc_default
                0x02011944                png_malloc
                0x020119a8                png_malloc_warn
                0x020119dc                png_create_struct_2
                0x02011a60                png_create_struct
 .text          0x02011a6c      0x128 d:/devkitPro/libnds/lib\libpng.a(pngerror.o)
                0x02011a6c                png_set_error_fn
                0x02011a80                png_get_error_ptr
                0x02011a8c                png_set_strip_error_numbers
                0x02011aa4                png_err
 .text          0x02011b94      0xb28 d:/devkitPro/libnds/lib\libpng.a(pngget.o)
                0x02011b94                png_get_valid
                0x02011bb0                png_get_rowbytes
                0x02011bc8                png_get_rows
                0x02011be0                png_get_image_width
                0x02011bf8                png_get_image_height
                0x02011c10                png_get_bit_depth
                0x02011c28                png_get_color_type
                0x02011c40                png_get_filter_type
                0x02011c58                png_get_interlace_type
                0x02011c70                png_get_compression_type
                0x02011c88                png_get_x_pixels_per_meter
                0x02011cb8                png_get_y_pixels_per_meter
                0x02011ce8                png_get_pixels_per_meter
                0x02011d24                png_get_pixel_aspect_ratio
                0x02011d84                png_get_x_offset_microns
                0x02011db4                png_get_y_offset_microns
                0x02011de4                png_get_x_offset_pixels
                0x02011e14                png_get_y_offset_pixels
                0x02011e44                png_get_channels
                0x02011e5c                png_get_signature
                0x02011e74                png_get_bKGD
                0x02011eac                png_get_cHRM
                0x02011fa8                png_get_cHRM_fixed
                0x0201204c                png_get_gAMA
                0x02012098                png_get_gAMA_fixed
                0x020120d0                png_get_sRGB
                0x02012108                png_get_iCCP
                0x0201217c                png_get_sPLT
                0x020121a4                png_get_hIST
                0x020121dc                png_get_oFFs
                0x02012244                png_get_pCAL
                0x020122f0                png_get_sCAL
                0x0201234c                png_get_pHYs
                0x020123ac                png_get_PLTE
                0x020123f4                png_get_sBIT
                0x0201242c                png_get_text
                0x0201247c                png_get_tIME
                0x020124b4                png_get_tRNS
                0x02012548                png_get_unknown_chunks
                0x02012570                png_get_rgb_to_gray_status
                0x0201257c                png_get_user_chunk_ptr
                0x02012588                png_get_asm_flags
                0x02012590                png_get_asm_flagmask
                0x02012598                png_get_mmx_flagmask
                0x020125a8                png_get_mmx_bitdepth_threshold
                0x020125b0                png_get_mmx_rowbytes_threshold
                0x020125b8                png_get_user_width_max
                0x020125c4                png_get_user_height_max
                0x020125d0                png_get_IHDR
 .text          0x020126bc     0x32c0 d:/devkitPro/libnds/lib\libpng.a(pngrutil.o)
                0x020126bc                png_get_uint_32
                0x020126dc                png_get_int_32
                0x020126fc                png_get_uint_16
                0x02012714                png_read_filter_row
                0x020128e0                png_check_chunk_name
                0x02012998                png_get_uint_31
                0x020129c8                png_read_start_row
                0x02012cd8                png_crc_error
                0x02012d60                png_do_read_interlace
                0x02013168                png_combine_row
                0x02013420                png_decompress_chunk
                0x02013774                png_crc_read
                0x020137a4                png_crc_finish
                0x0201382c                png_handle_IEND
                0x0201386c                png_read_finish_row
                0x02013ac0                png_handle_unknown
                0x02013c24                png_handle_zTXt
                0x02013dac                png_handle_tEXt
                0x02013ee0                png_handle_tIME
                0x02013fc0                png_handle_sCAL
                0x02014184                png_handle_pCAL
                0x02014444                png_handle_oFFs
                0x02014524                png_handle_pHYs
                0x02014604                png_handle_hIST
                0x020146f4                png_handle_bKGD
                0x02014898                png_handle_tRNS
                0x02014a30                png_handle_sPLT
                0x02014c88                png_handle_iCCP
                0x02014e38                png_handle_sRGB
                0x02014f28                png_handle_cHRM
                0x020153fc                png_handle_sBIT
                0x02015508                png_handle_gAMA
                0x0201564c                png_handle_PLTE
                0x020157ac                png_handle_IHDR
                0x02015904                png_read_chunk_header
 .text          0x0201597c      0x704 d:/devkitPro/libnds/lib\libpng.a(pngtrans.o)
                0x0201597c                png_set_bgr
                0x02015990                png_set_swap
                0x020159b0                png_set_packing
                0x020159d8                png_set_packswap
                0x020159f8                png_set_shift
                0x02015a30                png_set_interlace_handling
                0x02015a60                png_set_filler
                0x02015ac8                png_set_add_alpha
                0x02015aec                png_set_swap_alpha
                0x02015b00                png_set_invert_alpha
                0x02015b14                png_set_invert_mono
                0x02015b28                png_do_invert
                0x02015be4                png_do_swap
                0x02015c28                png_do_packswap
                0x02015c88                png_do_strip_filler
                0x02015f3c                png_do_bgr
                0x02016060                png_set_user_transform_info
                0x02016074                png_get_user_transform_ptr
 .text          0x02016080     0x1438 d:/devkitPro/libnds/lib\libpng.a(pngset.o)
                0x02016080                png_set_cHRM
                0x02016288                png_set_gAMA
                0x02016320                png_set_gAMA_fixed
                0x02016378                png_set_oFFs
                0x020163a8                png_set_sCAL
                0x020163ec                png_set_pHYs
                0x0201641c                png_set_sRGB
                0x02016438                png_set_unknown_chunk_location
                0x02016470                png_permit_empty_plte
                0x0201648c                png_permit_mng_features
                0x020164a0                png_set_read_user_chunk_fn
                0x020164b0                png_set_invalid
                0x020164c8                png_set_asm_flags
                0x020164d8                png_set_mmx_thresholds
                0x020164dc                png_set_user_limits
                0x020164ec                png_set_rows
                0x02016548                png_set_tRNS
                0x02016600                png_set_tIME
                0x02016644                png_set_sBIT
                0x0201667c                png_set_bKGD
                0x020166b4                png_set_keep_unknown_chunks
                0x020167b0                png_set_unknown_chunks
                0x020168bc                png_set_hIST
                0x02016970                png_set_sPLT
                0x02016ab8                png_set_text_2
                0x02016c98                png_set_iCCP
                0x02016d80                png_set_text
                0x02016da0                png_set_IHDR
                0x02016fac                png_set_cHRM_fixed
                0x02017128                png_set_sRGB_gAMA_and_cHRM
                0x0201729c                png_set_PLTE
                0x0201735c                png_set_pCAL
 .text          0x020174b8      0x934 d:/devkitPro/libnds/lib\libz.a(crc32.o)
                0x020174b8                get_crc_table
                0x020174c4                crc32
                0x02017c08                crc32_combine
 .text          0x02017dec     0x1e8c d:/devkitPro/libnds/lib\libz.a(inflate.o)
                0x02017dec                inflateReset
                0x02017e68                inflatePrime
                0x02017ec4                inflateInit2_
                0x02017fe0                inflateInit_
                0x02017ff0                inflateEnd
                0x02018058                inflateGetHeader
                0x02018094                inflateSync
                0x02018238                inflateSyncPoint
                0x02018274                inflateCopy
                0x0201853c                inflateSetDictionary
                0x02018634                inflate
 .text          0x02019c78      0x590 d:/devkitPro/libnds/lib\libz.a(inftrees.o)
                0x02019c78                inflate_table
 .text          0x0201a208      0x570 d:/devkitPro/libnds/lib\libz.a(inffast.o)
                0x0201a208                inflate_fast
 .text          0x0201a778      0x3fc d:/devkitPro/libnds/lib\libz.a(adler32.o)
                0x0201a778                adler32
                0x0201aab8                adler32_combine
 .text          0x0201ab74       0x60 d:/devkitPro/libnds/lib\libz.a(zutil.o)
                0x0201ab74                zlibVersion
                0x0201ab80                zlibCompileFlags
                0x0201ab88                zError
                0x0201ab9c                zcfree
                0x0201abb8                zcalloc
 .text          0x0201abd4       0x94 d:/devkitPro/libnds/lib\libnds9.a(dynamicArray.o)
                0x0201abd4                DynamicArrayInit
                0x0201abec                DynamicArrayDelete
                0x0201ac00                DynamicArrayGet
                0x0201ac1c                DynamicArraySet
 .text          0x0201ac68       0xf8 d:/devkitPro/libnds/lib\libnds9.a(keys.o)
                0x0201ac68                scanKeys
                0x0201acd8                keysHeld
                0x0201ace4                keysDown
                0x0201acf4                keysDownRepeat
                0x0201ad04                keysSetRepeat
                0x0201ad1c                keysUp
                0x0201ad2c                keysCurrent
 .text          0x0201ad60       0xf4 d:/devkitPro/libnds/lib\libnds9.a(system.o)
                0x0201ad60                systemMsgHandler
                0x0201ada4                systemSleep
                0x0201adbc                powerValueHandler
                0x0201adcc                powerOn
                0x0201adf8                powerOff
                0x0201ae20                ledBlink
                0x0201ae34                getBatteryLevel
 .text          0x0201ae54       0x4c d:/devkitPro/libnds/lib\libnds9.a(touch.o)
                0x0201ae54                touchRead
                0x0201ae7c                touchReadXY
 .text          0x0201aea0      0x238 d:/devkitPro/libnds/lib\libnds9.a(trig.o)
                0x0201aea0                asinComp
                0x0201aec4                sinLutLookup
                0x0201af00                sinLerp
                0x0201af34                cosLerp
                0x0201af4c                tanLutLookup
                0x0201af84                tanLerp
                0x0201b034                asinLerp
                0x0201b09c                acosLerp
                0x0201b0b4                atanComp
 .text          0x0201b0d8     0x14b8 d:/devkitPro/libnds/lib\libnds9.a(videoGL.o)
                0x0201b0d8                glGetGlobals
                0x0201b0e0                glRotatef32i
                0x0201b3bc                glMaterialf
                0x0201b42c                glTexCoord2f32
                0x0201b4a0                vramBlock_init
                0x0201b50c                vramBlock_Construct
                0x0201b534                vramBlock_terminate
                0x0201b560                vramBlock_Deconstruct
                0x0201b574                vramBlock__allocateBlock
                0x0201b6d4                vramBlock__deallocateBlock
                0x0201b7ec                vramBlock_examineSpecial
                0x0201ba28                vramBlock_allocateSpecial
                0x0201ba94                vramBlock_allocateBlock
                0x0201bacc                vramBlock_deallocateBlock
                0x0201bb10                vramBlock_deallocateAll
                0x0201bb20                vramBlock_getAddr
                0x0201bb34                vramBlock_getSize
                0x0201bb48                glInit_C
                0x0201bce8                glResetTextures
                0x0201bd70                removePaletteFromTexture
                0x0201bde0                glGenTextures
                0x0201be7c                glDeleteTextures
                0x0201bf54                vramGetBank
                0x0201c014                glBindTexture
                0x0201c078                glColorTableEXT
                0x0201c1e0                glAssignColorTable
                0x0201c254                glTexParameter
                0x0201c28c                glGetTexturePointer
                0x0201c2ac                glGetTexParameter
                0x0201c2cc                glTexImage2D
 .text          0x0201c590      0x14c d:/devkitPro/libnds/lib\libnds9.a(initSystem.o)
                0x0201c590                initSystem
 .text          0x0201c6dc      0xc98 d:/devkitPro/libnds/lib\libnds9.a(fifosystem.o)
                0x0201c94c                fifoSendAddress
                0x0201c978                fifoSendValue32
                0x0201c9b8                fifoSendDatamsg
                0x0201ca30                fifoGetAddress
                0x0201caa0                fifoSetAddressHandler
                0x0201cb14                fifoGetValue32
                0x0201cb80                fifoSetValue32Handler
                0x0201cbf4                fifoGetDatamsg
                0x0201d084                fifoSetDatamsgHandler
                0x0201d11c                fifoCheckAddress
                0x0201d140                fifoCheckDatamsg
                0x0201d164                fifoCheckValue32
                0x0201d188                fifoInit
 .text          0x0201d374      0x1cc d:/devkitPro/libnds/lib\libnds9.a(interrupts.o)
                0x0201d374                irqDummy
                0x0201d378                irqSet
                0x0201d3e4                irqInit
                0x0201d430                irqInitHandler
                0x0201d460                irqEnable
                0x0201d4c0                irqDisable
                0x0201d514                irqClear
 .text          0x0201d540       0x40 d:/devkitPro/libnds/lib\libnds9.a(libnds_exit.o)
                0x0201d540                systemErrorExit
                0x0201d544                __libnds_exit
 .text          0x0201d580      0x1b4 d:/devkitPro/libnds/lib\libnds9.a(mpu_setup.o)
                0x0201d580                __libnds_mpu_setup
                0x0201d6c0                memCached
                0x0201d6d8                memUncached
 *fill*         0x0201d734        0xc ff
 .text          0x0201d740       0x70 d:/devkitPro/libnds/lib\libnds9.a(biosCalls.o)
                0x0201d740                swiDelay
                0x0201d744                swiIntrWait
                0x0201d748                swiWaitForVBlank
                0x0201d74c                swiSleep
                0x0201d750                swiChangeSoundBias
                0x0201d754                swiDivide
                0x0201d758                swiRemainder
                0x0201d75e                swiDivMod
                0x0201d76a                swiCopy
                0x0201d76e                swiFastCopy
                0x0201d772                swiSqrt
                0x0201d776                swiCRC16
                0x0201d77a                swiIsDebugger
                0x0201d77e                swiUnpackBits
                0x0201d782                swiDecompressLZSSWram
                0x0201d786                swiDecompressLZSSVramNTR
                0x0201d78a                swiDecompressLZSSVramTWL
                0x0201d78e                swiDecompressHuffman
                0x0201d792                swiDecompressRLEWram
                0x0201d796                swiDecompressRLEVram
                0x0201d79a                swiWaitForIRQ
                0x0201d79e                swiDecodeDelta8
                0x0201d7a2                swiDecodeDelta16
                0x0201d7a6                swiSetHaltCR
 .text          0x0201d7b0        0x0 d:/devkitPro/libnds/lib\libnds9.a(interruptDispatcher.o)
 .text          0x0201d7b0       0x30 d:/devkitPro/libnds/lib\libnds9.a(swiSoftReset.o)
                0x0201d7b0                swiSoftReset
 .text          0x0201d7e0      0x148 d:/devkitPro/libnds/lib\libnds9.a(video.o)
                0x0201d7e0                vramSetPrimaryBanks
                0x0201d824                vramSetMainBanks
                0x0201d868                vramSetBanks_EFG
                0x0201d8a0                vramRestorePrimaryBanks
                0x0201d8ac                vramRestoreMainBanks
                0x0201d8b8                vramRestoreBanks_EFG
                0x0201d8c4                setBrightness
                0x0201d904                vramDefault
 .text          0x0201d928        0x0 d:/devkitpro/devkitarm/bin/../lib/gcc/arm-eabi/4.5.1/../../../../arm-eabi/lib\libstdc++.a(new_op.o)
 .text          0x0201d928        0x0 d:/devkitpro/devkitarm/bin/../lib/gcc/arm-eabi/4.5.1/../../../../arm-eabi/lib\libstdc++.a(eh_alloc.o)
 .text          0x0201d928       0x10 d:/devkitpro/devkitarm/bin/../lib/gcc/arm-eabi/4.5.1/../../../../arm-eabi/lib\libstdc++.a(eh_arm.o)
                0x0201d928                __cxa_end_cleanup
 .text          0x0201d938        0x0 d:/devkitpro/devkitarm/bin/../lib/gcc/arm-eabi/4.5.1/../../../../arm-eabi/lib\libstdc++.a(eh_aux_runtime.o)
 .text          0x0201d938        0x0 d:/devkitpro/devkitarm/bin/../lib/gcc/arm-eabi/4.5.1/../../../../arm-eabi/lib\libstdc++.a(eh_call.o)
 .text          0x0201d938        0x0 d:/devkitpro/devkitarm/bin/../lib/gcc/arm-eabi/4.5.1/../../../../arm-eabi/lib\libstdc++.a(eh_catch.o)
 .text          0x0201d938        0x0 d:/devkitpro/devkitarm/bin/../lib/gcc/arm-eabi/4.5.1/../../../../arm-eabi/lib\libstdc++.a(eh_exception.o)
 .text          0x0201d938        0x0 d:/devkitpro/devkitarm/bin/../lib/gcc/arm-eabi/4.5.1/../../../../arm-eabi/lib\libstdc++.a(eh_globals.o)
 .text          0x0201d938        0x0 d:/devkitpro/devkitarm/bin/../lib/gcc/arm-eabi/4.5.1/../../../../arm-eabi/lib\libstdc++.a(eh_personality.o)
 .text          0x0201d938        0x0 d:/devkitpro/devkitarm/bin/../lib/gcc/arm-eabi/4.5.1/../../../../arm-eabi/lib\libstdc++.a(eh_terminate.o)
 .text          0x0201d938        0x0 d:/devkitpro/devkitarm/bin/../lib/gcc/arm-eabi/4.5.1/../../../../arm-eabi/lib\libstdc++.a(eh_term_handler.o)
 .text          0x0201d938        0x0 d:/devkitpro/devkitarm/bin/../lib/gcc/arm-eabi/4.5.1/../../../../arm-eabi/lib\libstdc++.a(eh_throw.o)
 .text          0x0201d938        0x0 d:/devkitpro/devkitarm/bin/../lib/gcc/arm-eabi/4.5.1/../../../../arm-eabi/lib\libstdc++.a(eh_unex_handler.o)
 .text          0x0201d938        0x0 d:/devkitpro/devkitarm/bin/../lib/gcc/arm-eabi/4.5.1/../../../../arm-eabi/lib\libstdc++.a(fundamental_type_info.o)
 .text          0x0201d938        0x0 d:/devkitpro/devkitarm/bin/../lib/gcc/arm-eabi/4.5.1/../../../../arm-eabi/lib\libstdc++.a(new_handler.o)
 .text          0x0201d938        0x0 d:/devkitpro/devkitarm/bin/../lib/gcc/arm-eabi/4.5.1/../../../../arm-eabi/lib\libstdc++.a(pointer_type_info.o)
 .text          0x0201d938        0x0 d:/devkitpro/devkitarm/bin/../lib/gcc/arm-eabi/4.5.1/../../../../arm-eabi/lib\libstdc++.a(pure.o)
 .text          0x0201d938        0x0 d:/devkitpro/devkitarm/bin/../lib/gcc/arm-eabi/4.5.1/../../../../arm-eabi/lib\libstdc++.a(si_class_type_info.o)
 .text          0x0201d938        0x0 d:/devkitpro/devkitarm/bin/../lib/gcc/arm-eabi/4.5.1/../../../../arm-eabi/lib\libstdc++.a(tinfo.o)
 .text          0x0201d938        0x0 d:/devkitpro/devkitarm/bin/../lib/gcc/arm-eabi/4.5.1/../../../../arm-eabi/lib\libstdc++.a(vterminate.o)
 .text          0x0201d938        0x0 d:/devkitpro/devkitarm/bin/../lib/gcc/arm-eabi/4.5.1/../../../../arm-eabi/lib\libstdc++.a(bad_cast.o)
 .text          0x0201d938        0x0 d:/devkitpro/devkitarm/bin/../lib/gcc/arm-eabi/4.5.1/../../../../arm-eabi/lib\libstdc++.a(bad_typeid.o)
 .text          0x0201d938        0x0 d:/devkitpro/devkitarm/bin/../lib/gcc/arm-eabi/4.5.1/../../../../arm-eabi/lib\libstdc++.a(class_type_info.o)
 .text          0x0201d938     0x7138 d:/devkitpro/devkitarm/bin/../lib/gcc/arm-eabi/4.5.1/../../../../arm-eabi/lib\libstdc++.a(cp-demangle.o)
                0x020248f8                __cxa_demangle
                0x02024a40                __gcclibcxx_demangle_callback
 .text          0x02024a70        0x0 d:/devkitpro/devkitarm/bin/../lib/gcc/arm-eabi/4.5.1/../../../../arm-eabi/lib\libstdc++.a(del_op.o)
 .text          0x02024a70        0x0 d:/devkitpro/devkitarm/bin/../lib/gcc/arm-eabi/4.5.1/../../../../arm-eabi/lib\libstdc++.a(eh_type.o)
 .text          0x02024a70        0x0 d:/devkitpro/devkitarm/bin/../lib/gcc/arm-eabi/4.5.1/../../../../arm-eabi/lib\libstdc++.a(pbase_type_info.o)
 .text          0x02024a70      0x104 d:/devkitpro/devkitarm/bin/../lib/gcc/arm-eabi/4.5.1/../../../../arm-eabi/lib\libm.a(lib_a-s_cos.o)
                0x02024a70                cos
 .text          0x02024b74      0x110 d:/devkitpro/devkitarm/bin/../lib/gcc/arm-eabi/4.5.1/../../../../arm-eabi/lib\libm.a(lib_a-s_sin.o)
                0x02024b74                sin
 .text          0x02024c84      0x520 d:/devkitpro/devkitarm/bin/../lib/gcc/arm-eabi/4.5.1/../../../../arm-eabi/lib\libm.a(lib_a-w_pow.o)
                0x02024c84                pow
 *fill*         0x020251a4        0x4 ff
 .text          0x020251a8      0xff8 d:/devkitpro/devkitarm/bin/../lib/gcc/arm-eabi/4.5.1/../../../../arm-eabi/lib\libm.a(lib_a-e_pow.o)
                0x020251a8                __ieee754_pow
 .text          0x020261a0      0x678 d:/devkitpro/devkitarm/bin/../lib/gcc/arm-eabi/4.5.1/../../../../arm-eabi/lib\libm.a(lib_a-e_rem_pio2.o)
                0x020261a0                __ieee754_rem_pio2
 .text          0x02026818      0x238 d:/devkitpro/devkitarm/bin/../lib/gcc/arm-eabi/4.5.1/../../../../arm-eabi/lib\libm.a(lib_a-e_sqrt.o)
                0x02026818                __ieee754_sqrt
 .text          0x02026a50      0x358 d:/devkitpro/devkitarm/bin/../lib/gcc/arm-eabi/4.5.1/../../../../arm-eabi/lib\libm.a(lib_a-k_cos.o)
                0x02026a50                __kernel_cos
 .text          0x02026da8      0xb08 d:/devkitpro/devkitarm/bin/../lib/gcc/arm-eabi/4.5.1/../../../../arm-eabi/lib\libm.a(lib_a-k_rem_pio2.o)
                0x02026da8                __kernel_rem_pio2
 .text          0x020278b0      0x218 d:/devkitpro/devkitarm/bin/../lib/gcc/arm-eabi/4.5.1/../../../../arm-eabi/lib\libm.a(lib_a-k_sin.o)
                0x020278b0                __kernel_sin
 .text          0x02027ac8       0x14 d:/devkitpro/devkitarm/bin/../lib/gcc/arm-eabi/4.5.1/../../../../arm-eabi/lib\libm.a(lib_a-s_fabs.o)
                0x02027ac8                fabs
 .text          0x02027adc       0x14 d:/devkitpro/devkitarm/bin/../lib/gcc/arm-eabi/4.5.1/../../../../arm-eabi/lib\libm.a(lib_a-s_finite.o)
                0x02027adc                finite
 .text          0x02027af0      0x198 d:/devkitpro/devkitarm/bin/../lib/gcc/arm-eabi/4.5.1/../../../../arm-eabi/lib\libm.a(lib_a-s_floor.o)
                0x02027af0                floor
 .text          0x02027c88       0x8c d:/devkitpro/devkitarm/bin/../lib/gcc/arm-eabi/4.5.1/../../../../arm-eabi/lib\libm.a(lib_a-s_fpclassify.o)
                0x02027c88                __fpclassifyd
 .text          0x02027d14        0x0 d:/devkitpro/devkitarm/bin/../lib/gcc/arm-eabi/4.5.1/../../../../arm-eabi/lib\libm.a(lib_a-s_lib_ver.o)
 .text          0x02027d14        0x8 d:/devkitpro/devkitarm/bin/../lib/gcc/arm-eabi/4.5.1/../../../../arm-eabi/lib\libm.a(lib_a-s_matherr.o)
                0x02027d14                matherr
 .text          0x02027d1c       0x10 d:/devkitpro/devkitarm/bin/../lib/gcc/arm-eabi/4.5.1/../../../../arm-eabi/lib\libm.a(lib_a-s_nan.o)
                0x02027d1c                nan
 .text          0x02027d2c      0x19c d:/devkitpro/devkitarm/bin/../lib/gcc/arm-eabi/4.5.1/../../../../arm-eabi/lib\libm.a(lib_a-s_rint.o)
                0x02027d2c                rint
 .text          0x02027ec8      0x1a8 d:/devkitpro/devkitarm/bin/../lib/gcc/arm-eabi/4.5.1/../../../../arm-eabi/lib\libm.a(lib_a-s_scalbn.o)
                0x02027ec8                scalbn
 .text          0x02028070       0x24 d:/devkitpro/devkitarm/bin/../lib/gcc/arm-eabi/4.5.1/../../../../arm-eabi/lib\libm.a(lib_a-s_copysign.o)
                0x02028070                copysign
 .text          0x02028094      0x114 d:/devkitpro/devkitarm/bin/../lib/gcc/arm-eabi/4.5.1\libgcc.a(_udivsi3.o)
                0x02028094                __aeabi_uidiv
                0x02028094                __udivsi3
                0x02028188                __aeabi_uidivmod
 .text          0x020281a8      0x148 d:/devkitpro/devkitarm/bin/../lib/gcc/arm-eabi/4.5.1\libgcc.a(_divsi3.o)
                0x020281a8                __divsi3
                0x020281a8                __aeabi_idiv
                0x020282d0                __aeabi_idivmod
 .text          0x020282f0        0x4 d:/devkitpro/devkitarm/bin/../lib/gcc/arm-eabi/4.5.1\libgcc.a(_dvmd_tls.o)
                0x020282f0                __aeabi_idiv0
                0x020282f0                __aeabi_ldiv0
 .text          0x020282f4      0x41c d:/devkitpro/devkitarm/bin/../lib/gcc/arm-eabi/4.5.1\libgcc.a(_arm_addsubdf3.o)
                0x020282f4                __aeabi_drsub
                0x020282fc                __aeabi_dsub
                0x020282fc                __subdf3
                0x02028300                __aeabi_dadd
                0x02028300                __adddf3
                0x02028610                __floatunsidf
                0x02028610                __aeabi_ui2d
                0x02028634                __floatsidf
                0x02028634                __aeabi_i2d
                0x0202865c                __aeabi_f2d
                0x0202865c                __extendsfdf2
                0x0202869c                __floatundidf
                0x0202869c                __aeabi_ul2d
                0x020286b0                __floatdidf
                0x020286b0                __aeabi_l2d
 .text          0x02028710      0x49c d:/devkitpro/devkitarm/bin/../lib/gcc/arm-eabi/4.5.1\libgcc.a(_arm_muldivdf3.o)
                0x02028710                __aeabi_dmul
                0x02028710                __muldf3
                0x020289a0                __divdf3
                0x020289a0                __aeabi_ddiv
 .text          0x02028bac      0x144 d:/devkitpro/devkitarm/bin/../lib/gcc/arm-eabi/4.5.1\libgcc.a(_arm_cmpdf2.o)
                0x02028bac                __gtdf2
                0x02028bac                __gedf2
                0x02028bb4                __ltdf2
                0x02028bb4                __ledf2
                0x02028bbc                __nedf2
                0x02028bbc                __eqdf2
                0x02028bbc                __cmpdf2
                0x02028c44                __aeabi_cdrcmple
                0x02028c60                __aeabi_cdcmpeq
                0x02028c60                __aeabi_cdcmple
                0x02028c78                __aeabi_dcmpeq
                0x02028c90                __aeabi_dcmplt
                0x02028ca8                __aeabi_dcmple
                0x02028cc0                __aeabi_dcmpge
                0x02028cd8                __aeabi_dcmpgt
 .text          0x02028cf0       0x5c d:/devkitpro/devkitarm/bin/../lib/gcc/arm-eabi/4.5.1\libgcc.a(_arm_fixdfsi.o)
                0x02028cf0                __aeabi_d2iz
                0x02028cf0                __fixdfsi
 .text          0x02028d4c       0x54 d:/devkitpro/devkitarm/bin/../lib/gcc/arm-eabi/4.5.1\libgcc.a(_arm_fixunsdfsi.o)
                0x02028d4c                __aeabi_d2uiz
                0x02028d4c                __fixunsdfsi
 .text          0x02028da0       0xa0 d:/devkitpro/devkitarm/bin/../lib/gcc/arm-eabi/4.5.1\libgcc.a(_arm_truncdfsf2.o)
                0x02028da0                __truncdfsf2
                0x02028da0                __aeabi_d2f
 .text          0x02028e40      0x2ac d:/devkitpro/devkitarm/bin/../lib/gcc/arm-eabi/4.5.1\libgcc.a(_arm_addsubsf3.o)
                0x02028e40                __aeabi_frsub
                0x02028e48                __subsf3
                0x02028e48                __aeabi_fsub
                0x02028e4c                __aeabi_fadd
                0x02028e4c                __addsf3
                0x02029008                __aeabi_ui2f
                0x02029008                __floatunsisf
                0x02029010                __aeabi_i2f
                0x02029010                __floatsisf
                0x02029030                __aeabi_ul2f
                0x02029030                __floatundisf
                0x02029040                __aeabi_l2f
                0x02029040                __floatdisf
 .text          0x020290ec      0x2f8 d:/devkitpro/devkitarm/bin/../lib/gcc/arm-eabi/4.5.1\libgcc.a(_arm_muldivsf3.o)
                0x020290ec                __mulsf3
                0x020290ec                __aeabi_fmul
                0x02029284                __aeabi_fdiv
                0x02029284                __divsf3
 .text          0x020293e4      0x114 d:/devkitpro/devkitarm/bin/../lib/gcc/arm-eabi/4.5.1\libgcc.a(_arm_cmpsf2.o)
                0x020293e4                __gesf2
                0x020293e4                __gtsf2
                0x020293ec                __lesf2
                0x020293ec                __ltsf2
                0x020293f4                __nesf2
                0x020293f4                __eqsf2
                0x020293f4                __cmpsf2
                0x02029458                __aeabi_cfrcmple
                0x02029468                __aeabi_cfcmpeq
                0x02029468                __aeabi_cfcmple
                0x02029480                __aeabi_fcmpeq
                0x02029498                __aeabi_fcmplt
                0x020294b0                __aeabi_fcmple
                0x020294c8                __aeabi_fcmpge
                0x020294e0                __aeabi_fcmpgt
 .text          0x020294f8       0x5c d:/devkitpro/devkitarm/bin/../lib/gcc/arm-eabi/4.5.1\libgcc.a(_arm_fixsfsi.o)
                0x020294f8                __aeabi_f2iz
                0x020294f8                __fixsfsi
 .text          0x02029554       0x54 d:/devkitpro/devkitarm/bin/../lib/gcc/arm-eabi/4.5.1\libgcc.a(_arm_fixunssfsi.o)
                0x02029554                __fixunssfsi
                0x02029554                __aeabi_f2uiz
 .text          0x020295a8       0x48 d:/devkitpro/devkitarm/bin/../lib/gcc/arm-eabi/4.5.1\libgcc.a(_muldi3.o)
                0x020295a8                __muldi3
                0x020295a8                __aeabi_lmul
 .text          0x020295f0      0xf3c d:/devkitpro/devkitarm/bin/../lib/gcc/arm-eabi/4.5.1\libgcc.a(unwind-arm.o)
                0x02029a28                _Unwind_VRS_Get
                0x02029a9c                _Unwind_VRS_Set
                0x02029f08                __aeabi_unwind_cpp_pr2
                0x02029f10                __aeabi_unwind_cpp_pr1
                0x02029f18                __aeabi_unwind_cpp_pr0
                0x02029f20                _Unwind_VRS_Pop
                0x0202a2bc                _Unwind_GetCFA
                0x0202a2c4                __gnu_Unwind_RaiseException
                0x0202a378                __gnu_Unwind_ForcedUnwind
                0x0202a39c                __gnu_Unwind_Resume
                0x0202a408                __gnu_Unwind_Resume_or_Rethrow
                0x0202a428                _Unwind_Complete
                0x0202a42c                _Unwind_DeleteException
                0x0202a450                __gnu_Unwind_Backtrace
 .text          0x0202a52c      0x1b0 d:/devkitpro/devkitarm/bin/../lib/gcc/arm-eabi/4.5.1\libgcc.a(libunwind.o)
                0x0202a52c                __restore_core_regs
                0x0202a52c                restore_core_regs
                0x0202a548                __gnu_Unwind_Restore_VFP
                0x0202a550                __gnu_Unwind_Save_VFP
                0x0202a558                __gnu_Unwind_Restore_VFP_D
                0x0202a560                __gnu_Unwind_Save_VFP_D
                0x0202a568                __gnu_Unwind_Restore_VFP_D_16_to_31
                0x0202a570                __gnu_Unwind_Save_VFP_D_16_to_31
                0x0202a578                __gnu_Unwind_Restore_WMMXD
                0x0202a5bc                __gnu_Unwind_Save_WMMXD
                0x0202a600                __gnu_Unwind_Restore_WMMXC
                0x0202a614                __gnu_Unwind_Save_WMMXC
                0x0202a628                ___Unwind_RaiseException
                0x0202a628                _Unwind_RaiseException
                0x0202a64c                _Unwind_Resume
                0x0202a64c                ___Unwind_Resume
                0x0202a670                _Unwind_Resume_or_Rethrow
                0x0202a670                ___Unwind_Resume_or_Rethrow
                0x0202a694                _Unwind_ForcedUnwind
                0x0202a694                ___Unwind_ForcedUnwind
                0x0202a6b8                ___Unwind_Backtrace
                0x0202a6b8                _Unwind_Backtrace
 .text          0x0202a6dc      0x554 d:/devkitpro/devkitarm/bin/../lib/gcc/arm-eabi/4.5.1\libgcc.a(pr-support.o)
                0x0202a77c                __gnu_unwind_execute
                0x0202aba4                __gnu_unwind_frame
                0x0202abec                _Unwind_GetRegionStart
                0x0202ac00                _Unwind_GetLanguageSpecificData
                0x0202ac20                _Unwind_GetDataRelBase
                0x0202ac28                _Unwind_GetTextRelBase
 .text          0x0202ac30       0x14 d:/devkitpro/devkitarm/bin/../lib/gcc/arm-eabi/4.5.1/../../../../arm-eabi/lib\libg.a(lib_a-abort.o)
                0x0202ac30                abort
 .text          0x0202ac44       0x7c d:/devkitpro/devkitarm/bin/../lib/gcc/arm-eabi/4.5.1/../../../../arm-eabi/lib\libg.a(lib_a-bsearch.o)
                0x0202ac44                bsearch
 .text          0x0202acc0       0x28 d:/devkitpro/devkitarm/bin/../lib/gcc/arm-eabi/4.5.1/../../../../arm-eabi/lib\libg.a(lib_a-calloc.o)
                0x0202acc0                calloc
 .text          0x0202ace8       0x9c d:/devkitpro/devkitarm/bin/../lib/gcc/arm-eabi/4.5.1/../../../../arm-eabi/lib\libg.a(lib_a-callocr.o)
                0x0202ace8                _calloc_r
 .text          0x0202ad84       0x10 d:/devkitpro/devkitarm/bin/../lib/gcc/arm-eabi/4.5.1/../../../../arm-eabi/lib\libg.a(lib_a-errno.o)
                0x0202ad84                __errno
 .text          0x0202ad94      0x10c d:/devkitpro/devkitarm/bin/../lib/gcc/arm-eabi/4.5.1/../../../../arm-eabi/lib\libg.a(lib_a-fclose.o)
                0x0202ad94                _fclose_r
                0x0202ae8c                fclose
 .text          0x0202aea0      0x298 d:/devkitpro/devkitarm/bin/../lib/gcc/arm-eabi/4.5.1/../../../../arm-eabi/lib\libg.a(lib_a-fflush.o)
                0x0202aea0                _fflush_r
                0x0202b0f8                fflush
 .text          0x0202b138      0x334 d:/devkitpro/devkitarm/bin/../lib/gcc/arm-eabi/4.5.1/../../../../arm-eabi/lib\libg.a(lib_a-findfp.o)
                0x0202b148                _cleanup_r
                0x0202b160                __sfmoreglue
                0x0202b1a8                _cleanup
                0x0202b1b8                __sinit
                0x0202b320                __sfp
                0x0202b414                __sfp_lock_acquire
                0x0202b418                __sfp_lock_release
                0x0202b41c                __sinit_lock_acquire
                0x0202b420                __sinit_lock_release
                0x0202b424                __fp_lock_all
                0x0202b448                __fp_unlock_all
 .text          0x0202b46c       0x70 d:/devkitpro/devkitarm/bin/../lib/gcc/arm-eabi/4.5.1/../../../../arm-eabi/lib\libg.a(lib_a-fprintf.o)
                0x0202b46c                _fprintf_r
                0x0202b49c                fprintf
 .text          0x0202b4dc       0x94 d:/devkitpro/devkitarm/bin/../lib/gcc/arm-eabi/4.5.1/../../../../arm-eabi/lib\libg.a(lib_a-fputc.o)
                0x0202b4dc                _fputc_r
                0x0202b520                fputc
 .text          0x0202b570       0xa8 d:/devkitpro/devkitarm/bin/../lib/gcc/arm-eabi/4.5.1/../../../../arm-eabi/lib\libg.a(lib_a-fputs.o)
                0x0202b570                _fputs_r
                0x0202b5fc                fputs
 .text          0x0202b618      0x270 d:/devkitpro/devkitarm/bin/../lib/gcc/arm-eabi/4.5.1/../../../../arm-eabi/lib\libg.a(lib_a-fread.o)
                0x0202b618                _fread_r
                0x0202b844                fread
 .text          0x0202b888      0x360 d:/devkitpro/devkitarm/bin/../lib/gcc/arm-eabi/4.5.1/../../../../arm-eabi/lib\libg.a(lib_a-freer.o)
                0x0202b888                _malloc_trim_r
                0x0202b984                _free_r
 .text          0x0202bbe8      0x4ac d:/devkitpro/devkitarm/bin/../lib/gcc/arm-eabi/4.5.1/../../../../arm-eabi/lib\libg.a(lib_a-fvwrite.o)
                0x0202bbe8                __sfvwrite_r
 .text          0x0202c094      0x10c d:/devkitpro/devkitarm/bin/../lib/gcc/arm-eabi/4.5.1/../../../../arm-eabi/lib\libg.a(lib_a-fwalk.o)
                0x0202c094                _fwalk
                0x0202c118                _fwalk_reent
 .text          0x0202c1a0       0xec d:/devkitpro/devkitarm/bin/../lib/gcc/arm-eabi/4.5.1/../../../../arm-eabi/lib\libg.a(lib_a-fwrite.o)
                0x0202c1a0                _fwrite_r
                0x0202c248                fwrite
 .text          0x0202c28c        0x0 d:/devkitpro/devkitarm/bin/../lib/gcc/arm-eabi/4.5.1/../../../../arm-eabi/lib\libg.a(lib_a-impure.o)
 .text          0x0202c28c       0xc4 d:/devkitpro/devkitarm/bin/../lib/gcc/arm-eabi/4.5.1/../../../../arm-eabi/lib\libg.a(lib_a-init.o)
                0x0202c28c                __libc_init_array
                0x0202c30c                __libc_fini_array
 .text          0x0202c350       0x40 d:/devkitpro/devkitarm/bin/../lib/gcc/arm-eabi/4.5.1/../../../../arm-eabi/lib\libg.a(lib_a-malloc.o)
                0x0202c350                malloc
                0x0202c370                free
 .text          0x0202c390      0x710 d:/devkitpro/devkitarm/bin/../lib/gcc/arm-eabi/4.5.1/../../../../arm-eabi/lib\libg.a(lib_a-mallocr.o)
                0x0202c390                _malloc_r
 .text          0x0202caa0      0x108 d:/devkitpro/devkitarm/bin/../lib/gcc/arm-eabi/4.5.1/../../../../arm-eabi/lib\libg.a(lib_a-memchr.o)
                0x0202caa0                memchr
 .text          0x0202cba8       0xa8 d:/devkitpro/devkitarm/bin/../lib/gcc/arm-eabi/4.5.1/../../../../arm-eabi/lib\libg.a(lib_a-memcmp.o)
                0x0202cba8                memcmp
 .text          0x0202cc50       0xf8 d:/devkitpro/devkitarm/bin/../lib/gcc/arm-eabi/4.5.1/../../../../arm-eabi/lib\libg.a(lib_a-memcpy.o)
                0x0202cc50                memcpy
 .text          0x0202cd48      0x138 d:/devkitpro/devkitarm/bin/../lib/gcc/arm-eabi/4.5.1/../../../../arm-eabi/lib\libg.a(lib_a-memmove.o)
                0x0202cd48                memmove
 .text          0x0202ce80      0x100 d:/devkitpro/devkitarm/bin/../lib/gcc/arm-eabi/4.5.1/../../../../arm-eabi/lib\libg.a(lib_a-memset.o)
                0x0202ce80                memset
 .text          0x0202cf80        0x8 d:/devkitpro/devkitarm/bin/../lib/gcc/arm-eabi/4.5.1/../../../../arm-eabi/lib\libg.a(lib_a-mlock.o)
                0x0202cf80                __malloc_lock
                0x0202cf84                __malloc_unlock
 .text          0x0202cf88      0x168 d:/devkitpro/devkitarm/bin/../lib/gcc/arm-eabi/4.5.1/../../../../arm-eabi/lib\libg.a(lib_a-putc.o)
                0x0202cf88                _putc_r
                0x0202d034                putc
 .text          0x0202d0f0       0x78 d:/devkitpro/devkitarm/bin/../lib/gcc/arm-eabi/4.5.1/../../../../arm-eabi/lib\libg.a(lib_a-rand.o)
                0x0202d0f0                srand
                0x0202d10c                rand
 .text          0x0202d168       0x28 d:/devkitpro/devkitarm/bin/../lib/gcc/arm-eabi/4.5.1/../../../../arm-eabi/lib\libg.a(lib_a-realloc.o)
                0x0202d168                realloc
 .text          0x0202d190      0x5c0 d:/devkitpro/devkitarm/bin/../lib/gcc/arm-eabi/4.5.1/../../../../arm-eabi/lib\libg.a(lib_a-reallocr.o)
                0x0202d190                _realloc_r
 .text          0x0202d750      0x1d0 d:/devkitpro/devkitarm/bin/../lib/gcc/arm-eabi/4.5.1/../../../../arm-eabi/lib\libg.a(lib_a-refill.o)
                0x0202d778                __srefill_r
 .text          0x0202d920       0x2c d:/devkitpro/devkitarm/bin/../lib/gcc/arm-eabi/4.5.1/../../../../arm-eabi/lib\libg.a(lib_a-setjmp.o)
                0x0202d920                setjmp
                0x0202d934                longjmp
 .text          0x0202d94c      0x238 d:/devkitpro/devkitarm/bin/../lib/gcc/arm-eabi/4.5.1/../../../../arm-eabi/lib\libg.a(lib_a-signal.o)
                0x0202d94c                _init_signal_r
                0x0202d9a0                _signal_r
                0x0202da08                _raise_r
                0x0202da9c                __sigtramp_r
                0x0202db30                raise
                0x0202db44                signal
                0x0202db60                _init_signal
                0x0202db70                __sigtramp
 .text          0x0202db84      0x130 d:/devkitpro/devkitarm/bin/../lib/gcc/arm-eabi/4.5.1/../../../../arm-eabi/lib\libg.a(lib_a-snprintf.o)
                0x0202db84                _snprintf_r
                0x0202dc18                snprintf
 .text          0x0202dcb4       0xdc d:/devkitpro/devkitarm/bin/../lib/gcc/arm-eabi/4.5.1/../../../../arm-eabi/lib\libg.a(lib_a-sprintf.o)
                0x0202dcb4                _sprintf_r
                0x0202dd1c                sprintf
 .text          0x0202dd90       0xe0 d:/devkitpro/devkitarm/bin/../lib/gcc/arm-eabi/4.5.1/../../../../arm-eabi/lib\libg.a(lib_a-stdio.o)
                0x0202dd90                __sread
                0x0202ddc4                __seofread
                0x0202ddcc                __swrite
                0x0202de24                __sseek
                0x0202de5c                __sclose
 .text          0x0202de70      0x230 d:/devkitpro/devkitarm/bin/../lib/gcc/arm-eabi/4.5.1/../../../../arm-eabi/lib\libg.a(lib_a-strcmp.o)
                0x0202de70                strcmp
 .text          0x0202e0a0       0xf0 d:/devkitpro/devkitarm/bin/../lib/gcc/arm-eabi/4.5.1/../../../../arm-eabi/lib\libg.a(lib_a-strcpy.o)
                0x0202e0a0                strcpy
 .text          0x0202e190       0x60 d:/devkitpro/devkitarm/bin/../lib/gcc/arm-eabi/4.5.1/../../../../arm-eabi/lib\libg.a(lib_a-strlen.o)
                0x0202e190                strlen
 .text          0x0202e1f0      0x170 d:/devkitpro/devkitarm/bin/../lib/gcc/arm-eabi/4.5.1/../../../../arm-eabi/lib\libg.a(lib_a-strncmp.o)
                0x0202e1f0                strncmp
 .text          0x0202e360     0x16a0 d:/devkitpro/devkitarm/bin/../lib/gcc/arm-eabi/4.5.1/../../../../arm-eabi/lib\libg.a(lib_a-strtod.o)
                0x0202e3a8                _strtod_r
                0x0202f994                strtod
                0x0202f9b0                strtof
 .text          0x0202fa00     0x233c d:/devkitpro/devkitarm/bin/../lib/gcc/arm-eabi/4.5.1/../../../../arm-eabi/lib\libg.a(lib_a-svfprintf.o)
                0x0202fa00                _svfprintf_r
 .text          0x02031d3c       0x30 d:/devkitpro/devkitarm/bin/../lib/gcc/arm-eabi/4.5.1/../../../../arm-eabi/lib\libg.a(lib_a-syswrite.o)
                0x02031d3c                write
 .text          0x02031d6c     0x2588 d:/devkitpro/devkitarm/bin/../lib/gcc/arm-eabi/4.5.1/../../../../arm-eabi/lib\libg.a(lib_a-vfprintf.o)
                0x02031d6c                _vfprintf_r
                0x020342c8                vfprintf
 .text          0x020342f4      0x15c d:/devkitpro/devkitarm/bin/../lib/gcc/arm-eabi/4.5.1/../../../../arm-eabi/lib\libg.a(lib_a-wbuf.o)
                0x020342f4                __swbuf_r
                0x02034434                __swbuf
 .text          0x02034450      0x14c d:/devkitpro/devkitarm/bin/../lib/gcc/arm-eabi/4.5.1/../../../../arm-eabi/lib\libg.a(lib_a-wcrtomb.o)
                0x02034450                _wcrtomb_r
                0x020344ec                wcrtomb
 .text          0x0203459c       0x68 d:/devkitpro/devkitarm/bin/../lib/gcc/arm-eabi/4.5.1/../../../../arm-eabi/lib\libg.a(lib_a-wcsrtombs.o)
                0x0203459c                _wcsrtombs_r
                0x020345c4                wcsrtombs
 .text          0x02034604      0x3a8 d:/devkitpro/devkitarm/bin/../lib/gcc/arm-eabi/4.5.1/../../../../arm-eabi/lib\libg.a(lib_a-wctomb_r.o)
                0x02034604                __utf8_wctomb
                0x02034720                _wctomb_r
                0x02034770                __ascii_wctomb
                0x0203479c                __sjis_wctomb
                0x0203481c                __eucjp_wctomb
                0x020348d4                __jis_wctomb
 .text          0x020349ac      0x134 d:/devkitpro/devkitarm/bin/../lib/gcc/arm-eabi/4.5.1/../../../../arm-eabi/lib\libg.a(lib_a-wsetup.o)
                0x020349ac                __swsetup_r
 .text          0x02034ae0     0x1810 d:/devkitpro/devkitarm/bin/../lib/gcc/arm-eabi/4.5.1/../../../../arm-eabi/lib\libg.a(lib_a-dtoa.o)
                0x02034cb0                _dtoa_r
 .text          0x020362f0      0x9b4 d:/devkitpro/devkitarm/bin/../lib/gcc/arm-eabi/4.5.1/../../../../arm-eabi/lib\libg.a(lib_a-gdtoa-gethex.o)
                0x020363cc                __hexdig_init
                0x02036450                __gethex
 .text          0x02036ca4      0x2bc d:/devkitpro/devkitarm/bin/../lib/gcc/arm-eabi/4.5.1/../../../../arm-eabi/lib\libg.a(lib_a-gdtoa-hexnan.o)
                0x02036ca4                __hexnan
 .text          0x02036f60      0xbb0 d:/devkitpro/devkitarm/bin/../lib/gcc/arm-eabi/4.5.1/../../../../arm-eabi/lib\libg.a(lib_a-locale.o)
                0x02037778                _setlocale_r
                0x02037ab4                __locale_charset
                0x02037ac0                __locale_msgcharset
                0x02037acc                __locale_cjk_lang
                0x02037adc                _localeconv_r
                0x02037ae8                setlocale
                0x02037b04                localeconv
 .text          0x02037b10      0x164 d:/devkitpro/devkitarm/bin/../lib/gcc/arm-eabi/4.5.1/../../../../arm-eabi/lib\libg.a(lib_a-makebuf.o)
                0x02037b10                __smakebuf_r
 .text          0x02037c74      0x720 d:/devkitpro/devkitarm/bin/../lib/gcc/arm-eabi/4.5.1/../../../../arm-eabi/lib\libg.a(lib_a-mbtowc_r.o)
                0x02037c74                __utf8_mbtowc
                0x02037f78                _mbtowc_r
                0x02037fcc                __ascii_mbtowc
                0x02038010                __sjis_mbtowc
                0x020380e4                __eucjp_mbtowc
                0x02038210                __jis_mbtowc
 .text          0x02038394      0xd3c d:/devkitpro/devkitarm/bin/../lib/gcc/arm-eabi/4.5.1/../../../../arm-eabi/lib\libg.a(lib_a-mprec.o)
                0x02038394                _Balloc
                0x0203841c                _Bfree
                0x02038438                __multadd
                0x02038514                __s2b
                0x02038604                __hi0bits
                0x02038654                __lo0bits
                0x020386e4                __i2b
                0x02038708                __multiply
                0x020388f8                __pow5mult
                0x020389f0                __lshift
                0x02038af4                __mcmp
                0x02038b54                __mdiff
                0x02038cac                __ulp
                0x02038d0c                __b2d
                0x02038dd4                __d2b
                0x02038ee0                __ratio
                0x02038f80                _mprec_log10
                0x02038fd4                __copybits
                0x02039048                __any_on
 .text          0x020390d0        0xc d:/devkitpro/devkitarm/bin/../lib/gcc/arm-eabi/4.5.1/../../../../arm-eabi/lib\libg.a(lib_a-sf_nan.o)
                0x020390d0                nanf
 .text          0x020390dc       0x64 d:/devkitpro/devkitarm/bin/../lib/gcc/arm-eabi/4.5.1/../../../../arm-eabi/lib\libg.a(lib_a-strcasecmp.o)
                0x020390dc                strcasecmp
 .text          0x02039140       0xb0 d:/devkitpro/devkitarm/bin/../lib/gcc/arm-eabi/4.5.1/../../../../arm-eabi/lib\libg.a(lib_a-strcat.o)
                0x02039140                strcat
 .text          0x020391f0      0x23c d:/devkitpro/devkitarm/bin/../lib/gcc/arm-eabi/4.5.1/../../../../arm-eabi/lib\libg.a(lib_a-strchr.o)
                0x020391f0                strchr
 .text          0x0203942c       0x7c d:/devkitpro/devkitarm/bin/../lib/gcc/arm-eabi/4.5.1/../../../../arm-eabi/lib\libg.a(lib_a-strlcpy.o)
                0x0203942c                strlcpy
 .text          0x020394a8       0x7c d:/devkitpro/devkitarm/bin/../lib/gcc/arm-eabi/4.5.1/../../../../arm-eabi/lib\libg.a(lib_a-strncasecmp.o)
                0x020394a8                strncasecmp
 .text          0x02039524       0xec d:/devkitpro/devkitarm/bin/../lib/gcc/arm-eabi/4.5.1/../../../../arm-eabi/lib\libg.a(lib_a-strncpy.o)
                0x02039524                strncpy
 .text          0x02039610      0x1f4 d:/devkitpro/devkitarm/bin/../lib/gcc/arm-eabi/4.5.1/../../../../arm-eabi/lib\libg.a(lib_a-strtol.o)
                0x02039610                _strtol_r
                0x020397d8                strtol
 .text          0x02039804     0x16b4 d:/devkitpro/devkitarm/bin/../lib/gcc/arm-eabi/4.5.1/../../../../arm-eabi/lib\libg.a(lib_a-svfiprintf.o)
                0x02039804                __ssprint_r
                0x02039998                _svfiprintf_r
 .text          0x0203aeb8     0x16dc d:/devkitpro/devkitarm/bin/../lib/gcc/arm-eabi/4.5.1/../../../../arm-eabi/lib\libg.a(lib_a-vfiprintf.o)
                0x0203aeb8                __sprint_r
                0x0203af78                _vfiprintf_r
                0x0203c568                vfiprintf
 .text          0x0203c594      0x1dc d:/devkitpro/devkitarm/bin/../lib/gcc/arm-eabi/4.5.1/../../../../arm-eabi/lib\libg.a(lib_a-wcsnrtombs.o)
                0x0203c594                _wcsnrtombs_r
                0x0203c724                wcsnrtombs
 .text          0x0203c770       0x18 d:/devkitpro/devkitarm/bin/../lib/gcc/arm-eabi/4.5.1/../../../../arm-eabi/lib\libg.a(lib_a-ctype_.o)
                0x0203c770                __set_ctype
 .text          0x0203c788      0x1c0 d:/devkitpro/devkitarm/bin/../lib/gcc/arm-eabi/4.5.1/../../../../arm-eabi/lib\libg.a(lib_a-fputwc.o)
                0x0203c788                _fputwc_r
                0x0203c8fc                fputwc
 .text          0x0203c948      0x100 d:/devkitpro/devkitarm/bin/../lib/gcc/arm-eabi/4.5.1/../../../../arm-eabi/lib\libg.a(lib_a-getenv_r.o)
                0x0203c948                _findenv_r
                0x0203ca2c                _getenv_r
 .text          0x0203ca48        0x0 d:/devkitpro/devkitarm/bin/../lib/gcc/arm-eabi/4.5.1/../../../../arm-eabi/lib\libg.a(lib_a-environ.o)
 .text          0x0203ca48        0x8 d:/devkitpro/devkitarm/bin/../lib/gcc/arm-eabi/4.5.1/../../../../arm-eabi/lib\libg.a(lib_a-envlock.o)
                0x0203ca48                __env_lock
                0x0203ca4c                __env_unlock
 .text          0x0203ca50       0x78 d:/devkitpro/devkitarm/bin/../lib/gcc/arm-eabi/4.5.1/../../../../arm-eabi/lib\libsysbase.a(close.o)
                0x0203ca50                _close_r
 .text          0x0203cac8       0x88 d:/devkitpro/devkitarm/bin/../lib/gcc/arm-eabi/4.5.1/../../../../arm-eabi/lib\libsysbase.a(fstat.o)
                0x0203cac8                _fstat_r
 .text          0x0203cb50       0x10 d:/devkitpro/devkitarm/bin/../lib/gcc/arm-eabi/4.5.1/../../../../arm-eabi/lib\libsysbase.a(getpid.o)
                0x0203cb50                _getpid_r
 .text          0x0203cb60        0x8 d:/devkitpro/devkitarm/bin/../lib/gcc/arm-eabi/4.5.1/../../../../arm-eabi/lib\libsysbase.a(isatty.o)
                0x0203cb60                _isatty_r
 .text          0x0203cb68       0x10 d:/devkitpro/devkitarm/bin/../lib/gcc/arm-eabi/4.5.1/../../../../arm-eabi/lib\libsysbase.a(kill.o)
                0x0203cb68                _kill_r
 .text          0x0203cb78       0x8c d:/devkitpro/devkitarm/bin/../lib/gcc/arm-eabi/4.5.1/../../../../arm-eabi/lib\libsysbase.a(lseek.o)
                0x0203cb78                _lseek_r
 .text          0x0203cc04       0x8c d:/devkitpro/devkitarm/bin/../lib/gcc/arm-eabi/4.5.1/../../../../arm-eabi/lib\libsysbase.a(read.o)
                0x0203cc04                _read_r
 .text          0x0203cc90       0x78 d:/devkitpro/devkitarm/bin/../lib/gcc/arm-eabi/4.5.1/../../../../arm-eabi/lib\libsysbase.a(sbrk.o)
                0x0203cc90                _sbrk_r
 .text          0x0203cd08       0x68 d:/devkitpro/devkitarm/bin/../lib/gcc/arm-eabi/4.5.1/../../../../arm-eabi/lib\libsysbase.a(times.o)
                0x0203cd08                _times
                0x0203cd24                _times_r
                0x0203cd2c                _gettimeofday_r
 .text          0x0203cd70       0x8c d:/devkitpro/devkitarm/bin/../lib/gcc/arm-eabi/4.5.1/../../../../arm-eabi/lib\libsysbase.a(write.o)
                0x0203cd70                _write_r
 .text          0x0203cdfc       0x20 d:/devkitpro/devkitarm/bin/../lib/gcc/arm-eabi/4.5.1/../../../../arm-eabi/lib\libsysbase.a(_exit.o)
                0x0203cdfc                _exit
 .text          0x0203ce1c        0x0 d:/devkitpro/devkitarm/bin/../lib/gcc/arm-eabi/4.5.1/../../../../arm-eabi/lib\libsysbase.a(malloc_vars.o)
 .text          0x0203ce1c       0x84 d:/devkitpro/devkitarm/bin/../lib/gcc/arm-eabi/4.5.1/../../../../arm-eabi/lib\libsysbase.a(build_argv.o)
                0x0203ce1c                build_argv
 .text          0x0203cea0        0x0 d:/devkitpro/devkitarm/bin/../lib/gcc/arm-eabi/4.5.1/../../../../arm-eabi/lib\libsysbase.a(syscall_support.o)
 .text          0x0203cea0       0xac d:/devkitpro/devkitarm/bin/../lib/gcc/arm-eabi/4.5.1/../../../../arm-eabi/lib\libsysbase.a(handle_manager.o)
                0x0203cea0                __release_handle
                0x0203ced8                __alloc_handle
                0x0203cf30                __get_handle
 .text          0x0203cf4c      0x1b4 d:/devkitpro/devkitarm/bin/../lib/gcc/arm-eabi/4.5.1/../../../../arm-eabi/lib\libsysbase.a(iosupport.o)
                0x0203cf4c                setDefaultDevice
                0x0203cf64                FindDevice
                0x0203d010                RemoveDevice
                0x0203d040                AddDevice
                0x0203d0d8                GetDeviceOpTab
 .text          0x0203d100       0x3c d:/devkitpro/devkitarm/bin/../lib/gcc/arm-eabi/4.5.1\libgcc.a(_aeabi_uldivmod.o)
                0x0203d100                __aeabi_uldivmod
 .text          0x0203d13c       0x80 d:/devkitpro/devkitarm/bin/../lib/gcc/arm-eabi/4.5.1\libgcc.a(bpabi.o)
                0x0203d13c                __gnu_ldivmod_helper
                0x0203d17c                __gnu_uldivmod_helper
 .text          0x0203d1bc      0x4b8 d:/devkitpro/devkitarm/bin/../lib/gcc/arm-eabi/4.5.1\libgcc.a(_divdi3.o)
                0x0203d1bc                __divdi3
 .text          0x0203d674      0x44c d:/devkitpro/devkitarm/bin/../lib/gcc/arm-eabi/4.5.1\libgcc.a(_udivdi3.o)
                0x0203d674                __udivdi3
 .text          0x0203dac0       0x48 d:/devkitpro/devkitarm/bin/../lib/gcc/arm-eabi/4.5.1\libgcc.a(_clzsi2.o)
                0x0203dac0                __clzsi2
 .text          0x0203db08        0x0 d:/devkitpro/devkitarm/bin/../lib/gcc/arm-eabi/4.5.1/crtend.o
 .text          0x0203db08        0x0 d:/devkitpro/devkitarm/bin/../lib/gcc/arm-eabi/4.5.1/crtn.o
 *(.text.*)
 .text._Znwj    0x0203db08       0x98 d:/devkitpro/devkitarm/bin/../lib/gcc/arm-eabi/4.5.1/../../../../arm-eabi/lib\libstdc++.a(new_op.o)
                0x0203db08                operator new(unsigned int)
 .text.__cxa_allocate_exception
                0x0203dba0       0x9c d:/devkitpro/devkitarm/bin/../lib/gcc/arm-eabi/4.5.1/../../../../arm-eabi/lib\libstdc++.a(eh_alloc.o)
                0x0203dba0                __cxa_allocate_exception
 .text.__cxa_free_exception
                0x0203dc3c       0x54 d:/devkitpro/devkitarm/bin/../lib/gcc/arm-eabi/4.5.1/../../../../arm-eabi/lib\libstdc++.a(eh_alloc.o)
                0x0203dc3c                __cxa_free_exception
 .text.__cxa_allocate_dependent_exception
                0x0203dc90       0x98 d:/devkitpro/devkitarm/bin/../lib/gcc/arm-eabi/4.5.1/../../../../arm-eabi/lib\libstdc++.a(eh_alloc.o)
                0x0203dc90                __cxa_allocate_dependent_exception
 .text.__cxa_free_dependent_exception
                0x0203dd28       0x5c d:/devkitpro/devkitarm/bin/../lib/gcc/arm-eabi/4.5.1/../../../../arm-eabi/lib\libstdc++.a(eh_alloc.o)
                0x0203dd28                __cxa_free_dependent_exception
 .text._GLOBAL__I___cxa_allocate_exception
                0x0203dd84        0x4 d:/devkitpro/devkitarm/bin/../lib/gcc/arm-eabi/4.5.1/../../../../arm-eabi/lib\libstdc++.a(eh_alloc.o)
 .text.__cxa_type_match
                0x0203dd88      0x19c d:/devkitpro/devkitarm/bin/../lib/gcc/arm-eabi/4.5.1/../../../../arm-eabi/lib\libstdc++.a(eh_arm.o)
                0x0203dd88                __cxa_type_match
 .text.__cxa_begin_cleanup
                0x0203df24       0xb0 d:/devkitpro/devkitarm/bin/../lib/gcc/arm-eabi/4.5.1/../../../../arm-eabi/lib\libstdc++.a(eh_arm.o)
                0x0203df24                __cxa_begin_cleanup
 .text.__gnu_end_cleanup
                0x0203dfd4       0xb0 d:/devkitpro/devkitarm/bin/../lib/gcc/arm-eabi/4.5.1/../../../../arm-eabi/lib\libstdc++.a(eh_arm.o)
                0x0203dfd4                __gnu_end_cleanup
 .text.__cxa_bad_cast
                0x0203e084       0x2c d:/devkitpro/devkitarm/bin/../lib/gcc/arm-eabi/4.5.1/../../../../arm-eabi/lib\libstdc++.a(eh_aux_runtime.o)
                0x0203e084                __cxa_bad_cast
 .text.__cxa_bad_typeid
                0x0203e0b0       0x2c d:/devkitpro/devkitarm/bin/../lib/gcc/arm-eabi/4.5.1/../../../../arm-eabi/lib\libstdc++.a(eh_aux_runtime.o)
                0x0203e0b0                __cxa_bad_typeid
 .text.__cxa_call_terminate
                0x0203e0dc       0x7c d:/devkitpro/devkitarm/bin/../lib/gcc/arm-eabi/4.5.1/../../../../arm-eabi/lib\libstdc++.a(eh_call.o)
                0x0203e0dc                __cxa_call_terminate
 .text.__cxa_call_unexpected
                0x0203e158      0x1a0 d:/devkitpro/devkitarm/bin/../lib/gcc/arm-eabi/4.5.1/../../../../arm-eabi/lib\libstdc++.a(eh_call.o)
                0x0203e158                __cxa_call_unexpected
 .text.__cxa_get_exception_ptr
                0x0203e2f8        0x8 d:/devkitpro/devkitarm/bin/../lib/gcc/arm-eabi/4.5.1/../../../../arm-eabi/lib\libstdc++.a(eh_catch.o)
                0x0203e2f8                __cxa_get_exception_ptr
 .text.__cxa_begin_catch
                0x0203e300       0xdc d:/devkitpro/devkitarm/bin/../lib/gcc/arm-eabi/4.5.1/../../../../arm-eabi/lib\libstdc++.a(eh_catch.o)
                0x0203e300                __cxa_begin_catch
 .text.__cxa_end_catch
                0x0203e3dc       0xe4 d:/devkitpro/devkitarm/bin/../lib/gcc/arm-eabi/4.5.1/../../../../arm-eabi/lib\libstdc++.a(eh_catch.o)
                0x0203e3dc                __cxa_end_catch
 .text._ZSt18uncaught_exceptionv
                0x0203e4c0       0x1c d:/devkitpro/devkitarm/bin/../lib/gcc/arm-eabi/4.5.1/../../../../arm-eabi/lib\libstdc++.a(eh_catch.o)
                0x0203e4c0                std::uncaught_exception()
 .text._ZNSt9exceptionD2Ev
                0x0203e4dc       0x10 d:/devkitpro/devkitarm/bin/../lib/gcc/arm-eabi/4.5.1/../../../../arm-eabi/lib\libstdc++.a(eh_exception.o)
                0x0203e4dc                std::exception::~exception()
                0x0203e4dc                std::exception::~exception()
 .text._ZNSt13bad_exceptionD2Ev
                0x0203e4ec       0x10 d:/devkitpro/devkitarm/bin/../lib/gcc/arm-eabi/4.5.1/../../../../arm-eabi/lib\libstdc++.a(eh_exception.o)
                0x0203e4ec                std::bad_exception::~bad_exception()
                0x0203e4ec                std::bad_exception::~bad_exception()
 .text._ZN10__cxxabiv115__forced_unwindD2Ev
                0x0203e4fc       0x10 d:/devkitpro/devkitarm/bin/../lib/gcc/arm-eabi/4.5.1/../../../../arm-eabi/lib\libstdc++.a(eh_exception.o)
                0x0203e4fc                __cxxabiv1::__forced_unwind::~__forced_unwind()
                0x0203e4fc                __cxxabiv1::__forced_unwind::~__forced_unwind()
 .text._ZN10__cxxabiv119__foreign_exceptionD2Ev
                0x0203e50c       0x10 d:/devkitpro/devkitarm/bin/../lib/gcc/arm-eabi/4.5.1/../../../../arm-eabi/lib\libstdc++.a(eh_exception.o)
                0x0203e50c                __cxxabiv1::__foreign_exception::~__foreign_exception()
                0x0203e50c                __cxxabiv1::__foreign_exception::~__foreign_exception()
 .text._ZNKSt9exception4whatEv
                0x0203e51c        0xc d:/devkitpro/devkitarm/bin/../lib/gcc/arm-eabi/4.5.1/../../../../arm-eabi/lib\libstdc++.a(eh_exception.o)
                0x0203e51c                std::exception::what() const
 .text._ZNKSt13bad_exception4whatEv
                0x0203e528        0xc d:/devkitpro/devkitarm/bin/../lib/gcc/arm-eabi/4.5.1/../../../../arm-eabi/lib\libstdc++.a(eh_exception.o)
                0x0203e528                std::bad_exception::what() const
 .text._ZN10__cxxabiv119__foreign_exceptionD0Ev
                0x0203e534       0x24 d:/devkitpro/devkitarm/bin/../lib/gcc/arm-eabi/4.5.1/../../../../arm-eabi/lib\libstdc++.a(eh_exception.o)
                0x0203e534                __cxxabiv1::__foreign_exception::~__foreign_exception()
 .text._ZN10__cxxabiv115__forced_unwindD0Ev
                0x0203e558       0x24 d:/devkitpro/devkitarm/bin/../lib/gcc/arm-eabi/4.5.1/../../../../arm-eabi/lib\libstdc++.a(eh_exception.o)
                0x0203e558                __cxxabiv1::__forced_unwind::~__forced_unwind()
 .text._ZNSt13bad_exceptionD0Ev
                0x0203e57c       0x24 d:/devkitpro/devkitarm/bin/../lib/gcc/arm-eabi/4.5.1/../../../../arm-eabi/lib\libstdc++.a(eh_exception.o)
                0x0203e57c                std::bad_exception::~bad_exception()
 .text._ZNSt9exceptionD0Ev
                0x0203e5a0       0x24 d:/devkitpro/devkitarm/bin/../lib/gcc/arm-eabi/4.5.1/../../../../arm-eabi/lib\libstdc++.a(eh_exception.o)
                0x0203e5a0                std::exception::~exception()
 .text.__cxa_get_globals_fast
                0x0203e5c4        0xc d:/devkitpro/devkitarm/bin/../lib/gcc/arm-eabi/4.5.1/../../../../arm-eabi/lib\libstdc++.a(eh_globals.o)
                0x0203e5c4                __cxa_get_globals_fast
 .text.__cxa_get_globals
                0x0203e5d0        0xc d:/devkitpro/devkitarm/bin/../lib/gcc/arm-eabi/4.5.1/../../../../arm-eabi/lib\libstdc++.a(eh_globals.o)
                0x0203e5d0                __cxa_get_globals
 .text._ZL12read_sleb128PKhPl
                0x0203e5dc       0x4c d:/devkitpro/devkitarm/bin/../lib/gcc/arm-eabi/4.5.1/../../../../arm-eabi/lib\libstdc++.a(eh_personality.o)
 .text._ZL28read_encoded_value_with_basehjPKhPj
                0x0203e628      0x164 d:/devkitpro/devkitarm/bin/../lib/gcc/arm-eabi/4.5.1/../../../../arm-eabi/lib\libstdc++.a(eh_personality.o)
 .text._ZL21base_of_encoded_valuehP15_Unwind_Context
                0x0203e78c       0x7c d:/devkitpro/devkitarm/bin/../lib/gcc/arm-eabi/4.5.1/../../../../arm-eabi/lib\libstdc++.a(eh_personality.o)
 .text._ZL17parse_lsda_headerP15_Unwind_ContextPKhP16lsda_header_info
                0x0203e808       0xcc d:/devkitpro/devkitarm/bin/../lib/gcc/arm-eabi/4.5.1/../../../../arm-eabi/lib\libstdc++.a(eh_personality.o)
 .text.__gxx_personality_v0
                0x0203e8d4      0x61c d:/devkitpro/devkitarm/bin/../lib/gcc/arm-eabi/4.5.1/../../../../arm-eabi/lib\libstdc++.a(eh_personality.o)
                0x0203e8d4                __gxx_personality_v0
 .text._ZN10__cxxabiv111__terminateEPFvvE
                0x0203eef0       0x3c d:/devkitpro/devkitarm/bin/../lib/gcc/arm-eabi/4.5.1/../../../../arm-eabi/lib\libstdc++.a(eh_terminate.o)
                0x0203eef0                __cxxabiv1::__terminate(void (*)())
 .text._ZSt9terminatev
                0x0203ef2c       0x14 d:/devkitpro/devkitarm/bin/../lib/gcc/arm-eabi/4.5.1/../../../../arm-eabi/lib\libstdc++.a(eh_terminate.o)
                0x0203ef2c                std::terminate()
 .text._ZN10__cxxabiv112__unexpectedEPFvvE
                0x0203ef40       0x10 d:/devkitpro/devkitarm/bin/../lib/gcc/arm-eabi/4.5.1/../../../../arm-eabi/lib\libstdc++.a(eh_terminate.o)
                0x0203ef40                __cxxabiv1::__unexpected(void (*)())
 .text._ZSt10unexpectedv
                0x0203ef50       0x1c d:/devkitpro/devkitarm/bin/../lib/gcc/arm-eabi/4.5.1/../../../../arm-eabi/lib\libstdc++.a(eh_terminate.o)
                0x0203ef50                std::unexpected()
 .text._ZSt13set_terminatePFvvE
                0x0203ef6c       0x18 d:/devkitpro/devkitarm/bin/../lib/gcc/arm-eabi/4.5.1/../../../../arm-eabi/lib\libstdc++.a(eh_terminate.o)
                0x0203ef6c                std::set_terminate(void (*)())
 .text._ZSt14set_unexpectedPFvvE
                0x0203ef84       0x18 d:/devkitpro/devkitarm/bin/../lib/gcc/arm-eabi/4.5.1/../../../../arm-eabi/lib\libstdc++.a(eh_terminate.o)
                0x0203ef84                std::set_unexpected(void (*)())
 .text._ZL23__gxx_exception_cleanup19_Unwind_Reason_CodeP21_Unwind_Control_Block
                0x0203ef9c       0x44 d:/devkitpro/devkitarm/bin/../lib/gcc/arm-eabi/4.5.1/../../../../arm-eabi/lib\libstdc++.a(eh_throw.o)
 .text.__cxa_throw
                0x0203efe0       0x94 d:/devkitpro/devkitarm/bin/../lib/gcc/arm-eabi/4.5.1/../../../../arm-eabi/lib\libstdc++.a(eh_throw.o)
                0x0203efe0                __cxa_throw
 .text.__cxa_rethrow
                0x0203f074       0xb0 d:/devkitpro/devkitarm/bin/../lib/gcc/arm-eabi/4.5.1/../../../../arm-eabi/lib\libstdc++.a(eh_throw.o)
                0x0203f074                __cxa_rethrow
 .text._ZN10__cxxabiv123__fundamental_type_infoD2Ev
                0x0203f124       0x24 d:/devkitpro/devkitarm/bin/../lib/gcc/arm-eabi/4.5.1/../../../../arm-eabi/lib\libstdc++.a(fundamental_type_info.o)
                0x0203f124                __cxxabiv1::__fundamental_type_info::~__fundamental_type_info()
                0x0203f124                __cxxabiv1::__fundamental_type_info::~__fundamental_type_info()
 .text._ZN10__cxxabiv123__fundamental_type_infoD0Ev
                0x0203f148       0x2c d:/devkitpro/devkitarm/bin/../lib/gcc/arm-eabi/4.5.1/../../../../arm-eabi/lib\libstdc++.a(fundamental_type_info.o)
                0x0203f148                __cxxabiv1::__fundamental_type_info::~__fundamental_type_info()
 .text._ZNKSt9bad_alloc4whatEv
                0x0203f174        0xc d:/devkitpro/devkitarm/bin/../lib/gcc/arm-eabi/4.5.1/../../../../arm-eabi/lib\libstdc++.a(new_handler.o)
                0x0203f174                std::bad_alloc::what() const
 .text._ZNSt9bad_allocD2Ev
                0x0203f180       0x24 d:/devkitpro/devkitarm/bin/../lib/gcc/arm-eabi/4.5.1/../../../../arm-eabi/lib\libstdc++.a(new_handler.o)
                0x0203f180                std::bad_alloc::~bad_alloc()
                0x0203f180                std::bad_alloc::~bad_alloc()
 .text._ZNSt9bad_allocD0Ev
                0x0203f1a4       0x2c d:/devkitpro/devkitarm/bin/../lib/gcc/arm-eabi/4.5.1/../../../../arm-eabi/lib\libstdc++.a(new_handler.o)
                0x0203f1a4                std::bad_alloc::~bad_alloc()
 .text._ZSt15set_new_handlerPFvvE
                0x0203f1d0       0x18 d:/devkitpro/devkitarm/bin/../lib/gcc/arm-eabi/4.5.1/../../../../arm-eabi/lib\libstdc++.a(new_handler.o)
                0x0203f1d0                std::set_new_handler(void (*)())
 .text._ZNK10__cxxabiv119__pointer_type_info14__is_pointer_pEv
                0x0203f1e8        0x8 d:/devkitpro/devkitarm/bin/../lib/gcc/arm-eabi/4.5.1/../../../../arm-eabi/lib\libstdc++.a(pointer_type_info.o)
                0x0203f1e8                __cxxabiv1::__pointer_type_info::__is_pointer_p() const
 .text._ZNK10__cxxabiv119__pointer_type_info15__pointer_catchEPKNS_17__pbase_type_infoEPPvj
                0x0203f1f0       0x88 d:/devkitpro/devkitarm/bin/../lib/gcc/arm-eabi/4.5.1/../../../../arm-eabi/lib\libstdc++.a(pointer_type_info.o)
                0x0203f1f0                __cxxabiv1::__pointer_type_info::__pointer_catch(__cxxabiv1::__pbase_type_info const*, void**, unsigned int) const
 .text._ZN10__cxxabiv119__pointer_type_infoD2Ev
                0x0203f278       0x24 d:/devkitpro/devkitarm/bin/../lib/gcc/arm-eabi/4.5.1/../../../../arm-eabi/lib\libstdc++.a(pointer_type_info.o)
                0x0203f278                __cxxabiv1::__pointer_type_info::~__pointer_type_info()
                0x0203f278                __cxxabiv1::__pointer_type_info::~__pointer_type_info()
 .text._ZN10__cxxabiv119__pointer_type_infoD0Ev
                0x0203f29c       0x2c d:/devkitpro/devkitarm/bin/../lib/gcc/arm-eabi/4.5.1/../../../../arm-eabi/lib\libstdc++.a(pointer_type_info.o)
                0x0203f29c                __cxxabiv1::__pointer_type_info::~__pointer_type_info()
 .text.__cxa_pure_virtual
                0x0203f2c8       0x1c d:/devkitpro/devkitarm/bin/../lib/gcc/arm-eabi/4.5.1/../../../../arm-eabi/lib\libstdc++.a(pure.o)
                0x0203f2c8                __cxa_pure_virtual
 .text._ZNK10__cxxabiv120__si_class_type_info11__do_upcastEPKNS_17__class_type_infoEPKvRNS1_15__upcast_resultE
                0x0203f2e4       0x4c d:/devkitpro/devkitarm/bin/../lib/gcc/arm-eabi/4.5.1/../../../../arm-eabi/lib\libstdc++.a(si_class_type_info.o)
                0x0203f2e4                __cxxabiv1::__si_class_type_info::__do_upcast(__cxxabiv1::__class_type_info const*, void const*, __cxxabiv1::__class_type_info::__upcast_result&) const
 .text._ZNK10__cxxabiv120__si_class_type_info12__do_dyncastEiNS_17__class_type_info10__sub_kindEPKS1_PKvS4_S6_RNS1_16__dyncast_resultE
                0x0203f330       0xe0 d:/devkitpro/devkitarm/bin/../lib/gcc/arm-eabi/4.5.1/../../../../arm-eabi/lib\libstdc++.a(si_class_type_info.o)
                0x0203f330                __cxxabiv1::__si_class_type_info::__do_dyncast(int, __cxxabiv1::__class_type_info::__sub_kind, __cxxabiv1::__class_type_info const*, void const*, __cxxabiv1::__class_type_info const*, void const*, __cxxabiv1::__class_type_info::__dyncast_result&) const
 .text._ZNK10__cxxabiv120__si_class_type_info20__do_find_public_srcEiPKvPKNS_17__class_type_infoES2_
                0x0203f410       0x6c d:/devkitpro/devkitarm/bin/../lib/gcc/arm-eabi/4.5.1/../../../../arm-eabi/lib\libstdc++.a(si_class_type_info.o)
                0x0203f410                __cxxabiv1::__si_class_type_info::__do_find_public_src(int, void const*, __cxxabiv1::__class_type_info const*, void const*) const
 .text._ZN10__cxxabiv120__si_class_type_infoD2Ev
                0x0203f47c       0x24 d:/devkitpro/devkitarm/bin/../lib/gcc/arm-eabi/4.5.1/../../../../arm-eabi/lib\libstdc++.a(si_class_type_info.o)
                0x0203f47c                __cxxabiv1::__si_class_type_info::~__si_class_type_info()
                0x0203f47c                __cxxabiv1::__si_class_type_info::~__si_class_type_info()
 .text._ZN10__cxxabiv120__si_class_type_infoD0Ev
                0x0203f4a0       0x2c d:/devkitpro/devkitarm/bin/../lib/gcc/arm-eabi/4.5.1/../../../../arm-eabi/lib\libstdc++.a(si_class_type_info.o)
                0x0203f4a0                __cxxabiv1::__si_class_type_info::~__si_class_type_info()
 .text._ZNSt9type_infoD2Ev
                0x0203f4cc       0x10 d:/devkitpro/devkitarm/bin/../lib/gcc/arm-eabi/4.5.1/../../../../arm-eabi/lib\libstdc++.a(tinfo.o)
                0x0203f4cc                std::type_info::~type_info()
                0x0203f4cc                std::type_info::~type_info()
 .text._ZNKSt9type_info14__is_pointer_pEv
                0x0203f4dc        0x8 d:/devkitpro/devkitarm/bin/../lib/gcc/arm-eabi/4.5.1/../../../../arm-eabi/lib\libstdc++.a(tinfo.o)
                0x0203f4dc                std::type_info::__is_pointer_p() const
 .text._ZNKSt9type_info15__is_function_pEv
                0x0203f4e4        0x8 d:/devkitpro/devkitarm/bin/../lib/gcc/arm-eabi/4.5.1/../../../../arm-eabi/lib\libstdc++.a(tinfo.o)
                0x0203f4e4                std::type_info::__is_function_p() const
 .text._ZNKSt9type_info11__do_upcastEPKN10__cxxabiv117__class_type_infoEPPv
                0x0203f4ec        0x8 d:/devkitpro/devkitarm/bin/../lib/gcc/arm-eabi/4.5.1/../../../../arm-eabi/lib\libstdc++.a(tinfo.o)
                0x0203f4ec                std::type_info::__do_upcast(__cxxabiv1::__class_type_info const*, void**) const
 .text._ZNSt9type_infoD0Ev
                0x0203f4f4       0x24 d:/devkitpro/devkitarm/bin/../lib/gcc/arm-eabi/4.5.1/../../../../arm-eabi/lib\libstdc++.a(tinfo.o)
                0x0203f4f4                std::type_info::~type_info()
 .text._ZNKSt9type_infoeqERKS_
                0x0203f518       0x58 d:/devkitpro/devkitarm/bin/../lib/gcc/arm-eabi/4.5.1/../../../../arm-eabi/lib\libstdc++.a(tinfo.o)
                0x0203f518                std::type_info::operator==(std::type_info const&) const
 .text._ZNKSt9type_info10__do_catchEPKS_PPvj
                0x0203f570        0x4 d:/devkitpro/devkitarm/bin/../lib/gcc/arm-eabi/4.5.1/../../../../arm-eabi/lib\libstdc++.a(tinfo.o)
                0x0203f570                std::type_info::__do_catch(std::type_info const*, void**, unsigned int) const
 .text._ZN9__gnu_cxx27__verbose_terminate_handlerEv
                0x0203f574      0x1ac d:/devkitpro/devkitarm/bin/../lib/gcc/arm-eabi/4.5.1/../../../../arm-eabi/lib\libstdc++.a(vterminate.o)
                0x0203f574                __gnu_cxx::__verbose_terminate_handler()
 .text._ZNKSt8bad_cast4whatEv
                0x0203f720        0xc d:/devkitpro/devkitarm/bin/../lib/gcc/arm-eabi/4.5.1/../../../../arm-eabi/lib\libstdc++.a(bad_cast.o)
                0x0203f720                std::bad_cast::what() const
 .text._ZNSt8bad_castD2Ev
                0x0203f72c       0x24 d:/devkitpro/devkitarm/bin/../lib/gcc/arm-eabi/4.5.1/../../../../arm-eabi/lib\libstdc++.a(bad_cast.o)
                0x0203f72c                std::bad_cast::~bad_cast()
                0x0203f72c                std::bad_cast::~bad_cast()
 .text._ZNSt8bad_castD0Ev
                0x0203f750       0x2c d:/devkitpro/devkitarm/bin/../lib/gcc/arm-eabi/4.5.1/../../../../arm-eabi/lib\libstdc++.a(bad_cast.o)
                0x0203f750                std::bad_cast::~bad_cast()
 .text._ZNKSt10bad_typeid4whatEv
                0x0203f77c        0xc d:/devkitpro/devkitarm/bin/../lib/gcc/arm-eabi/4.5.1/../../../../arm-eabi/lib\libstdc++.a(bad_typeid.o)
                0x0203f77c                std::bad_typeid::what() const
 .text._ZNSt10bad_typeidD2Ev
                0x0203f788       0x24 d:/devkitpro/devkitarm/bin/../lib/gcc/arm-eabi/4.5.1/../../../../arm-eabi/lib\libstdc++.a(bad_typeid.o)
                0x0203f788                std::bad_typeid::~bad_typeid()
                0x0203f788                std::bad_typeid::~bad_typeid()
 .text._ZNSt10bad_typeidD0Ev
                0x0203f7ac       0x2c d:/devkitpro/devkitarm/bin/../lib/gcc/arm-eabi/4.5.1/../../../../arm-eabi/lib\libstdc++.a(bad_typeid.o)
                0x0203f7ac                std::bad_typeid::~bad_typeid()
 .text._ZNK10__cxxabiv117__class_type_info11__do_upcastEPKS0_PPv
                0x0203f7d8       0x64 d:/devkitpro/devkitarm/bin/../lib/gcc/arm-eabi/4.5.1/../../../../arm-eabi/lib\libstdc++.a(class_type_info.o)
                0x0203f7d8                __cxxabiv1::__class_type_info::__do_upcast(__cxxabiv1::__class_type_info const*, void**) const
 .text._ZNK10__cxxabiv117__class_type_info20__do_find_public_srcEiPKvPKS0_S2_
                0x0203f83c       0x14 d:/devkitpro/devkitarm/bin/../lib/gcc/arm-eabi/4.5.1/../../../../arm-eabi/lib\libstdc++.a(class_type_info.o)
                0x0203f83c                __cxxabiv1::__class_type_info::__do_find_public_src(int, void const*, __cxxabiv1::__class_type_info const*, void const*) const
 .text._ZNK10__cxxabiv117__class_type_info11__do_upcastEPKS0_PKvRNS0_15__upcast_resultE
                0x0203f850       0x38 d:/devkitpro/devkitarm/bin/../lib/gcc/arm-eabi/4.5.1/../../../../arm-eabi/lib\libstdc++.a(class_type_info.o)
                0x0203f850                __cxxabiv1::__class_type_info::__do_upcast(__cxxabiv1::__class_type_info const*, void const*, __cxxabiv1::__class_type_info::__upcast_result&) const
 .text._ZNK10__cxxabiv117__class_type_info12__do_dyncastEiNS0_10__sub_kindEPKS0_PKvS3_S5_RNS0_16__dyncast_resultE
                0x0203f888       0x74 d:/devkitpro/devkitarm/bin/../lib/gcc/arm-eabi/4.5.1/../../../../arm-eabi/lib\libstdc++.a(class_type_info.o)
                0x0203f888                __cxxabiv1::__class_type_info::__do_dyncast(int, __cxxabiv1::__class_type_info::__sub_kind, __cxxabiv1::__class_type_info const*, void const*, __cxxabiv1::__class_type_info const*, void const*, __cxxabiv1::__class_type_info::__dyncast_result&) const
 .text._ZNK10__cxxabiv117__class_type_info10__do_catchEPKSt9type_infoPPvj
                0x0203f8fc       0x54 d:/devkitpro/devkitarm/bin/../lib/gcc/arm-eabi/4.5.1/../../../../arm-eabi/lib\libstdc++.a(class_type_info.o)
                0x0203f8fc                __cxxabiv1::__class_type_info::__do_catch(std::type_info const*, void**, unsigned int) const
 .text._ZN10__cxxabiv117__class_type_infoD2Ev
                0x0203f950       0x24 d:/devkitpro/devkitarm/bin/../lib/gcc/arm-eabi/4.5.1/../../../../arm-eabi/lib\libstdc++.a(class_type_info.o)
                0x0203f950                __cxxabiv1::__class_type_info::~__class_type_info()
                0x0203f950                __cxxabiv1::__class_type_info::~__class_type_info()
 .text._ZN10__cxxabiv117__class_type_infoD0Ev
                0x0203f974       0x2c d:/devkitpro/devkitarm/bin/../lib/gcc/arm-eabi/4.5.1/../../../../arm-eabi/lib\libstdc++.a(class_type_info.o)
                0x0203f974                __cxxabiv1::__class_type_info::~__class_type_info()
 .text._ZdlPv   0x0203f9a0       0x14 d:/devkitpro/devkitarm/bin/../lib/gcc/arm-eabi/4.5.1/../../../../arm-eabi/lib\libstdc++.a(del_op.o)
                0x0203f9a0                operator delete(void*)
 .text.__cxa_current_exception_type
                0x0203f9b4       0x30 d:/devkitpro/devkitarm/bin/../lib/gcc/arm-eabi/4.5.1/../../../../arm-eabi/lib\libstdc++.a(eh_type.o)
                0x0203f9b4                __cxa_current_exception_type
 .text._ZNK10__cxxabiv117__pbase_type_info15__pointer_catchEPKS0_PPvj
                0x0203f9e4       0x28 d:/devkitpro/devkitarm/bin/../lib/gcc/arm-eabi/4.5.1/../../../../arm-eabi/lib\libstdc++.a(pbase_type_info.o)
                0x0203f9e4                __cxxabiv1::__pbase_type_info::__pointer_catch(__cxxabiv1::__pbase_type_info const*, void**, unsigned int) const
 .text._ZNK10__cxxabiv117__pbase_type_info10__do_catchEPKSt9type_infoPPvj
                0x0203fa0c       0x9c d:/devkitpro/devkitarm/bin/../lib/gcc/arm-eabi/4.5.1/../../../../arm-eabi/lib\libstdc++.a(pbase_type_info.o)
                0x0203fa0c                __cxxabiv1::__pbase_type_info::__do_catch(std::type_info const*, void**, unsigned int) const
 .text._ZN10__cxxabiv117__pbase_type_infoD2Ev
                0x0203faa8       0x24 d:/devkitpro/devkitarm/bin/../lib/gcc/arm-eabi/4.5.1/../../../../arm-eabi/lib\libstdc++.a(pbase_type_info.o)
                0x0203faa8                __cxxabiv1::__pbase_type_info::~__pbase_type_info()
                0x0203faa8                __cxxabiv1::__pbase_type_info::~__pbase_type_info()
 .text._ZN10__cxxabiv117__pbase_type_infoD0Ev
                0x0203facc       0x2c d:/devkitpro/devkitarm/bin/../lib/gcc/arm-eabi/4.5.1/../../../../arm-eabi/lib\libstdc++.a(pbase_type_info.o)
                0x0203facc                __cxxabiv1::__pbase_type_info::~__pbase_type_info()
 .text._ZN10__cxxabiv117__pbase_type_infoD0Ev.stub
                0x0203faf8        0x8 linker stubs
 *(.stub)
 *(.gnu.warning)
 *(.gnu.linkonce.t*)
 *(.glue_7)
 .glue_7        0x00000000        0x0 linker stubs
 *(.glue_7t)
 .glue_7t       0x00000000        0x0 linker stubs
                0x0203fb00                . = ALIGN (0x4)

.vfp11_veneer   0x00000000        0x0 load address 0x0203fb00
 .vfp11_veneer  0x00000000        0x0 linker stubs

.v4_bx          0x00000000        0x0 load address 0x0203fb00
 .v4_bx         0x00000000        0x0 linker stubs

.fini           0x0203fb00       0x18
 *(.fini)
 .fini          0x0203fb00        0xc d:/devkitpro/devkitarm/bin/../lib/gcc/arm-eabi/4.5.1/crti.o
                0x0203fb00                _fini
 .fini          0x0203fb0c        0xc d:/devkitpro/devkitarm/bin/../lib/gcc/arm-eabi/4.5.1/crtn.o
                0x0203fb18                __text_end = .

.rodata         0x0203fb18    0x12b0c
 *(.rodata)
 .rodata        0x0203fb18       0xb4 ball.png.o
                0x0203fb18                ball_png
                0x0203fbc6                ball_png_end
                0x0203fbc8                ball_png_size
 .rodata        0x0203fbcc       0x48 d:/devkitPro/libnds/lib\libul.a(drawing.o)
                0x0203fbcc                ul_pixelSizes
                0x0203fbd8                ul_pixelWidth
                0x0203fbfc                ul_paletteSizes
                0x0203fc08                ul_pixelsPerByte
 .rodata        0x0203fc14      0x810 d:/devkitPro/libnds/lib\libul.a(text.o)
                0x0203fc24                ul_lcdFont_data
 .rodata        0x02040424     0x246c d:/devkitPro/libnds/lib\libul.a(ulShowSplashScreen1.o)
                0x02040424                ul_logo_msk
                0x02040c0c                ul_logo_base
                0x02041800                ul_logo
                0x0204231c                ul_circle_mask
                0x02042880                ul_circle_mask_size
                0x02042884                ul_logo_size
                0x02042888                ul_logo_base_size
                0x0204288c                ul_logo_msk_size
 .rodata        0x02042890     0xa62c d:/devkitPro/libnds/lib\libul.a(ulShowSplashScreen2.o)
                0x02042890                ul_neoflashlogo
                0x0204ceb8                ul_neoflashlogo_size
 .rodata        0x0204cebc       0x10 d:/devkitPro/libnds/lib\libul.a(libLoadGif.o)
                0x0204cebc                InterlacedOffset
                0x0204cec4                InterlacedJumps
 .rodata        0x0204cecc       0x1c d:/devkitPro/libnds/lib\libul.a(dgif_lib.o)
 .rodata        0x0204cee8      0x1a0 d:/devkitPro/libnds/lib\libul.a(gba-jpeg-decode.o)
                0x0204cee8                JPEG_ToZigZag
                0x0204cf28                JPEG_ComponentRange
                0x0204cf88                JPEG_AANScaleFactor
 .rodata        0x0204d088       0xfc d:/devkitPro/libnds/lib\libpng.a(png.o)
                0x0204d088                png_libpng_ver
                0x0204d09a                png_sig
                0x0204d0a4                png_pass_start
                0x0204d0c0                png_pass_inc
                0x0204d0dc                png_pass_ystart
                0x0204d0f8                png_pass_yinc
                0x0204d114                png_pass_mask
                0x0204d130                png_pass_dsp_mask
 .rodata        0x0204d184       0x24 d:/devkitPro/libnds/lib\libpng.a(pngrtran.o)
 .rodata        0x0204d1a8       0x1f d:/devkitPro/libnds/lib\libpng.a(pngrutil.o)
 .rodata        0x0204d1c7      0x300 d:/devkitPro/libnds/lib\libpng.a(pngtrans.o)
 *fill*         0x0204d4c7        0x1 ff
 .rodata        0x0204d4c8     0x2000 d:/devkitPro/libnds/lib\libz.a(crc32.o)
 .rodata        0x0204f4c8      0x8a6 d:/devkitPro/libnds/lib\libz.a(inflate.o)
 .rodata        0x0204fd6e      0x12c d:/devkitPro/libnds/lib\libz.a(inftrees.o)
                0x0204fd6e                inflate_copyright
 *fill*         0x0204fe9a        0x2 ff
 .rodata        0x0204fe9c       0x28 d:/devkitPro/libnds/lib\libz.a(zutil.o)
                0x0204fe9c                z_errmsg
 .rodata        0x0204fec4      0x308 d:/devkitPro/libnds/lib\libnds9.a(trig.o)
                0x0204fec4                SIN_LUT
                0x0204ffc8                TAN_LUT
 .rodata        0x020501cc       0x68 d:/devkitPro/libnds/lib\libnds9.a(videoGL.o)
 .rodata        0x02050234      0x694 d:/devkitpro/devkitarm/bin/../lib/gcc/arm-eabi/4.5.1/../../../../arm-eabi/lib\libstdc++.a(cp-demangle.o)
 .rodata        0x020508c8       0x30 d:/devkitpro/devkitarm/bin/../lib/gcc/arm-eabi/4.5.1/../../../../arm-eabi/lib\libm.a(lib_a-e_pow.o)
 .rodata        0x020508f8      0x188 d:/devkitpro/devkitarm/bin/../lib/gcc/arm-eabi/4.5.1/../../../../arm-eabi/lib\libm.a(lib_a-e_rem_pio2.o)
 .rodata        0x02050a80       0x50 d:/devkitpro/devkitarm/bin/../lib/gcc/arm-eabi/4.5.1/../../../../arm-eabi/lib\libm.a(lib_a-k_rem_pio2.o)
 .rodata        0x02050ad0       0x10 d:/devkitpro/devkitarm/bin/../lib/gcc/arm-eabi/4.5.1/../../../../arm-eabi/lib\libm.a(lib_a-s_rint.o)
 .rodata        0x02050ae0        0x4 d:/devkitpro/devkitarm/bin/../lib/gcc/arm-eabi/4.5.1/../../../../arm-eabi/lib\libg.a(lib_a-impure.o)
                0x02050ae0                _global_impure_ptr
 *fill*         0x02050ae4        0x4 ff
 .rodata        0x02050ae8       0x28 d:/devkitpro/devkitarm/bin/../lib/gcc/arm-eabi/4.5.1/../../../../arm-eabi/lib\libg.a(lib_a-strtod.o)
 .rodata        0x02050b10       0x20 d:/devkitpro/devkitarm/bin/../lib/gcc/arm-eabi/4.5.1/../../../../arm-eabi/lib\libg.a(lib_a-svfprintf.o)
 .rodata        0x02050b30       0x20 d:/devkitpro/devkitarm/bin/../lib/gcc/arm-eabi/4.5.1/../../../../arm-eabi/lib\libg.a(lib_a-vfprintf.o)
 .rodata        0x02050b50       0x54 d:/devkitpro/devkitarm/bin/../lib/gcc/arm-eabi/4.5.1/../../../../arm-eabi/lib\libg.a(lib_a-locale.o)
 .rodata        0x02050ba4       0x90 d:/devkitpro/devkitarm/bin/../lib/gcc/arm-eabi/4.5.1/../../../../arm-eabi/lib\libg.a(lib_a-mbtowc_r.o)
 *fill*         0x02050c34        0x4 ff
 .rodata        0x02050c38      0x128 d:/devkitpro/devkitarm/bin/../lib/gcc/arm-eabi/4.5.1/../../../../arm-eabi/lib\libg.a(lib_a-mprec.o)
                0x02050c48                __mprec_tens
                0x02050d10                __mprec_bigtens
                0x02050d38                __mprec_tinytens
 .rodata        0x02050d60       0x20 d:/devkitpro/devkitarm/bin/../lib/gcc/arm-eabi/4.5.1/../../../../arm-eabi/lib\libg.a(lib_a-svfiprintf.o)
 .rodata        0x02050d80       0x20 d:/devkitpro/devkitarm/bin/../lib/gcc/arm-eabi/4.5.1/../../../../arm-eabi/lib\libg.a(lib_a-vfiprintf.o)
 .rodata        0x02050da0      0x104 d:/devkitpro/devkitarm/bin/../lib/gcc/arm-eabi/4.5.1/../../../../arm-eabi/lib\libg.a(lib_a-ctype_.o)
                0x02050da0                _ctype_
 .rodata        0x02050ea4       0x64 d:/devkitpro/devkitarm/bin/../lib/gcc/arm-eabi/4.5.1/../../../../arm-eabi/lib\libsysbase.a(iosupport.o)
                0x02050ea4                dotab_stdnull
 *all.rodata*(*)
 *(.roda)
 *(.rodata.*)
 .rodata.str1.4
                0x02050f08        0xf main.o
                                 0x10 (size before relaxing)
 *fill*         0x02050f17        0x1 ff
 .rodata.str1.4
                0x02050f18        0xc d:/devkitPro/libnds/lib\libul.a(text.o)
 .rodata.str1.4
                0x02050f24       0x3f d:/devkitPro/libnds/lib\libul.a(ulShowSplashScreen1.o)
                                 0x40 (size before relaxing)
 .rodata.str1.1
                0x02050f63        0x6 d:/devkitPro/libnds/lib\libul.a(libLoadPng.o)
 .rodata.str1.1
                0x02050f69      0x117 d:/devkitPro/libnds/lib\libpng.a(png.o)
 .rodata.str1.1
                0x02051080       0x83 d:/devkitPro/libnds/lib\libpng.a(pngread.o)
 .rodata.str1.1
                0x02051103       0x25 d:/devkitPro/libnds/lib\libpng.a(pngrtran.o)
 .rodata.str1.1
                0x02051128       0x48 d:/devkitPro/libnds/lib\libpng.a(pngerror.o)
 .rodata.str1.1
                0x02051170      0x119 d:/devkitPro/libnds/lib\libpng.a(pngrutil.o)
 .rodata.str1.1
                0x02051289      0x1a8 d:/devkitPro/libnds/lib\libz.a(inflate.o)
 .rodata.str1.1
                0x00000000       0x50 d:/devkitPro/libnds/lib\libz.a(inffast.o)
 .rodata.str1.1
                0x02051431       0x74 d:/devkitPro/libnds/lib\libz.a(zutil.o)
                                 0x7b (size before relaxing)
 *fill*         0x020514a5        0x3 ff
 .rodata._ZTVN10__cxxabiv115__forced_unwindE
                0x020514a8       0x18 d:/devkitpro/devkitarm/bin/../lib/gcc/arm-eabi/4.5.1/../../../../arm-eabi/lib\libstdc++.a(eh_exception.o)
                0x020514a8                vtable for __cxxabiv1::__forced_unwind
 .rodata._ZTISt9exception
                0x020514c0        0x8 d:/devkitpro/devkitarm/bin/../lib/gcc/arm-eabi/4.5.1/../../../../arm-eabi/lib\libstdc++.a(eh_exception.o)
                0x020514c0                typeinfo for std::exception
 .rodata._ZTVSt9exception
                0x020514c8       0x18 d:/devkitpro/devkitarm/bin/../lib/gcc/arm-eabi/4.5.1/../../../../arm-eabi/lib\libstdc++.a(eh_exception.o)
                0x020514c8                vtable for std::exception
 .rodata._ZTIN10__cxxabiv115__forced_unwindE
                0x020514e0        0x8 d:/devkitpro/devkitarm/bin/../lib/gcc/arm-eabi/4.5.1/../../../../arm-eabi/lib\libstdc++.a(eh_exception.o)
                0x020514e0                typeinfo for __cxxabiv1::__forced_unwind
 .rodata._ZTSSt13bad_exception
                0x020514e8       0x14 d:/devkitpro/devkitarm/bin/../lib/gcc/arm-eabi/4.5.1/../../../../arm-eabi/lib\libstdc++.a(eh_exception.o)
                0x020514e8                typeinfo name for std::bad_exception
 .rodata._ZTSN10__cxxabiv119__foreign_exceptionE
                0x020514fc       0x24 d:/devkitpro/devkitarm/bin/../lib/gcc/arm-eabi/4.5.1/../../../../arm-eabi/lib\libstdc++.a(eh_exception.o)
                0x020514fc                typeinfo name for __cxxabiv1::__foreign_exception
 .rodata.str1.4
                0x02051520       0x23 d:/devkitpro/devkitarm/bin/../lib/gcc/arm-eabi/4.5.1/../../../../arm-eabi/lib\libstdc++.a(eh_exception.o)
                                 0x24 (size before relaxing)
 *fill*         0x02051543        0x1 ff
 .rodata._ZTIN10__cxxabiv119__foreign_exceptionE
                0x02051544        0x8 d:/devkitpro/devkitarm/bin/../lib/gcc/arm-eabi/4.5.1/../../../../arm-eabi/lib\libstdc++.a(eh_exception.o)
                0x02051544                typeinfo for __cxxabiv1::__foreign_exception
 *fill*         0x0205154c        0x4 ff
 .rodata._ZTVSt13bad_exception
                0x02051550       0x18 d:/devkitpro/devkitarm/bin/../lib/gcc/arm-eabi/4.5.1/../../../../arm-eabi/lib\libstdc++.a(eh_exception.o)
                0x02051550                vtable for std::bad_exception
 .rodata._ZTSSt9exception
                0x02051568       0x10 d:/devkitpro/devkitarm/bin/../lib/gcc/arm-eabi/4.5.1/../../../../arm-eabi/lib\libstdc++.a(eh_exception.o)
                0x02051568                typeinfo name for std::exception
 .rodata._ZTVN10__cxxabiv119__foreign_exceptionE
                0x02051578       0x18 d:/devkitpro/devkitarm/bin/../lib/gcc/arm-eabi/4.5.1/../../../../arm-eabi/lib\libstdc++.a(eh_exception.o)
                0x02051578                vtable for __cxxabiv1::__foreign_exception
 .rodata._ZTSN10__cxxabiv115__forced_unwindE
                0x02051590       0x20 d:/devkitpro/devkitarm/bin/../lib/gcc/arm-eabi/4.5.1/../../../../arm-eabi/lib\libstdc++.a(eh_exception.o)
                0x02051590                typeinfo name for __cxxabiv1::__forced_unwind
 .rodata._ZTISt13bad_exception
                0x020515b0        0xc d:/devkitpro/devkitarm/bin/../lib/gcc/arm-eabi/4.5.1/../../../../arm-eabi/lib\libstdc++.a(eh_exception.o)
                0x020515b0                typeinfo for std::bad_exception
 .rodata._ZTIPKDe
                0x020515bc       0x10 d:/devkitpro/devkitarm/bin/../lib/gcc/arm-eabi/4.5.1/../../../../arm-eabi/lib\libstdc++.a(fundamental_type_info.o)
                0x020515bc                typeinfo for decimal128 const*
 .rodata._ZTIPDe
                0x020515cc       0x10 d:/devkitpro/devkitarm/bin/../lib/gcc/arm-eabi/4.5.1/../../../../arm-eabi/lib\libstdc++.a(fundamental_type_info.o)
                0x020515cc                typeinfo for decimal128*
 .rodata._ZTIDe
                0x020515dc        0x8 d:/devkitpro/devkitarm/bin/../lib/gcc/arm-eabi/4.5.1/../../../../arm-eabi/lib\libstdc++.a(fundamental_type_info.o)
                0x020515dc                typeinfo for decimal128
 .rodata._ZTIPKDd
                0x020515e4       0x10 d:/devkitpro/devkitarm/bin/../lib/gcc/arm-eabi/4.5.1/../../../../arm-eabi/lib\libstdc++.a(fundamental_type_info.o)
                0x020515e4                typeinfo for decimal64 const*
 .rodata._ZTIPDd
                0x020515f4       0x10 d:/devkitpro/devkitarm/bin/../lib/gcc/arm-eabi/4.5.1/../../../../arm-eabi/lib\libstdc++.a(fundamental_type_info.o)
                0x020515f4                typeinfo for decimal64*
 .rodata._ZTIDd
                0x02051604        0x8 d:/devkitpro/devkitarm/bin/../lib/gcc/arm-eabi/4.5.1/../../../../arm-eabi/lib\libstdc++.a(fundamental_type_info.o)
                0x02051604                typeinfo for decimal64
 .rodata._ZTIPKDf
                0x0205160c       0x10 d:/devkitpro/devkitarm/bin/../lib/gcc/arm-eabi/4.5.1/../../../../arm-eabi/lib\libstdc++.a(fundamental_type_info.o)
                0x0205160c                typeinfo for decimal32 const*
 .rodata._ZTIPDf
                0x0205161c       0x10 d:/devkitpro/devkitarm/bin/../lib/gcc/arm-eabi/4.5.1/../../../../arm-eabi/lib\libstdc++.a(fundamental_type_info.o)
                0x0205161c                typeinfo for decimal32*
 .rodata._ZTIDf
                0x0205162c        0x8 d:/devkitpro/devkitarm/bin/../lib/gcc/arm-eabi/4.5.1/../../../../arm-eabi/lib\libstdc++.a(fundamental_type_info.o)
                0x0205162c                typeinfo for decimal32
 .rodata._ZTIPKe
                0x02051634       0x10 d:/devkitpro/devkitarm/bin/../lib/gcc/arm-eabi/4.5.1/../../../../arm-eabi/lib\libstdc++.a(fundamental_type_info.o)
                0x02051634                typeinfo for long double const*
 .rodata._ZTIPe
                0x02051644       0x10 d:/devkitpro/devkitarm/bin/../lib/gcc/arm-eabi/4.5.1/../../../../arm-eabi/lib\libstdc++.a(fundamental_type_info.o)
                0x02051644                typeinfo for long double*
 .rodata._ZTIe  0x02051654        0x8 d:/devkitpro/devkitarm/bin/../lib/gcc/arm-eabi/4.5.1/../../../../arm-eabi/lib\libstdc++.a(fundamental_type_info.o)
                0x02051654                typeinfo for long double
 .rodata._ZTIPKd
                0x0205165c       0x10 d:/devkitpro/devkitarm/bin/../lib/gcc/arm-eabi/4.5.1/../../../../arm-eabi/lib\libstdc++.a(fundamental_type_info.o)
                0x0205165c                typeinfo for double const*
 .rodata._ZTIPd
                0x0205166c       0x10 d:/devkitpro/devkitarm/bin/../lib/gcc/arm-eabi/4.5.1/../../../../arm-eabi/lib\libstdc++.a(fundamental_type_info.o)
                0x0205166c                typeinfo for double*
 .rodata._ZTId  0x0205167c        0x8 d:/devkitpro/devkitarm/bin/../lib/gcc/arm-eabi/4.5.1/../../../../arm-eabi/lib\libstdc++.a(fundamental_type_info.o)
                0x0205167c                typeinfo for double
 .rodata._ZTIPKf
                0x02051684       0x10 d:/devkitpro/devkitarm/bin/../lib/gcc/arm-eabi/4.5.1/../../../../arm-eabi/lib\libstdc++.a(fundamental_type_info.o)
                0x02051684                typeinfo for float const*
 .rodata._ZTIPf
                0x02051694       0x10 d:/devkitpro/devkitarm/bin/../lib/gcc/arm-eabi/4.5.1/../../../../arm-eabi/lib\libstdc++.a(fundamental_type_info.o)
                0x02051694                typeinfo for float*
 .rodata._ZTIf  0x020516a4        0x8 d:/devkitpro/devkitarm/bin/../lib/gcc/arm-eabi/4.5.1/../../../../arm-eabi/lib\libstdc++.a(fundamental_type_info.o)
                0x020516a4                typeinfo for float
 .rodata._ZTIPKy
                0x020516ac       0x10 d:/devkitpro/devkitarm/bin/../lib/gcc/arm-eabi/4.5.1/../../../../arm-eabi/lib\libstdc++.a(fundamental_type_info.o)
                0x020516ac                typeinfo for unsigned long long const*
 .rodata._ZTIPy
                0x020516bc       0x10 d:/devkitpro/devkitarm/bin/../lib/gcc/arm-eabi/4.5.1/../../../../arm-eabi/lib\libstdc++.a(fundamental_type_info.o)
                0x020516bc                typeinfo for unsigned long long*
 .rodata._ZTIy  0x020516cc        0x8 d:/devkitpro/devkitarm/bin/../lib/gcc/arm-eabi/4.5.1/../../../../arm-eabi/lib\libstdc++.a(fundamental_type_info.o)
                0x020516cc                typeinfo for unsigned long long
 .rodata._ZTIPKx
                0x020516d4       0x10 d:/devkitpro/devkitarm/bin/../lib/gcc/arm-eabi/4.5.1/../../../../arm-eabi/lib\libstdc++.a(fundamental_type_info.o)
                0x020516d4                typeinfo for long long const*
 .rodata._ZTIPx
                0x020516e4       0x10 d:/devkitpro/devkitarm/bin/../lib/gcc/arm-eabi/4.5.1/../../../../arm-eabi/lib\libstdc++.a(fundamental_type_info.o)
                0x020516e4                typeinfo for long long*
 .rodata._ZTIx  0x020516f4        0x8 d:/devkitpro/devkitarm/bin/../lib/gcc/arm-eabi/4.5.1/../../../../arm-eabi/lib\libstdc++.a(fundamental_type_info.o)
                0x020516f4                typeinfo for long long
 .rodata._ZTIPKm
                0x020516fc       0x10 d:/devkitpro/devkitarm/bin/../lib/gcc/arm-eabi/4.5.1/../../../../arm-eabi/lib\libstdc++.a(fundamental_type_info.o)
                0x020516fc                typeinfo for unsigned long const*
 .rodata._ZTIPm
                0x0205170c       0x10 d:/devkitpro/devkitarm/bin/../lib/gcc/arm-eabi/4.5.1/../../../../arm-eabi/lib\libstdc++.a(fundamental_type_info.o)
                0x0205170c                typeinfo for unsigned long*
 .rodata._ZTIm  0x0205171c        0x8 d:/devkitpro/devkitarm/bin/../lib/gcc/arm-eabi/4.5.1/../../../../arm-eabi/lib\libstdc++.a(fundamental_type_info.o)
                0x0205171c                typeinfo for unsigned long
 .rodata._ZTIPKl
                0x02051724       0x10 d:/devkitpro/devkitarm/bin/../lib/gcc/arm-eabi/4.5.1/../../../../arm-eabi/lib\libstdc++.a(fundamental_type_info.o)
                0x02051724                typeinfo for long const*
 .rodata._ZTIPl
                0x02051734       0x10 d:/devkitpro/devkitarm/bin/../lib/gcc/arm-eabi/4.5.1/../../../../arm-eabi/lib\libstdc++.a(fundamental_type_info.o)
                0x02051734                typeinfo for long*
 .rodata._ZTIl  0x02051744        0x8 d:/devkitpro/devkitarm/bin/../lib/gcc/arm-eabi/4.5.1/../../../../arm-eabi/lib\libstdc++.a(fundamental_type_info.o)
                0x02051744                typeinfo for long
 .rodata._ZTIPKj
                0x0205174c       0x10 d:/devkitpro/devkitarm/bin/../lib/gcc/arm-eabi/4.5.1/../../../../arm-eabi/lib\libstdc++.a(fundamental_type_info.o)
                0x0205174c                typeinfo for unsigned int const*
 .rodata._ZTIPj
                0x0205175c       0x10 d:/devkitpro/devkitarm/bin/../lib/gcc/arm-eabi/4.5.1/../../../../arm-eabi/lib\libstdc++.a(fundamental_type_info.o)
                0x0205175c                typeinfo for unsigned int*
 .rodata._ZTIj  0x0205176c        0x8 d:/devkitpro/devkitarm/bin/../lib/gcc/arm-eabi/4.5.1/../../../../arm-eabi/lib\libstdc++.a(fundamental_type_info.o)
                0x0205176c                typeinfo for unsigned int
 .rodata._ZTIPKi
                0x02051774       0x10 d:/devkitpro/devkitarm/bin/../lib/gcc/arm-eabi/4.5.1/../../../../arm-eabi/lib\libstdc++.a(fundamental_type_info.o)
                0x02051774                typeinfo for int const*
 .rodata._ZTIPi
                0x02051784       0x10 d:/devkitpro/devkitarm/bin/../lib/gcc/arm-eabi/4.5.1/../../../../arm-eabi/lib\libstdc++.a(fundamental_type_info.o)
                0x02051784                typeinfo for int*
 .rodata._ZTIi  0x02051794        0x8 d:/devkitpro/devkitarm/bin/../lib/gcc/arm-eabi/4.5.1/../../../../arm-eabi/lib\libstdc++.a(fundamental_type_info.o)
                0x02051794                typeinfo for int
 .rodata._ZTIPKt
                0x0205179c       0x10 d:/devkitpro/devkitarm/bin/../lib/gcc/arm-eabi/4.5.1/../../../../arm-eabi/lib\libstdc++.a(fundamental_type_info.o)
                0x0205179c                typeinfo for unsigned short const*
 .rodata._ZTIPt
                0x020517ac       0x10 d:/devkitpro/devkitarm/bin/../lib/gcc/arm-eabi/4.5.1/../../../../arm-eabi/lib\libstdc++.a(fundamental_type_info.o)
                0x020517ac                typeinfo for unsigned short*
 .rodata._ZTIt  0x020517bc        0x8 d:/devkitpro/devkitarm/bin/../lib/gcc/arm-eabi/4.5.1/../../../../arm-eabi/lib\libstdc++.a(fundamental_type_info.o)
                0x020517bc                typeinfo for unsigned short
 .rodata._ZTIPKs
                0x020517c4       0x10 d:/devkitpro/devkitarm/bin/../lib/gcc/arm-eabi/4.5.1/../../../../arm-eabi/lib\libstdc++.a(fundamental_type_info.o)
                0x020517c4                typeinfo for short const*
 .rodata._ZTIPs
                0x020517d4       0x10 d:/devkitpro/devkitarm/bin/../lib/gcc/arm-eabi/4.5.1/../../../../arm-eabi/lib\libstdc++.a(fundamental_type_info.o)
                0x020517d4                typeinfo for short*
 .rodata._ZTIs  0x020517e4        0x8 d:/devkitpro/devkitarm/bin/../lib/gcc/arm-eabi/4.5.1/../../../../arm-eabi/lib\libstdc++.a(fundamental_type_info.o)
                0x020517e4                typeinfo for short
 .rodata._ZTIPKh
                0x020517ec       0x10 d:/devkitpro/devkitarm/bin/../lib/gcc/arm-eabi/4.5.1/../../../../arm-eabi/lib\libstdc++.a(fundamental_type_info.o)
                0x020517ec                typeinfo for unsigned char const*
 .rodata._ZTIPh
                0x020517fc       0x10 d:/devkitpro/devkitarm/bin/../lib/gcc/arm-eabi/4.5.1/../../../../arm-eabi/lib\libstdc++.a(fundamental_type_info.o)
                0x020517fc                typeinfo for unsigned char*
 .rodata._ZTIh  0x0205180c        0x8 d:/devkitpro/devkitarm/bin/../lib/gcc/arm-eabi/4.5.1/../../../../arm-eabi/lib\libstdc++.a(fundamental_type_info.o)
                0x0205180c                typeinfo for unsigned char
 .rodata._ZTIPKa
                0x02051814       0x10 d:/devkitpro/devkitarm/bin/../lib/gcc/arm-eabi/4.5.1/../../../../arm-eabi/lib\libstdc++.a(fundamental_type_info.o)
                0x02051814                typeinfo for signed char const*
 .rodata._ZTIPa
                0x02051824       0x10 d:/devkitpro/devkitarm/bin/../lib/gcc/arm-eabi/4.5.1/../../../../arm-eabi/lib\libstdc++.a(fundamental_type_info.o)
                0x02051824                typeinfo for signed char*
 .rodata._ZTIa  0x02051834        0x8 d:/devkitpro/devkitarm/bin/../lib/gcc/arm-eabi/4.5.1/../../../../arm-eabi/lib\libstdc++.a(fundamental_type_info.o)
                0x02051834                typeinfo for signed char
 .rodata._ZTIPKc
                0x0205183c       0x10 d:/devkitpro/devkitarm/bin/../lib/gcc/arm-eabi/4.5.1/../../../../arm-eabi/lib\libstdc++.a(fundamental_type_info.o)
                0x0205183c                typeinfo for char const*
 .rodata._ZTIPc
                0x0205184c       0x10 d:/devkitpro/devkitarm/bin/../lib/gcc/arm-eabi/4.5.1/../../../../arm-eabi/lib\libstdc++.a(fundamental_type_info.o)
                0x0205184c                typeinfo for char*
 .rodata._ZTIc  0x0205185c        0x8 d:/devkitpro/devkitarm/bin/../lib/gcc/arm-eabi/4.5.1/../../../../arm-eabi/lib\libstdc++.a(fundamental_type_info.o)
                0x0205185c                typeinfo for char
 .rodata._ZTIPKDi
                0x02051864       0x10 d:/devkitpro/devkitarm/bin/../lib/gcc/arm-eabi/4.5.1/../../../../arm-eabi/lib\libstdc++.a(fundamental_type_info.o)
                0x02051864                typeinfo for char32_t const*
 .rodata._ZTIPDi
                0x02051874       0x10 d:/devkitpro/devkitarm/bin/../lib/gcc/arm-eabi/4.5.1/../../../../arm-eabi/lib\libstdc++.a(fundamental_type_info.o)
                0x02051874                typeinfo for char32_t*
 .rodata._ZTIDi
                0x02051884        0x8 d:/devkitpro/devkitarm/bin/../lib/gcc/arm-eabi/4.5.1/../../../../arm-eabi/lib\libstdc++.a(fundamental_type_info.o)
                0x02051884                typeinfo for char32_t
 .rodata._ZTIPKDs
                0x0205188c       0x10 d:/devkitpro/devkitarm/bin/../lib/gcc/arm-eabi/4.5.1/../../../../arm-eabi/lib\libstdc++.a(fundamental_type_info.o)
                0x0205188c                typeinfo for char16_t const*
 .rodata._ZTIPDs
                0x0205189c       0x10 d:/devkitpro/devkitarm/bin/../lib/gcc/arm-eabi/4.5.1/../../../../arm-eabi/lib\libstdc++.a(fundamental_type_info.o)
                0x0205189c                typeinfo for char16_t*
 .rodata._ZTIDs
                0x020518ac        0x8 d:/devkitpro/devkitarm/bin/../lib/gcc/arm-eabi/4.5.1/../../../../arm-eabi/lib\libstdc++.a(fundamental_type_info.o)
                0x020518ac                typeinfo for char16_t
 .rodata._ZTIPKw
                0x020518b4       0x10 d:/devkitpro/devkitarm/bin/../lib/gcc/arm-eabi/4.5.1/../../../../arm-eabi/lib\libstdc++.a(fundamental_type_info.o)
                0x020518b4                typeinfo for wchar_t const*
 .rodata._ZTIPw
                0x020518c4       0x10 d:/devkitpro/devkitarm/bin/../lib/gcc/arm-eabi/4.5.1/../../../../arm-eabi/lib\libstdc++.a(fundamental_type_info.o)
                0x020518c4                typeinfo for wchar_t*
 .rodata._ZTIw  0x020518d4        0x8 d:/devkitpro/devkitarm/bin/../lib/gcc/arm-eabi/4.5.1/../../../../arm-eabi/lib\libstdc++.a(fundamental_type_info.o)
                0x020518d4                typeinfo for wchar_t
 .rodata._ZTIPKb
                0x020518dc       0x10 d:/devkitpro/devkitarm/bin/../lib/gcc/arm-eabi/4.5.1/../../../../arm-eabi/lib\libstdc++.a(fundamental_type_info.o)
                0x020518dc                typeinfo for bool const*
 .rodata._ZTIPb
                0x020518ec       0x10 d:/devkitpro/devkitarm/bin/../lib/gcc/arm-eabi/4.5.1/../../../../arm-eabi/lib\libstdc++.a(fundamental_type_info.o)
                0x020518ec                typeinfo for bool*
 .rodata._ZTIb  0x020518fc        0x8 d:/devkitpro/devkitarm/bin/../lib/gcc/arm-eabi/4.5.1/../../../../arm-eabi/lib\libstdc++.a(fundamental_type_info.o)
                0x020518fc                typeinfo for bool
 .rodata._ZTIPKv
                0x02051904       0x10 d:/devkitpro/devkitarm/bin/../lib/gcc/arm-eabi/4.5.1/../../../../arm-eabi/lib\libstdc++.a(fundamental_type_info.o)
                0x02051904                typeinfo for void const*
 .rodata._ZTIPv
                0x02051914       0x10 d:/devkitpro/devkitarm/bin/../lib/gcc/arm-eabi/4.5.1/../../../../arm-eabi/lib\libstdc++.a(fundamental_type_info.o)
                0x02051914                typeinfo for void*
 .rodata._ZTIv  0x02051924        0x8 d:/devkitpro/devkitarm/bin/../lib/gcc/arm-eabi/4.5.1/../../../../arm-eabi/lib\libstdc++.a(fundamental_type_info.o)
                0x02051924                typeinfo for void
 .rodata._ZTSPKDe
                0x0205192c        0x8 d:/devkitpro/devkitarm/bin/../lib/gcc/arm-eabi/4.5.1/../../../../arm-eabi/lib\libstdc++.a(fundamental_type_info.o)
                0x0205192c                typeinfo name for decimal128 const*
 .rodata._ZTSPDe
                0x02051934        0x4 d:/devkitpro/devkitarm/bin/../lib/gcc/arm-eabi/4.5.1/../../../../arm-eabi/lib\libstdc++.a(fundamental_type_info.o)
                0x02051934                typeinfo name for decimal128*
 .rodata._ZTSDe
                0x02051938        0x4 d:/devkitpro/devkitarm/bin/../lib/gcc/arm-eabi/4.5.1/../../../../arm-eabi/lib\libstdc++.a(fundamental_type_info.o)
                0x02051938                typeinfo name for decimal128
 .rodata._ZTSPKDd
                0x0205193c        0x8 d:/devkitpro/devkitarm/bin/../lib/gcc/arm-eabi/4.5.1/../../../../arm-eabi/lib\libstdc++.a(fundamental_type_info.o)
                0x0205193c                typeinfo name for decimal64 const*
 .rodata._ZTSPDd
                0x02051944        0x4 d:/devkitpro/devkitarm/bin/../lib/gcc/arm-eabi/4.5.1/../../../../arm-eabi/lib\libstdc++.a(fundamental_type_info.o)
                0x02051944                typeinfo name for decimal64*
 .rodata._ZTSDd
                0x02051948        0x4 d:/devkitpro/devkitarm/bin/../lib/gcc/arm-eabi/4.5.1/../../../../arm-eabi/lib\libstdc++.a(fundamental_type_info.o)
                0x02051948                typeinfo name for decimal64
 .rodata._ZTSPKDf
                0x0205194c        0x8 d:/devkitpro/devkitarm/bin/../lib/gcc/arm-eabi/4.5.1/../../../../arm-eabi/lib\libstdc++.a(fundamental_type_info.o)
                0x0205194c                typeinfo name for decimal32 const*
 .rodata._ZTSPDf
                0x02051954        0x4 d:/devkitpro/devkitarm/bin/../lib/gcc/arm-eabi/4.5.1/../../../../arm-eabi/lib\libstdc++.a(fundamental_type_info.o)
                0x02051954                typeinfo name for decimal32*
 .rodata._ZTSDf
                0x02051958        0x4 d:/devkitpro/devkitarm/bin/../lib/gcc/arm-eabi/4.5.1/../../../../arm-eabi/lib\libstdc++.a(fundamental_type_info.o)
                0x02051958                typeinfo name for decimal32
 .rodata._ZTSPKe
                0x0205195c        0x4 d:/devkitpro/devkitarm/bin/../lib/gcc/arm-eabi/4.5.1/../../../../arm-eabi/lib\libstdc++.a(fundamental_type_info.o)
                0x0205195c                typeinfo name for long double const*
 .rodata._ZTSPe
                0x02051960        0x4 d:/devkitpro/devkitarm/bin/../lib/gcc/arm-eabi/4.5.1/../../../../arm-eabi/lib\libstdc++.a(fundamental_type_info.o)
                0x02051960                typeinfo name for long double*
 .rodata._ZTSe  0x02051964        0x4 d:/devkitpro/devkitarm/bin/../lib/gcc/arm-eabi/4.5.1/../../../../arm-eabi/lib\libstdc++.a(fundamental_type_info.o)
                0x02051964                typeinfo name for long double
 .rodata._ZTSPKd
                0x02051968        0x4 d:/devkitpro/devkitarm/bin/../lib/gcc/arm-eabi/4.5.1/../../../../arm-eabi/lib\libstdc++.a(fundamental_type_info.o)
                0x02051968                typeinfo name for double const*
 .rodata._ZTSPd
                0x0205196c        0x4 d:/devkitpro/devkitarm/bin/../lib/gcc/arm-eabi/4.5.1/../../../../arm-eabi/lib\libstdc++.a(fundamental_type_info.o)
                0x0205196c                typeinfo name for double*
 .rodata._ZTSd  0x02051970        0x4 d:/devkitpro/devkitarm/bin/../lib/gcc/arm-eabi/4.5.1/../../../../arm-eabi/lib\libstdc++.a(fundamental_type_info.o)
                0x02051970                typeinfo name for double
 .rodata._ZTSPKf
                0x02051974        0x4 d:/devkitpro/devkitarm/bin/../lib/gcc/arm-eabi/4.5.1/../../../../arm-eabi/lib\libstdc++.a(fundamental_type_info.o)
                0x02051974                typeinfo name for float const*
 .rodata._ZTSPf
                0x02051978        0x4 d:/devkitpro/devkitarm/bin/../lib/gcc/arm-eabi/4.5.1/../../../../arm-eabi/lib\libstdc++.a(fundamental_type_info.o)
                0x02051978                typeinfo name for float*
 .rodata._ZTSf  0x0205197c        0x4 d:/devkitpro/devkitarm/bin/../lib/gcc/arm-eabi/4.5.1/../../../../arm-eabi/lib\libstdc++.a(fundamental_type_info.o)
                0x0205197c                typeinfo name for float
 .rodata._ZTSPKy
                0x02051980        0x4 d:/devkitpro/devkitarm/bin/../lib/gcc/arm-eabi/4.5.1/../../../../arm-eabi/lib\libstdc++.a(fundamental_type_info.o)
                0x02051980                typeinfo name for unsigned long long const*
 .rodata._ZTSPy
                0x02051984        0x4 d:/devkitpro/devkitarm/bin/../lib/gcc/arm-eabi/4.5.1/../../../../arm-eabi/lib\libstdc++.a(fundamental_type_info.o)
                0x02051984                typeinfo name for unsigned long long*
 .rodata._ZTSy  0x02051988        0x4 d:/devkitpro/devkitarm/bin/../lib/gcc/arm-eabi/4.5.1/../../../../arm-eabi/lib\libstdc++.a(fundamental_type_info.o)
                0x02051988                typeinfo name for unsigned long long
 .rodata._ZTSPKx
                0x0205198c        0x4 d:/devkitpro/devkitarm/bin/../lib/gcc/arm-eabi/4.5.1/../../../../arm-eabi/lib\libstdc++.a(fundamental_type_info.o)
                0x0205198c                typeinfo name for long long const*
 .rodata._ZTSPx
                0x02051990        0x4 d:/devkitpro/devkitarm/bin/../lib/gcc/arm-eabi/4.5.1/../../../../arm-eabi/lib\libstdc++.a(fundamental_type_info.o)
                0x02051990                typeinfo name for long long*
 .rodata._ZTSx  0x02051994        0x4 d:/devkitpro/devkitarm/bin/../lib/gcc/arm-eabi/4.5.1/../../../../arm-eabi/lib\libstdc++.a(fundamental_type_info.o)
                0x02051994                typeinfo name for long long
 .rodata._ZTSPKm
                0x02051998        0x4 d:/devkitpro/devkitarm/bin/../lib/gcc/arm-eabi/4.5.1/../../../../arm-eabi/lib\libstdc++.a(fundamental_type_info.o)
                0x02051998                typeinfo name for unsigned long const*
 .rodata._ZTSPm
                0x0205199c        0x4 d:/devkitpro/devkitarm/bin/../lib/gcc/arm-eabi/4.5.1/../../../../arm-eabi/lib\libstdc++.a(fundamental_type_info.o)
                0x0205199c                typeinfo name for unsigned long*
 .rodata._ZTSm  0x020519a0        0x4 d:/devkitpro/devkitarm/bin/../lib/gcc/arm-eabi/4.5.1/../../../../arm-eabi/lib\libstdc++.a(fundamental_type_info.o)
                0x020519a0                typeinfo name for unsigned long
 .rodata._ZTSPKl
                0x020519a4        0x4 d:/devkitpro/devkitarm/bin/../lib/gcc/arm-eabi/4.5.1/../../../../arm-eabi/lib\libstdc++.a(fundamental_type_info.o)
                0x020519a4                typeinfo name for long const*
 .rodata._ZTSPl
                0x020519a8        0x4 d:/devkitpro/devkitarm/bin/../lib/gcc/arm-eabi/4.5.1/../../../../arm-eabi/lib\libstdc++.a(fundamental_type_info.o)
                0x020519a8                typeinfo name for long*
 .rodata._ZTSl  0x020519ac        0x4 d:/devkitpro/devkitarm/bin/../lib/gcc/arm-eabi/4.5.1/../../../../arm-eabi/lib\libstdc++.a(fundamental_type_info.o)
                0x020519ac                typeinfo name for long
 .rodata._ZTSPKj
                0x020519b0        0x4 d:/devkitpro/devkitarm/bin/../lib/gcc/arm-eabi/4.5.1/../../../../arm-eabi/lib\libstdc++.a(fundamental_type_info.o)
                0x020519b0                typeinfo name for unsigned int const*
 .rodata._ZTSPj
                0x020519b4        0x4 d:/devkitpro/devkitarm/bin/../lib/gcc/arm-eabi/4.5.1/../../../../arm-eabi/lib\libstdc++.a(fundamental_type_info.o)
                0x020519b4                typeinfo name for unsigned int*
 .rodata._ZTSj  0x020519b8        0x4 d:/devkitpro/devkitarm/bin/../lib/gcc/arm-eabi/4.5.1/../../../../arm-eabi/lib\libstdc++.a(fundamental_type_info.o)
                0x020519b8                typeinfo name for unsigned int
 .rodata._ZTSPKi
                0x020519bc        0x4 d:/devkitpro/devkitarm/bin/../lib/gcc/arm-eabi/4.5.1/../../../../arm-eabi/lib\libstdc++.a(fundamental_type_info.o)
                0x020519bc                typeinfo name for int const*
 .rodata._ZTSPi
                0x020519c0        0x4 d:/devkitpro/devkitarm/bin/../lib/gcc/arm-eabi/4.5.1/../../../../arm-eabi/lib\libstdc++.a(fundamental_type_info.o)
                0x020519c0                typeinfo name for int*
 .rodata._ZTSi  0x020519c4        0x4 d:/devkitpro/devkitarm/bin/../lib/gcc/arm-eabi/4.5.1/../../../../arm-eabi/lib\libstdc++.a(fundamental_type_info.o)
                0x020519c4                typeinfo name for int
 .rodata._ZTSPKt
                0x020519c8        0x4 d:/devkitpro/devkitarm/bin/../lib/gcc/arm-eabi/4.5.1/../../../../arm-eabi/lib\libstdc++.a(fundamental_type_info.o)
                0x020519c8                typeinfo name for unsigned short const*
 .rodata._ZTSPt
                0x020519cc        0x4 d:/devkitpro/devkitarm/bin/../lib/gcc/arm-eabi/4.5.1/../../../../arm-eabi/lib\libstdc++.a(fundamental_type_info.o)
                0x020519cc                typeinfo name for unsigned short*
 .rodata._ZTSt  0x020519d0        0x4 d:/devkitpro/devkitarm/bin/../lib/gcc/arm-eabi/4.5.1/../../../../arm-eabi/lib\libstdc++.a(fundamental_type_info.o)
                0x020519d0                typeinfo name for unsigned short
 .rodata._ZTSPKs
                0x020519d4        0x4 d:/devkitpro/devkitarm/bin/../lib/gcc/arm-eabi/4.5.1/../../../../arm-eabi/lib\libstdc++.a(fundamental_type_info.o)
                0x020519d4                typeinfo name for short const*
 .rodata._ZTSPs
                0x020519d8        0x4 d:/devkitpro/devkitarm/bin/../lib/gcc/arm-eabi/4.5.1/../../../../arm-eabi/lib\libstdc++.a(fundamental_type_info.o)
                0x020519d8                typeinfo name for short*
 .rodata._ZTSs  0x020519dc        0x4 d:/devkitpro/devkitarm/bin/../lib/gcc/arm-eabi/4.5.1/../../../../arm-eabi/lib\libstdc++.a(fundamental_type_info.o)
                0x020519dc                typeinfo name for short
 .rodata._ZTSPKh
                0x020519e0        0x4 d:/devkitpro/devkitarm/bin/../lib/gcc/arm-eabi/4.5.1/../../../../arm-eabi/lib\libstdc++.a(fundamental_type_info.o)
                0x020519e0                typeinfo name for unsigned char const*
 .rodata._ZTSPh
                0x020519e4        0x4 d:/devkitpro/devkitarm/bin/../lib/gcc/arm-eabi/4.5.1/../../../../arm-eabi/lib\libstdc++.a(fundamental_type_info.o)
                0x020519e4                typeinfo name for unsigned char*
 .rodata._ZTSh  0x020519e8        0x4 d:/devkitpro/devkitarm/bin/../lib/gcc/arm-eabi/4.5.1/../../../../arm-eabi/lib\libstdc++.a(fundamental_type_info.o)
                0x020519e8                typeinfo name for unsigned char
 .rodata._ZTSPKa
                0x020519ec        0x4 d:/devkitpro/devkitarm/bin/../lib/gcc/arm-eabi/4.5.1/../../../../arm-eabi/lib\libstdc++.a(fundamental_type_info.o)
                0x020519ec                typeinfo name for signed char const*
 .rodata._ZTSPa
                0x020519f0        0x4 d:/devkitpro/devkitarm/bin/../lib/gcc/arm-eabi/4.5.1/../../../../arm-eabi/lib\libstdc++.a(fundamental_type_info.o)
                0x020519f0                typeinfo name for signed char*
 .rodata._ZTSa  0x020519f4        0x4 d:/devkitpro/devkitarm/bin/../lib/gcc/arm-eabi/4.5.1/../../../../arm-eabi/lib\libstdc++.a(fundamental_type_info.o)
                0x020519f4                typeinfo name for signed char
 .rodata._ZTSPKc
                0x020519f8        0x4 d:/devkitpro/devkitarm/bin/../lib/gcc/arm-eabi/4.5.1/../../../../arm-eabi/lib\libstdc++.a(fundamental_type_info.o)
                0x020519f8                typeinfo name for char const*
 .rodata._ZTSPc
                0x020519fc        0x4 d:/devkitpro/devkitarm/bin/../lib/gcc/arm-eabi/4.5.1/../../../../arm-eabi/lib\libstdc++.a(fundamental_type_info.o)
                0x020519fc                typeinfo name for char*
 .rodata._ZTSc  0x02051a00        0x4 d:/devkitpro/devkitarm/bin/../lib/gcc/arm-eabi/4.5.1/../../../../arm-eabi/lib\libstdc++.a(fundamental_type_info.o)
                0x02051a00                typeinfo name for char
 .rodata._ZTSPKDi
                0x02051a04        0x8 d:/devkitpro/devkitarm/bin/../lib/gcc/arm-eabi/4.5.1/../../../../arm-eabi/lib\libstdc++.a(fundamental_type_info.o)
                0x02051a04                typeinfo name for char32_t const*
 .rodata._ZTSPDi
                0x02051a0c        0x4 d:/devkitpro/devkitarm/bin/../lib/gcc/arm-eabi/4.5.1/../../../../arm-eabi/lib\libstdc++.a(fundamental_type_info.o)
                0x02051a0c                typeinfo name for char32_t*
 .rodata._ZTSDi
                0x02051a10        0x4 d:/devkitpro/devkitarm/bin/../lib/gcc/arm-eabi/4.5.1/../../../../arm-eabi/lib\libstdc++.a(fundamental_type_info.o)
                0x02051a10                typeinfo name for char32_t
 .rodata._ZTSPKDs
                0x02051a14        0x8 d:/devkitpro/devkitarm/bin/../lib/gcc/arm-eabi/4.5.1/../../../../arm-eabi/lib\libstdc++.a(fundamental_type_info.o)
                0x02051a14                typeinfo name for char16_t const*
 .rodata._ZTSPDs
                0x02051a1c        0x4 d:/devkitpro/devkitarm/bin/../lib/gcc/arm-eabi/4.5.1/../../../../arm-eabi/lib\libstdc++.a(fundamental_type_info.o)
                0x02051a1c                typeinfo name for char16_t*
 .rodata._ZTSDs
                0x02051a20        0x4 d:/devkitpro/devkitarm/bin/../lib/gcc/arm-eabi/4.5.1/../../../../arm-eabi/lib\libstdc++.a(fundamental_type_info.o)
                0x02051a20                typeinfo name for char16_t
 .rodata._ZTSPKw
                0x02051a24        0x4 d:/devkitpro/devkitarm/bin/../lib/gcc/arm-eabi/4.5.1/../../../../arm-eabi/lib\libstdc++.a(fundamental_type_info.o)
                0x02051a24                typeinfo name for wchar_t const*
 .rodata._ZTSPw
                0x02051a28        0x4 d:/devkitpro/devkitarm/bin/../lib/gcc/arm-eabi/4.5.1/../../../../arm-eabi/lib\libstdc++.a(fundamental_type_info.o)
                0x02051a28                typeinfo name for wchar_t*
 .rodata._ZTSw  0x02051a2c        0x4 d:/devkitpro/devkitarm/bin/../lib/gcc/arm-eabi/4.5.1/../../../../arm-eabi/lib\libstdc++.a(fundamental_type_info.o)
                0x02051a2c                typeinfo name for wchar_t
 .rodata._ZTSPKb
                0x02051a30        0x4 d:/devkitpro/devkitarm/bin/../lib/gcc/arm-eabi/4.5.1/../../../../arm-eabi/lib\libstdc++.a(fundamental_type_info.o)
                0x02051a30                typeinfo name for bool const*
 .rodata._ZTSPb
                0x02051a34        0x4 d:/devkitpro/devkitarm/bin/../lib/gcc/arm-eabi/4.5.1/../../../../arm-eabi/lib\libstdc++.a(fundamental_type_info.o)
                0x02051a34                typeinfo name for bool*
 .rodata._ZTSb  0x02051a38        0x4 d:/devkitpro/devkitarm/bin/../lib/gcc/arm-eabi/4.5.1/../../../../arm-eabi/lib\libstdc++.a(fundamental_type_info.o)
                0x02051a38                typeinfo name for bool
 .rodata._ZTSPKv
                0x02051a3c        0x4 d:/devkitpro/devkitarm/bin/../lib/gcc/arm-eabi/4.5.1/../../../../arm-eabi/lib\libstdc++.a(fundamental_type_info.o)
                0x02051a3c                typeinfo name for void const*
 .rodata._ZTSPv
                0x02051a40        0x4 d:/devkitpro/devkitarm/bin/../lib/gcc/arm-eabi/4.5.1/../../../../arm-eabi/lib\libstdc++.a(fundamental_type_info.o)
                0x02051a40                typeinfo name for void*
 .rodata._ZTSv  0x02051a44        0x4 d:/devkitpro/devkitarm/bin/../lib/gcc/arm-eabi/4.5.1/../../../../arm-eabi/lib\libstdc++.a(fundamental_type_info.o)
                0x02051a44                typeinfo name for void
 .rodata._ZTIN10__cxxabiv123__fundamental_type_infoE
                0x02051a48        0xc d:/devkitpro/devkitarm/bin/../lib/gcc/arm-eabi/4.5.1/../../../../arm-eabi/lib\libstdc++.a(fundamental_type_info.o)
                0x02051a48                typeinfo for __cxxabiv1::__fundamental_type_info
 .rodata._ZTSN10__cxxabiv123__fundamental_type_infoE
                0x02051a54       0x28 d:/devkitpro/devkitarm/bin/../lib/gcc/arm-eabi/4.5.1/../../../../arm-eabi/lib\libstdc++.a(fundamental_type_info.o)
                0x02051a54                typeinfo name for __cxxabiv1::__fundamental_type_info
 *fill*         0x02051a7c        0x4 ff
 .rodata._ZTVN10__cxxabiv123__fundamental_type_infoE
                0x02051a80       0x20 d:/devkitpro/devkitarm/bin/../lib/gcc/arm-eabi/4.5.1/../../../../arm-eabi/lib\libstdc++.a(fundamental_type_info.o)
                0x02051a80                vtable for __cxxabiv1::__fundamental_type_info
 .rodata._ZTVSt9bad_alloc
                0x02051aa0       0x18 d:/devkitpro/devkitarm/bin/../lib/gcc/arm-eabi/4.5.1/../../../../arm-eabi/lib\libstdc++.a(new_handler.o)
                0x02051aa0                vtable for std::bad_alloc
 .rodata._ZTSSt9bad_alloc
                0x02051ab8       0x10 d:/devkitpro/devkitarm/bin/../lib/gcc/arm-eabi/4.5.1/../../../../arm-eabi/lib\libstdc++.a(new_handler.o)
                0x02051ab8                typeinfo name for std::bad_alloc
 .rodata._ZTISt9bad_alloc
                0x02051ac8        0xc d:/devkitpro/devkitarm/bin/../lib/gcc/arm-eabi/4.5.1/../../../../arm-eabi/lib\libstdc++.a(new_handler.o)
                0x02051ac8                typeinfo for std::bad_alloc
 .rodata.str1.4
                0x02051ad4        0xf d:/devkitpro/devkitarm/bin/../lib/gcc/arm-eabi/4.5.1/../../../../arm-eabi/lib\libstdc++.a(new_handler.o)
                                 0x10 (size before relaxing)
 *fill*         0x02051ae3        0x1 ff
 .rodata._ZSt7nothrow
                0x02051ae4        0x4 d:/devkitpro/devkitarm/bin/../lib/gcc/arm-eabi/4.5.1/../../../../arm-eabi/lib\libstdc++.a(new_handler.o)
                0x02051ae4                std::nothrow
 .rodata._ZTSN10__cxxabiv119__pointer_type_infoE
                0x02051ae8       0x24 d:/devkitpro/devkitarm/bin/../lib/gcc/arm-eabi/4.5.1/../../../../arm-eabi/lib\libstdc++.a(pointer_type_info.o)
                0x02051ae8                typeinfo name for __cxxabiv1::__pointer_type_info
 .rodata._ZTIN10__cxxabiv119__pointer_type_infoE
                0x02051b0c        0xc d:/devkitpro/devkitarm/bin/../lib/gcc/arm-eabi/4.5.1/../../../../arm-eabi/lib\libstdc++.a(pointer_type_info.o)
                0x02051b0c                typeinfo for __cxxabiv1::__pointer_type_info
 .rodata._ZTVN10__cxxabiv119__pointer_type_infoE
                0x02051b18       0x28 d:/devkitpro/devkitarm/bin/../lib/gcc/arm-eabi/4.5.1/../../../../arm-eabi/lib\libstdc++.a(pointer_type_info.o)
                0x02051b18                vtable for __cxxabiv1::__pointer_type_info
 .rodata.str1.4
                0x02051b40       0x1c d:/devkitpro/devkitarm/bin/../lib/gcc/arm-eabi/4.5.1/../../../../arm-eabi/lib\libstdc++.a(pure.o)
 *fill*         0x02051b5c        0x4 ff
 .rodata._ZTVN10__cxxabiv120__si_class_type_infoE
                0x02051b60       0x30 d:/devkitpro/devkitarm/bin/../lib/gcc/arm-eabi/4.5.1/../../../../arm-eabi/lib\libstdc++.a(si_class_type_info.o)
                0x02051b60                vtable for __cxxabiv1::__si_class_type_info
 .rodata._ZTIN10__cxxabiv120__si_class_type_infoE
                0x02051b90        0xc d:/devkitpro/devkitarm/bin/../lib/gcc/arm-eabi/4.5.1/../../../../arm-eabi/lib\libstdc++.a(si_class_type_info.o)
                0x02051b90                typeinfo for __cxxabiv1::__si_class_type_info
 .rodata._ZTSN10__cxxabiv120__si_class_type_infoE
                0x02051b9c       0x28 d:/devkitpro/devkitarm/bin/../lib/gcc/arm-eabi/4.5.1/../../../../arm-eabi/lib\libstdc++.a(si_class_type_info.o)
                0x02051b9c                typeinfo name for __cxxabiv1::__si_class_type_info
 .rodata._ZTISt9type_info
                0x02051bc4        0x8 d:/devkitpro/devkitarm/bin/../lib/gcc/arm-eabi/4.5.1/../../../../arm-eabi/lib\libstdc++.a(tinfo.o)
                0x02051bc4                typeinfo for std::type_info
 .rodata._ZTSSt9type_info
                0x02051bcc       0x10 d:/devkitpro/devkitarm/bin/../lib/gcc/arm-eabi/4.5.1/../../../../arm-eabi/lib\libstdc++.a(tinfo.o)
                0x02051bcc                typeinfo name for std::type_info
 *fill*         0x02051bdc        0x4 ff
 .rodata._ZTVSt9type_info
                0x02051be0       0x20 d:/devkitpro/devkitarm/bin/../lib/gcc/arm-eabi/4.5.1/../../../../arm-eabi/lib\libstdc++.a(tinfo.o)
                0x02051be0                vtable for std::type_info
 .rodata.str1.4
                0x02051c00       0x94 d:/devkitpro/devkitarm/bin/../lib/gcc/arm-eabi/4.5.1/../../../../arm-eabi/lib\libstdc++.a(vterminate.o)
 .rodata._ZTISt8bad_cast
                0x02051c94        0xc d:/devkitpro/devkitarm/bin/../lib/gcc/arm-eabi/4.5.1/../../../../arm-eabi/lib\libstdc++.a(bad_cast.o)
                0x02051c94                typeinfo for std::bad_cast
 .rodata._ZTSSt8bad_cast
                0x02051ca0        0xc d:/devkitpro/devkitarm/bin/../lib/gcc/arm-eabi/4.5.1/../../../../arm-eabi/lib\libstdc++.a(bad_cast.o)
                0x02051ca0                typeinfo name for std::bad_cast
 *fill*         0x02051cac        0x4 ff
 .rodata._ZTVSt8bad_cast
                0x02051cb0       0x18 d:/devkitpro/devkitarm/bin/../lib/gcc/arm-eabi/4.5.1/../../../../arm-eabi/lib\libstdc++.a(bad_cast.o)
                0x02051cb0                vtable for std::bad_cast
 .rodata.str1.4
                0x02051cc8        0xe d:/devkitpro/devkitarm/bin/../lib/gcc/arm-eabi/4.5.1/../../../../arm-eabi/lib\libstdc++.a(bad_cast.o)
                                 0x10 (size before relaxing)
 *fill*         0x02051cd6        0x2 ff
 .rodata._ZTVSt10bad_typeid
                0x02051cd8       0x18 d:/devkitpro/devkitarm/bin/../lib/gcc/arm-eabi/4.5.1/../../../../arm-eabi/lib\libstdc++.a(bad_typeid.o)
                0x02051cd8                vtable for std::bad_typeid
 .rodata._ZTISt10bad_typeid
                0x02051cf0        0xc d:/devkitpro/devkitarm/bin/../lib/gcc/arm-eabi/4.5.1/../../../../arm-eabi/lib\libstdc++.a(bad_typeid.o)
                0x02051cf0                typeinfo for std::bad_typeid
 .rodata.str1.4
                0x02051cfc       0x10 d:/devkitpro/devkitarm/bin/../lib/gcc/arm-eabi/4.5.1/../../../../arm-eabi/lib\libstdc++.a(bad_typeid.o)
 .rodata._ZTSSt10bad_typeid
                0x02051d0c       0x10 d:/devkitpro/devkitarm/bin/../lib/gcc/arm-eabi/4.5.1/../../../../arm-eabi/lib\libstdc++.a(bad_typeid.o)
                0x02051d0c                typeinfo name for std::bad_typeid
 *fill*         0x02051d1c        0x4 ff
 .rodata._ZTVN10__cxxabiv117__class_type_infoE
                0x02051d20       0x30 d:/devkitpro/devkitarm/bin/../lib/gcc/arm-eabi/4.5.1/../../../../arm-eabi/lib\libstdc++.a(class_type_info.o)
                0x02051d20                vtable for __cxxabiv1::__class_type_info
 .rodata._ZTIN10__cxxabiv117__class_type_infoE
                0x02051d50        0xc d:/devkitpro/devkitarm/bin/../lib/gcc/arm-eabi/4.5.1/../../../../arm-eabi/lib\libstdc++.a(class_type_info.o)
                0x02051d50                typeinfo for __cxxabiv1::__class_type_info
 .rodata._ZTSN10__cxxabiv117__class_type_infoE
                0x02051d5c       0x24 d:/devkitpro/devkitarm/bin/../lib/gcc/arm-eabi/4.5.1/../../../../arm-eabi/lib\libstdc++.a(class_type_info.o)
                0x02051d5c                typeinfo name for __cxxabiv1::__class_type_info
 .rodata.str1.4
                0x02051d80      0x6db d:/devkitpro/devkitarm/bin/../lib/gcc/arm-eabi/4.5.1/../../../../arm-eabi/lib\libstdc++.a(cp-demangle.o)
                                0x710 (size before relaxing)
 *fill*         0x0205245b        0x1 ff
 .rodata._ZTIN10__cxxabiv117__pbase_type_infoE
                0x0205245c        0xc d:/devkitpro/devkitarm/bin/../lib/gcc/arm-eabi/4.5.1/../../../../arm-eabi/lib\libstdc++.a(pbase_type_info.o)
                0x0205245c                typeinfo for __cxxabiv1::__pbase_type_info
 .rodata._ZTSN10__cxxabiv117__pbase_type_infoE
                0x02052468       0x24 d:/devkitpro/devkitarm/bin/../lib/gcc/arm-eabi/4.5.1/../../../../arm-eabi/lib\libstdc++.a(pbase_type_info.o)
                0x02052468                typeinfo name for __cxxabiv1::__pbase_type_info
 *fill*         0x0205248c        0x4 ff
 .rodata._ZTVN10__cxxabiv117__pbase_type_infoE
                0x02052490       0x28 d:/devkitpro/devkitarm/bin/../lib/gcc/arm-eabi/4.5.1/../../../../arm-eabi/lib\libstdc++.a(pbase_type_info.o)
                0x02052490                vtable for __cxxabiv1::__pbase_type_info
 .rodata.str1.4
                0x020524b8        0x4 d:/devkitpro/devkitarm/bin/../lib/gcc/arm-eabi/4.5.1/../../../../arm-eabi/lib\libm.a(lib_a-w_pow.o)
 .rodata.str1.4
                0x00000000        0x4 d:/devkitpro/devkitarm/bin/../lib/gcc/arm-eabi/4.5.1/../../../../arm-eabi/lib\libm.a(lib_a-e_pow.o)
 .rodata.str1.4
                0x020524bc        0x2 d:/devkitpro/devkitarm/bin/../lib/gcc/arm-eabi/4.5.1/../../../../arm-eabi/lib\libg.a(lib_a-impure.o)
                                  0x4 (size before relaxing)
 *fill*         0x020524be        0x2 ff
 .rodata.str1.4
                0x020524c0        0xa d:/devkitpro/devkitarm/bin/../lib/gcc/arm-eabi/4.5.1/../../../../arm-eabi/lib\libg.a(lib_a-strtod.o)
                                 0x10 (size before relaxing)
 *fill*         0x020524ca        0x2 ff
 .rodata.str1.4
                0x020524cc       0x42 d:/devkitpro/devkitarm/bin/../lib/gcc/arm-eabi/4.5.1/../../../../arm-eabi/lib\libg.a(lib_a-svfprintf.o)
                                 0x44 (size before relaxing)
 .rodata.str1.4
                0x00000000       0x44 d:/devkitpro/devkitarm/bin/../lib/gcc/arm-eabi/4.5.1/../../../../arm-eabi/lib\libg.a(lib_a-vfprintf.o)
 *fill*         0x0205250e        0x2 ff
 .rodata.str1.4
                0x02052510       0x10 d:/devkitpro/devkitarm/bin/../lib/gcc/arm-eabi/4.5.1/../../../../arm-eabi/lib\libg.a(lib_a-dtoa.o)
                                 0x14 (size before relaxing)
 .rodata.str1.4
                0x02052520       0x1b d:/devkitpro/devkitarm/bin/../lib/gcc/arm-eabi/4.5.1/../../../../arm-eabi/lib\libg.a(lib_a-gdtoa-gethex.o)
                                 0x1c (size before relaxing)
 *fill*         0x0205253b        0x1 ff
 .rodata.str1.4
                0x0205253c       0xe0 d:/devkitpro/devkitarm/bin/../lib/gcc/arm-eabi/4.5.1/../../../../arm-eabi/lib\libg.a(lib_a-locale.o)
                                 0xf0 (size before relaxing)
 .rodata.str1.4
                0x00000000       0x30 d:/devkitpro/devkitarm/bin/../lib/gcc/arm-eabi/4.5.1/../../../../arm-eabi/lib\libg.a(lib_a-svfiprintf.o)
 .rodata.str1.4
                0x00000000       0x30 d:/devkitpro/devkitarm/bin/../lib/gcc/arm-eabi/4.5.1/../../../../arm-eabi/lib\libg.a(lib_a-vfiprintf.o)
 .rodata.str1.4
                0x0205261c        0x8 d:/devkitpro/devkitarm/bin/../lib/gcc/arm-eabi/4.5.1/../../../../arm-eabi/lib\libsysbase.a(iosupport.o)
 *(.gnu.linkonce.r*)
                0x02052624                . = ALIGN (0x4)

.ARM.extab      0x02052624      0x18c
 *(.ARM.extab* .gnu.linkonce.armextab.*)
 .ARM.extab.text._Znwj
                0x02052624       0x20 d:/devkitpro/devkitarm/bin/../lib/gcc/arm-eabi/4.5.1/../../../../arm-eabi/lib\libstdc++.a(new_op.o)
 .ARM.extab.text.__cxa_allocate_exception
                0x02052644        0x0 d:/devkitpro/devkitarm/bin/../lib/gcc/arm-eabi/4.5.1/../../../../arm-eabi/lib\libstdc++.a(eh_alloc.o)
 .ARM.extab.text.__cxa_free_exception
                0x02052644        0x0 d:/devkitpro/devkitarm/bin/../lib/gcc/arm-eabi/4.5.1/../../../../arm-eabi/lib\libstdc++.a(eh_alloc.o)
 .ARM.extab.text.__cxa_allocate_dependent_exception
                0x02052644        0x0 d:/devkitpro/devkitarm/bin/../lib/gcc/arm-eabi/4.5.1/../../../../arm-eabi/lib\libstdc++.a(eh_alloc.o)
 .ARM.extab.text.__cxa_free_dependent_exception
                0x02052644        0x0 d:/devkitpro/devkitarm/bin/../lib/gcc/arm-eabi/4.5.1/../../../../arm-eabi/lib\libstdc++.a(eh_alloc.o)
 .ARM.extab.text._GLOBAL__I___cxa_allocate_exception
                0x02052644        0x0 d:/devkitpro/devkitarm/bin/../lib/gcc/arm-eabi/4.5.1/../../../../arm-eabi/lib\libstdc++.a(eh_alloc.o)
 .ARM.extab.text.__cxa_type_match
                0x02052644        0x0 d:/devkitpro/devkitarm/bin/../lib/gcc/arm-eabi/4.5.1/../../../../arm-eabi/lib\libstdc++.a(eh_arm.o)
 .ARM.extab.text.__cxa_begin_cleanup
                0x02052644        0x0 d:/devkitpro/devkitarm/bin/../lib/gcc/arm-eabi/4.5.1/../../../../arm-eabi/lib\libstdc++.a(eh_arm.o)
 .ARM.extab.text.__gnu_end_cleanup
                0x02052644        0x0 d:/devkitpro/devkitarm/bin/../lib/gcc/arm-eabi/4.5.1/../../../../arm-eabi/lib\libstdc++.a(eh_arm.o)
 .ARM.extab.text.__cxa_bad_cast
                0x02052644        0xc d:/devkitpro/devkitarm/bin/../lib/gcc/arm-eabi/4.5.1/../../../../arm-eabi/lib\libstdc++.a(eh_aux_runtime.o)
 .ARM.extab.text.__cxa_bad_typeid
                0x02052650        0xc d:/devkitpro/devkitarm/bin/../lib/gcc/arm-eabi/4.5.1/../../../../arm-eabi/lib\libstdc++.a(eh_aux_runtime.o)
 .ARM.extab.text.__cxa_call_terminate
                0x0205265c        0x0 d:/devkitpro/devkitarm/bin/../lib/gcc/arm-eabi/4.5.1/../../../../arm-eabi/lib\libstdc++.a(eh_call.o)
 .ARM.extab.text.__cxa_call_unexpected
                0x0205265c       0x30 d:/devkitpro/devkitarm/bin/../lib/gcc/arm-eabi/4.5.1/../../../../arm-eabi/lib\libstdc++.a(eh_call.o)
 .ARM.extab.text.__cxa_get_exception_ptr
                0x0205268c        0x0 d:/devkitpro/devkitarm/bin/../lib/gcc/arm-eabi/4.5.1/../../../../arm-eabi/lib\libstdc++.a(eh_catch.o)
 .ARM.extab.text.__cxa_begin_catch
                0x0205268c       0x20 d:/devkitpro/devkitarm/bin/../lib/gcc/arm-eabi/4.5.1/../../../../arm-eabi/lib\libstdc++.a(eh_catch.o)
 .ARM.extab.text.__cxa_end_catch
                0x020526ac        0xc d:/devkitpro/devkitarm/bin/../lib/gcc/arm-eabi/4.5.1/../../../../arm-eabi/lib\libstdc++.a(eh_catch.o)
 .ARM.extab.text._ZSt18uncaught_exceptionv
                0x020526b8        0x0 d:/devkitpro/devkitarm/bin/../lib/gcc/arm-eabi/4.5.1/../../../../arm-eabi/lib\libstdc++.a(eh_catch.o)
 .ARM.extab.text._ZNSt9exceptionD2Ev
                0x020526b8        0x0 d:/devkitpro/devkitarm/bin/../lib/gcc/arm-eabi/4.5.1/../../../../arm-eabi/lib\libstdc++.a(eh_exception.o)
 .ARM.extab.text._ZNSt13bad_exceptionD2Ev
                0x020526b8        0x0 d:/devkitpro/devkitarm/bin/../lib/gcc/arm-eabi/4.5.1/../../../../arm-eabi/lib\libstdc++.a(eh_exception.o)
 .ARM.extab.text._ZN10__cxxabiv115__forced_unwindD2Ev
                0x020526b8        0x0 d:/devkitpro/devkitarm/bin/../lib/gcc/arm-eabi/4.5.1/../../../../arm-eabi/lib\libstdc++.a(eh_exception.o)
 .ARM.extab.text._ZN10__cxxabiv119__foreign_exceptionD2Ev
                0x020526b8        0x0 d:/devkitpro/devkitarm/bin/../lib/gcc/arm-eabi/4.5.1/../../../../arm-eabi/lib\libstdc++.a(eh_exception.o)
 .ARM.extab.text._ZNKSt9exception4whatEv
                0x020526b8        0x0 d:/devkitpro/devkitarm/bin/../lib/gcc/arm-eabi/4.5.1/../../../../arm-eabi/lib\libstdc++.a(eh_exception.o)
 .ARM.extab.text._ZNKSt13bad_exception4whatEv
                0x020526b8        0x0 d:/devkitpro/devkitarm/bin/../lib/gcc/arm-eabi/4.5.1/../../../../arm-eabi/lib\libstdc++.a(eh_exception.o)
 .ARM.extab.text._ZN10__cxxabiv119__foreign_exceptionD0Ev
                0x020526b8        0x0 d:/devkitpro/devkitarm/bin/../lib/gcc/arm-eabi/4.5.1/../../../../arm-eabi/lib\libstdc++.a(eh_exception.o)
 .ARM.extab.text._ZN10__cxxabiv115__forced_unwindD0Ev
                0x020526b8        0x0 d:/devkitpro/devkitarm/bin/../lib/gcc/arm-eabi/4.5.1/../../../../arm-eabi/lib\libstdc++.a(eh_exception.o)
 .ARM.extab.text._ZNSt13bad_exceptionD0Ev
                0x020526b8        0x0 d:/devkitpro/devkitarm/bin/../lib/gcc/arm-eabi/4.5.1/../../../../arm-eabi/lib\libstdc++.a(eh_exception.o)
 .ARM.extab.text._ZNSt9exceptionD0Ev
                0x020526b8        0x0 d:/devkitpro/devkitarm/bin/../lib/gcc/arm-eabi/4.5.1/../../../../arm-eabi/lib\libstdc++.a(eh_exception.o)
 .ARM.extab.text.__cxa_get_globals_fast
                0x020526b8        0x0 d:/devkitpro/devkitarm/bin/../lib/gcc/arm-eabi/4.5.1/../../../../arm-eabi/lib\libstdc++.a(eh_globals.o)
 .ARM.extab.text.__cxa_get_globals
                0x020526b8        0x0 d:/devkitpro/devkitarm/bin/../lib/gcc/arm-eabi/4.5.1/../../../../arm-eabi/lib\libstdc++.a(eh_globals.o)
 .ARM.extab.text._ZL12read_sleb128PKhPl
                0x020526b8        0x0 d:/devkitpro/devkitarm/bin/../lib/gcc/arm-eabi/4.5.1/../../../../arm-eabi/lib\libstdc++.a(eh_personality.o)
 .ARM.extab.text._ZL28read_encoded_value_with_basehjPKhPj
                0x020526b8        0x0 d:/devkitpro/devkitarm/bin/../lib/gcc/arm-eabi/4.5.1/../../../../arm-eabi/lib\libstdc++.a(eh_personality.o)
 .ARM.extab.text._ZL21base_of_encoded_valuehP15_Unwind_Context
                0x020526b8        0xc d:/devkitpro/devkitarm/bin/../lib/gcc/arm-eabi/4.5.1/../../../../arm-eabi/lib\libstdc++.a(eh_personality.o)
 .ARM.extab.text._ZL17parse_lsda_headerP15_Unwind_ContextPKhP16lsda_header_info
                0x020526c4        0x0 d:/devkitpro/devkitarm/bin/../lib/gcc/arm-eabi/4.5.1/../../../../arm-eabi/lib\libstdc++.a(eh_personality.o)
 .ARM.extab.text.__gxx_personality_v0
                0x020526c4       0x24 d:/devkitpro/devkitarm/bin/../lib/gcc/arm-eabi/4.5.1/../../../../arm-eabi/lib\libstdc++.a(eh_personality.o)
 .ARM.extab.text._ZN10__cxxabiv111__terminateEPFvvE
                0x020526e8       0x28 d:/devkitpro/devkitarm/bin/../lib/gcc/arm-eabi/4.5.1/../../../../arm-eabi/lib\libstdc++.a(eh_terminate.o)
 .ARM.extab.text._ZSt9terminatev
                0x02052710        0x0 d:/devkitpro/devkitarm/bin/../lib/gcc/arm-eabi/4.5.1/../../../../arm-eabi/lib\libstdc++.a(eh_terminate.o)
 .ARM.extab.text._ZN10__cxxabiv112__unexpectedEPFvvE
                0x02052710        0xc d:/devkitpro/devkitarm/bin/../lib/gcc/arm-eabi/4.5.1/../../../../arm-eabi/lib\libstdc++.a(eh_terminate.o)
 .ARM.extab.text._ZSt10unexpectedv
                0x0205271c        0xc d:/devkitpro/devkitarm/bin/../lib/gcc/arm-eabi/4.5.1/../../../../arm-eabi/lib\libstdc++.a(eh_terminate.o)
 .ARM.extab.text._ZSt13set_terminatePFvvE
                0x02052728        0x0 d:/devkitpro/devkitarm/bin/../lib/gcc/arm-eabi/4.5.1/../../../../arm-eabi/lib\libstdc++.a(eh_terminate.o)
 .ARM.extab.text._ZSt14set_unexpectedPFvvE
                0x02052728        0x0 d:/devkitpro/devkitarm/bin/../lib/gcc/arm-eabi/4.5.1/../../../../arm-eabi/lib\libstdc++.a(eh_terminate.o)
 .ARM.extab.text._ZL23__gxx_exception_cleanup19_Unwind_Reason_CodeP21_Unwind_Control_Block
                0x02052728        0x0 d:/devkitpro/devkitarm/bin/../lib/gcc/arm-eabi/4.5.1/../../../../arm-eabi/lib\libstdc++.a(eh_throw.o)
 .ARM.extab.text.__cxa_throw
                0x02052728        0x0 d:/devkitpro/devkitarm/bin/../lib/gcc/arm-eabi/4.5.1/../../../../arm-eabi/lib\libstdc++.a(eh_throw.o)
 .ARM.extab.text.__cxa_rethrow
                0x02052728        0x0 d:/devkitpro/devkitarm/bin/../lib/gcc/arm-eabi/4.5.1/../../../../arm-eabi/lib\libstdc++.a(eh_throw.o)
 .ARM.extab.text._ZN10__cxxabiv123__fundamental_type_infoD2Ev
                0x02052728        0x0 d:/devkitpro/devkitarm/bin/../lib/gcc/arm-eabi/4.5.1/../../../../arm-eabi/lib\libstdc++.a(fundamental_type_info.o)
 .ARM.extab.text._ZN10__cxxabiv123__fundamental_type_infoD0Ev
                0x02052728        0x0 d:/devkitpro/devkitarm/bin/../lib/gcc/arm-eabi/4.5.1/../../../../arm-eabi/lib\libstdc++.a(fundamental_type_info.o)
 .ARM.extab.text._ZNKSt9bad_alloc4whatEv
                0x02052728        0x0 d:/devkitpro/devkitarm/bin/../lib/gcc/arm-eabi/4.5.1/../../../../arm-eabi/lib\libstdc++.a(new_handler.o)
 .ARM.extab.text._ZNSt9bad_allocD2Ev
                0x02052728        0x0 d:/devkitpro/devkitarm/bin/../lib/gcc/arm-eabi/4.5.1/../../../../arm-eabi/lib\libstdc++.a(new_handler.o)
 .ARM.extab.text._ZNSt9bad_allocD0Ev
                0x02052728        0x0 d:/devkitpro/devkitarm/bin/../lib/gcc/arm-eabi/4.5.1/../../../../arm-eabi/lib\libstdc++.a(new_handler.o)
 .ARM.extab.text._ZSt15set_new_handlerPFvvE
                0x02052728        0x0 d:/devkitpro/devkitarm/bin/../lib/gcc/arm-eabi/4.5.1/../../../../arm-eabi/lib\libstdc++.a(new_handler.o)
 .ARM.extab.text._ZNK10__cxxabiv119__pointer_type_info14__is_pointer_pEv
                0x02052728        0x0 d:/devkitpro/devkitarm/bin/../lib/gcc/arm-eabi/4.5.1/../../../../arm-eabi/lib\libstdc++.a(pointer_type_info.o)
 .ARM.extab.text._ZNK10__cxxabiv119__pointer_type_info15__pointer_catchEPKNS_17__pbase_type_infoEPPvj
                0x02052728        0x0 d:/devkitpro/devkitarm/bin/../lib/gcc/arm-eabi/4.5.1/../../../../arm-eabi/lib\libstdc++.a(pointer_type_info.o)
 .ARM.extab.text._ZN10__cxxabiv119__pointer_type_infoD2Ev
                0x02052728        0x0 d:/devkitpro/devkitarm/bin/../lib/gcc/arm-eabi/4.5.1/../../../../arm-eabi/lib\libstdc++.a(pointer_type_info.o)
 .ARM.extab.text._ZN10__cxxabiv119__pointer_type_infoD0Ev
                0x02052728        0x0 d:/devkitpro/devkitarm/bin/../lib/gcc/arm-eabi/4.5.1/../../../../arm-eabi/lib\libstdc++.a(pointer_type_info.o)
 .ARM.extab.text.__cxa_pure_virtual
                0x02052728        0xc d:/devkitpro/devkitarm/bin/../lib/gcc/arm-eabi/4.5.1/../../../../arm-eabi/lib\libstdc++.a(pure.o)
 .ARM.extab.text._ZNK10__cxxabiv120__si_class_type_info11__do_upcastEPKNS_17__class_type_infoEPKvRNS1_15__upcast_resultE
                0x02052734        0x0 d:/devkitpro/devkitarm/bin/../lib/gcc/arm-eabi/4.5.1/../../../../arm-eabi/lib\libstdc++.a(si_class_type_info.o)
 .ARM.extab.text._ZNK10__cxxabiv120__si_class_type_info12__do_dyncastEiNS_17__class_type_info10__sub_kindEPKS1_PKvS4_S6_RNS1_16__dyncast_resultE
                0x02052734        0x0 d:/devkitpro/devkitarm/bin/../lib/gcc/arm-eabi/4.5.1/../../../../arm-eabi/lib\libstdc++.a(si_class_type_info.o)
 .ARM.extab.text._ZNK10__cxxabiv120__si_class_type_info20__do_find_public_srcEiPKvPKNS_17__class_type_infoES2_
                0x02052734        0x0 d:/devkitpro/devkitarm/bin/../lib/gcc/arm-eabi/4.5.1/../../../../arm-eabi/lib\libstdc++.a(si_class_type_info.o)
 .ARM.extab.text._ZN10__cxxabiv120__si_class_type_infoD2Ev
                0x02052734        0x0 d:/devkitpro/devkitarm/bin/../lib/gcc/arm-eabi/4.5.1/../../../../arm-eabi/lib\libstdc++.a(si_class_type_info.o)
 .ARM.extab.text._ZN10__cxxabiv120__si_class_type_infoD0Ev
                0x02052734        0x0 d:/devkitpro/devkitarm/bin/../lib/gcc/arm-eabi/4.5.1/../../../../arm-eabi/lib\libstdc++.a(si_class_type_info.o)
 .ARM.extab.text._ZNSt9type_infoD2Ev
                0x02052734        0x0 d:/devkitpro/devkitarm/bin/../lib/gcc/arm-eabi/4.5.1/../../../../arm-eabi/lib\libstdc++.a(tinfo.o)
 .ARM.extab.text._ZNKSt9type_info14__is_pointer_pEv
                0x02052734        0x0 d:/devkitpro/devkitarm/bin/../lib/gcc/arm-eabi/4.5.1/../../../../arm-eabi/lib\libstdc++.a(tinfo.o)
 .ARM.extab.text._ZNKSt9type_info15__is_function_pEv
                0x02052734        0x0 d:/devkitpro/devkitarm/bin/../lib/gcc/arm-eabi/4.5.1/../../../../arm-eabi/lib\libstdc++.a(tinfo.o)
 .ARM.extab.text._ZNKSt9type_info11__do_upcastEPKN10__cxxabiv117__class_type_infoEPPv
                0x02052734        0x0 d:/devkitpro/devkitarm/bin/../lib/gcc/arm-eabi/4.5.1/../../../../arm-eabi/lib\libstdc++.a(tinfo.o)
 .ARM.extab.text._ZNSt9type_infoD0Ev
                0x02052734        0x0 d:/devkitpro/devkitarm/bin/../lib/gcc/arm-eabi/4.5.1/../../../../arm-eabi/lib\libstdc++.a(tinfo.o)
 .ARM.extab.text._ZNKSt9type_infoeqERKS_
                0x02052734        0x0 d:/devkitpro/devkitarm/bin/../lib/gcc/arm-eabi/4.5.1/../../../../arm-eabi/lib\libstdc++.a(tinfo.o)
 .ARM.extab.text._ZNKSt9type_info10__do_catchEPKS_PPvj
                0x02052734        0x0 d:/devkitpro/devkitarm/bin/../lib/gcc/arm-eabi/4.5.1/../../../../arm-eabi/lib\libstdc++.a(tinfo.o)
 .ARM.extab.text._ZN9__gnu_cxx27__verbose_terminate_handlerEv
                0x02052734       0x40 d:/devkitpro/devkitarm/bin/../lib/gcc/arm-eabi/4.5.1/../../../../arm-eabi/lib\libstdc++.a(vterminate.o)
 .ARM.extab.text._ZNKSt8bad_cast4whatEv
                0x02052774        0x0 d:/devkitpro/devkitarm/bin/../lib/gcc/arm-eabi/4.5.1/../../../../arm-eabi/lib\libstdc++.a(bad_cast.o)
 .ARM.extab.text._ZNSt8bad_castD2Ev
                0x02052774        0x0 d:/devkitpro/devkitarm/bin/../lib/gcc/arm-eabi/4.5.1/../../../../arm-eabi/lib\libstdc++.a(bad_cast.o)
 .ARM.extab.text._ZNSt8bad_castD0Ev
                0x02052774        0x0 d:/devkitpro/devkitarm/bin/../lib/gcc/arm-eabi/4.5.1/../../../../arm-eabi/lib\libstdc++.a(bad_cast.o)
 .ARM.extab.text._ZNKSt10bad_typeid4whatEv
                0x02052774        0x0 d:/devkitpro/devkitarm/bin/../lib/gcc/arm-eabi/4.5.1/../../../../arm-eabi/lib\libstdc++.a(bad_typeid.o)
 .ARM.extab.text._ZNSt10bad_typeidD2Ev
                0x02052774        0x0 d:/devkitpro/devkitarm/bin/../lib/gcc/arm-eabi/4.5.1/../../../../arm-eabi/lib\libstdc++.a(bad_typeid.o)
 .ARM.extab.text._ZNSt10bad_typeidD0Ev
                0x02052774        0x0 d:/devkitpro/devkitarm/bin/../lib/gcc/arm-eabi/4.5.1/../../../../arm-eabi/lib\libstdc++.a(bad_typeid.o)
 .ARM.extab.text._ZNK10__cxxabiv117__class_type_info11__do_upcastEPKS0_PPv
                0x02052774        0x0 d:/devkitpro/devkitarm/bin/../lib/gcc/arm-eabi/4.5.1/../../../../arm-eabi/lib\libstdc++.a(class_type_info.o)
 .ARM.extab.text._ZNK10__cxxabiv117__class_type_info20__do_find_public_srcEiPKvPKS0_S2_
                0x02052774        0x0 d:/devkitpro/devkitarm/bin/../lib/gcc/arm-eabi/4.5.1/../../../../arm-eabi/lib\libstdc++.a(class_type_info.o)
 .ARM.extab.text._ZNK10__cxxabiv117__class_type_info11__do_upcastEPKS0_PKvRNS0_15__upcast_resultE
                0x02052774        0x0 d:/devkitpro/devkitarm/bin/../lib/gcc/arm-eabi/4.5.1/../../../../arm-eabi/lib\libstdc++.a(class_type_info.o)
 .ARM.extab.text._ZNK10__cxxabiv117__class_type_info12__do_dyncastEiNS0_10__sub_kindEPKS0_PKvS3_S5_RNS0_16__dyncast_resultE
                0x02052774        0x0 d:/devkitpro/devkitarm/bin/../lib/gcc/arm-eabi/4.5.1/../../../../arm-eabi/lib\libstdc++.a(class_type_info.o)
 .ARM.extab.text._ZNK10__cxxabiv117__class_type_info10__do_catchEPKSt9type_infoPPvj
                0x02052774        0x0 d:/devkitpro/devkitarm/bin/../lib/gcc/arm-eabi/4.5.1/../../../../arm-eabi/lib\libstdc++.a(class_type_info.o)
 .ARM.extab.text._ZN10__cxxabiv117__class_type_infoD2Ev
                0x02052774        0x0 d:/devkitpro/devkitarm/bin/../lib/gcc/arm-eabi/4.5.1/../../../../arm-eabi/lib\libstdc++.a(class_type_info.o)
 .ARM.extab.text._ZN10__cxxabiv117__class_type_infoD0Ev
                0x02052774        0x0 d:/devkitpro/devkitarm/bin/../lib/gcc/arm-eabi/4.5.1/../../../../arm-eabi/lib\libstdc++.a(class_type_info.o)
 .ARM.extab.text._ZdlPv
                0x02052774        0x0 d:/devkitpro/devkitarm/bin/../lib/gcc/arm-eabi/4.5.1/../../../../arm-eabi/lib\libstdc++.a(del_op.o)
 .ARM.extab.text.__cxa_current_exception_type
                0x02052774        0x0 d:/devkitpro/devkitarm/bin/../lib/gcc/arm-eabi/4.5.1/../../../../arm-eabi/lib\libstdc++.a(eh_type.o)
 .ARM.extab.text._ZNK10__cxxabiv117__pbase_type_info15__pointer_catchEPKS0_PPvj
                0x02052774        0xc d:/devkitpro/devkitarm/bin/../lib/gcc/arm-eabi/4.5.1/../../../../arm-eabi/lib\libstdc++.a(pbase_type_info.o)
 .ARM.extab.text._ZNK10__cxxabiv117__pbase_type_info10__do_catchEPKSt9type_infoPPvj
                0x02052780        0x0 d:/devkitpro/devkitarm/bin/../lib/gcc/arm-eabi/4.5.1/../../../../arm-eabi/lib\libstdc++.a(pbase_type_info.o)
 .ARM.extab.text._ZN10__cxxabiv117__pbase_type_infoD2Ev
                0x02052780        0x0 d:/devkitpro/devkitarm/bin/../lib/gcc/arm-eabi/4.5.1/../../../../arm-eabi/lib\libstdc++.a(pbase_type_info.o)
 .ARM.extab.text._ZN10__cxxabiv117__pbase_type_infoD0Ev
                0x02052780        0x0 d:/devkitpro/devkitarm/bin/../lib/gcc/arm-eabi/4.5.1/../../../../arm-eabi/lib\libstdc++.a(pbase_type_info.o)
 .ARM.extab     0x02052780       0x18 d:/devkitpro/devkitarm/bin/../lib/gcc/arm-eabi/4.5.1\libgcc.a(unwind-arm.o)
 .ARM.extab     0x02052798       0x18 d:/devkitpro/devkitarm/bin/../lib/gcc/arm-eabi/4.5.1\libgcc.a(pr-support.o)
 .ARM.extab     0x020527b0        0x0 d:/devkitpro/devkitarm/bin/../lib/gcc/arm-eabi/4.5.1\libgcc.a(bpabi.o)
 .ARM.extab     0x020527b0        0x0 d:/devkitpro/devkitarm/bin/../lib/gcc/arm-eabi/4.5.1\libgcc.a(_divdi3.o)
 .ARM.extab     0x020527b0        0x0 d:/devkitpro/devkitarm/bin/../lib/gcc/arm-eabi/4.5.1\libgcc.a(_udivdi3.o)
                0x020527b0                __exidx_start = .

.ARM.exidx      0x020527b0      0x250
 *(.ARM.exidx* .gnu.linkonce.armexidx.*)
 .ARM.exidx.text._Znwj
                0x02052890        0x8 d:/devkitpro/devkitarm/bin/../lib/gcc/arm-eabi/4.5.1/../../../../arm-eabi/lib\libstdc++.a(new_op.o)
 .ARM.exidx.text.__cxa_allocate_exception
                0x02052898        0x8 d:/devkitpro/devkitarm/bin/../lib/gcc/arm-eabi/4.5.1/../../../../arm-eabi/lib\libstdc++.a(eh_alloc.o)
 .ARM.exidx.text.__cxa_free_exception
                0x020528a0        0x0 d:/devkitpro/devkitarm/bin/../lib/gcc/arm-eabi/4.5.1/../../../../arm-eabi/lib\libstdc++.a(eh_alloc.o)
                                  0x8 (size before relaxing)
 .ARM.exidx.text.__cxa_allocate_dependent_exception
                0x020528a0        0x0 d:/devkitpro/devkitarm/bin/../lib/gcc/arm-eabi/4.5.1/../../../../arm-eabi/lib\libstdc++.a(eh_alloc.o)
                                  0x8 (size before relaxing)
 .ARM.exidx.text.__cxa_free_dependent_exception
                0x020528a0        0x0 d:/devkitpro/devkitarm/bin/../lib/gcc/arm-eabi/4.5.1/../../../../arm-eabi/lib\libstdc++.a(eh_alloc.o)
                                  0x8 (size before relaxing)
 .ARM.exidx.text._GLOBAL__I___cxa_allocate_exception
                0x020528a0        0x0 d:/devkitpro/devkitarm/bin/../lib/gcc/arm-eabi/4.5.1/../../../../arm-eabi/lib\libstdc++.a(eh_alloc.o)
                                  0x8 (size before relaxing)
 .ARM.exidx.text.__cxa_type_match
                0x020528a0        0x8 d:/devkitpro/devkitarm/bin/../lib/gcc/arm-eabi/4.5.1/../../../../arm-eabi/lib\libstdc++.a(eh_arm.o)
 .ARM.exidx.text.__cxa_begin_cleanup
                0x020528a8        0x8 d:/devkitpro/devkitarm/bin/../lib/gcc/arm-eabi/4.5.1/../../../../arm-eabi/lib\libstdc++.a(eh_arm.o)
 .ARM.exidx.text.__gnu_end_cleanup
                0x020528b0        0x0 d:/devkitpro/devkitarm/bin/../lib/gcc/arm-eabi/4.5.1/../../../../arm-eabi/lib\libstdc++.a(eh_arm.o)
                                  0x8 (size before relaxing)
 .ARM.exidx.text.__cxa_bad_cast
                0x020528b0        0x8 d:/devkitpro/devkitarm/bin/../lib/gcc/arm-eabi/4.5.1/../../../../arm-eabi/lib\libstdc++.a(eh_aux_runtime.o)
 .ARM.exidx.text.__cxa_bad_typeid
                0x020528b8        0x8 d:/devkitpro/devkitarm/bin/../lib/gcc/arm-eabi/4.5.1/../../../../arm-eabi/lib\libstdc++.a(eh_aux_runtime.o)
 .ARM.exidx.text.__cxa_call_terminate
                0x020528c0        0x8 d:/devkitpro/devkitarm/bin/../lib/gcc/arm-eabi/4.5.1/../../../../arm-eabi/lib\libstdc++.a(eh_call.o)
 .ARM.exidx.text.__cxa_call_unexpected
                0x020528c8        0x8 d:/devkitpro/devkitarm/bin/../lib/gcc/arm-eabi/4.5.1/../../../../arm-eabi/lib\libstdc++.a(eh_call.o)
 .ARM.exidx.text.__cxa_get_exception_ptr
                0x020528d0        0x8 d:/devkitpro/devkitarm/bin/../lib/gcc/arm-eabi/4.5.1/../../../../arm-eabi/lib\libstdc++.a(eh_catch.o)
 .ARM.exidx.text.__cxa_begin_catch
                0x020528d8        0x8 d:/devkitpro/devkitarm/bin/../lib/gcc/arm-eabi/4.5.1/../../../../arm-eabi/lib\libstdc++.a(eh_catch.o)
 .ARM.exidx.text.__cxa_end_catch
                0x020528e0        0x8 d:/devkitpro/devkitarm/bin/../lib/gcc/arm-eabi/4.5.1/../../../../arm-eabi/lib\libstdc++.a(eh_catch.o)
 .ARM.exidx.text._ZSt18uncaught_exceptionv
                0x020528e8        0x8 d:/devkitpro/devkitarm/bin/../lib/gcc/arm-eabi/4.5.1/../../../../arm-eabi/lib\libstdc++.a(eh_catch.o)
 .ARM.exidx.text._ZNSt9exceptionD2Ev
                0x020528f0        0x0 d:/devkitpro/devkitarm/bin/../lib/gcc/arm-eabi/4.5.1/../../../../arm-eabi/lib\libstdc++.a(eh_exception.o)
                                  0x8 (size before relaxing)
 .ARM.exidx.text._ZNSt13bad_exceptionD2Ev
                0x020528f0        0x0 d:/devkitpro/devkitarm/bin/../lib/gcc/arm-eabi/4.5.1/../../../../arm-eabi/lib\libstdc++.a(eh_exception.o)
                                  0x8 (size before relaxing)
 .ARM.exidx.text._ZN10__cxxabiv115__forced_unwindD2Ev
                0x020528f0        0x0 d:/devkitpro/devkitarm/bin/../lib/gcc/arm-eabi/4.5.1/../../../../arm-eabi/lib\libstdc++.a(eh_exception.o)
                                  0x8 (size before relaxing)
 .ARM.exidx.text._ZN10__cxxabiv119__foreign_exceptionD2Ev
                0x020528f0        0x0 d:/devkitpro/devkitarm/bin/../lib/gcc/arm-eabi/4.5.1/../../../../arm-eabi/lib\libstdc++.a(eh_exception.o)
                                  0x8 (size before relaxing)
 .ARM.exidx.text._ZNKSt9exception4whatEv
                0x020528f0        0x0 d:/devkitpro/devkitarm/bin/../lib/gcc/arm-eabi/4.5.1/../../../../arm-eabi/lib\libstdc++.a(eh_exception.o)
                                  0x8 (size before relaxing)
 .ARM.exidx.text._ZNKSt13bad_exception4whatEv
                0x020528f0        0x0 d:/devkitpro/devkitarm/bin/../lib/gcc/arm-eabi/4.5.1/../../../../arm-eabi/lib\libstdc++.a(eh_exception.o)
                                  0x8 (size before relaxing)
 .ARM.exidx.text._ZN10__cxxabiv119__foreign_exceptionD0Ev
                0x020528f0        0x0 d:/devkitpro/devkitarm/bin/../lib/gcc/arm-eabi/4.5.1/../../../../arm-eabi/lib\libstdc++.a(eh_exception.o)
                                  0x8 (size before relaxing)
 .ARM.exidx.text._ZN10__cxxabiv115__forced_unwindD0Ev
                0x020528f0        0x0 d:/devkitpro/devkitarm/bin/../lib/gcc/arm-eabi/4.5.1/../../../../arm-eabi/lib\libstdc++.a(eh_exception.o)
                                  0x8 (size before relaxing)
 .ARM.exidx.text._ZNSt13bad_exceptionD0Ev
                0x020528f0        0x0 d:/devkitpro/devkitarm/bin/../lib/gcc/arm-eabi/4.5.1/../../../../arm-eabi/lib\libstdc++.a(eh_exception.o)
                                  0x8 (size before relaxing)
 .ARM.exidx.text._ZNSt9exceptionD0Ev
                0x020528f0        0x0 d:/devkitpro/devkitarm/bin/../lib/gcc/arm-eabi/4.5.1/../../../../arm-eabi/lib\libstdc++.a(eh_exception.o)
                                  0x8 (size before relaxing)
 .ARM.exidx.text.__cxa_get_globals_fast
                0x020528f0        0x0 d:/devkitpro/devkitarm/bin/../lib/gcc/arm-eabi/4.5.1/../../../../arm-eabi/lib\libstdc++.a(eh_globals.o)
                                  0x8 (size before relaxing)
 .ARM.exidx.text.__cxa_get_globals
                0x020528f0        0x0 d:/devkitpro/devkitarm/bin/../lib/gcc/arm-eabi/4.5.1/../../../../arm-eabi/lib\libstdc++.a(eh_globals.o)
                                  0x8 (size before relaxing)
 .ARM.exidx.text._ZL12read_sleb128PKhPl
                0x020528f0        0x0 d:/devkitpro/devkitarm/bin/../lib/gcc/arm-eabi/4.5.1/../../../../arm-eabi/lib\libstdc++.a(eh_personality.o)
                                  0x8 (size before relaxing)
 .ARM.exidx.text._ZL28read_encoded_value_with_basehjPKhPj
                0x020528f0        0x8 d:/devkitpro/devkitarm/bin/../lib/gcc/arm-eabi/4.5.1/../../../../arm-eabi/lib\libstdc++.a(eh_personality.o)
 .ARM.exidx.text._ZL21base_of_encoded_valuehP15_Unwind_Context
                0x020528f8        0x8 d:/devkitpro/devkitarm/bin/../lib/gcc/arm-eabi/4.5.1/../../../../arm-eabi/lib\libstdc++.a(eh_personality.o)
 .ARM.exidx.text._ZL17parse_lsda_headerP15_Unwind_ContextPKhP16lsda_header_info
                0x02052900        0x8 d:/devkitpro/devkitarm/bin/../lib/gcc/arm-eabi/4.5.1/../../../../arm-eabi/lib\libstdc++.a(eh_personality.o)
 .ARM.exidx.text.__gxx_personality_v0
                0x02052908        0x8 d:/devkitpro/devkitarm/bin/../lib/gcc/arm-eabi/4.5.1/../../../../arm-eabi/lib\libstdc++.a(eh_personality.o)
 .ARM.exidx.text._ZN10__cxxabiv111__terminateEPFvvE
                0x02052910        0x8 d:/devkitpro/devkitarm/bin/../lib/gcc/arm-eabi/4.5.1/../../../../arm-eabi/lib\libstdc++.a(eh_terminate.o)
 .ARM.exidx.text._ZSt9terminatev
                0x02052918        0x8 d:/devkitpro/devkitarm/bin/../lib/gcc/arm-eabi/4.5.1/../../../../arm-eabi/lib\libstdc++.a(eh_terminate.o)
 .ARM.exidx.text._ZN10__cxxabiv112__unexpectedEPFvvE
                0x02052920        0x8 d:/devkitpro/devkitarm/bin/../lib/gcc/arm-eabi/4.5.1/../../../../arm-eabi/lib\libstdc++.a(eh_terminate.o)
 .ARM.exidx.text._ZSt10unexpectedv
                0x02052928        0x8 d:/devkitpro/devkitarm/bin/../lib/gcc/arm-eabi/4.5.1/../../../../arm-eabi/lib\libstdc++.a(eh_terminate.o)
 .ARM.exidx.text._ZSt13set_terminatePFvvE
                0x02052930        0x8 d:/devkitpro/devkitarm/bin/../lib/gcc/arm-eabi/4.5.1/../../../../arm-eabi/lib\libstdc++.a(eh_terminate.o)
 .ARM.exidx.text._ZSt14set_unexpectedPFvvE
                0x02052938        0x0 d:/devkitpro/devkitarm/bin/../lib/gcc/arm-eabi/4.5.1/../../../../arm-eabi/lib\libstdc++.a(eh_terminate.o)
                                  0x8 (size before relaxing)
 .ARM.exidx.text._ZL23__gxx_exception_cleanup19_Unwind_Reason_CodeP21_Unwind_Control_Block
                0x02052938        0x8 d:/devkitpro/devkitarm/bin/../lib/gcc/arm-eabi/4.5.1/../../../../arm-eabi/lib\libstdc++.a(eh_throw.o)
 .ARM.exidx.text.__cxa_throw
                0x02052940        0x8 d:/devkitpro/devkitarm/bin/../lib/gcc/arm-eabi/4.5.1/../../../../arm-eabi/lib\libstdc++.a(eh_throw.o)
 .ARM.exidx.text.__cxa_rethrow
                0x02052948        0x8 d:/devkitpro/devkitarm/bin/../lib/gcc/arm-eabi/4.5.1/../../../../arm-eabi/lib\libstdc++.a(eh_throw.o)
 .ARM.exidx.text._ZN10__cxxabiv123__fundamental_type_infoD2Ev
                0x02052950        0x0 d:/devkitpro/devkitarm/bin/../lib/gcc/arm-eabi/4.5.1/../../../../arm-eabi/lib\libstdc++.a(fundamental_type_info.o)
                                  0x8 (size before relaxing)
 .ARM.exidx.text._ZN10__cxxabiv123__fundamental_type_infoD0Ev
                0x02052950        0x0 d:/devkitpro/devkitarm/bin/../lib/gcc/arm-eabi/4.5.1/../../../../arm-eabi/lib\libstdc++.a(fundamental_type_info.o)
                                  0x8 (size before relaxing)
 .ARM.exidx.text._ZNKSt9bad_alloc4whatEv
                0x02052950        0x8 d:/devkitpro/devkitarm/bin/../lib/gcc/arm-eabi/4.5.1/../../../../arm-eabi/lib\libstdc++.a(new_handler.o)
 .ARM.exidx.text._ZNSt9bad_allocD2Ev
                0x02052958        0x0 d:/devkitpro/devkitarm/bin/../lib/gcc/arm-eabi/4.5.1/../../../../arm-eabi/lib\libstdc++.a(new_handler.o)
                                  0x8 (size before relaxing)
 .ARM.exidx.text._ZNSt9bad_allocD0Ev
                0x02052958        0x0 d:/devkitpro/devkitarm/bin/../lib/gcc/arm-eabi/4.5.1/../../../../arm-eabi/lib\libstdc++.a(new_handler.o)
                                  0x8 (size before relaxing)
 .ARM.exidx.text._ZSt15set_new_handlerPFvvE
                0x02052958        0x0 d:/devkitpro/devkitarm/bin/../lib/gcc/arm-eabi/4.5.1/../../../../arm-eabi/lib\libstdc++.a(new_handler.o)
                                  0x8 (size before relaxing)
 .ARM.exidx.text._ZNK10__cxxabiv119__pointer_type_info14__is_pointer_pEv
                0x02052958        0x0 d:/devkitpro/devkitarm/bin/../lib/gcc/arm-eabi/4.5.1/../../../../arm-eabi/lib\libstdc++.a(pointer_type_info.o)
                                  0x8 (size before relaxing)
 .ARM.exidx.text._ZNK10__cxxabiv119__pointer_type_info15__pointer_catchEPKNS_17__pbase_type_infoEPPvj
                0x02052958        0x8 d:/devkitpro/devkitarm/bin/../lib/gcc/arm-eabi/4.5.1/../../../../arm-eabi/lib\libstdc++.a(pointer_type_info.o)
 .ARM.exidx.text._ZN10__cxxabiv119__pointer_type_infoD2Ev
                0x02052960        0x8 d:/devkitpro/devkitarm/bin/../lib/gcc/arm-eabi/4.5.1/../../../../arm-eabi/lib\libstdc++.a(pointer_type_info.o)
 .ARM.exidx.text._ZN10__cxxabiv119__pointer_type_infoD0Ev
                0x02052968        0x0 d:/devkitpro/devkitarm/bin/../lib/gcc/arm-eabi/4.5.1/../../../../arm-eabi/lib\libstdc++.a(pointer_type_info.o)
                                  0x8 (size before relaxing)
 .ARM.exidx.text.__cxa_pure_virtual
                0x02052968        0x8 d:/devkitpro/devkitarm/bin/../lib/gcc/arm-eabi/4.5.1/../../../../arm-eabi/lib\libstdc++.a(pure.o)
 .ARM.exidx.text._ZNK10__cxxabiv120__si_class_type_info11__do_upcastEPKNS_17__class_type_infoEPKvRNS1_15__upcast_resultE
                0x02052970        0x8 d:/devkitpro/devkitarm/bin/../lib/gcc/arm-eabi/4.5.1/../../../../arm-eabi/lib\libstdc++.a(si_class_type_info.o)
 .ARM.exidx.text._ZNK10__cxxabiv120__si_class_type_info12__do_dyncastEiNS_17__class_type_info10__sub_kindEPKS1_PKvS4_S6_RNS1_16__dyncast_resultE
                0x02052978        0x8 d:/devkitpro/devkitarm/bin/../lib/gcc/arm-eabi/4.5.1/../../../../arm-eabi/lib\libstdc++.a(si_class_type_info.o)
 .ARM.exidx.text._ZNK10__cxxabiv120__si_class_type_info20__do_find_public_srcEiPKvPKNS_17__class_type_infoES2_
                0x02052980        0x8 d:/devkitpro/devkitarm/bin/../lib/gcc/arm-eabi/4.5.1/../../../../arm-eabi/lib\libstdc++.a(si_class_type_info.o)
 .ARM.exidx.text._ZN10__cxxabiv120__si_class_type_infoD2Ev
                0x02052988        0x8 d:/devkitpro/devkitarm/bin/../lib/gcc/arm-eabi/4.5.1/../../../../arm-eabi/lib\libstdc++.a(si_class_type_info.o)
 .ARM.exidx.text._ZN10__cxxabiv120__si_class_type_infoD0Ev
                0x02052990        0x0 d:/devkitpro/devkitarm/bin/../lib/gcc/arm-eabi/4.5.1/../../../../arm-eabi/lib\libstdc++.a(si_class_type_info.o)
                                  0x8 (size before relaxing)
 .ARM.exidx.text._ZNSt9type_infoD2Ev
                0x02052990        0x8 d:/devkitpro/devkitarm/bin/../lib/gcc/arm-eabi/4.5.1/../../../../arm-eabi/lib\libstdc++.a(tinfo.o)
 .ARM.exidx.text._ZNKSt9type_info14__is_pointer_pEv
                0x02052998        0x0 d:/devkitpro/devkitarm/bin/../lib/gcc/arm-eabi/4.5.1/../../../../arm-eabi/lib\libstdc++.a(tinfo.o)
                                  0x8 (size before relaxing)
 .ARM.exidx.text._ZNKSt9type_info15__is_function_pEv
                0x02052998        0x0 d:/devkitpro/devkitarm/bin/../lib/gcc/arm-eabi/4.5.1/../../../../arm-eabi/lib\libstdc++.a(tinfo.o)
                                  0x8 (size before relaxing)
 .ARM.exidx.text._ZNKSt9type_info11__do_upcastEPKN10__cxxabiv117__class_type_infoEPPv
                0x02052998        0x0 d:/devkitpro/devkitarm/bin/../lib/gcc/arm-eabi/4.5.1/../../../../arm-eabi/lib\libstdc++.a(tinfo.o)
                                  0x8 (size before relaxing)
 .ARM.exidx.text._ZNSt9type_infoD0Ev
                0x02052998        0x0 d:/devkitpro/devkitarm/bin/../lib/gcc/arm-eabi/4.5.1/../../../../arm-eabi/lib\libstdc++.a(tinfo.o)
                                  0x8 (size before relaxing)
 .ARM.exidx.text._ZNKSt9type_infoeqERKS_
                0x02052998        0x0 d:/devkitpro/devkitarm/bin/../lib/gcc/arm-eabi/4.5.1/../../../../arm-eabi/lib\libstdc++.a(tinfo.o)
                                  0x8 (size before relaxing)
 .ARM.exidx.text._ZNKSt9type_info10__do_catchEPKS_PPvj
                0x02052998        0x0 d:/devkitpro/devkitarm/bin/../lib/gcc/arm-eabi/4.5.1/../../../../arm-eabi/lib\libstdc++.a(tinfo.o)
                                  0x8 (size before relaxing)
 .ARM.exidx.text._ZN9__gnu_cxx27__verbose_terminate_handlerEv
                0x02052998        0x8 d:/devkitpro/devkitarm/bin/../lib/gcc/arm-eabi/4.5.1/../../../../arm-eabi/lib\libstdc++.a(vterminate.o)
 .ARM.exidx.text._ZNKSt8bad_cast4whatEv
                0x020529a0        0x8 d:/devkitpro/devkitarm/bin/../lib/gcc/arm-eabi/4.5.1/../../../../arm-eabi/lib\libstdc++.a(bad_cast.o)
 .ARM.exidx.text._ZNSt8bad_castD2Ev
                0x020529a8        0x0 d:/devkitpro/devkitarm/bin/../lib/gcc/arm-eabi/4.5.1/../../../../arm-eabi/lib\libstdc++.a(bad_cast.o)
                                  0x8 (size before relaxing)
 .ARM.exidx.text._ZNSt8bad_castD0Ev
                0x020529a8        0x0 d:/devkitpro/devkitarm/bin/../lib/gcc/arm-eabi/4.5.1/../../../../arm-eabi/lib\libstdc++.a(bad_cast.o)
                                  0x8 (size before relaxing)
 .ARM.exidx.text._ZNKSt10bad_typeid4whatEv
                0x020529a8        0x0 d:/devkitpro/devkitarm/bin/../lib/gcc/arm-eabi/4.5.1/../../../../arm-eabi/lib\libstdc++.a(bad_typeid.o)
                                  0x8 (size before relaxing)
 .ARM.exidx.text._ZNSt10bad_typeidD2Ev
                0x020529a8        0x0 d:/devkitpro/devkitarm/bin/../lib/gcc/arm-eabi/4.5.1/../../../../arm-eabi/lib\libstdc++.a(bad_typeid.o)
                                  0x8 (size before relaxing)
 .ARM.exidx.text._ZNSt10bad_typeidD0Ev
                0x020529a8        0x0 d:/devkitpro/devkitarm/bin/../lib/gcc/arm-eabi/4.5.1/../../../../arm-eabi/lib\libstdc++.a(bad_typeid.o)
                                  0x8 (size before relaxing)
 .ARM.exidx.text._ZNK10__cxxabiv117__class_type_info11__do_upcastEPKS0_PPv
                0x020529a8        0x8 d:/devkitpro/devkitarm/bin/../lib/gcc/arm-eabi/4.5.1/../../../../arm-eabi/lib\libstdc++.a(class_type_info.o)
 .ARM.exidx.text._ZNK10__cxxabiv117__class_type_info20__do_find_public_srcEiPKvPKS0_S2_
                0x020529b0        0x8 d:/devkitpro/devkitarm/bin/../lib/gcc/arm-eabi/4.5.1/../../../../arm-eabi/lib\libstdc++.a(class_type_info.o)
 .ARM.exidx.text._ZNK10__cxxabiv117__class_type_info11__do_upcastEPKS0_PKvRNS0_15__upcast_resultE
                0x020529b8        0x8 d:/devkitpro/devkitarm/bin/../lib/gcc/arm-eabi/4.5.1/../../../../arm-eabi/lib\libstdc++.a(class_type_info.o)
 .ARM.exidx.text._ZNK10__cxxabiv117__class_type_info12__do_dyncastEiNS0_10__sub_kindEPKS0_PKvS3_S5_RNS0_16__dyncast_resultE
                0x020529c0        0x8 d:/devkitpro/devkitarm/bin/../lib/gcc/arm-eabi/4.5.1/../../../../arm-eabi/lib\libstdc++.a(class_type_info.o)
 .ARM.exidx.text._ZNK10__cxxabiv117__class_type_info10__do_catchEPKSt9type_infoPPvj
                0x020529c8        0x8 d:/devkitpro/devkitarm/bin/../lib/gcc/arm-eabi/4.5.1/../../../../arm-eabi/lib\libstdc++.a(class_type_info.o)
 .ARM.exidx.text._ZN10__cxxabiv117__class_type_infoD2Ev
                0x020529d0        0x8 d:/devkitpro/devkitarm/bin/../lib/gcc/arm-eabi/4.5.1/../../../../arm-eabi/lib\libstdc++.a(class_type_info.o)
 .ARM.exidx.text._ZN10__cxxabiv117__class_type_infoD0Ev
                0x020529d8        0x0 d:/devkitpro/devkitarm/bin/../lib/gcc/arm-eabi/4.5.1/../../../../arm-eabi/lib\libstdc++.a(class_type_info.o)
                                  0x8 (size before relaxing)
 .ARM.exidx.text._ZdlPv
                0x020529d8        0x8 d:/devkitpro/devkitarm/bin/../lib/gcc/arm-eabi/4.5.1/../../../../arm-eabi/lib\libstdc++.a(del_op.o)
 .ARM.exidx.text.__cxa_current_exception_type
                0x020529e0        0x0 d:/devkitpro/devkitarm/bin/../lib/gcc/arm-eabi/4.5.1/../../../../arm-eabi/lib\libstdc++.a(eh_type.o)
                                  0x8 (size before relaxing)
 .ARM.exidx.text._ZNK10__cxxabiv117__pbase_type_info15__pointer_catchEPKS0_PPvj
                0x020529e0        0x8 d:/devkitpro/devkitarm/bin/../lib/gcc/arm-eabi/4.5.1/../../../../arm-eabi/lib\libstdc++.a(pbase_type_info.o)
 .ARM.exidx.text._ZNK10__cxxabiv117__pbase_type_info10__do_catchEPKSt9type_infoPPvj
                0x020529e8        0x8 d:/devkitpro/devkitarm/bin/../lib/gcc/arm-eabi/4.5.1/../../../../arm-eabi/lib\libstdc++.a(pbase_type_info.o)
 .ARM.exidx.text._ZN10__cxxabiv117__pbase_type_infoD2Ev
                0x020529f0        0x8 d:/devkitpro/devkitarm/bin/../lib/gcc/arm-eabi/4.5.1/../../../../arm-eabi/lib\libstdc++.a(pbase_type_info.o)
 .ARM.exidx.text._ZN10__cxxabiv117__pbase_type_infoD0Ev
                0x020529f8        0x8 d:/devkitpro/devkitarm/bin/../lib/gcc/arm-eabi/4.5.1/../../../../arm-eabi/lib\libstdc++.a(pbase_type_info.o)
 .ARM.exidx     0x020527b0       0x88 d:/devkitpro/devkitarm/bin/../lib/gcc/arm-eabi/4.5.1\libgcc.a(unwind-arm.o)
                                 0xc0 (size before relaxing)
 .ARM.exidx     0x02052838       0x38 d:/devkitpro/devkitarm/bin/../lib/gcc/arm-eabi/4.5.1\libgcc.a(pr-support.o)
                                 0x48 (size before relaxing)
 .ARM.exidx     0x02052870        0x8 d:/devkitpro/devkitarm/bin/../lib/gcc/arm-eabi/4.5.1\libgcc.a(bpabi.o)
                                 0x10 (size before relaxing)
 .ARM.exidx     0x02052878        0x8 d:/devkitpro/devkitarm/bin/../lib/gcc/arm-eabi/4.5.1\libgcc.a(_divdi3.o)
 .ARM.exidx     0x02052880       0x10 d:/devkitpro/devkitarm/bin/../lib/gcc/arm-eabi/4.5.1\libgcc.a(_udivdi3.o)
                                  0x8 (size before relaxing)
                0x02052a00                __exidx_end = .
                0x02052a00                . = ALIGN (0x4)
                0x02052a00                PROVIDE (__preinit_array_start, .)

.preinit_array
 *(.preinit_array)
                0x02052a00                PROVIDE (__preinit_array_end, .)
                0x02052a00                PROVIDE (__init_array_start, .)

.init_array     0x02052a00        0x8
 *(SORT(.init_array.*))
 *(.init_array)
 .init_array    0x02052a00        0x4 d:/devkitpro/devkitarm/bin/../lib/gcc/arm-eabi/4.5.1/crtbegin.o
 .init_array    0x02052a04        0x4 d:/devkitpro/devkitarm/bin/../lib/gcc/arm-eabi/4.5.1/../../../../arm-eabi/lib\libstdc++.a(eh_alloc.o)
                0x02052a08                PROVIDE (__init_array_end, .)
                0x02052a08                PROVIDE (__fini_array_start, .)

.fini_array     0x02052a08        0x4
 *(.fini_array)
 .fini_array    0x02052a08        0x4 d:/devkitpro/devkitarm/bin/../lib/gcc/arm-eabi/4.5.1/crtbegin.o
 *(SORT(.fini_array.*))
                0x02052a0c                PROVIDE (__fini_array_end, .)

.ctors          0x02052a0c        0x0
 *crtbegin.o(.ctors)
 *(EXCLUDE_FILE(*crtend.o) .ctors)
 *(SORT(.ctors.*))
 *(.ctors)
                0x02052a0c                . = ALIGN (0x4)

.dtors          0x02052a0c        0x0
 *crtbegin.o(.dtors)
 *(EXCLUDE_FILE(*crtend.o) .dtors)
 *(SORT(.dtors.*))
 *(.dtors)
                0x02052a0c                . = ALIGN (0x4)

.eh_frame       0x02052a0c        0x4
 *(.eh_frame)
 .eh_frame      0x02052a0c        0x0 d:/devkitpro/devkitarm/bin/../lib/gcc/arm-eabi/4.5.1/crtbegin.o
 .eh_frame      0x02052a0c        0x4 d:/devkitpro/devkitarm/bin/../lib/gcc/arm-eabi/4.5.1/crtend.o
                0x02052a10                . = ALIGN (0x4)

.gcc_except_table
                0x02052a10        0x0
 *(.gcc_except_table)
                0x02052a10                . = ALIGN (0x4)

.jcr            0x02052a10        0x4
 *(.jcr)
 .jcr           0x02052a10        0x0 d:/devkitpro/devkitarm/bin/../lib/gcc/arm-eabi/4.5.1/crtbegin.o
 .jcr           0x02052a10        0x4 d:/devkitpro/devkitarm/bin/../lib/gcc/arm-eabi/4.5.1/crtend.o

.got
 *(.got.plt)
 *(.got)
 *(.rel.got)

.ewram          0x02052a14        0x0
                0x02052a14                __ewram_start = ABSOLUTE (.)
 *(.ewram)
 *ewram.*(.text)
                0x02052a14                . = ALIGN (0x4)

.data           0x02052a14      0xb2c
                0x02052a14                __data_start = ABSOLUTE (.)
 *(.data)
 .data          0x02052a14        0x0 d:/devkitpro/devkitarm/bin/../lib/gcc/arm-eabi/4.5.1/../../../../arm-eabi/lib/ds_arm9_crt0.o
 .data          0x02052a14        0x0 d:/devkitpro/devkitarm/bin/../lib/gcc/arm-eabi/4.5.1/crti.o
 .data          0x02052a14        0x4 d:/devkitpro/devkitarm/bin/../lib/gcc/arm-eabi/4.5.1/crtbegin.o
                0x02052a14                __dso_handle
 .data          0x02052a18        0x0 ball.png.o
 .data          0x02052a18        0x0 CBall.o
 .data          0x02052a18        0x0 main.o
 .data          0x02052a18        0x0 d:/devkitPro/libnds/lib\libul.a(ulib.o)
 .data          0x02052a18        0x0 d:/devkitPro/libnds/lib\libul.a(drawing.o)
 .data          0x02052a18       0x28 d:/devkitPro/libnds/lib\libul.a(text.o)
                0x02052a18                ul_curTextColor
                0x02052a1c                ul_lcdFontInfo
 .data          0x02052a40       0x2c d:/devkitPro/libnds/lib\libul.a(VirtualFile.o)
                0x02052a40                VF_MEMORY
                0x02052a44                vfsMemory
 .data          0x02052a6c       0x10 d:/devkitPro/libnds/lib\libul.a(texVramManager.o)
                0x02052a6c                ul_texVramSize
                0x02052a70                ul_optimizeTextureSize
                0x02052a74                ul_texVramBase
                0x02052a78                ul_texVramBanks
                0x02052a7a                ul_initTexturesToZero
 .data          0x02052a7c        0xc d:/devkitPro/libnds/lib\libul.a(texPalManager.o)
                0x02052a7c                ul_texPalVramSize
                0x02052a80                ul_texPalVramBanks
                0x02052a84                ul_texPalVramBase
 .data          0x02052a88       0x28 d:/devkitPro/libnds/lib\libul.a(keys.o)
                0x02052a88                ul_keys
 .data          0x02052ab0        0x0 d:/devkitPro/libnds/lib\libul.a(ulDrawImage.o)
 .data          0x02052ab0        0x0 d:/devkitPro/libnds/lib\libul.a(ulCreateImagePalette.o)
 .data          0x02052ab0        0x0 d:/devkitPro/libnds/lib\libul.a(ulDrawGradientRect.o)
 .data          0x02052ab0        0x0 d:/devkitPro/libnds/lib\libul.a(ulLoadImageFilePNG.o)
 .data          0x02052ab0        0x0 d:/devkitPro/libnds/lib\libul.a(ulShowSplashScreen1.o)
 .data          0x02052ab0        0x0 d:/devkitPro/libnds/lib\libul.a(ulShowSplashScreen2.o)
 .data          0x02052ab0        0x0 d:/devkitPro/libnds/lib\libul.a(glWrapper.o)
 .data          0x02052ab0        0x0 d:/devkitPro/libnds/lib\libul.a(libLoadPng.o)
 .data          0x02052ab0        0x0 d:/devkitPro/libnds/lib\libul.a(ulDrawFillRect.o)
 .data          0x02052ab0        0x0 d:/devkitPro/libnds/lib\libul.a(ulSetImagePixel.o)
 .data          0x02052ab0        0x0 d:/devkitPro/libnds/lib\libul.a(ulGetImagePixel.o)
 .data          0x02052ab0        0x0 d:/devkitPro/libnds/lib\libul.a(textSize.o)
 .data          0x02052ab0        0x4 d:/devkitPro/libnds/lib\libul.a(loading_utility.o)
                0x02052ab0                ul_loadUtilActiveSource
 .data          0x02052ab4        0x0 d:/devkitPro/libnds/lib\libul.a(ulLoadImageFileJPG.o)
 .data          0x02052ab4        0x0 d:/devkitPro/libnds/lib\libul.a(ulLoadImageFileGIF.o)
 .data          0x02052ab4        0x0 d:/devkitPro/libnds/lib\libul.a(libLoadJpg.o)
 .data          0x02052ab4        0x0 d:/devkitPro/libnds/lib\libul.a(libLoadGif.o)
 .data          0x02052ab4        0x0 d:/devkitPro/libnds/lib\libul.a(dgif_lib.o)
 .data          0x02052ab4        0x0 d:/devkitPro/libnds/lib\libul.a(gif_err.o)
 .data          0x02052ab4        0x0 d:/devkitPro/libnds/lib\libul.a(gifalloc.o)
 .data          0x02052ab4        0x0 d:/devkitPro/libnds/lib\libul.a(ulReadEntireFileToMemory.o)
 .data          0x02052ab4        0x0 d:/devkitPro/libnds/lib\libul.a(gba-jpeg-decode.o)
 .data          0x02052ab4       0x69 d:/devkitPro/libnds/lib\libpng.a(png.o)
                0x02052ab4                png_IHDR
                0x02052ab9                png_IDAT
                0x02052abe                png_IEND
                0x02052ac3                png_PLTE
                0x02052ac8                png_bKGD
                0x02052acd                png_cHRM
                0x02052ad2                png_gAMA
                0x02052ad7                png_hIST
                0x02052adc                png_iCCP
                0x02052ae1                png_iTXt
                0x02052ae6                png_oFFs
                0x02052aeb                png_pCAL
                0x02052af0                png_sCAL
                0x02052af5                png_pHYs
                0x02052afa                png_sBIT
                0x02052aff                png_sPLT
                0x02052b04                png_sRGB
                0x02052b09                png_tEXt
                0x02052b0e                png_tIME
                0x02052b13                png_tRNS
                0x02052b18                png_zTXt
 .data          0x02052b1d        0x0 d:/devkitPro/libnds/lib\libpng.a(pngread.o)
 .data          0x02052b1d        0x0 d:/devkitPro/libnds/lib\libpng.a(pngrio.o)
 .data          0x02052b1d        0x0 d:/devkitPro/libnds/lib\libpng.a(pngrtran.o)
 .data          0x02052b1d        0x0 d:/devkitPro/libnds/lib\libpng.a(pngmem.o)
 .data          0x02052b1d        0x0 d:/devkitPro/libnds/lib\libpng.a(pngerror.o)
 .data          0x02052b1d        0x0 d:/devkitPro/libnds/lib\libpng.a(pngget.o)
 .data          0x02052b1d        0x0 d:/devkitPro/libnds/lib\libpng.a(pngrutil.o)
 .data          0x02052b1d        0x0 d:/devkitPro/libnds/lib\libpng.a(pngtrans.o)
 .data          0x02052b1d        0x0 d:/devkitPro/libnds/lib\libpng.a(pngset.o)
 .data          0x02052b1d        0x0 d:/devkitPro/libnds/lib\libz.a(crc32.o)
 .data          0x02052b1d        0x0 d:/devkitPro/libnds/lib\libz.a(inflate.o)
 .data          0x02052b1d        0x0 d:/devkitPro/libnds/lib\libz.a(inftrees.o)
 .data          0x02052b1d        0x0 d:/devkitPro/libnds/lib\libz.a(inffast.o)
 .data          0x02052b1d        0x0 d:/devkitPro/libnds/lib\libz.a(adler32.o)
 .data          0x02052b1d        0x0 d:/devkitPro/libnds/lib\libz.a(zutil.o)
 .data          0x02052b1d        0x0 d:/devkitPro/libnds/lib\libnds9.a(dynamicArray.o)
 .data          0x02052b1d        0x3 d:/devkitPro/libnds/lib\libnds9.a(keys.o)
 .data          0x02052b20        0x0 d:/devkitPro/libnds/lib\libnds9.a(system.o)
 .data          0x02052b20        0x0 d:/devkitPro/libnds/lib\libnds9.a(touch.o)
 .data          0x02052b20        0x0 d:/devkitPro/libnds/lib\libnds9.a(trig.o)
 .data          0x02052b20        0x4 d:/devkitPro/libnds/lib\libnds9.a(videoGL.o)
 .data          0x02052b24        0x0 d:/devkitPro/libnds/lib\libnds9.a(initSystem.o)
 .data          0x02052b24       0x10 d:/devkitPro/libnds/lib\libnds9.a(fifosystem.o)
                0x02052b24                fifo_freewords
                0x02052b28                fifo_buffer_free
                0x02052b2c                fifo_send_queue
                0x02052b30                fifo_receive_queue
 .data          0x02052b34        0x0 d:/devkitPro/libnds/lib\libnds9.a(interrupts.o)
 .data          0x02052b34        0x0 d:/devkitPro/libnds/lib\libnds9.a(libnds_exit.o)
 .data          0x02052b34        0x0 d:/devkitPro/libnds/lib\libnds9.a(mpu_setup.o)
 .data          0x02052b34        0x0 d:/devkitPro/libnds/lib\libnds9.a(biosCalls.o)
 .data          0x02052b34        0x0 d:/devkitPro/libnds/lib\libnds9.a(interruptDispatcher.o)
 .data          0x02052b34        0x0 d:/devkitPro/libnds/lib\libnds9.a(swiSoftReset.o)
 .data          0x02052b34        0x0 d:/devkitPro/libnds/lib\libnds9.a(video.o)
 .data          0x02052b34        0x0 d:/devkitpro/devkitarm/bin/../lib/gcc/arm-eabi/4.5.1/../../../../arm-eabi/lib\libstdc++.a(new_op.o)
 .data          0x02052b34        0x0 d:/devkitpro/devkitarm/bin/../lib/gcc/arm-eabi/4.5.1/../../../../arm-eabi/lib\libstdc++.a(eh_alloc.o)
 .data          0x02052b34        0x0 d:/devkitpro/devkitarm/bin/../lib/gcc/arm-eabi/4.5.1/../../../../arm-eabi/lib\libstdc++.a(eh_arm.o)
 .data          0x02052b34        0x0 d:/devkitpro/devkitarm/bin/../lib/gcc/arm-eabi/4.5.1/../../../../arm-eabi/lib\libstdc++.a(eh_aux_runtime.o)
 .data          0x02052b34        0x0 d:/devkitpro/devkitarm/bin/../lib/gcc/arm-eabi/4.5.1/../../../../arm-eabi/lib\libstdc++.a(eh_call.o)
 .data          0x02052b34        0x0 d:/devkitpro/devkitarm/bin/../lib/gcc/arm-eabi/4.5.1/../../../../arm-eabi/lib\libstdc++.a(eh_catch.o)
 .data          0x02052b34        0x0 d:/devkitpro/devkitarm/bin/../lib/gcc/arm-eabi/4.5.1/../../../../arm-eabi/lib\libstdc++.a(eh_exception.o)
 .data          0x02052b34        0x0 d:/devkitpro/devkitarm/bin/../lib/gcc/arm-eabi/4.5.1/../../../../arm-eabi/lib\libstdc++.a(eh_globals.o)
 .data          0x02052b34        0x0 d:/devkitpro/devkitarm/bin/../lib/gcc/arm-eabi/4.5.1/../../../../arm-eabi/lib\libstdc++.a(eh_personality.o)
 .data          0x02052b34        0x0 d:/devkitpro/devkitarm/bin/../lib/gcc/arm-eabi/4.5.1/../../../../arm-eabi/lib\libstdc++.a(eh_terminate.o)
 .data          0x02052b34        0x0 d:/devkitpro/devkitarm/bin/../lib/gcc/arm-eabi/4.5.1/../../../../arm-eabi/lib\libstdc++.a(eh_term_handler.o)
 .data          0x02052b34        0x0 d:/devkitpro/devkitarm/bin/../lib/gcc/arm-eabi/4.5.1/../../../../arm-eabi/lib\libstdc++.a(eh_throw.o)
 .data          0x02052b34        0x0 d:/devkitpro/devkitarm/bin/../lib/gcc/arm-eabi/4.5.1/../../../../arm-eabi/lib\libstdc++.a(eh_unex_handler.o)
 .data          0x02052b34        0x0 d:/devkitpro/devkitarm/bin/../lib/gcc/arm-eabi/4.5.1/../../../../arm-eabi/lib\libstdc++.a(fundamental_type_info.o)
 .data          0x02052b34        0x0 d:/devkitpro/devkitarm/bin/../lib/gcc/arm-eabi/4.5.1/../../../../arm-eabi/lib\libstdc++.a(new_handler.o)
 .data          0x02052b34        0x0 d:/devkitpro/devkitarm/bin/../lib/gcc/arm-eabi/4.5.1/../../../../arm-eabi/lib\libstdc++.a(pointer_type_info.o)
 .data          0x02052b34        0x0 d:/devkitpro/devkitarm/bin/../lib/gcc/arm-eabi/4.5.1/../../../../arm-eabi/lib\libstdc++.a(pure.o)
 .data          0x02052b34        0x0 d:/devkitpro/devkitarm/bin/../lib/gcc/arm-eabi/4.5.1/../../../../arm-eabi/lib\libstdc++.a(si_class_type_info.o)
 .data          0x02052b34        0x0 d:/devkitpro/devkitarm/bin/../lib/gcc/arm-eabi/4.5.1/../../../../arm-eabi/lib\libstdc++.a(tinfo.o)
 .data          0x02052b34        0x0 d:/devkitpro/devkitarm/bin/../lib/gcc/arm-eabi/4.5.1/../../../../arm-eabi/lib\libstdc++.a(vterminate.o)
 .data          0x02052b34        0x0 d:/devkitpro/devkitarm/bin/../lib/gcc/arm-eabi/4.5.1/../../../../arm-eabi/lib\libstdc++.a(bad_cast.o)
 .data          0x02052b34        0x0 d:/devkitpro/devkitarm/bin/../lib/gcc/arm-eabi/4.5.1/../../../../arm-eabi/lib\libstdc++.a(bad_typeid.o)
 .data          0x02052b34        0x0 d:/devkitpro/devkitarm/bin/../lib/gcc/arm-eabi/4.5.1/../../../../arm-eabi/lib\libstdc++.a(class_type_info.o)
 .data          0x02052b34        0x0 d:/devkitpro/devkitarm/bin/../lib/gcc/arm-eabi/4.5.1/../../../../arm-eabi/lib\libstdc++.a(cp-demangle.o)
 .data          0x02052b34        0x0 d:/devkitpro/devkitarm/bin/../lib/gcc/arm-eabi/4.5.1/../../../../arm-eabi/lib\libstdc++.a(del_op.o)
 .data          0x02052b34        0x0 d:/devkitpro/devkitarm/bin/../lib/gcc/arm-eabi/4.5.1/../../../../arm-eabi/lib\libstdc++.a(eh_type.o)
 .data          0x02052b34        0x0 d:/devkitpro/devkitarm/bin/../lib/gcc/arm-eabi/4.5.1/../../../../arm-eabi/lib\libstdc++.a(pbase_type_info.o)
 .data          0x02052b34        0x0 d:/devkitpro/devkitarm/bin/../lib/gcc/arm-eabi/4.5.1/../../../../arm-eabi/lib\libm.a(lib_a-s_cos.o)
 .data          0x02052b34        0x0 d:/devkitpro/devkitarm/bin/../lib/gcc/arm-eabi/4.5.1/../../../../arm-eabi/lib\libm.a(lib_a-s_sin.o)
 .data          0x02052b34        0x0 d:/devkitpro/devkitarm/bin/../lib/gcc/arm-eabi/4.5.1/../../../../arm-eabi/lib\libm.a(lib_a-w_pow.o)
 .data          0x02052b34        0x0 d:/devkitpro/devkitarm/bin/../lib/gcc/arm-eabi/4.5.1/../../../../arm-eabi/lib\libm.a(lib_a-e_pow.o)
 .data          0x02052b34        0x0 d:/devkitpro/devkitarm/bin/../lib/gcc/arm-eabi/4.5.1/../../../../arm-eabi/lib\libm.a(lib_a-e_rem_pio2.o)
 .data          0x02052b34        0x0 d:/devkitpro/devkitarm/bin/../lib/gcc/arm-eabi/4.5.1/../../../../arm-eabi/lib\libm.a(lib_a-e_sqrt.o)
 .data          0x02052b34        0x0 d:/devkitpro/devkitarm/bin/../lib/gcc/arm-eabi/4.5.1/../../../../arm-eabi/lib\libm.a(lib_a-k_cos.o)
 .data          0x02052b34        0x0 d:/devkitpro/devkitarm/bin/../lib/gcc/arm-eabi/4.5.1/../../../../arm-eabi/lib\libm.a(lib_a-k_rem_pio2.o)
 .data          0x02052b34        0x0 d:/devkitpro/devkitarm/bin/../lib/gcc/arm-eabi/4.5.1/../../../../arm-eabi/lib\libm.a(lib_a-k_sin.o)
 .data          0x02052b34        0x0 d:/devkitpro/devkitarm/bin/../lib/gcc/arm-eabi/4.5.1/../../../../arm-eabi/lib\libm.a(lib_a-s_fabs.o)
 .data          0x02052b34        0x0 d:/devkitpro/devkitarm/bin/../lib/gcc/arm-eabi/4.5.1/../../../../arm-eabi/lib\libm.a(lib_a-s_finite.o)
 .data          0x02052b34        0x0 d:/devkitpro/devkitarm/bin/../lib/gcc/arm-eabi/4.5.1/../../../../arm-eabi/lib\libm.a(lib_a-s_floor.o)
 .data          0x02052b34        0x0 d:/devkitpro/devkitarm/bin/../lib/gcc/arm-eabi/4.5.1/../../../../arm-eabi/lib\libm.a(lib_a-s_fpclassify.o)
 .data          0x02052b34        0x1 d:/devkitpro/devkitarm/bin/../lib/gcc/arm-eabi/4.5.1/../../../../arm-eabi/lib\libm.a(lib_a-s_lib_ver.o)
                0x02052b34                __fdlib_version
 .data          0x02052b35        0x0 d:/devkitpro/devkitarm/bin/../lib/gcc/arm-eabi/4.5.1/../../../../arm-eabi/lib\libm.a(lib_a-s_matherr.o)
 .data          0x02052b35        0x0 d:/devkitpro/devkitarm/bin/../lib/gcc/arm-eabi/4.5.1/../../../../arm-eabi/lib\libm.a(lib_a-s_nan.o)
 .data          0x02052b35        0x0 d:/devkitpro/devkitarm/bin/../lib/gcc/arm-eabi/4.5.1/../../../../arm-eabi/lib\libm.a(lib_a-s_rint.o)
 .data          0x02052b35        0x0 d:/devkitpro/devkitarm/bin/../lib/gcc/arm-eabi/4.5.1/../../../../arm-eabi/lib\libm.a(lib_a-s_scalbn.o)
 .data          0x02052b35        0x0 d:/devkitpro/devkitarm/bin/../lib/gcc/arm-eabi/4.5.1/../../../../arm-eabi/lib\libm.a(lib_a-s_copysign.o)
 .data          0x02052b35        0x0 d:/devkitpro/devkitarm/bin/../lib/gcc/arm-eabi/4.5.1\libgcc.a(_udivsi3.o)
 .data          0x02052b35        0x0 d:/devkitpro/devkitarm/bin/../lib/gcc/arm-eabi/4.5.1\libgcc.a(_divsi3.o)
 .data          0x02052b35        0x0 d:/devkitpro/devkitarm/bin/../lib/gcc/arm-eabi/4.5.1\libgcc.a(_dvmd_tls.o)
 .data          0x02052b35        0x0 d:/devkitpro/devkitarm/bin/../lib/gcc/arm-eabi/4.5.1\libgcc.a(_arm_addsubdf3.o)
 .data          0x02052b35        0x0 d:/devkitpro/devkitarm/bin/../lib/gcc/arm-eabi/4.5.1\libgcc.a(_arm_muldivdf3.o)
 .data          0x02052b35        0x0 d:/devkitpro/devkitarm/bin/../lib/gcc/arm-eabi/4.5.1\libgcc.a(_arm_cmpdf2.o)
 .data          0x02052b35        0x0 d:/devkitpro/devkitarm/bin/../lib/gcc/arm-eabi/4.5.1\libgcc.a(_arm_fixdfsi.o)
 .data          0x02052b35        0x0 d:/devkitpro/devkitarm/bin/../lib/gcc/arm-eabi/4.5.1\libgcc.a(_arm_fixunsdfsi.o)
 .data          0x02052b35        0x0 d:/devkitpro/devkitarm/bin/../lib/gcc/arm-eabi/4.5.1\libgcc.a(_arm_truncdfsf2.o)
 .data          0x02052b35        0x0 d:/devkitpro/devkitarm/bin/../lib/gcc/arm-eabi/4.5.1\libgcc.a(_arm_addsubsf3.o)
 .data          0x02052b35        0x0 d:/devkitpro/devkitarm/bin/../lib/gcc/arm-eabi/4.5.1\libgcc.a(_arm_muldivsf3.o)
 .data          0x02052b35        0x0 d:/devkitpro/devkitarm/bin/../lib/gcc/arm-eabi/4.5.1\libgcc.a(_arm_cmpsf2.o)
 .data          0x02052b35        0x0 d:/devkitpro/devkitarm/bin/../lib/gcc/arm-eabi/4.5.1\libgcc.a(_arm_fixsfsi.o)
 .data          0x02052b35        0x0 d:/devkitpro/devkitarm/bin/../lib/gcc/arm-eabi/4.5.1\libgcc.a(_arm_fixunssfsi.o)
 .data          0x02052b35        0x0 d:/devkitpro/devkitarm/bin/../lib/gcc/arm-eabi/4.5.1\libgcc.a(_muldi3.o)
 .data          0x02052b35        0x0 d:/devkitpro/devkitarm/bin/../lib/gcc/arm-eabi/4.5.1\libgcc.a(unwind-arm.o)
 .data          0x02052b35        0x0 d:/devkitpro/devkitarm/bin/../lib/gcc/arm-eabi/4.5.1\libgcc.a(libunwind.o)
 .data          0x02052b35        0x0 d:/devkitpro/devkitarm/bin/../lib/gcc/arm-eabi/4.5.1\libgcc.a(pr-support.o)
 .data          0x02052b35        0x0 d:/devkitpro/devkitarm/bin/../lib/gcc/arm-eabi/4.5.1/../../../../arm-eabi/lib\libg.a(lib_a-abort.o)
 .data          0x02052b35        0x0 d:/devkitpro/devkitarm/bin/../lib/gcc/arm-eabi/4.5.1/../../../../arm-eabi/lib\libg.a(lib_a-bsearch.o)
 .data          0x02052b35        0x0 d:/devkitpro/devkitarm/bin/../lib/gcc/arm-eabi/4.5.1/../../../../arm-eabi/lib\libg.a(lib_a-calloc.o)
 .data          0x02052b35        0x0 d:/devkitpro/devkitarm/bin/../lib/gcc/arm-eabi/4.5.1/../../../../arm-eabi/lib\libg.a(lib_a-callocr.o)
 .data          0x02052b35        0x0 d:/devkitpro/devkitarm/bin/../lib/gcc/arm-eabi/4.5.1/../../../../arm-eabi/lib\libg.a(lib_a-errno.o)
 .data          0x02052b35        0x0 d:/devkitpro/devkitarm/bin/../lib/gcc/arm-eabi/4.5.1/../../../../arm-eabi/lib\libg.a(lib_a-fclose.o)
 .data          0x02052b35        0x0 d:/devkitpro/devkitarm/bin/../lib/gcc/arm-eabi/4.5.1/../../../../arm-eabi/lib\libg.a(lib_a-fflush.o)
 .data          0x02052b35        0x0 d:/devkitpro/devkitarm/bin/../lib/gcc/arm-eabi/4.5.1/../../../../arm-eabi/lib\libg.a(lib_a-findfp.o)
 .data          0x02052b35        0x0 d:/devkitpro/devkitarm/bin/../lib/gcc/arm-eabi/4.5.1/../../../../arm-eabi/lib\libg.a(lib_a-fprintf.o)
 .data          0x02052b35        0x0 d:/devkitpro/devkitarm/bin/../lib/gcc/arm-eabi/4.5.1/../../../../arm-eabi/lib\libg.a(lib_a-fputc.o)
 .data          0x02052b35        0x0 d:/devkitpro/devkitarm/bin/../lib/gcc/arm-eabi/4.5.1/../../../../arm-eabi/lib\libg.a(lib_a-fputs.o)
 .data          0x02052b35        0x0 d:/devkitpro/devkitarm/bin/../lib/gcc/arm-eabi/4.5.1/../../../../arm-eabi/lib\libg.a(lib_a-fread.o)
 .data          0x02052b35        0x0 d:/devkitpro/devkitarm/bin/../lib/gcc/arm-eabi/4.5.1/../../../../arm-eabi/lib\libg.a(lib_a-freer.o)
 .data          0x02052b35        0x0 d:/devkitpro/devkitarm/bin/../lib/gcc/arm-eabi/4.5.1/../../../../arm-eabi/lib\libg.a(lib_a-fvwrite.o)
 .data          0x02052b35        0x0 d:/devkitpro/devkitarm/bin/../lib/gcc/arm-eabi/4.5.1/../../../../arm-eabi/lib\libg.a(lib_a-fwalk.o)
 .data          0x02052b35        0x0 d:/devkitpro/devkitarm/bin/../lib/gcc/arm-eabi/4.5.1/../../../../arm-eabi/lib\libg.a(lib_a-fwrite.o)
 *fill*         0x02052b35        0x3 ff
 .data          0x02052b38      0x430 d:/devkitpro/devkitarm/bin/../lib/gcc/arm-eabi/4.5.1/../../../../arm-eabi/lib\libg.a(lib_a-impure.o)
                0x02052b38                _impure_ptr
 .data          0x02052f68        0x0 d:/devkitpro/devkitarm/bin/../lib/gcc/arm-eabi/4.5.1/../../../../arm-eabi/lib\libg.a(lib_a-init.o)
 .data          0x02052f68        0x0 d:/devkitpro/devkitarm/bin/../lib/gcc/arm-eabi/4.5.1/../../../../arm-eabi/lib\libg.a(lib_a-malloc.o)
 .data          0x02052f68      0x410 d:/devkitpro/devkitarm/bin/../lib/gcc/arm-eabi/4.5.1/../../../../arm-eabi/lib\libg.a(lib_a-mallocr.o)
                0x02052f68                __malloc_av_
                0x02053370                __malloc_sbrk_base
                0x02053374                __malloc_trim_threshold
 .data          0x02053378        0x0 d:/devkitpro/devkitarm/bin/../lib/gcc/arm-eabi/4.5.1/../../../../arm-eabi/lib\libg.a(lib_a-memchr.o)
 .data          0x02053378        0x0 d:/devkitpro/devkitarm/bin/../lib/gcc/arm-eabi/4.5.1/../../../../arm-eabi/lib\libg.a(lib_a-memcmp.o)
 .data          0x02053378        0x0 d:/devkitpro/devkitarm/bin/../lib/gcc/arm-eabi/4.5.1/../../../../arm-eabi/lib\libg.a(lib_a-memcpy.o)
 .data          0x02053378        0x0 d:/devkitpro/devkitarm/bin/../lib/gcc/arm-eabi/4.5.1/../../../../arm-eabi/lib\libg.a(lib_a-memmove.o)
 .data          0x02053378        0x0 d:/devkitpro/devkitarm/bin/../lib/gcc/arm-eabi/4.5.1/../../../../arm-eabi/lib\libg.a(lib_a-memset.o)
 .data          0x02053378        0x0 d:/devkitpro/devkitarm/bin/../lib/gcc/arm-eabi/4.5.1/../../../../arm-eabi/lib\libg.a(lib_a-mlock.o)
 .data          0x02053378        0x0 d:/devkitpro/devkitarm/bin/../lib/gcc/arm-eabi/4.5.1/../../../../arm-eabi/lib\libg.a(lib_a-putc.o)
 .data          0x02053378        0x0 d:/devkitpro/devkitarm/bin/../lib/gcc/arm-eabi/4.5.1/../../../../arm-eabi/lib\libg.a(lib_a-rand.o)
 .data          0x02053378        0x0 d:/devkitpro/devkitarm/bin/../lib/gcc/arm-eabi/4.5.1/../../../../arm-eabi/lib\libg.a(lib_a-realloc.o)
 .data          0x02053378        0x0 d:/devkitpro/devkitarm/bin/../lib/gcc/arm-eabi/4.5.1/../../../../arm-eabi/lib\libg.a(lib_a-reallocr.o)
 .data          0x02053378        0x0 d:/devkitpro/devkitarm/bin/../lib/gcc/arm-eabi/4.5.1/../../../../arm-eabi/lib\libg.a(lib_a-refill.o)
 .data          0x02053378        0x0 d:/devkitpro/devkitarm/bin/../lib/gcc/arm-eabi/4.5.1/../../../../arm-eabi/lib\libg.a(lib_a-setjmp.o)
 .data          0x02053378        0x0 d:/devkitpro/devkitarm/bin/../lib/gcc/arm-eabi/4.5.1/../../../../arm-eabi/lib\libg.a(lib_a-signal.o)
 .data          0x02053378        0x0 d:/devkitpro/devkitarm/bin/../lib/gcc/arm-eabi/4.5.1/../../../../arm-eabi/lib\libg.a(lib_a-snprintf.o)
 .data          0x02053378        0x0 d:/devkitpro/devkitarm/bin/../lib/gcc/arm-eabi/4.5.1/../../../../arm-eabi/lib\libg.a(lib_a-sprintf.o)
 .data          0x02053378        0x0 d:/devkitpro/devkitarm/bin/../lib/gcc/arm-eabi/4.5.1/../../../../arm-eabi/lib\libg.a(lib_a-stdio.o)
 .data          0x02053378        0x0 d:/devkitpro/devkitarm/bin/../lib/gcc/arm-eabi/4.5.1/../../../../arm-eabi/lib\libg.a(lib_a-strcmp.o)
 .data          0x02053378        0x0 d:/devkitpro/devkitarm/bin/../lib/gcc/arm-eabi/4.5.1/../../../../arm-eabi/lib\libg.a(lib_a-strcpy.o)
 .data          0x02053378        0x0 d:/devkitpro/devkitarm/bin/../lib/gcc/arm-eabi/4.5.1/../../../../arm-eabi/lib\libg.a(lib_a-strlen.o)
 .data          0x02053378        0x0 d:/devkitpro/devkitarm/bin/../lib/gcc/arm-eabi/4.5.1/../../../../arm-eabi/lib\libg.a(lib_a-strncmp.o)
 .data          0x02053378       0x28 d:/devkitpro/devkitarm/bin/../lib/gcc/arm-eabi/4.5.1/../../../../arm-eabi/lib\libg.a(lib_a-strtod.o)
 .data          0x020533a0        0x0 d:/devkitpro/devkitarm/bin/../lib/gcc/arm-eabi/4.5.1/../../../../arm-eabi/lib\libg.a(lib_a-svfprintf.o)
 .data          0x020533a0        0x0 d:/devkitpro/devkitarm/bin/../lib/gcc/arm-eabi/4.5.1/../../../../arm-eabi/lib\libg.a(lib_a-syswrite.o)
 .data          0x020533a0        0x0 d:/devkitpro/devkitarm/bin/../lib/gcc/arm-eabi/4.5.1/../../../../arm-eabi/lib\libg.a(lib_a-vfprintf.o)
 .data          0x020533a0        0x0 d:/devkitpro/devkitarm/bin/../lib/gcc/arm-eabi/4.5.1/../../../../arm-eabi/lib\libg.a(lib_a-wbuf.o)
 .data          0x020533a0        0x0 d:/devkitpro/devkitarm/bin/../lib/gcc/arm-eabi/4.5.1/../../../../arm-eabi/lib\libg.a(lib_a-wcrtomb.o)
 .data          0x020533a0        0x0 d:/devkitpro/devkitarm/bin/../lib/gcc/arm-eabi/4.5.1/../../../../arm-eabi/lib\libg.a(lib_a-wcsrtombs.o)
 .data          0x020533a0        0x4 d:/devkitpro/devkitarm/bin/../lib/gcc/arm-eabi/4.5.1/../../../../arm-eabi/lib\libg.a(lib_a-wctomb_r.o)
                0x020533a0                __wctomb
 .data          0x020533a4        0x0 d:/devkitpro/devkitarm/bin/../lib/gcc/arm-eabi/4.5.1/../../../../arm-eabi/lib\libg.a(lib_a-wsetup.o)
 .data          0x020533a4        0x0 d:/devkitpro/devkitarm/bin/../lib/gcc/arm-eabi/4.5.1/../../../../arm-eabi/lib\libg.a(lib_a-dtoa.o)
 .data          0x020533a4        0x0 d:/devkitpro/devkitarm/bin/../lib/gcc/arm-eabi/4.5.1/../../../../arm-eabi/lib\libg.a(lib_a-gdtoa-gethex.o)
 .data          0x020533a4        0x0 d:/devkitpro/devkitarm/bin/../lib/gcc/arm-eabi/4.5.1/../../../../arm-eabi/lib\libg.a(lib_a-gdtoa-hexnan.o)
 .data          0x020533a4      0x144 d:/devkitpro/devkitarm/bin/../lib/gcc/arm-eabi/4.5.1/../../../../arm-eabi/lib\libg.a(lib_a-locale.o)
                0x020533a4                __default_locale
                0x020533e4                __mb_cur_max
 .data          0x020534e8        0x0 d:/devkitpro/devkitarm/bin/../lib/gcc/arm-eabi/4.5.1/../../../../arm-eabi/lib\libg.a(lib_a-makebuf.o)
 .data          0x020534e8        0x4 d:/devkitpro/devkitarm/bin/../lib/gcc/arm-eabi/4.5.1/../../../../arm-eabi/lib\libg.a(lib_a-mbtowc_r.o)
                0x020534e8                __mbtowc
 .data          0x020534ec        0x0 d:/devkitpro/devkitarm/bin/../lib/gcc/arm-eabi/4.5.1/../../../../arm-eabi/lib\libg.a(lib_a-mprec.o)
 .data          0x020534ec        0x0 d:/devkitpro/devkitarm/bin/../lib/gcc/arm-eabi/4.5.1/../../../../arm-eabi/lib\libg.a(lib_a-sf_nan.o)
 .data          0x020534ec        0x0 d:/devkitpro/devkitarm/bin/../lib/gcc/arm-eabi/4.5.1/../../../../arm-eabi/lib\libg.a(lib_a-strcasecmp.o)
 .data          0x020534ec        0x0 d:/devkitpro/devkitarm/bin/../lib/gcc/arm-eabi/4.5.1/../../../../arm-eabi/lib\libg.a(lib_a-strcat.o)
 .data          0x020534ec        0x0 d:/devkitpro/devkitarm/bin/../lib/gcc/arm-eabi/4.5.1/../../../../arm-eabi/lib\libg.a(lib_a-strchr.o)
 .data          0x020534ec        0x0 d:/devkitpro/devkitarm/bin/../lib/gcc/arm-eabi/4.5.1/../../../../arm-eabi/lib\libg.a(lib_a-strlcpy.o)
 .data          0x020534ec        0x0 d:/devkitpro/devkitarm/bin/../lib/gcc/arm-eabi/4.5.1/../../../../arm-eabi/lib\libg.a(lib_a-strncasecmp.o)
 .data          0x020534ec        0x0 d:/devkitpro/devkitarm/bin/../lib/gcc/arm-eabi/4.5.1/../../../../arm-eabi/lib\libg.a(lib_a-strncpy.o)
 .data          0x020534ec        0x0 d:/devkitpro/devkitarm/bin/../lib/gcc/arm-eabi/4.5.1/../../../../arm-eabi/lib\libg.a(lib_a-strtol.o)
 .data          0x020534ec        0x0 d:/devkitpro/devkitarm/bin/../lib/gcc/arm-eabi/4.5.1/../../../../arm-eabi/lib\libg.a(lib_a-svfiprintf.o)
 .data          0x020534ec        0x0 d:/devkitpro/devkitarm/bin/../lib/gcc/arm-eabi/4.5.1/../../../../arm-eabi/lib\libg.a(lib_a-vfiprintf.o)
 .data          0x020534ec        0x0 d:/devkitpro/devkitarm/bin/../lib/gcc/arm-eabi/4.5.1/../../../../arm-eabi/lib\libg.a(lib_a-wcsnrtombs.o)
 .data          0x020534ec        0x4 d:/devkitpro/devkitarm/bin/../lib/gcc/arm-eabi/4.5.1/../../../../arm-eabi/lib\libg.a(lib_a-ctype_.o)
                0x020534ec                __ctype_ptr__
 .data          0x020534f0        0x0 d:/devkitpro/devkitarm/bin/../lib/gcc/arm-eabi/4.5.1/../../../../arm-eabi/lib\libg.a(lib_a-fputwc.o)
 .data          0x020534f0        0x0 d:/devkitpro/devkitarm/bin/../lib/gcc/arm-eabi/4.5.1/../../../../arm-eabi/lib\libg.a(lib_a-getenv_r.o)
 .data          0x020534f0        0x4 d:/devkitpro/devkitarm/bin/../lib/gcc/arm-eabi/4.5.1/../../../../arm-eabi/lib\libg.a(lib_a-environ.o)
                0x020534f0                environ
 .data          0x020534f4        0x0 d:/devkitpro/devkitarm/bin/../lib/gcc/arm-eabi/4.5.1/../../../../arm-eabi/lib\libg.a(lib_a-envlock.o)
 .data          0x020534f4        0x0 d:/devkitpro/devkitarm/bin/../lib/gcc/arm-eabi/4.5.1/../../../../arm-eabi/lib\libsysbase.a(close.o)
 .data          0x020534f4        0x0 d:/devkitpro/devkitarm/bin/../lib/gcc/arm-eabi/4.5.1/../../../../arm-eabi/lib\libsysbase.a(fstat.o)
 .data          0x020534f4        0x0 d:/devkitpro/devkitarm/bin/../lib/gcc/arm-eabi/4.5.1/../../../../arm-eabi/lib\libsysbase.a(getpid.o)
 .data          0x020534f4        0x0 d:/devkitpro/devkitarm/bin/../lib/gcc/arm-eabi/4.5.1/../../../../arm-eabi/lib\libsysbase.a(isatty.o)
 .data          0x020534f4        0x0 d:/devkitpro/devkitarm/bin/../lib/gcc/arm-eabi/4.5.1/../../../../arm-eabi/lib\libsysbase.a(kill.o)
 .data          0x020534f4        0x0 d:/devkitpro/devkitarm/bin/../lib/gcc/arm-eabi/4.5.1/../../../../arm-eabi/lib\libsysbase.a(lseek.o)
 .data          0x020534f4        0x0 d:/devkitpro/devkitarm/bin/../lib/gcc/arm-eabi/4.5.1/../../../../arm-eabi/lib\libsysbase.a(read.o)
 .data          0x020534f4        0x0 d:/devkitpro/devkitarm/bin/../lib/gcc/arm-eabi/4.5.1/../../../../arm-eabi/lib\libsysbase.a(sbrk.o)
 .data          0x020534f4        0x0 d:/devkitpro/devkitarm/bin/../lib/gcc/arm-eabi/4.5.1/../../../../arm-eabi/lib\libsysbase.a(times.o)
 .data          0x020534f4        0x0 d:/devkitpro/devkitarm/bin/../lib/gcc/arm-eabi/4.5.1/../../../../arm-eabi/lib\libsysbase.a(write.o)
 .data          0x020534f4        0x0 d:/devkitpro/devkitarm/bin/../lib/gcc/arm-eabi/4.5.1/../../../../arm-eabi/lib\libsysbase.a(_exit.o)
 .data          0x020534f4        0x0 d:/devkitpro/devkitarm/bin/../lib/gcc/arm-eabi/4.5.1/../../../../arm-eabi/lib\libsysbase.a(malloc_vars.o)
 .data          0x020534f4        0x0 d:/devkitpro/devkitarm/bin/../lib/gcc/arm-eabi/4.5.1/../../../../arm-eabi/lib\libsysbase.a(build_argv.o)
 .data          0x020534f4        0x0 d:/devkitpro/devkitarm/bin/../lib/gcc/arm-eabi/4.5.1/../../../../arm-eabi/lib\libsysbase.a(syscall_support.o)
 .data          0x020534f4        0x0 d:/devkitpro/devkitarm/bin/../lib/gcc/arm-eabi/4.5.1/../../../../arm-eabi/lib\libsysbase.a(handle_manager.o)
 .data          0x020534f4       0x44 d:/devkitpro/devkitarm/bin/../lib/gcc/arm-eabi/4.5.1/../../../../arm-eabi/lib\libsysbase.a(iosupport.o)
                0x020534f8                devoptab_list
 .data          0x02053538        0x0 d:/devkitpro/devkitarm/bin/../lib/gcc/arm-eabi/4.5.1\libgcc.a(_aeabi_uldivmod.o)
 .data          0x02053538        0x0 d:/devkitpro/devkitarm/bin/../lib/gcc/arm-eabi/4.5.1\libgcc.a(bpabi.o)
 .data          0x02053538        0x0 d:/devkitpro/devkitarm/bin/../lib/gcc/arm-eabi/4.5.1\libgcc.a(_divdi3.o)
 .data          0x02053538        0x0 d:/devkitpro/devkitarm/bin/../lib/gcc/arm-eabi/4.5.1\libgcc.a(_udivdi3.o)
 .data          0x02053538        0x0 d:/devkitpro/devkitarm/bin/../lib/gcc/arm-eabi/4.5.1\libgcc.a(_clzsi2.o)
 .data          0x02053538        0x0 d:/devkitpro/devkitarm/bin/../lib/gcc/arm-eabi/4.5.1/crtend.o
 .data          0x02053538        0x0 d:/devkitpro/devkitarm/bin/../lib/gcc/arm-eabi/4.5.1/crtn.o
 *(.data.*)
 .data._ZN10__cxxabiv119__terminate_handlerE
                0x02053538        0x4 d:/devkitpro/devkitarm/bin/../lib/gcc/arm-eabi/4.5.1/../../../../arm-eabi/lib\libstdc++.a(eh_term_handler.o)
                0x02053538                __cxxabiv1::__terminate_handler
 .data._ZN10__cxxabiv120__unexpected_handlerE
                0x0205353c        0x4 d:/devkitpro/devkitarm/bin/../lib/gcc/arm-eabi/4.5.1/../../../../arm-eabi/lib\libstdc++.a(eh_unex_handler.o)
                0x0205353c                __cxxabiv1::__unexpected_handler
 *(.gnu.linkonce.d*)
                0x02053540                . = ALIGN (0x4)
                0x02053540                __data_end = ABSOLUTE (.)
                0x02053540                __dtcm_lma = .
                0x02053540                __bss_vma = .

.dtcm           0x0b000000        0x0 load address 0x02053540
 *(.dtcm)
 *(.dtcm.*)
                0x0b000000                . = ALIGN (0x4)
                0x0b000000                __dtcm_end = ABSOLUTE (.)
                0x02053540                __itcm_lma = (__dtcm_lma + SIZEOF (.dtcm))

.itcm           0x01000100      0x194 load address 0x02053540
 *(.itcm)
 .itcm          0x01000100       0xc8 d:/devkitPro/libnds/lib\libnds9.a(interrupts.o)
                0x01000100                irqTable
 .itcm          0x010001c8       0xcc d:/devkitPro/libnds/lib\libnds9.a(interruptDispatcher.o)
                0x010001c8                IntrMain
 *itcm.*(.text)
                0x01000294                . = ALIGN (0x4)
                0x01000294                __itcm_end = ABSOLUTE (.)
                0x020536d4                __vectors_lma = (__itcm_lma + SIZEOF (.itcm))

.vectors        0x01000000        0x0 load address 0x020536d4
 *(.vectors)
 *vectors.*(.text)
                0x01000000                . = ALIGN (0x4)
                0x01000000                __vectors_end = ABSOLUTE (.)

.sbss           0x0b000000        0x0
                0x0b000000                __sbss_start = ABSOLUTE (.)
                0x0b000000                __sbss_start__ = ABSOLUTE (.)
 *(.sbss)
                0x0b000000                . = ALIGN (0x4)
                0x0b000000                __sbss_end = ABSOLUTE (.)

.bss            0x02053540     0x4988
                0x02053540                __bss_start = ABSOLUTE (.)
                0x02053540                __bss_start__ = ABSOLUTE (.)
 *(.dynbss)
 *(.gnu.linkonce.b*)
 *(.bss*)
 .bss           0x02053540        0x0 d:/devkitpro/devkitarm/bin/../lib/gcc/arm-eabi/4.5.1/../../../../arm-eabi/lib/ds_arm9_crt0.o
 .bss           0x02053540        0x0 d:/devkitpro/devkitarm/bin/../lib/gcc/arm-eabi/4.5.1/crti.o
 .bss           0x02053540       0x1c d:/devkitpro/devkitarm/bin/../lib/gcc/arm-eabi/4.5.1/crtbegin.o
 .bss           0x0205355c        0x0 ball.png.o
 .bss           0x0205355c        0x8 CBall.o
                0x0205355c                CBall::nInstances
                0x02053560                CBall::imgBall
 .bss           0x02053564        0x0 main.o
 .bss           0x02053564        0x4 d:/devkitPro/libnds/lib\libul.a(ulib.o)
                0x02053564                ul_isConsoleInited
 .bss           0x02053568        0x3 d:/devkitPro/libnds/lib\libul.a(drawing.o)
                0x02053568                ul_drawingStarted
                0x02053569                ul_screenClippingChanged
                0x0205356a                ul_firstPaletteColorOpaque
 *fill*         0x0205356b        0x1 00
 .bss           0x0205356c        0x8 d:/devkitPro/libnds/lib\libul.a(text.o)
                0x0205356c                ul_curFont
                0x02053570                ul_lcdFont
 .bss           0x02053574        0x8 d:/devkitPro/libnds/lib\libul.a(VirtualFile.o)
                0x02053574                VirtualFileSourcesNb
                0x02053578                ul_virtualFileListNumber
 .bss           0x0205357c        0x0 d:/devkitPro/libnds/lib\libul.a(texVramManager.o)
 .bss           0x0205357c        0x0 d:/devkitPro/libnds/lib\libul.a(texPalManager.o)
 .bss           0x0205357c        0x0 d:/devkitPro/libnds/lib\libul.a(keys.o)
 .bss           0x0205357c        0x0 d:/devkitPro/libnds/lib\libul.a(ulDrawImage.o)
 .bss           0x0205357c        0x0 d:/devkitPro/libnds/lib\libul.a(ulCreateImagePalette.o)
 .bss           0x0205357c        0x0 d:/devkitPro/libnds/lib\libul.a(ulDrawGradientRect.o)
 .bss           0x0205357c        0x0 d:/devkitPro/libnds/lib\libul.a(ulLoadImageFilePNG.o)
 .bss           0x0205357c        0x0 d:/devkitPro/libnds/lib\libul.a(ulShowSplashScreen1.o)
 .bss           0x0205357c        0x0 d:/devkitPro/libnds/lib\libul.a(ulShowSplashScreen2.o)
 .bss           0x0205357c        0x0 d:/devkitPro/libnds/lib\libul.a(glWrapper.o)
 .bss           0x0205357c        0x0 d:/devkitPro/libnds/lib\libul.a(libLoadPng.o)
 .bss           0x0205357c        0x0 d:/devkitPro/libnds/lib\libul.a(ulDrawFillRect.o)
 .bss           0x0205357c        0x0 d:/devkitPro/libnds/lib\libul.a(ulSetImagePixel.o)
 .bss           0x0205357c        0x0 d:/devkitPro/libnds/lib\libul.a(ulGetImagePixel.o)
 .bss           0x0205357c        0x0 d:/devkitPro/libnds/lib\libul.a(textSize.o)
 .bss           0x0205357c        0x0 d:/devkitPro/libnds/lib\libul.a(loading_utility.o)
 .bss           0x0205357c        0x0 d:/devkitPro/libnds/lib\libul.a(ulLoadImageFileJPG.o)
 .bss           0x0205357c        0x0 d:/devkitPro/libnds/lib\libul.a(ulLoadImageFileGIF.o)
 .bss           0x0205357c        0x0 d:/devkitPro/libnds/lib\libul.a(libLoadJpg.o)
 .bss           0x0205357c        0x0 d:/devkitPro/libnds/lib\libul.a(libLoadGif.o)
 .bss           0x0205357c        0x0 d:/devkitPro/libnds/lib\libul.a(dgif_lib.o)
 .bss           0x0205357c        0x4 d:/devkitPro/libnds/lib\libul.a(gif_err.o)
                0x0205357c                _GifError
 .bss           0x02053580        0x0 d:/devkitPro/libnds/lib\libul.a(gifalloc.o)
 .bss           0x02053580        0x0 d:/devkitPro/libnds/lib\libul.a(ulReadEntireFileToMemory.o)
 .bss           0x02053580        0x0 d:/devkitPro/libnds/lib\libul.a(gba-jpeg-decode.o)
 .bss           0x02053580        0x0 d:/devkitPro/libnds/lib\libpng.a(png.o)
 .bss           0x02053580        0x0 d:/devkitPro/libnds/lib\libpng.a(pngread.o)
 .bss           0x02053580        0x0 d:/devkitPro/libnds/lib\libpng.a(pngrio.o)
 .bss           0x02053580        0x0 d:/devkitPro/libnds/lib\libpng.a(pngrtran.o)
 .bss           0x02053580        0x0 d:/devkitPro/libnds/lib\libpng.a(pngmem.o)
 .bss           0x02053580        0x0 d:/devkitPro/libnds/lib\libpng.a(pngerror.o)
 .bss           0x02053580        0x0 d:/devkitPro/libnds/lib\libpng.a(pngget.o)
 .bss           0x02053580        0x0 d:/devkitPro/libnds/lib\libpng.a(pngrutil.o)
 .bss           0x02053580        0x0 d:/devkitPro/libnds/lib\libpng.a(pngtrans.o)
 .bss           0x02053580        0x0 d:/devkitPro/libnds/lib\libpng.a(pngset.o)
 .bss           0x02053580        0x0 d:/devkitPro/libnds/lib\libz.a(crc32.o)
 .bss           0x02053580        0x0 d:/devkitPro/libnds/lib\libz.a(inflate.o)
 .bss           0x02053580        0x0 d:/devkitPro/libnds/lib\libz.a(inftrees.o)
 .bss           0x02053580        0x0 d:/devkitPro/libnds/lib\libz.a(inffast.o)
 .bss           0x02053580        0x0 d:/devkitPro/libnds/lib\libz.a(adler32.o)
 .bss           0x02053580        0x0 d:/devkitPro/libnds/lib\libz.a(zutil.o)
 .bss           0x02053580        0x0 d:/devkitPro/libnds/lib\libnds9.a(dynamicArray.o)
 .bss           0x02053580        0x6 d:/devkitPro/libnds/lib\libnds9.a(keys.o)
 .bss           0x02053586        0x0 d:/devkitPro/libnds/lib\libnds9.a(system.o)
 .bss           0x02053586        0x0 d:/devkitPro/libnds/lib\libnds9.a(touch.o)
 .bss           0x02053586        0x0 d:/devkitPro/libnds/lib\libnds9.a(trig.o)
 *fill*         0x02053586        0x2 00
 .bss           0x02053588        0x8 d:/devkitPro/libnds/lib\libnds9.a(videoGL.o)
 .bss           0x02053590        0x0 d:/devkitPro/libnds/lib\libnds9.a(initSystem.o)
 .bss           0x02053590        0x8 d:/devkitPro/libnds/lib\libnds9.a(fifosystem.o)
                0x02053594                processing
 .bss           0x02053598        0x0 d:/devkitPro/libnds/lib\libnds9.a(interrupts.o)
 .bss           0x02053598        0x0 d:/devkitPro/libnds/lib\libnds9.a(libnds_exit.o)
 .bss           0x02053598        0x0 d:/devkitPro/libnds/lib\libnds9.a(mpu_setup.o)
 .bss           0x02053598        0x0 d:/devkitPro/libnds/lib\libnds9.a(biosCalls.o)
 .bss           0x02053598        0x0 d:/devkitPro/libnds/lib\libnds9.a(interruptDispatcher.o)
 .bss           0x02053598        0x0 d:/devkitPro/libnds/lib\libnds9.a(swiSoftReset.o)
 .bss           0x02053598        0x0 d:/devkitPro/libnds/lib\libnds9.a(video.o)
 .bss           0x02053598        0x0 d:/devkitpro/devkitarm/bin/../lib/gcc/arm-eabi/4.5.1/../../../../arm-eabi/lib\libstdc++.a(new_op.o)
 .bss           0x02053598        0x0 d:/devkitpro/devkitarm/bin/../lib/gcc/arm-eabi/4.5.1/../../../../arm-eabi/lib\libstdc++.a(eh_alloc.o)
 .bss._ZL15dependents_used
                0x02053598        0x4 d:/devkitpro/devkitarm/bin/../lib/gcc/arm-eabi/4.5.1/../../../../arm-eabi/lib\libstdc++.a(eh_alloc.o)
 *fill*         0x0205359c        0x4 00
 .bss._ZL17dependents_buffer
                0x020535a0      0x1e0 d:/devkitpro/devkitarm/bin/../lib/gcc/arm-eabi/4.5.1/../../../../arm-eabi/lib\libstdc++.a(eh_alloc.o)
 .bss._ZL14emergency_used
                0x02053780        0x4 d:/devkitpro/devkitarm/bin/../lib/gcc/arm-eabi/4.5.1/../../../../arm-eabi/lib\libstdc++.a(eh_alloc.o)
 *fill*         0x02053784        0x4 00
 .bss._ZL16emergency_buffer
                0x02053788      0x800 d:/devkitpro/devkitarm/bin/../lib/gcc/arm-eabi/4.5.1/../../../../arm-eabi/lib\libstdc++.a(eh_alloc.o)
 .bss           0x02053f88        0x0 d:/devkitpro/devkitarm/bin/../lib/gcc/arm-eabi/4.5.1/../../../../arm-eabi/lib\libstdc++.a(eh_arm.o)
 .bss           0x02053f88        0x0 d:/devkitpro/devkitarm/bin/../lib/gcc/arm-eabi/4.5.1/../../../../arm-eabi/lib\libstdc++.a(eh_aux_runtime.o)
 .bss           0x02053f88        0x0 d:/devkitpro/devkitarm/bin/../lib/gcc/arm-eabi/4.5.1/../../../../arm-eabi/lib\libstdc++.a(eh_call.o)
 .bss           0x02053f88        0x0 d:/devkitpro/devkitarm/bin/../lib/gcc/arm-eabi/4.5.1/../../../../arm-eabi/lib\libstdc++.a(eh_catch.o)
 .bss           0x02053f88        0x0 d:/devkitpro/devkitarm/bin/../lib/gcc/arm-eabi/4.5.1/../../../../arm-eabi/lib\libstdc++.a(eh_exception.o)
 .bss           0x02053f88        0x0 d:/devkitpro/devkitarm/bin/../lib/gcc/arm-eabi/4.5.1/../../../../arm-eabi/lib\libstdc++.a(eh_globals.o)
 .bss._ZL10eh_globals
                0x02053f88        0xc d:/devkitpro/devkitarm/bin/../lib/gcc/arm-eabi/4.5.1/../../../../arm-eabi/lib\libstdc++.a(eh_globals.o)
 .bss           0x02053f94        0x0 d:/devkitpro/devkitarm/bin/../lib/gcc/arm-eabi/4.5.1/../../../../arm-eabi/lib\libstdc++.a(eh_personality.o)
 .bss           0x02053f94        0x0 d:/devkitpro/devkitarm/bin/../lib/gcc/arm-eabi/4.5.1/../../../../arm-eabi/lib\libstdc++.a(eh_terminate.o)
 .bss           0x02053f94        0x0 d:/devkitpro/devkitarm/bin/../lib/gcc/arm-eabi/4.5.1/../../../../arm-eabi/lib\libstdc++.a(eh_term_handler.o)
 .bss           0x02053f94        0x0 d:/devkitpro/devkitarm/bin/../lib/gcc/arm-eabi/4.5.1/../../../../arm-eabi/lib\libstdc++.a(eh_throw.o)
 .bss           0x02053f94        0x0 d:/devkitpro/devkitarm/bin/../lib/gcc/arm-eabi/4.5.1/../../../../arm-eabi/lib\libstdc++.a(eh_unex_handler.o)
 .bss           0x02053f94        0x0 d:/devkitpro/devkitarm/bin/../lib/gcc/arm-eabi/4.5.1/../../../../arm-eabi/lib\libstdc++.a(fundamental_type_info.o)
 .bss           0x02053f94        0x0 d:/devkitpro/devkitarm/bin/../lib/gcc/arm-eabi/4.5.1/../../../../arm-eabi/lib\libstdc++.a(new_handler.o)
 .bss.__new_handler
                0x02053f94        0x4 d:/devkitpro/devkitarm/bin/../lib/gcc/arm-eabi/4.5.1/../../../../arm-eabi/lib\libstdc++.a(new_handler.o)
                0x02053f94                __new_handler
 .bss           0x02053f98        0x0 d:/devkitpro/devkitarm/bin/../lib/gcc/arm-eabi/4.5.1/../../../../arm-eabi/lib\libstdc++.a(pointer_type_info.o)
 .bss           0x02053f98        0x0 d:/devkitpro/devkitarm/bin/../lib/gcc/arm-eabi/4.5.1/../../../../arm-eabi/lib\libstdc++.a(pure.o)
 .bss           0x02053f98        0x0 d:/devkitpro/devkitarm/bin/../lib/gcc/arm-eabi/4.5.1/../../../../arm-eabi/lib\libstdc++.a(si_class_type_info.o)
 .bss           0x02053f98        0x0 d:/devkitpro/devkitarm/bin/../lib/gcc/arm-eabi/4.5.1/../../../../arm-eabi/lib\libstdc++.a(tinfo.o)
 .bss           0x02053f98        0x0 d:/devkitpro/devkitarm/bin/../lib/gcc/arm-eabi/4.5.1/../../../../arm-eabi/lib\libstdc++.a(vterminate.o)
 .bss._ZZN9__gnu_cxx27__verbose_terminate_handlerEvE11terminating
                0x02053f98        0x1 d:/devkitpro/devkitarm/bin/../lib/gcc/arm-eabi/4.5.1/../../../../arm-eabi/lib\libstdc++.a(vterminate.o)
 .bss           0x02053f99        0x0 d:/devkitpro/devkitarm/bin/../lib/gcc/arm-eabi/4.5.1/../../../../arm-eabi/lib\libstdc++.a(bad_cast.o)
 .bss           0x02053f99        0x0 d:/devkitpro/devkitarm/bin/../lib/gcc/arm-eabi/4.5.1/../../../../arm-eabi/lib\libstdc++.a(bad_typeid.o)
 .bss           0x02053f99        0x0 d:/devkitpro/devkitarm/bin/../lib/gcc/arm-eabi/4.5.1/../../../../arm-eabi/lib\libstdc++.a(class_type_info.o)
 .bss           0x02053f99        0x0 d:/devkitpro/devkitarm/bin/../lib/gcc/arm-eabi/4.5.1/../../../../arm-eabi/lib\libstdc++.a(cp-demangle.o)
 .bss           0x02053f99        0x0 d:/devkitpro/devkitarm/bin/../lib/gcc/arm-eabi/4.5.1/../../../../arm-eabi/lib\libstdc++.a(del_op.o)
 .bss           0x02053f99        0x0 d:/devkitpro/devkitarm/bin/../lib/gcc/arm-eabi/4.5.1/../../../../arm-eabi/lib\libstdc++.a(eh_type.o)
 .bss           0x02053f99        0x0 d:/devkitpro/devkitarm/bin/../lib/gcc/arm-eabi/4.5.1/../../../../arm-eabi/lib\libstdc++.a(pbase_type_info.o)
 .bss           0x02053f99        0x0 d:/devkitpro/devkitarm/bin/../lib/gcc/arm-eabi/4.5.1/../../../../arm-eabi/lib\libm.a(lib_a-s_cos.o)
 .bss           0x02053f99        0x0 d:/devkitpro/devkitarm/bin/../lib/gcc/arm-eabi/4.5.1/../../../../arm-eabi/lib\libm.a(lib_a-s_sin.o)
 .bss           0x02053f99        0x0 d:/devkitpro/devkitarm/bin/../lib/gcc/arm-eabi/4.5.1/../../../../arm-eabi/lib\libm.a(lib_a-w_pow.o)
 .bss           0x02053f99        0x0 d:/devkitpro/devkitarm/bin/../lib/gcc/arm-eabi/4.5.1/../../../../arm-eabi/lib\libm.a(lib_a-e_pow.o)
 .bss           0x02053f99        0x0 d:/devkitpro/devkitarm/bin/../lib/gcc/arm-eabi/4.5.1/../../../../arm-eabi/lib\libm.a(lib_a-e_rem_pio2.o)
 .bss           0x02053f99        0x0 d:/devkitpro/devkitarm/bin/../lib/gcc/arm-eabi/4.5.1/../../../../arm-eabi/lib\libm.a(lib_a-e_sqrt.o)
 .bss           0x02053f99        0x0 d:/devkitpro/devkitarm/bin/../lib/gcc/arm-eabi/4.5.1/../../../../arm-eabi/lib\libm.a(lib_a-k_cos.o)
 .bss           0x02053f99        0x0 d:/devkitpro/devkitarm/bin/../lib/gcc/arm-eabi/4.5.1/../../../../arm-eabi/lib\libm.a(lib_a-k_rem_pio2.o)
 .bss           0x02053f99        0x0 d:/devkitpro/devkitarm/bin/../lib/gcc/arm-eabi/4.5.1/../../../../arm-eabi/lib\libm.a(lib_a-k_sin.o)
 .bss           0x02053f99        0x0 d:/devkitpro/devkitarm/bin/../lib/gcc/arm-eabi/4.5.1/../../../../arm-eabi/lib\libm.a(lib_a-s_fabs.o)
 .bss           0x02053f99        0x0 d:/devkitpro/devkitarm/bin/../lib/gcc/arm-eabi/4.5.1/../../../../arm-eabi/lib\libm.a(lib_a-s_finite.o)
 .bss           0x02053f99        0x0 d:/devkitpro/devkitarm/bin/../lib/gcc/arm-eabi/4.5.1/../../../../arm-eabi/lib\libm.a(lib_a-s_floor.o)
 .bss           0x02053f99        0x0 d:/devkitpro/devkitarm/bin/../lib/gcc/arm-eabi/4.5.1/../../../../arm-eabi/lib\libm.a(lib_a-s_fpclassify.o)
 .bss           0x02053f99        0x0 d:/devkitpro/devkitarm/bin/../lib/gcc/arm-eabi/4.5.1/../../../../arm-eabi/lib\libm.a(lib_a-s_lib_ver.o)
 .bss           0x02053f99        0x0 d:/devkitpro/devkitarm/bin/../lib/gcc/arm-eabi/4.5.1/../../../../arm-eabi/lib\libm.a(lib_a-s_matherr.o)
 .bss           0x02053f99        0x0 d:/devkitpro/devkitarm/bin/../lib/gcc/arm-eabi/4.5.1/../../../../arm-eabi/lib\libm.a(lib_a-s_nan.o)
 .bss           0x02053f99        0x0 d:/devkitpro/devkitarm/bin/../lib/gcc/arm-eabi/4.5.1/../../../../arm-eabi/lib\libm.a(lib_a-s_rint.o)
 .bss           0x02053f99        0x0 d:/devkitpro/devkitarm/bin/../lib/gcc/arm-eabi/4.5.1/../../../../arm-eabi/lib\libm.a(lib_a-s_scalbn.o)
 .bss           0x02053f99        0x0 d:/devkitpro/devkitarm/bin/../lib/gcc/arm-eabi/4.5.1/../../../../arm-eabi/lib\libm.a(lib_a-s_copysign.o)
 .bss           0x02053f99        0x0 d:/devkitpro/devkitarm/bin/../lib/gcc/arm-eabi/4.5.1\libgcc.a(_udivsi3.o)
 .bss           0x02053f99        0x0 d:/devkitpro/devkitarm/bin/../lib/gcc/arm-eabi/4.5.1\libgcc.a(_divsi3.o)
 .bss           0x02053f99        0x0 d:/devkitpro/devkitarm/bin/../lib/gcc/arm-eabi/4.5.1\libgcc.a(_dvmd_tls.o)
 .bss           0x02053f99        0x0 d:/devkitpro/devkitarm/bin/../lib/gcc/arm-eabi/4.5.1\libgcc.a(_arm_addsubdf3.o)
 .bss           0x02053f99        0x0 d:/devkitpro/devkitarm/bin/../lib/gcc/arm-eabi/4.5.1\libgcc.a(_arm_muldivdf3.o)
 .bss           0x02053f99        0x0 d:/devkitpro/devkitarm/bin/../lib/gcc/arm-eabi/4.5.1\libgcc.a(_arm_cmpdf2.o)
 .bss           0x02053f99        0x0 d:/devkitpro/devkitarm/bin/../lib/gcc/arm-eabi/4.5.1\libgcc.a(_arm_fixdfsi.o)
 .bss           0x02053f99        0x0 d:/devkitpro/devkitarm/bin/../lib/gcc/arm-eabi/4.5.1\libgcc.a(_arm_fixunsdfsi.o)
 .bss           0x02053f99        0x0 d:/devkitpro/devkitarm/bin/../lib/gcc/arm-eabi/4.5.1\libgcc.a(_arm_truncdfsf2.o)
 .bss           0x02053f99        0x0 d:/devkitpro/devkitarm/bin/../lib/gcc/arm-eabi/4.5.1\libgcc.a(_arm_addsubsf3.o)
 .bss           0x02053f99        0x0 d:/devkitpro/devkitarm/bin/../lib/gcc/arm-eabi/4.5.1\libgcc.a(_arm_muldivsf3.o)
 .bss           0x02053f99        0x0 d:/devkitpro/devkitarm/bin/../lib/gcc/arm-eabi/4.5.1\libgcc.a(_arm_cmpsf2.o)
 .bss           0x02053f99        0x0 d:/devkitpro/devkitarm/bin/../lib/gcc/arm-eabi/4.5.1\libgcc.a(_arm_fixsfsi.o)
 .bss           0x02053f99        0x0 d:/devkitpro/devkitarm/bin/../lib/gcc/arm-eabi/4.5.1\libgcc.a(_arm_fixunssfsi.o)
 .bss           0x02053f99        0x0 d:/devkitpro/devkitarm/bin/../lib/gcc/arm-eabi/4.5.1\libgcc.a(_muldi3.o)
 .bss           0x02053f99        0x0 d:/devkitpro/devkitarm/bin/../lib/gcc/arm-eabi/4.5.1\libgcc.a(unwind-arm.o)
 .bss           0x02053f99        0x0 d:/devkitpro/devkitarm/bin/../lib/gcc/arm-eabi/4.5.1\libgcc.a(libunwind.o)
 .bss           0x02053f99        0x0 d:/devkitpro/devkitarm/bin/../lib/gcc/arm-eabi/4.5.1\libgcc.a(pr-support.o)
 .bss           0x02053f99        0x0 d:/devkitpro/devkitarm/bin/../lib/gcc/arm-eabi/4.5.1/../../../../arm-eabi/lib\libg.a(lib_a-abort.o)
 .bss           0x02053f99        0x0 d:/devkitpro/devkitarm/bin/../lib/gcc/arm-eabi/4.5.1/../../../../arm-eabi/lib\libg.a(lib_a-bsearch.o)
 .bss           0x02053f99        0x0 d:/devkitpro/devkitarm/bin/../lib/gcc/arm-eabi/4.5.1/../../../../arm-eabi/lib\libg.a(lib_a-calloc.o)
 .bss           0x02053f99        0x0 d:/devkitpro/devkitarm/bin/../lib/gcc/arm-eabi/4.5.1/../../../../arm-eabi/lib\libg.a(lib_a-callocr.o)
 .bss           0x02053f99        0x0 d:/devkitpro/devkitarm/bin/../lib/gcc/arm-eabi/4.5.1/../../../../arm-eabi/lib\libg.a(lib_a-errno.o)
 .bss           0x02053f99        0x0 d:/devkitpro/devkitarm/bin/../lib/gcc/arm-eabi/4.5.1/../../../../arm-eabi/lib\libg.a(lib_a-fclose.o)
 .bss           0x02053f99        0x0 d:/devkitpro/devkitarm/bin/../lib/gcc/arm-eabi/4.5.1/../../../../arm-eabi/lib\libg.a(lib_a-fflush.o)
 .bss           0x02053f99        0x0 d:/devkitpro/devkitarm/bin/../lib/gcc/arm-eabi/4.5.1/../../../../arm-eabi/lib\libg.a(lib_a-findfp.o)
 .bss           0x02053f99        0x0 d:/devkitpro/devkitarm/bin/../lib/gcc/arm-eabi/4.5.1/../../../../arm-eabi/lib\libg.a(lib_a-fprintf.o)
 .bss           0x02053f99        0x0 d:/devkitpro/devkitarm/bin/../lib/gcc/arm-eabi/4.5.1/../../../../arm-eabi/lib\libg.a(lib_a-fputc.o)
 .bss           0x02053f99        0x0 d:/devkitpro/devkitarm/bin/../lib/gcc/arm-eabi/4.5.1/../../../../arm-eabi/lib\libg.a(lib_a-fputs.o)
 .bss           0x02053f99        0x0 d:/devkitpro/devkitarm/bin/../lib/gcc/arm-eabi/4.5.1/../../../../arm-eabi/lib\libg.a(lib_a-fread.o)
 .bss           0x02053f99        0x0 d:/devkitpro/devkitarm/bin/../lib/gcc/arm-eabi/4.5.1/../../../../arm-eabi/lib\libg.a(lib_a-freer.o)
 .bss           0x02053f99        0x0 d:/devkitpro/devkitarm/bin/../lib/gcc/arm-eabi/4.5.1/../../../../arm-eabi/lib\libg.a(lib_a-fvwrite.o)
 .bss           0x02053f99        0x0 d:/devkitpro/devkitarm/bin/../lib/gcc/arm-eabi/4.5.1/../../../../arm-eabi/lib\libg.a(lib_a-fwalk.o)
 .bss           0x02053f99        0x0 d:/devkitpro/devkitarm/bin/../lib/gcc/arm-eabi/4.5.1/../../../../arm-eabi/lib\libg.a(lib_a-fwrite.o)
 .bss           0x02053f99        0x0 d:/devkitpro/devkitarm/bin/../lib/gcc/arm-eabi/4.5.1/../../../../arm-eabi/lib\libg.a(lib_a-impure.o)
 .bss           0x02053f99        0x0 d:/devkitpro/devkitarm/bin/../lib/gcc/arm-eabi/4.5.1/../../../../arm-eabi/lib\libg.a(lib_a-init.o)
 .bss           0x02053f99        0x0 d:/devkitpro/devkitarm/bin/../lib/gcc/arm-eabi/4.5.1/../../../../arm-eabi/lib\libg.a(lib_a-malloc.o)
 *fill*         0x02053f99        0x3 00
 .bss           0x02053f9c       0x34 d:/devkitpro/devkitarm/bin/../lib/gcc/arm-eabi/4.5.1/../../../../arm-eabi/lib\libg.a(lib_a-mallocr.o)
                0x02053f9c                __malloc_top_pad
                0x02053fa0                __malloc_current_mallinfo
                0x02053fc8                __malloc_max_sbrked_mem
                0x02053fcc                __malloc_max_total_mem
 .bss           0x02053fd0        0x0 d:/devkitpro/devkitarm/bin/../lib/gcc/arm-eabi/4.5.1/../../../../arm-eabi/lib\libg.a(lib_a-memchr.o)
 .bss           0x02053fd0        0x0 d:/devkitpro/devkitarm/bin/../lib/gcc/arm-eabi/4.5.1/../../../../arm-eabi/lib\libg.a(lib_a-memcmp.o)
 .bss           0x02053fd0        0x0 d:/devkitpro/devkitarm/bin/../lib/gcc/arm-eabi/4.5.1/../../../../arm-eabi/lib\libg.a(lib_a-memcpy.o)
 .bss           0x02053fd0        0x0 d:/devkitpro/devkitarm/bin/../lib/gcc/arm-eabi/4.5.1/../../../../arm-eabi/lib\libg.a(lib_a-memmove.o)
 .bss           0x02053fd0        0x0 d:/devkitpro/devkitarm/bin/../lib/gcc/arm-eabi/4.5.1/../../../../arm-eabi/lib\libg.a(lib_a-memset.o)
 .bss           0x02053fd0        0x0 d:/devkitpro/devkitarm/bin/../lib/gcc/arm-eabi/4.5.1/../../../../arm-eabi/lib\libg.a(lib_a-mlock.o)
 .bss           0x02053fd0        0x0 d:/devkitpro/devkitarm/bin/../lib/gcc/arm-eabi/4.5.1/../../../../arm-eabi/lib\libg.a(lib_a-putc.o)
 .bss           0x02053fd0        0x0 d:/devkitpro/devkitarm/bin/../lib/gcc/arm-eabi/4.5.1/../../../../arm-eabi/lib\libg.a(lib_a-rand.o)
 .bss           0x02053fd0        0x0 d:/devkitpro/devkitarm/bin/../lib/gcc/arm-eabi/4.5.1/../../../../arm-eabi/lib\libg.a(lib_a-realloc.o)
 .bss           0x02053fd0        0x0 d:/devkitpro/devkitarm/bin/../lib/gcc/arm-eabi/4.5.1/../../../../arm-eabi/lib\libg.a(lib_a-reallocr.o)
 .bss           0x02053fd0        0x0 d:/devkitpro/devkitarm/bin/../lib/gcc/arm-eabi/4.5.1/../../../../arm-eabi/lib\libg.a(lib_a-refill.o)
 .bss           0x02053fd0        0x0 d:/devkitpro/devkitarm/bin/../lib/gcc/arm-eabi/4.5.1/../../../../arm-eabi/lib\libg.a(lib_a-setjmp.o)
 .bss           0x02053fd0        0x0 d:/devkitpro/devkitarm/bin/../lib/gcc/arm-eabi/4.5.1/../../../../arm-eabi/lib\libg.a(lib_a-signal.o)
 .bss           0x02053fd0        0x0 d:/devkitpro/devkitarm/bin/../lib/gcc/arm-eabi/4.5.1/../../../../arm-eabi/lib\libg.a(lib_a-snprintf.o)
 .bss           0x02053fd0        0x0 d:/devkitpro/devkitarm/bin/../lib/gcc/arm-eabi/4.5.1/../../../../arm-eabi/lib\libg.a(lib_a-sprintf.o)
 .bss           0x02053fd0        0x0 d:/devkitpro/devkitarm/bin/../lib/gcc/arm-eabi/4.5.1/../../../../arm-eabi/lib\libg.a(lib_a-stdio.o)
 .bss           0x02053fd0        0x0 d:/devkitpro/devkitarm/bin/../lib/gcc/arm-eabi/4.5.1/../../../../arm-eabi/lib\libg.a(lib_a-strcmp.o)
 .bss           0x02053fd0        0x0 d:/devkitpro/devkitarm/bin/../lib/gcc/arm-eabi/4.5.1/../../../../arm-eabi/lib\libg.a(lib_a-strcpy.o)
 .bss           0x02053fd0        0x0 d:/devkitpro/devkitarm/bin/../lib/gcc/arm-eabi/4.5.1/../../../../arm-eabi/lib\libg.a(lib_a-strlen.o)
 .bss           0x02053fd0        0x0 d:/devkitpro/devkitarm/bin/../lib/gcc/arm-eabi/4.5.1/../../../../arm-eabi/lib\libg.a(lib_a-strncmp.o)
 .bss           0x02053fd0        0x0 d:/devkitpro/devkitarm/bin/../lib/gcc/arm-eabi/4.5.1/../../../../arm-eabi/lib\libg.a(lib_a-strtod.o)
 .bss           0x02053fd0        0x0 d:/devkitpro/devkitarm/bin/../lib/gcc/arm-eabi/4.5.1/../../../../arm-eabi/lib\libg.a(lib_a-svfprintf.o)
 .bss           0x02053fd0        0x0 d:/devkitpro/devkitarm/bin/../lib/gcc/arm-eabi/4.5.1/../../../../arm-eabi/lib\libg.a(lib_a-syswrite.o)
 .bss           0x02053fd0        0x0 d:/devkitpro/devkitarm/bin/../lib/gcc/arm-eabi/4.5.1/../../../../arm-eabi/lib\libg.a(lib_a-vfprintf.o)
 .bss           0x02053fd0        0x0 d:/devkitpro/devkitarm/bin/../lib/gcc/arm-eabi/4.5.1/../../../../arm-eabi/lib\libg.a(lib_a-wbuf.o)
 .bss           0x02053fd0        0x0 d:/devkitpro/devkitarm/bin/../lib/gcc/arm-eabi/4.5.1/../../../../arm-eabi/lib\libg.a(lib_a-wcrtomb.o)
 .bss           0x02053fd0        0x0 d:/devkitpro/devkitarm/bin/../lib/gcc/arm-eabi/4.5.1/../../../../arm-eabi/lib\libg.a(lib_a-wcsrtombs.o)
 .bss           0x02053fd0        0x0 d:/devkitpro/devkitarm/bin/../lib/gcc/arm-eabi/4.5.1/../../../../arm-eabi/lib\libg.a(lib_a-wctomb_r.o)
 .bss           0x02053fd0        0x0 d:/devkitpro/devkitarm/bin/../lib/gcc/arm-eabi/4.5.1/../../../../arm-eabi/lib\libg.a(lib_a-wsetup.o)
 .bss           0x02053fd0        0x0 d:/devkitpro/devkitarm/bin/../lib/gcc/arm-eabi/4.5.1/../../../../arm-eabi/lib\libg.a(lib_a-dtoa.o)
 .bss           0x02053fd0        0x0 d:/devkitpro/devkitarm/bin/../lib/gcc/arm-eabi/4.5.1/../../../../arm-eabi/lib\libg.a(lib_a-gdtoa-gethex.o)
 .bss           0x02053fd0        0x0 d:/devkitpro/devkitarm/bin/../lib/gcc/arm-eabi/4.5.1/../../../../arm-eabi/lib\libg.a(lib_a-gdtoa-hexnan.o)
 .bss           0x02053fd0      0x2b8 d:/devkitpro/devkitarm/bin/../lib/gcc/arm-eabi/4.5.1/../../../../arm-eabi/lib\libg.a(lib_a-locale.o)
                0x0205427c                __nlocale_changed
                0x02054280                __mlocale_changed
                0x02054284                _PathLocale
 .bss           0x02054288        0x0 d:/devkitpro/devkitarm/bin/../lib/gcc/arm-eabi/4.5.1/../../../../arm-eabi/lib\libg.a(lib_a-makebuf.o)
 .bss           0x02054288        0x0 d:/devkitpro/devkitarm/bin/../lib/gcc/arm-eabi/4.5.1/../../../../arm-eabi/lib\libg.a(lib_a-mbtowc_r.o)
 .bss           0x02054288        0x0 d:/devkitpro/devkitarm/bin/../lib/gcc/arm-eabi/4.5.1/../../../../arm-eabi/lib\libg.a(lib_a-mprec.o)
 .bss           0x02054288        0x0 d:/devkitpro/devkitarm/bin/../lib/gcc/arm-eabi/4.5.1/../../../../arm-eabi/lib\libg.a(lib_a-sf_nan.o)
 .bss           0x02054288        0x0 d:/devkitpro/devkitarm/bin/../lib/gcc/arm-eabi/4.5.1/../../../../arm-eabi/lib\libg.a(lib_a-strcasecmp.o)
 .bss           0x02054288        0x0 d:/devkitpro/devkitarm/bin/../lib/gcc/arm-eabi/4.5.1/../../../../arm-eabi/lib\libg.a(lib_a-strcat.o)
 .bss           0x02054288        0x0 d:/devkitpro/devkitarm/bin/../lib/gcc/arm-eabi/4.5.1/../../../../arm-eabi/lib\libg.a(lib_a-strchr.o)
 .bss           0x02054288        0x0 d:/devkitpro/devkitarm/bin/../lib/gcc/arm-eabi/4.5.1/../../../../arm-eabi/lib\libg.a(lib_a-strlcpy.o)
 .bss           0x02054288        0x0 d:/devkitpro/devkitarm/bin/../lib/gcc/arm-eabi/4.5.1/../../../../arm-eabi/lib\libg.a(lib_a-strncasecmp.o)
 .bss           0x02054288        0x0 d:/devkitpro/devkitarm/bin/../lib/gcc/arm-eabi/4.5.1/../../../../arm-eabi/lib\libg.a(lib_a-strncpy.o)
 .bss           0x02054288        0x0 d:/devkitpro/devkitarm/bin/../lib/gcc/arm-eabi/4.5.1/../../../../arm-eabi/lib\libg.a(lib_a-strtol.o)
 .bss           0x02054288        0x0 d:/devkitpro/devkitarm/bin/../lib/gcc/arm-eabi/4.5.1/../../../../arm-eabi/lib\libg.a(lib_a-svfiprintf.o)
 .bss           0x02054288        0x0 d:/devkitpro/devkitarm/bin/../lib/gcc/arm-eabi/4.5.1/../../../../arm-eabi/lib\libg.a(lib_a-vfiprintf.o)
 .bss           0x02054288        0x0 d:/devkitpro/devkitarm/bin/../lib/gcc/arm-eabi/4.5.1/../../../../arm-eabi/lib\libg.a(lib_a-wcsnrtombs.o)
 .bss           0x02054288        0x0 d:/devkitpro/devkitarm/bin/../lib/gcc/arm-eabi/4.5.1/../../../../arm-eabi/lib\libg.a(lib_a-ctype_.o)
 .bss           0x02054288        0x0 d:/devkitpro/devkitarm/bin/../lib/gcc/arm-eabi/4.5.1/../../../../arm-eabi/lib\libg.a(lib_a-fputwc.o)
 .bss           0x02054288        0x0 d:/devkitpro/devkitarm/bin/../lib/gcc/arm-eabi/4.5.1/../../../../arm-eabi/lib\libg.a(lib_a-getenv_r.o)
 .bss           0x02054288        0x4 d:/devkitpro/devkitarm/bin/../lib/gcc/arm-eabi/4.5.1/../../../../arm-eabi/lib\libg.a(lib_a-environ.o)
 .bss           0x0205428c        0x0 d:/devkitpro/devkitarm/bin/../lib/gcc/arm-eabi/4.5.1/../../../../arm-eabi/lib\libg.a(lib_a-envlock.o)
 .bss           0x0205428c        0x0 d:/devkitpro/devkitarm/bin/../lib/gcc/arm-eabi/4.5.1/../../../../arm-eabi/lib\libsysbase.a(close.o)
 .bss           0x0205428c        0x0 d:/devkitpro/devkitarm/bin/../lib/gcc/arm-eabi/4.5.1/../../../../arm-eabi/lib\libsysbase.a(fstat.o)
 .bss           0x0205428c        0x0 d:/devkitpro/devkitarm/bin/../lib/gcc/arm-eabi/4.5.1/../../../../arm-eabi/lib\libsysbase.a(getpid.o)
 .bss           0x0205428c        0x0 d:/devkitpro/devkitarm/bin/../lib/gcc/arm-eabi/4.5.1/../../../../arm-eabi/lib\libsysbase.a(isatty.o)
 .bss           0x0205428c        0x0 d:/devkitpro/devkitarm/bin/../lib/gcc/arm-eabi/4.5.1/../../../../arm-eabi/lib\libsysbase.a(kill.o)
 .bss           0x0205428c        0x0 d:/devkitpro/devkitarm/bin/../lib/gcc/arm-eabi/4.5.1/../../../../arm-eabi/lib\libsysbase.a(lseek.o)
 .bss           0x0205428c        0x0 d:/devkitpro/devkitarm/bin/../lib/gcc/arm-eabi/4.5.1/../../../../arm-eabi/lib\libsysbase.a(read.o)
 .bss           0x0205428c        0x4 d:/devkitpro/devkitarm/bin/../lib/gcc/arm-eabi/4.5.1/../../../../arm-eabi/lib\libsysbase.a(sbrk.o)
 .bss           0x02054290        0x0 d:/devkitpro/devkitarm/bin/../lib/gcc/arm-eabi/4.5.1/../../../../arm-eabi/lib\libsysbase.a(times.o)
 .bss           0x02054290        0x0 d:/devkitpro/devkitarm/bin/../lib/gcc/arm-eabi/4.5.1/../../../../arm-eabi/lib\libsysbase.a(write.o)
 .bss           0x02054290        0x0 d:/devkitpro/devkitarm/bin/../lib/gcc/arm-eabi/4.5.1/../../../../arm-eabi/lib\libsysbase.a(_exit.o)
 .bss           0x02054290        0x8 d:/devkitpro/devkitarm/bin/../lib/gcc/arm-eabi/4.5.1/../../../../arm-eabi/lib\libsysbase.a(malloc_vars.o)
                0x02054290                fake_heap_end
                0x02054294                fake_heap_start
 .bss           0x02054298        0x0 d:/devkitpro/devkitarm/bin/../lib/gcc/arm-eabi/4.5.1/../../../../arm-eabi/lib\libsysbase.a(build_argv.o)
 .bss           0x02054298        0x8 d:/devkitpro/devkitarm/bin/../lib/gcc/arm-eabi/4.5.1/../../../../arm-eabi/lib\libsysbase.a(syscall_support.o)
                0x02054298                __syscalls
 .bss           0x020542a0     0x1000 d:/devkitpro/devkitarm/bin/../lib/gcc/arm-eabi/4.5.1/../../../../arm-eabi/lib\libsysbase.a(handle_manager.o)
 .bss           0x020552a0        0x0 d:/devkitpro/devkitarm/bin/../lib/gcc/arm-eabi/4.5.1/../../../../arm-eabi/lib\libsysbase.a(iosupport.o)
 .bss           0x020552a0        0x0 d:/devkitpro/devkitarm/bin/../lib/gcc/arm-eabi/4.5.1\libgcc.a(_aeabi_uldivmod.o)
 .bss           0x020552a0        0x0 d:/devkitpro/devkitarm/bin/../lib/gcc/arm-eabi/4.5.1\libgcc.a(bpabi.o)
 .bss           0x020552a0        0x0 d:/devkitpro/devkitarm/bin/../lib/gcc/arm-eabi/4.5.1\libgcc.a(_divdi3.o)
 .bss           0x020552a0        0x0 d:/devkitpro/devkitarm/bin/../lib/gcc/arm-eabi/4.5.1\libgcc.a(_udivdi3.o)
 .bss           0x020552a0        0x0 d:/devkitpro/devkitarm/bin/../lib/gcc/arm-eabi/4.5.1\libgcc.a(_clzsi2.o)
 .bss           0x020552a0        0x0 d:/devkitpro/devkitarm/bin/../lib/gcc/arm-eabi/4.5.1/crtend.o
 .bss           0x020552a0        0x0 d:/devkitpro/devkitarm/bin/../lib/gcc/arm-eabi/4.5.1/crtn.o
 *(COMMON)
 COMMON         0x020552a0      0x800 d:/devkitPro/libnds/lib\libul.a(ulib.o)
                0x020552a0                ul_cos
                0x020556a0                ul_sin
 COMMON         0x02055aa0      0x411 d:/devkitPro/libnds/lib\libul.a(drawing.o)
                0x02055aa0                ul_colorKeyValue32
                0x02055aa4                ul_colorKeyValue
                0x02055aa8                ulDualScreenSprites
                0x02055ea8                ul_autoDepth
                0x02055ea9                ul_dualScreenMode
                0x02055eaa                ul_frameNumber
                0x02055eac                ul_currentDepth
                0x02055eb0                ul_colorKeyEnabled
 *fill*         0x02055eb1        0x3 00
 COMMON         0x02055eb4       0x44 d:/devkitPro/libnds/lib\libul.a(VirtualFile.o)
                0x02055eb4                VirtualFileSources
                0x02055ef4                ul_virtualFileList
 COMMON         0x02055ef8       0x1c d:/devkitPro/libnds/lib\libul.a(texVramManager.o)
                0x02055ef8                ulTextureMax
                0x02055efc                ulTextureParams
                0x02055f00                ulTexRamBlocksNb
                0x02055f04                ulTextureNb
                0x02055f08                ulTexRamBlocksMax
                0x02055f0c                ulTexRamBlocks
                0x02055f10                ulTextureActive
 COMMON         0x02055f14        0xc d:/devkitPro/libnds/lib\libul.a(texPalManager.o)
                0x02055f14                ulTexPalBlocksNb
                0x02055f18                ulTexPalBlocks
                0x02055f1c                ulTexPalBlocksMax
 COMMON         0x02055f20        0x8 d:/devkitPro/libnds/lib\libul.a(ulShowSplashScreen1.o)
                0x02055f20                ul_splash1_fadeDir
                0x02055f24                ul_splash1_fade
 COMMON         0x02055f28      0xc00 d:/devkitPro/libnds/lib\libul.a(ulShowSplashScreen2.o)
                0x02055f28                ul_neoflashlogo_positions
 COMMON         0x02056b28      0x804 d:/devkitPro/libnds/lib\libul.a(libLoadGif.o)
                0x02056b28                temppalette
                0x02056b2c                LineBuf
 COMMON         0x0205732c        0x8 d:/devkitPro/libnds/lib\libul.a(gba-jpeg-decode.o)
                0x0205732c                JPG_outEnd
                0x02057330                JPG_outBegin
 COMMON         0x02057334       0x4c d:/devkitPro/libnds/lib\libnds9.a(videoGL.o)
                0x02057334                glGlobalData
 COMMON         0x02057380        0x1 d:/devkitPro/libnds/lib\libnds9.a(initSystem.o)
                0x02057380                __dsimode
 *fill*         0x02057381        0x3 00
 COMMON         0x02057384      0xa40 d:/devkitPro/libnds/lib\libnds9.a(fifosystem.o)
                0x02057384                fifo_datamsg_data
                0x020573c4                fifo_buffer
                0x02057bc4                fifo_value32_func
                0x02057c04                fifo_address_func
                0x02057c44                fifo_value32_data
                0x02057c84                fifo_value32_queue
                0x02057cc4                fifo_data_queue
                0x02057d04                fifo_address_data
                0x02057d44                fifo_datamsg_func
                0x02057d84                fifo_address_queue
 COMMON         0x02057dc4      0x100 d:/devkitpro/devkitarm/bin/../lib/gcc/arm-eabi/4.5.1/../../../../arm-eabi/lib\libg.a(lib_a-gdtoa-gethex.o)
                0x02057dc4                __hexdig
 COMMON         0x02057ec4        0x4 d:/devkitpro/devkitarm/bin/../lib/gcc/arm-eabi/4.5.1/../../../../arm-eabi/lib\libsysbase.a(times.o)
                0x02057ec4                punixTime
                0x02057ec8                . = ALIGN (0x4)
                0x02057ec8                __bss_end = ABSOLUTE (.)
                0x02057ec8                __bss_end__ = __bss_end
                0x02057ec8                _end = __bss_end__
                0x02057ec8                __end__ = __bss_end__

.stab
 *(.stab)

.stabstr
 *(.stabstr)

.stab.excl
 *(.stab.excl)

.stab.exclstr
 *(.stab.exclstr)

.stab.index
 *(.stab.index)

.stab.indexstr
 *(.stab.indexstr)

.ARM.attributes
                0x00000000       0x2d load address 0x02053540
 .ARM.attributes
                0x00000000       0x21 d:/devkitpro/devkitarm/bin/../lib/gcc/arm-eabi/4.5.1/../../../../arm-eabi/lib/ds_arm9_crt0.o
 .ARM.attributes
                0x00000021       0x20 d:/devkitpro/devkitarm/bin/../lib/gcc/arm-eabi/4.5.1/crti.o
 .ARM.attributes
                0x00000041       0x30 d:/devkitpro/devkitarm/bin/../lib/gcc/arm-eabi/4.5.1/crtbegin.o
 .ARM.attributes
                0x00000071       0x14 ball.png.o
 .ARM.attributes
                0x00000085       0x27 CBall.o
 .ARM.attributes
                0x000000ac       0x27 main.o
 .ARM.attributes
                0x000000d3       0x2d d:/devkitPro/libnds/lib\libul.a(ulib.o)
 .ARM.attributes
                0x00000100       0x2d d:/devkitPro/libnds/lib\libul.a(drawing.o)
 .ARM.attributes
                0x0000012d       0x2d d:/devkitPro/libnds/lib\libul.a(text.o)
 .ARM.attributes
                0x0000015a       0x2d d:/devkitPro/libnds/lib\libul.a(VirtualFile.o)
 .ARM.attributes
                0x00000187       0x2d d:/devkitPro/libnds/lib\libul.a(texVramManager.o)
 .ARM.attributes
                0x000001b4       0x2d d:/devkitPro/libnds/lib\libul.a(texPalManager.o)
 .ARM.attributes
                0x000001e1       0x2d d:/devkitPro/libnds/lib\libul.a(keys.o)
 .ARM.attributes
                0x0000020e       0x2d d:/devkitPro/libnds/lib\libul.a(ulDrawImage.o)
 .ARM.attributes
                0x0000023b       0x2d d:/devkitPro/libnds/lib\libul.a(ulCreateImagePalette.o)
 .ARM.attributes
                0x00000268       0x2d d:/devkitPro/libnds/lib\libul.a(ulDrawGradientRect.o)
 .ARM.attributes
                0x00000295       0x2d d:/devkitPro/libnds/lib\libul.a(ulLoadImageFilePNG.o)
 .ARM.attributes
                0x000002c2       0x2d d:/devkitPro/libnds/lib\libul.a(ulShowSplashScreen1.o)
 .ARM.attributes
                0x000002ef       0x2d d:/devkitPro/libnds/lib\libul.a(ulShowSplashScreen2.o)
 .ARM.attributes
                0x0000031c       0x2d d:/devkitPro/libnds/lib\libul.a(glWrapper.o)
 .ARM.attributes
                0x00000349       0x2d d:/devkitPro/libnds/lib\libul.a(libLoadPng.o)
 .ARM.attributes
                0x00000376       0x2d d:/devkitPro/libnds/lib\libul.a(ulDrawFillRect.o)
 .ARM.attributes
                0x000003a3       0x2d d:/devkitPro/libnds/lib\libul.a(ulSetImagePixel.o)
 .ARM.attributes
                0x000003d0       0x2d d:/devkitPro/libnds/lib\libul.a(ulGetImagePixel.o)
 .ARM.attributes
                0x000003fd       0x2d d:/devkitPro/libnds/lib\libul.a(textSize.o)
 .ARM.attributes
                0x0000042a       0x2d d:/devkitPro/libnds/lib\libul.a(loading_utility.o)
 .ARM.attributes
                0x00000457       0x2d d:/devkitPro/libnds/lib\libul.a(ulLoadImageFileJPG.o)
 .ARM.attributes
                0x00000484       0x2d d:/devkitPro/libnds/lib\libul.a(ulLoadImageFileGIF.o)
 .ARM.attributes
                0x000004b1       0x2d d:/devkitPro/libnds/lib\libul.a(libLoadJpg.o)
 .ARM.attributes
                0x000004de       0x2d d:/devkitPro/libnds/lib\libul.a(libLoadGif.o)
 .ARM.attributes
                0x0000050b       0x2d d:/devkitPro/libnds/lib\libul.a(dgif_lib.o)
 .ARM.attributes
                0x00000538       0x2d d:/devkitPro/libnds/lib\libul.a(gif_err.o)
 .ARM.attributes
                0x00000565       0x2d d:/devkitPro/libnds/lib\libul.a(gifalloc.o)
 .ARM.attributes
                0x00000592       0x2d d:/devkitPro/libnds/lib\libul.a(ulReadEntireFileToMemory.o)
 .ARM.attributes
                0x000005bf       0x2d d:/devkitPro/libnds/lib\libul.a(gba-jpeg-decode.o)
 .ARM.attributes
                0x000005ec       0x2e d:/devkitPro/libnds/lib\libpng.a(png.o)
 .ARM.attributes
                0x0000061a       0x2e d:/devkitPro/libnds/lib\libpng.a(pngread.o)
 .ARM.attributes
                0x00000648       0x2e d:/devkitPro/libnds/lib\libpng.a(pngrio.o)
 .ARM.attributes
                0x00000676       0x2e d:/devkitPro/libnds/lib\libpng.a(pngrtran.o)
 .ARM.attributes
                0x000006a4       0x2e d:/devkitPro/libnds/lib\libpng.a(pngmem.o)
 .ARM.attributes
                0x000006d2       0x2e d:/devkitPro/libnds/lib\libpng.a(pngerror.o)
 .ARM.attributes
                0x00000700       0x2e d:/devkitPro/libnds/lib\libpng.a(pngget.o)
 .ARM.attributes
                0x0000072e       0x2e d:/devkitPro/libnds/lib\libpng.a(pngrutil.o)
 .ARM.attributes
                0x0000075c       0x2e d:/devkitPro/libnds/lib\libpng.a(pngtrans.o)
 .ARM.attributes
                0x0000078a       0x2e d:/devkitPro/libnds/lib\libpng.a(pngset.o)
 .ARM.attributes
                0x000007b8       0x2e d:/devkitPro/libnds/lib\libz.a(crc32.o)
 .ARM.attributes
                0x000007e6       0x2e d:/devkitPro/libnds/lib\libz.a(inflate.o)
 .ARM.attributes
                0x00000814       0x2e d:/devkitPro/libnds/lib\libz.a(inftrees.o)
 .ARM.attributes
                0x00000842       0x2e d:/devkitPro/libnds/lib\libz.a(inffast.o)
 .ARM.attributes
                0x00000870       0x2e d:/devkitPro/libnds/lib\libz.a(adler32.o)
 .ARM.attributes
                0x0000089e       0x2e d:/devkitPro/libnds/lib\libz.a(zutil.o)
 .ARM.attributes
                0x000008cc       0x27 d:/devkitPro/libnds/lib\libnds9.a(dynamicArray.o)
 .ARM.attributes
                0x000008f3       0x27 d:/devkitPro/libnds/lib\libnds9.a(keys.o)
 .ARM.attributes
                0x0000091a       0x27 d:/devkitPro/libnds/lib\libnds9.a(system.o)
 .ARM.attributes
                0x00000941       0x27 d:/devkitPro/libnds/lib\libnds9.a(touch.o)
 .ARM.attributes
                0x00000968       0x27 d:/devkitPro/libnds/lib\libnds9.a(trig.o)
 .ARM.attributes
                0x0000098f       0x27 d:/devkitPro/libnds/lib\libnds9.a(videoGL.o)
 .ARM.attributes
                0x000009b6       0x27 d:/devkitPro/libnds/lib\libnds9.a(initSystem.o)
 .ARM.attributes
                0x000009dd       0x27 d:/devkitPro/libnds/lib\libnds9.a(fifosystem.o)
 .ARM.attributes
                0x00000a04       0x27 d:/devkitPro/libnds/lib\libnds9.a(interrupts.o)
 .ARM.attributes
                0x00000a2b       0x27 d:/devkitPro/libnds/lib\libnds9.a(libnds_exit.o)
 .ARM.attributes
                0x00000a52       0x21 d:/devkitPro/libnds/lib\libnds9.a(mpu_setup.o)
 .ARM.attributes
                0x00000a73       0x1b d:/devkitPro/libnds/lib\libnds9.a(biosCalls.o)
 .ARM.attributes
                0x00000a8e       0x1b d:/devkitPro/libnds/lib\libnds9.a(interruptDispatcher.o)
 .ARM.attributes
                0x00000aa9       0x21 d:/devkitPro/libnds/lib\libnds9.a(swiSoftReset.o)
 .ARM.attributes
                0x00000aca       0x27 d:/devkitPro/libnds/lib\libnds9.a(video.o)
 .ARM.attributes
                0x00000af1       0x30 d:/devkitpro/devkitarm/bin/../lib/gcc/arm-eabi/4.5.1/../../../../arm-eabi/lib\libstdc++.a(new_op.o)
 .ARM.attributes
                0x00000b21       0x30 d:/devkitpro/devkitarm/bin/../lib/gcc/arm-eabi/4.5.1/../../../../arm-eabi/lib\libstdc++.a(eh_alloc.o)
 .ARM.attributes
                0x00000b51       0x30 d:/devkitpro/devkitarm/bin/../lib/gcc/arm-eabi/4.5.1/../../../../arm-eabi/lib\libstdc++.a(eh_arm.o)
 .ARM.attributes
                0x00000b81       0x30 d:/devkitpro/devkitarm/bin/../lib/gcc/arm-eabi/4.5.1/../../../../arm-eabi/lib\libstdc++.a(eh_aux_runtime.o)
 .ARM.attributes
                0x00000bb1       0x30 d:/devkitpro/devkitarm/bin/../lib/gcc/arm-eabi/4.5.1/../../../../arm-eabi/lib\libstdc++.a(eh_call.o)
 .ARM.attributes
                0x00000be1       0x30 d:/devkitpro/devkitarm/bin/../lib/gcc/arm-eabi/4.5.1/../../../../arm-eabi/lib\libstdc++.a(eh_catch.o)
 .ARM.attributes
                0x00000c11       0x30 d:/devkitpro/devkitarm/bin/../lib/gcc/arm-eabi/4.5.1/../../../../arm-eabi/lib\libstdc++.a(eh_exception.o)
 .ARM.attributes
                0x00000c41       0x30 d:/devkitpro/devkitarm/bin/../lib/gcc/arm-eabi/4.5.1/../../../../arm-eabi/lib\libstdc++.a(eh_globals.o)
 .ARM.attributes
                0x00000c71       0x30 d:/devkitpro/devkitarm/bin/../lib/gcc/arm-eabi/4.5.1/../../../../arm-eabi/lib\libstdc++.a(eh_personality.o)
 .ARM.attributes
                0x00000ca1       0x30 d:/devkitpro/devkitarm/bin/../lib/gcc/arm-eabi/4.5.1/../../../../arm-eabi/lib\libstdc++.a(eh_terminate.o)
 .ARM.attributes
                0x00000cd1       0x30 d:/devkitpro/devkitarm/bin/../lib/gcc/arm-eabi/4.5.1/../../../../arm-eabi/lib\libstdc++.a(eh_term_handler.o)
 .ARM.attributes
                0x00000d01       0x30 d:/devkitpro/devkitarm/bin/../lib/gcc/arm-eabi/4.5.1/../../../../arm-eabi/lib\libstdc++.a(eh_throw.o)
 .ARM.attributes
                0x00000d31       0x30 d:/devkitpro/devkitarm/bin/../lib/gcc/arm-eabi/4.5.1/../../../../arm-eabi/lib\libstdc++.a(eh_unex_handler.o)
 .ARM.attributes
                0x00000d61       0x30 d:/devkitpro/devkitarm/bin/../lib/gcc/arm-eabi/4.5.1/../../../../arm-eabi/lib\libstdc++.a(fundamental_type_info.o)
 .ARM.attributes
                0x00000d91       0x30 d:/devkitpro/devkitarm/bin/../lib/gcc/arm-eabi/4.5.1/../../../../arm-eabi/lib\libstdc++.a(new_handler.o)
 .ARM.attributes
                0x00000dc1       0x30 d:/devkitpro/devkitarm/bin/../lib/gcc/arm-eabi/4.5.1/../../../../arm-eabi/lib\libstdc++.a(pointer_type_info.o)
 .ARM.attributes
                0x00000df1       0x30 d:/devkitpro/devkitarm/bin/../lib/gcc/arm-eabi/4.5.1/../../../../arm-eabi/lib\libstdc++.a(pure.o)
 .ARM.attributes
                0x00000e21       0x30 d:/devkitpro/devkitarm/bin/../lib/gcc/arm-eabi/4.5.1/../../../../arm-eabi/lib\libstdc++.a(si_class_type_info.o)
 .ARM.attributes
                0x00000e51       0x30 d:/devkitpro/devkitarm/bin/../lib/gcc/arm-eabi/4.5.1/../../../../arm-eabi/lib\libstdc++.a(tinfo.o)
 .ARM.attributes
                0x00000e81       0x30 d:/devkitpro/devkitarm/bin/../lib/gcc/arm-eabi/4.5.1/../../../../arm-eabi/lib\libstdc++.a(vterminate.o)
 .ARM.attributes
                0x00000eb1       0x30 d:/devkitpro/devkitarm/bin/../lib/gcc/arm-eabi/4.5.1/../../../../arm-eabi/lib\libstdc++.a(bad_cast.o)
 .ARM.attributes
                0x00000ee1       0x30 d:/devkitpro/devkitarm/bin/../lib/gcc/arm-eabi/4.5.1/../../../../arm-eabi/lib\libstdc++.a(bad_typeid.o)
 .ARM.attributes
                0x00000f11       0x30 d:/devkitpro/devkitarm/bin/../lib/gcc/arm-eabi/4.5.1/../../../../arm-eabi/lib\libstdc++.a(class_type_info.o)
 .ARM.attributes
                0x00000f41       0x30 d:/devkitpro/devkitarm/bin/../lib/gcc/arm-eabi/4.5.1/../../../../arm-eabi/lib\libstdc++.a(cp-demangle.o)
 .ARM.attributes
                0x00000f71       0x30 d:/devkitpro/devkitarm/bin/../lib/gcc/arm-eabi/4.5.1/../../../../arm-eabi/lib\libstdc++.a(del_op.o)
 .ARM.attributes
                0x00000fa1       0x30 d:/devkitpro/devkitarm/bin/../lib/gcc/arm-eabi/4.5.1/../../../../arm-eabi/lib\libstdc++.a(eh_type.o)
 .ARM.attributes
                0x00000fd1       0x30 d:/devkitpro/devkitarm/bin/../lib/gcc/arm-eabi/4.5.1/../../../../arm-eabi/lib\libstdc++.a(pbase_type_info.o)
 .ARM.attributes
                0x00001001       0x30 d:/devkitpro/devkitarm/bin/../lib/gcc/arm-eabi/4.5.1/../../../../arm-eabi/lib\libm.a(lib_a-s_cos.o)
 .ARM.attributes
                0x00001031       0x30 d:/devkitpro/devkitarm/bin/../lib/gcc/arm-eabi/4.5.1/../../../../arm-eabi/lib\libm.a(lib_a-s_sin.o)
 .ARM.attributes
                0x00001061       0x30 d:/devkitpro/devkitarm/bin/../lib/gcc/arm-eabi/4.5.1/../../../../arm-eabi/lib\libm.a(lib_a-w_pow.o)
 .ARM.attributes
                0x00001091       0x30 d:/devkitpro/devkitarm/bin/../lib/gcc/arm-eabi/4.5.1/../../../../arm-eabi/lib\libm.a(lib_a-e_pow.o)
 .ARM.attributes
                0x000010c1       0x30 d:/devkitpro/devkitarm/bin/../lib/gcc/arm-eabi/4.5.1/../../../../arm-eabi/lib\libm.a(lib_a-e_rem_pio2.o)
 .ARM.attributes
                0x000010f1       0x30 d:/devkitpro/devkitarm/bin/../lib/gcc/arm-eabi/4.5.1/../../../../arm-eabi/lib\libm.a(lib_a-e_sqrt.o)
 .ARM.attributes
                0x00001121       0x30 d:/devkitpro/devkitarm/bin/../lib/gcc/arm-eabi/4.5.1/../../../../arm-eabi/lib\libm.a(lib_a-k_cos.o)
 .ARM.attributes
                0x00001151       0x30 d:/devkitpro/devkitarm/bin/../lib/gcc/arm-eabi/4.5.1/../../../../arm-eabi/lib\libm.a(lib_a-k_rem_pio2.o)
 .ARM.attributes
                0x00001181       0x30 d:/devkitpro/devkitarm/bin/../lib/gcc/arm-eabi/4.5.1/../../../../arm-eabi/lib\libm.a(lib_a-k_sin.o)
 .ARM.attributes
                0x000011b1       0x30 d:/devkitpro/devkitarm/bin/../lib/gcc/arm-eabi/4.5.1/../../../../arm-eabi/lib\libm.a(lib_a-s_fabs.o)
 .ARM.attributes
                0x000011e1       0x30 d:/devkitpro/devkitarm/bin/../lib/gcc/arm-eabi/4.5.1/../../../../arm-eabi/lib\libm.a(lib_a-s_finite.o)
 .ARM.attributes
                0x00001211       0x30 d:/devkitpro/devkitarm/bin/../lib/gcc/arm-eabi/4.5.1/../../../../arm-eabi/lib\libm.a(lib_a-s_floor.o)
 .ARM.attributes
                0x00001241       0x30 d:/devkitpro/devkitarm/bin/../lib/gcc/arm-eabi/4.5.1/../../../../arm-eabi/lib\libm.a(lib_a-s_fpclassify.o)
 .ARM.attributes
                0x00001271       0x30 d:/devkitpro/devkitarm/bin/../lib/gcc/arm-eabi/4.5.1/../../../../arm-eabi/lib\libm.a(lib_a-s_lib_ver.o)
 .ARM.attributes
                0x000012a1       0x30 d:/devkitpro/devkitarm/bin/../lib/gcc/arm-eabi/4.5.1/../../../../arm-eabi/lib\libm.a(lib_a-s_matherr.o)
 .ARM.attributes
                0x000012d1       0x30 d:/devkitpro/devkitarm/bin/../lib/gcc/arm-eabi/4.5.1/../../../../arm-eabi/lib\libm.a(lib_a-s_nan.o)
 .ARM.attributes
                0x00001301       0x30 d:/devkitpro/devkitarm/bin/../lib/gcc/arm-eabi/4.5.1/../../../../arm-eabi/lib\libm.a(lib_a-s_rint.o)
 .ARM.attributes
                0x00001331       0x30 d:/devkitpro/devkitarm/bin/../lib/gcc/arm-eabi/4.5.1/../../../../arm-eabi/lib\libm.a(lib_a-s_scalbn.o)
 .ARM.attributes
                0x00001361       0x30 d:/devkitpro/devkitarm/bin/../lib/gcc/arm-eabi/4.5.1/../../../../arm-eabi/lib\libm.a(lib_a-s_copysign.o)
 .ARM.attributes
                0x00001391       0x22 d:/devkitpro/devkitarm/bin/../lib/gcc/arm-eabi/4.5.1\libgcc.a(_udivsi3.o)
 .ARM.attributes
                0x000013b3       0x22 d:/devkitpro/devkitarm/bin/../lib/gcc/arm-eabi/4.5.1\libgcc.a(_divsi3.o)
 .ARM.attributes
                0x000013d5       0x22 d:/devkitpro/devkitarm/bin/../lib/gcc/arm-eabi/4.5.1\libgcc.a(_dvmd_tls.o)
 .ARM.attributes
                0x000013f7       0x22 d:/devkitpro/devkitarm/bin/../lib/gcc/arm-eabi/4.5.1\libgcc.a(_arm_addsubdf3.o)
 .ARM.attributes
                0x00001419       0x22 d:/devkitpro/devkitarm/bin/../lib/gcc/arm-eabi/4.5.1\libgcc.a(_arm_muldivdf3.o)
 .ARM.attributes
                0x0000143b       0x22 d:/devkitpro/devkitarm/bin/../lib/gcc/arm-eabi/4.5.1\libgcc.a(_arm_cmpdf2.o)
 .ARM.attributes
                0x0000145d       0x22 d:/devkitpro/devkitarm/bin/../lib/gcc/arm-eabi/4.5.1\libgcc.a(_arm_fixdfsi.o)
 .ARM.attributes
                0x0000147f       0x22 d:/devkitpro/devkitarm/bin/../lib/gcc/arm-eabi/4.5.1\libgcc.a(_arm_fixunsdfsi.o)
 .ARM.attributes
                0x000014a1       0x22 d:/devkitpro/devkitarm/bin/../lib/gcc/arm-eabi/4.5.1\libgcc.a(_arm_truncdfsf2.o)
 .ARM.attributes
                0x000014c3       0x22 d:/devkitpro/devkitarm/bin/../lib/gcc/arm-eabi/4.5.1\libgcc.a(_arm_addsubsf3.o)
 .ARM.attributes
                0x000014e5       0x22 d:/devkitpro/devkitarm/bin/../lib/gcc/arm-eabi/4.5.1\libgcc.a(_arm_muldivsf3.o)
 .ARM.attributes
                0x00001507       0x22 d:/devkitpro/devkitarm/bin/../lib/gcc/arm-eabi/4.5.1\libgcc.a(_arm_cmpsf2.o)
 .ARM.attributes
                0x00001529       0x22 d:/devkitpro/devkitarm/bin/../lib/gcc/arm-eabi/4.5.1\libgcc.a(_arm_fixsfsi.o)
 .ARM.attributes
                0x0000154b       0x22 d:/devkitpro/devkitarm/bin/../lib/gcc/arm-eabi/4.5.1\libgcc.a(_arm_fixunssfsi.o)
 .ARM.attributes
                0x0000156d       0x30 d:/devkitpro/devkitarm/bin/../lib/gcc/arm-eabi/4.5.1\libgcc.a(_muldi3.o)
 .ARM.attributes
                0x0000159d       0x30 d:/devkitpro/devkitarm/bin/../lib/gcc/arm-eabi/4.5.1\libgcc.a(unwind-arm.o)
 .ARM.attributes
                0x000015cd       0x1c d:/devkitpro/devkitarm/bin/../lib/gcc/arm-eabi/4.5.1\libgcc.a(libunwind.o)
 .ARM.attributes
                0x000015e9       0x30 d:/devkitpro/devkitarm/bin/../lib/gcc/arm-eabi/4.5.1\libgcc.a(pr-support.o)
 .ARM.attributes
                0x00001619       0x30 d:/devkitpro/devkitarm/bin/../lib/gcc/arm-eabi/4.5.1/../../../../arm-eabi/lib\libg.a(lib_a-abort.o)
 .ARM.attributes
                0x00001649       0x30 d:/devkitpro/devkitarm/bin/../lib/gcc/arm-eabi/4.5.1/../../../../arm-eabi/lib\libg.a(lib_a-bsearch.o)
 .ARM.attributes
                0x00001679       0x30 d:/devkitpro/devkitarm/bin/../lib/gcc/arm-eabi/4.5.1/../../../../arm-eabi/lib\libg.a(lib_a-calloc.o)
 .ARM.attributes
                0x000016a9       0x30 d:/devkitpro/devkitarm/bin/../lib/gcc/arm-eabi/4.5.1/../../../../arm-eabi/lib\libg.a(lib_a-callocr.o)
 .ARM.attributes
                0x000016d9       0x30 d:/devkitpro/devkitarm/bin/../lib/gcc/arm-eabi/4.5.1/../../../../arm-eabi/lib\libg.a(lib_a-errno.o)
 .ARM.attributes
                0x00001709       0x30 d:/devkitpro/devkitarm/bin/../lib/gcc/arm-eabi/4.5.1/../../../../arm-eabi/lib\libg.a(lib_a-fclose.o)
 .ARM.attributes
                0x00001739       0x30 d:/devkitpro/devkitarm/bin/../lib/gcc/arm-eabi/4.5.1/../../../../arm-eabi/lib\libg.a(lib_a-fflush.o)
 .ARM.attributes
                0x00001769       0x30 d:/devkitpro/devkitarm/bin/../lib/gcc/arm-eabi/4.5.1/../../../../arm-eabi/lib\libg.a(lib_a-findfp.o)
 .ARM.attributes
                0x00001799       0x30 d:/devkitpro/devkitarm/bin/../lib/gcc/arm-eabi/4.5.1/../../../../arm-eabi/lib\libg.a(lib_a-fprintf.o)
 .ARM.attributes
                0x000017c9       0x30 d:/devkitpro/devkitarm/bin/../lib/gcc/arm-eabi/4.5.1/../../../../arm-eabi/lib\libg.a(lib_a-fputc.o)
 .ARM.attributes
                0x000017f9       0x30 d:/devkitpro/devkitarm/bin/../lib/gcc/arm-eabi/4.5.1/../../../../arm-eabi/lib\libg.a(lib_a-fputs.o)
 .ARM.attributes
                0x00001829       0x30 d:/devkitpro/devkitarm/bin/../lib/gcc/arm-eabi/4.5.1/../../../../arm-eabi/lib\libg.a(lib_a-fread.o)
 .ARM.attributes
                0x00001859       0x30 d:/devkitpro/devkitarm/bin/../lib/gcc/arm-eabi/4.5.1/../../../../arm-eabi/lib\libg.a(lib_a-freer.o)
 .ARM.attributes
                0x00001889       0x30 d:/devkitpro/devkitarm/bin/../lib/gcc/arm-eabi/4.5.1/../../../../arm-eabi/lib\libg.a(lib_a-fvwrite.o)
 .ARM.attributes
                0x000018b9       0x30 d:/devkitpro/devkitarm/bin/../lib/gcc/arm-eabi/4.5.1/../../../../arm-eabi/lib\libg.a(lib_a-fwalk.o)
 .ARM.attributes
                0x000018e9       0x30 d:/devkitpro/devkitarm/bin/../lib/gcc/arm-eabi/4.5.1/../../../../arm-eabi/lib\libg.a(lib_a-fwrite.o)
 .ARM.attributes
                0x00001919       0x30 d:/devkitpro/devkitarm/bin/../lib/gcc/arm-eabi/4.5.1/../../../../arm-eabi/lib\libg.a(lib_a-impure.o)
 .ARM.attributes
                0x00001949       0x30 d:/devkitpro/devkitarm/bin/../lib/gcc/arm-eabi/4.5.1/../../../../arm-eabi/lib\libg.a(lib_a-init.o)
 .ARM.attributes
                0x00001979       0x30 d:/devkitpro/devkitarm/bin/../lib/gcc/arm-eabi/4.5.1/../../../../arm-eabi/lib\libg.a(lib_a-malloc.o)
 .ARM.attributes
                0x000019a9       0x30 d:/devkitpro/devkitarm/bin/../lib/gcc/arm-eabi/4.5.1/../../../../arm-eabi/lib\libg.a(lib_a-mallocr.o)
 .ARM.attributes
                0x000019d9       0x30 d:/devkitpro/devkitarm/bin/../lib/gcc/arm-eabi/4.5.1/../../../../arm-eabi/lib\libg.a(lib_a-memchr.o)
 .ARM.attributes
                0x00001a09       0x30 d:/devkitpro/devkitarm/bin/../lib/gcc/arm-eabi/4.5.1/../../../../arm-eabi/lib\libg.a(lib_a-memcmp.o)
 .ARM.attributes
                0x00001a39       0x30 d:/devkitpro/devkitarm/bin/../lib/gcc/arm-eabi/4.5.1/../../../../arm-eabi/lib\libg.a(lib_a-memcpy.o)
 .ARM.attributes
                0x00001a69       0x30 d:/devkitpro/devkitarm/bin/../lib/gcc/arm-eabi/4.5.1/../../../../arm-eabi/lib\libg.a(lib_a-memmove.o)
 .ARM.attributes
                0x00001a99       0x30 d:/devkitpro/devkitarm/bin/../lib/gcc/arm-eabi/4.5.1/../../../../arm-eabi/lib\libg.a(lib_a-memset.o)
 .ARM.attributes
                0x00001ac9       0x30 d:/devkitpro/devkitarm/bin/../lib/gcc/arm-eabi/4.5.1/../../../../arm-eabi/lib\libg.a(lib_a-mlock.o)
 .ARM.attributes
                0x00001af9       0x30 d:/devkitpro/devkitarm/bin/../lib/gcc/arm-eabi/4.5.1/../../../../arm-eabi/lib\libg.a(lib_a-putc.o)
 .ARM.attributes
                0x00001b29       0x30 d:/devkitpro/devkitarm/bin/../lib/gcc/arm-eabi/4.5.1/../../../../arm-eabi/lib\libg.a(lib_a-rand.o)
 .ARM.attributes
                0x00001b59       0x30 d:/devkitpro/devkitarm/bin/../lib/gcc/arm-eabi/4.5.1/../../../../arm-eabi/lib\libg.a(lib_a-realloc.o)
 .ARM.attributes
                0x00001b89       0x30 d:/devkitpro/devkitarm/bin/../lib/gcc/arm-eabi/4.5.1/../../../../arm-eabi/lib\libg.a(lib_a-reallocr.o)
 .ARM.attributes
                0x00001bb9       0x30 d:/devkitpro/devkitarm/bin/../lib/gcc/arm-eabi/4.5.1/../../../../arm-eabi/lib\libg.a(lib_a-refill.o)
 .ARM.attributes
                0x00001be9       0x20 d:/devkitpro/devkitarm/bin/../lib/gcc/arm-eabi/4.5.1/../../../../arm-eabi/lib\libg.a(lib_a-setjmp.o)
 .ARM.attributes
                0x00001c09       0x30 d:/devkitpro/devkitarm/bin/../lib/gcc/arm-eabi/4.5.1/../../../../arm-eabi/lib\libg.a(lib_a-signal.o)
 .ARM.attributes
                0x00001c39       0x30 d:/devkitpro/devkitarm/bin/../lib/gcc/arm-eabi/4.5.1/../../../../arm-eabi/lib\libg.a(lib_a-snprintf.o)
 .ARM.attributes
                0x00001c69       0x30 d:/devkitpro/devkitarm/bin/../lib/gcc/arm-eabi/4.5.1/../../../../arm-eabi/lib\libg.a(lib_a-sprintf.o)
 .ARM.attributes
                0x00001c99       0x30 d:/devkitpro/devkitarm/bin/../lib/gcc/arm-eabi/4.5.1/../../../../arm-eabi/lib\libg.a(lib_a-stdio.o)
 .ARM.attributes
                0x00001cc9       0x30 d:/devkitpro/devkitarm/bin/../lib/gcc/arm-eabi/4.5.1/../../../../arm-eabi/lib\libg.a(lib_a-strcmp.o)
 .ARM.attributes
                0x00001cf9       0x30 d:/devkitpro/devkitarm/bin/../lib/gcc/arm-eabi/4.5.1/../../../../arm-eabi/lib\libg.a(lib_a-strcpy.o)
 .ARM.attributes
                0x00001d29       0x30 d:/devkitpro/devkitarm/bin/../lib/gcc/arm-eabi/4.5.1/../../../../arm-eabi/lib\libg.a(lib_a-strlen.o)
 .ARM.attributes
                0x00001d59       0x30 d:/devkitpro/devkitarm/bin/../lib/gcc/arm-eabi/4.5.1/../../../../arm-eabi/lib\libg.a(lib_a-strncmp.o)
 .ARM.attributes
                0x00001d89       0x30 d:/devkitpro/devkitarm/bin/../lib/gcc/arm-eabi/4.5.1/../../../../arm-eabi/lib\libg.a(lib_a-strtod.o)
 .ARM.attributes
                0x00001db9       0x30 d:/devkitpro/devkitarm/bin/../lib/gcc/arm-eabi/4.5.1/../../../../arm-eabi/lib\libg.a(lib_a-svfprintf.o)
 .ARM.attributes
                0x00001de9       0x30 d:/devkitpro/devkitarm/bin/../lib/gcc/arm-eabi/4.5.1/../../../../arm-eabi/lib\libg.a(lib_a-syswrite.o)
 .ARM.attributes
                0x00001e19       0x30 d:/devkitpro/devkitarm/bin/../lib/gcc/arm-eabi/4.5.1/../../../../arm-eabi/lib\libg.a(lib_a-vfprintf.o)
 .ARM.attributes
                0x00001e49       0x30 d:/devkitpro/devkitarm/bin/../lib/gcc/arm-eabi/4.5.1/../../../../arm-eabi/lib\libg.a(lib_a-wbuf.o)
 .ARM.attributes
                0x00001e79       0x30 d:/devkitpro/devkitarm/bin/../lib/gcc/arm-eabi/4.5.1/../../../../arm-eabi/lib\libg.a(lib_a-wcrtomb.o)
 .ARM.attributes
                0x00001ea9       0x30 d:/devkitpro/devkitarm/bin/../lib/gcc/arm-eabi/4.5.1/../../../../arm-eabi/lib\libg.a(lib_a-wcsrtombs.o)
 .ARM.attributes
                0x00001ed9       0x30 d:/devkitpro/devkitarm/bin/../lib/gcc/arm-eabi/4.5.1/../../../../arm-eabi/lib\libg.a(lib_a-wctomb_r.o)
 .ARM.attributes
                0x00001f09       0x30 d:/devkitpro/devkitarm/bin/../lib/gcc/arm-eabi/4.5.1/../../../../arm-eabi/lib\libg.a(lib_a-wsetup.o)
 .ARM.attributes
                0x00001f39       0x30 d:/devkitpro/devkitarm/bin/../lib/gcc/arm-eabi/4.5.1/../../../../arm-eabi/lib\libg.a(lib_a-dtoa.o)
 .ARM.attributes
                0x00001f69       0x30 d:/devkitpro/devkitarm/bin/../lib/gcc/arm-eabi/4.5.1/../../../../arm-eabi/lib\libg.a(lib_a-gdtoa-gethex.o)
 .ARM.attributes
                0x00001f99       0x30 d:/devkitpro/devkitarm/bin/../lib/gcc/arm-eabi/4.5.1/../../../../arm-eabi/lib\libg.a(lib_a-gdtoa-hexnan.o)
 .ARM.attributes
                0x00001fc9       0x30 d:/devkitpro/devkitarm/bin/../lib/gcc/arm-eabi/4.5.1/../../../../arm-eabi/lib\libg.a(lib_a-locale.o)
 .ARM.attributes
                0x00001ff9       0x30 d:/devkitpro/devkitarm/bin/../lib/gcc/arm-eabi/4.5.1/../../../../arm-eabi/lib\libg.a(lib_a-makebuf.o)
 .ARM.attributes
                0x00002029       0x30 d:/devkitpro/devkitarm/bin/../lib/gcc/arm-eabi/4.5.1/../../../../arm-eabi/lib\libg.a(lib_a-mbtowc_r.o)
 .ARM.attributes
                0x00002059       0x30 d:/devkitpro/devkitarm/bin/../lib/gcc/arm-eabi/4.5.1/../../../../arm-eabi/lib\libg.a(lib_a-mprec.o)
 .ARM.attributes
                0x00002089       0x30 d:/devkitpro/devkitarm/bin/../lib/gcc/arm-eabi/4.5.1/../../../../arm-eabi/lib\libg.a(lib_a-sf_nan.o)
 .ARM.attributes
                0x000020b9       0x30 d:/devkitpro/devkitarm/bin/../lib/gcc/arm-eabi/4.5.1/../../../../arm-eabi/lib\libg.a(lib_a-strcasecmp.o)
 .ARM.attributes
                0x000020e9       0x30 d:/devkitpro/devkitarm/bin/../lib/gcc/arm-eabi/4.5.1/../../../../arm-eabi/lib\libg.a(lib_a-strcat.o)
 .ARM.attributes
                0x00002119       0x30 d:/devkitpro/devkitarm/bin/../lib/gcc/arm-eabi/4.5.1/../../../../arm-eabi/lib\libg.a(lib_a-strchr.o)
 .ARM.attributes
                0x00002149       0x30 d:/devkitpro/devkitarm/bin/../lib/gcc/arm-eabi/4.5.1/../../../../arm-eabi/lib\libg.a(lib_a-strlcpy.o)
 .ARM.attributes
                0x00002179       0x30 d:/devkitpro/devkitarm/bin/../lib/gcc/arm-eabi/4.5.1/../../../../arm-eabi/lib\libg.a(lib_a-strncasecmp.o)
 .ARM.attributes
                0x000021a9       0x30 d:/devkitpro/devkitarm/bin/../lib/gcc/arm-eabi/4.5.1/../../../../arm-eabi/lib\libg.a(lib_a-strncpy.o)
 .ARM.attributes
                0x000021d9       0x30 d:/devkitpro/devkitarm/bin/../lib/gcc/arm-eabi/4.5.1/../../../../arm-eabi/lib\libg.a(lib_a-strtol.o)
 .ARM.attributes
                0x00002209       0x30 d:/devkitpro/devkitarm/bin/../lib/gcc/arm-eabi/4.5.1/../../../../arm-eabi/lib\libg.a(lib_a-svfiprintf.o)
 .ARM.attributes
                0x00002239       0x30 d:/devkitpro/devkitarm/bin/../lib/gcc/arm-eabi/4.5.1/../../../../arm-eabi/lib\libg.a(lib_a-vfiprintf.o)
 .ARM.attributes
                0x00002269       0x30 d:/devkitpro/devkitarm/bin/../lib/gcc/arm-eabi/4.5.1/../../../../arm-eabi/lib\libg.a(lib_a-wcsnrtombs.o)
 .ARM.attributes
                0x00002299       0x30 d:/devkitpro/devkitarm/bin/../lib/gcc/arm-eabi/4.5.1/../../../../arm-eabi/lib\libg.a(lib_a-ctype_.o)
 .ARM.attributes
                0x000022c9       0x30 d:/devkitpro/devkitarm/bin/../lib/gcc/arm-eabi/4.5.1/../../../../arm-eabi/lib\libg.a(lib_a-fputwc.o)
 .ARM.attributes
                0x000022f9       0x30 d:/devkitpro/devkitarm/bin/../lib/gcc/arm-eabi/4.5.1/../../../../arm-eabi/lib\libg.a(lib_a-getenv_r.o)
 .ARM.attributes
                0x00002329       0x30 d:/devkitpro/devkitarm/bin/../lib/gcc/arm-eabi/4.5.1/../../../../arm-eabi/lib\libg.a(lib_a-environ.o)
 .ARM.attributes
                0x00002359       0x30 d:/devkitpro/devkitarm/bin/../lib/gcc/arm-eabi/4.5.1/../../../../arm-eabi/lib\libg.a(lib_a-envlock.o)
 .ARM.attributes
                0x00002389       0x30 d:/devkitpro/devkitarm/bin/../lib/gcc/arm-eabi/4.5.1/../../../../arm-eabi/lib\libsysbase.a(close.o)
 .ARM.attributes
                0x000023b9       0x30 d:/devkitpro/devkitarm/bin/../lib/gcc/arm-eabi/4.5.1/../../../../arm-eabi/lib\libsysbase.a(fstat.o)
 .ARM.attributes
                0x000023e9       0x30 d:/devkitpro/devkitarm/bin/../lib/gcc/arm-eabi/4.5.1/../../../../arm-eabi/lib\libsysbase.a(getpid.o)
 .ARM.attributes
                0x00002419       0x30 d:/devkitpro/devkitarm/bin/../lib/gcc/arm-eabi/4.5.1/../../../../arm-eabi/lib\libsysbase.a(isatty.o)
 .ARM.attributes
                0x00002449       0x30 d:/devkitpro/devkitarm/bin/../lib/gcc/arm-eabi/4.5.1/../../../../arm-eabi/lib\libsysbase.a(kill.o)
 .ARM.attributes
                0x00002479       0x30 d:/devkitpro/devkitarm/bin/../lib/gcc/arm-eabi/4.5.1/../../../../arm-eabi/lib\libsysbase.a(lseek.o)
 .ARM.attributes
                0x000024a9       0x30 d:/devkitpro/devkitarm/bin/../lib/gcc/arm-eabi/4.5.1/../../../../arm-eabi/lib\libsysbase.a(read.o)
 .ARM.attributes
                0x000024d9       0x30 d:/devkitpro/devkitarm/bin/../lib/gcc/arm-eabi/4.5.1/../../../../arm-eabi/lib\libsysbase.a(sbrk.o)
 .ARM.attributes
                0x00002509       0x30 d:/devkitpro/devkitarm/bin/../lib/gcc/arm-eabi/4.5.1/../../../../arm-eabi/lib\libsysbase.a(times.o)
 .ARM.attributes
                0x00002539       0x30 d:/devkitpro/devkitarm/bin/../lib/gcc/arm-eabi/4.5.1/../../../../arm-eabi/lib\libsysbase.a(write.o)
 .ARM.attributes
                0x00002569       0x30 d:/devkitpro/devkitarm/bin/../lib/gcc/arm-eabi/4.5.1/../../../../arm-eabi/lib\libsysbase.a(_exit.o)
 .ARM.attributes
                0x00002599       0x30 d:/devkitpro/devkitarm/bin/../lib/gcc/arm-eabi/4.5.1/../../../../arm-eabi/lib\libsysbase.a(malloc_vars.o)
 .ARM.attributes
                0x000025c9       0x30 d:/devkitpro/devkitarm/bin/../lib/gcc/arm-eabi/4.5.1/../../../../arm-eabi/lib\libsysbase.a(build_argv.o)
 .ARM.attributes
                0x000025f9       0x30 d:/devkitpro/devkitarm/bin/../lib/gcc/arm-eabi/4.5.1/../../../../arm-eabi/lib\libsysbase.a(syscall_support.o)
 .ARM.attributes
                0x00002629       0x30 d:/devkitpro/devkitarm/bin/../lib/gcc/arm-eabi/4.5.1/../../../../arm-eabi/lib\libsysbase.a(handle_manager.o)
 .ARM.attributes
                0x00002659       0x30 d:/devkitpro/devkitarm/bin/../lib/gcc/arm-eabi/4.5.1/../../../../arm-eabi/lib\libsysbase.a(iosupport.o)
 .ARM.attributes
                0x00002689       0x22 d:/devkitpro/devkitarm/bin/../lib/gcc/arm-eabi/4.5.1\libgcc.a(_aeabi_uldivmod.o)
 .ARM.attributes
                0x000026ab       0x30 d:/devkitpro/devkitarm/bin/../lib/gcc/arm-eabi/4.5.1\libgcc.a(bpabi.o)
 .ARM.attributes
                0x000026db       0x30 d:/devkitpro/devkitarm/bin/../lib/gcc/arm-eabi/4.5.1\libgcc.a(_divdi3.o)
 .ARM.attributes
                0x0000270b       0x30 d:/devkitpro/devkitarm/bin/../lib/gcc/arm-eabi/4.5.1\libgcc.a(_udivdi3.o)
 .ARM.attributes
                0x0000273b       0x22 d:/devkitpro/devkitarm/bin/../lib/gcc/arm-eabi/4.5.1\libgcc.a(_clzsi2.o)
 .ARM.attributes
                0x0000275d       0x30 d:/devkitpro/devkitarm/bin/../lib/gcc/arm-eabi/4.5.1/crtend.o
 .ARM.attributes
                0x0000278d       0x20 d:/devkitpro/devkitarm/bin/../lib/gcc/arm-eabi/4.5.1/crtn.o

.comment        0x00000000      0x252 load address 0x02053540
 *(.comment)
 .comment       0x00000000       0x22 d:/devkitpro/devkitarm/bin/../lib/gcc/arm-eabi/4.5.1/crtbegin.o
                                 0x23 (size before relaxing)
 .comment       0x00000000       0x23 CBall.o
 .comment       0x00000000       0x23 main.o
 .comment       0x00000000       0x23 d:/devkitPro/libnds/lib\libul.a(ulib.o)
 .comment       0x00000000       0x23 d:/devkitPro/libnds/lib\libul.a(drawing.o)
 .comment       0x00000000       0x23 d:/devkitPro/libnds/lib\libul.a(text.o)
 .comment       0x00000000       0x23 d:/devkitPro/libnds/lib\libul.a(VirtualFile.o)
 .comment       0x00000000       0x23 d:/devkitPro/libnds/lib\libul.a(texVramManager.o)
 .comment       0x00000000       0x23 d:/devkitPro/libnds/lib\libul.a(texPalManager.o)
 .comment       0x00000000       0x23 d:/devkitPro/libnds/lib\libul.a(keys.o)
 .comment       0x00000000       0x23 d:/devkitPro/libnds/lib\libul.a(ulDrawImage.o)
 .comment       0x00000000       0x23 d:/devkitPro/libnds/lib\libul.a(ulCreateImagePalette.o)
 .comment       0x00000000       0x23 d:/devkitPro/libnds/lib\libul.a(ulDrawGradientRect.o)
 .comment       0x00000000       0x23 d:/devkitPro/libnds/lib\libul.a(ulLoadImageFilePNG.o)
 .comment       0x00000000       0x23 d:/devkitPro/libnds/lib\libul.a(ulShowSplashScreen1.o)
 .comment       0x00000000       0x23 d:/devkitPro/libnds/lib\libul.a(ulShowSplashScreen2.o)
 .comment       0x00000000       0x23 d:/devkitPro/libnds/lib\libul.a(glWrapper.o)
 .comment       0x00000000       0x23 d:/devkitPro/libnds/lib\libul.a(libLoadPng.o)
 .comment       0x00000000       0x23 d:/devkitPro/libnds/lib\libul.a(ulDrawFillRect.o)
 .comment       0x00000000       0x23 d:/devkitPro/libnds/lib\libul.a(ulSetImagePixel.o)
 .comment       0x00000000       0x23 d:/devkitPro/libnds/lib\libul.a(ulGetImagePixel.o)
 .comment       0x00000000       0x23 d:/devkitPro/libnds/lib\libul.a(textSize.o)
 .comment       0x00000000       0x23 d:/devkitPro/libnds/lib\libul.a(loading_utility.o)
 .comment       0x00000000       0x23 d:/devkitPro/libnds/lib\libul.a(ulLoadImageFileJPG.o)
 .comment       0x00000000       0x23 d:/devkitPro/libnds/lib\libul.a(ulLoadImageFileGIF.o)
 .comment       0x00000000       0x23 d:/devkitPro/libnds/lib\libul.a(libLoadJpg.o)
 .comment       0x00000000       0x23 d:/devkitPro/libnds/lib\libul.a(libLoadGif.o)
 .comment       0x00000000       0x23 d:/devkitPro/libnds/lib\libul.a(dgif_lib.o)
 .comment       0x00000000       0x23 d:/devkitPro/libnds/lib\libul.a(gif_err.o)
 .comment       0x00000000       0x23 d:/devkitPro/libnds/lib\libul.a(gifalloc.o)
 .comment       0x00000000       0x23 d:/devkitPro/libnds/lib\libul.a(ulReadEntireFileToMemory.o)
 .comment       0x00000000       0x23 d:/devkitPro/libnds/lib\libul.a(gba-jpeg-decode.o)
 .comment       0x00000022       0x23 d:/devkitPro/libnds/lib\libpng.a(png.o)
 .comment       0x00000045       0x23 d:/devkitPro/libnds/lib\libpng.a(pngread.o)
 .comment       0x00000068       0x23 d:/devkitPro/libnds/lib\libpng.a(pngrio.o)
 .comment       0x0000008b       0x23 d:/devkitPro/libnds/lib\libpng.a(pngrtran.o)
 .comment       0x000000ae       0x23 d:/devkitPro/libnds/lib\libpng.a(pngmem.o)
 .comment       0x000000d1       0x23 d:/devkitPro/libnds/lib\libpng.a(pngerror.o)
 .comment       0x000000f4       0x23 d:/devkitPro/libnds/lib\libpng.a(pngget.o)
 .comment       0x00000117       0x23 d:/devkitPro/libnds/lib\libpng.a(pngrutil.o)
 .comment       0x0000013a       0x23 d:/devkitPro/libnds/lib\libpng.a(pngtrans.o)
 .comment       0x0000015d       0x23 d:/devkitPro/libnds/lib\libpng.a(pngset.o)
 .comment       0x00000180       0x23 d:/devkitPro/libnds/lib\libz.a(crc32.o)
 .comment       0x000001a3       0x23 d:/devkitPro/libnds/lib\libz.a(inflate.o)
 .comment       0x000001c6       0x23 d:/devkitPro/libnds/lib\libz.a(inftrees.o)
 .comment       0x000001e9       0x23 d:/devkitPro/libnds/lib\libz.a(inffast.o)
 .comment       0x0000020c       0x23 d:/devkitPro/libnds/lib\libz.a(adler32.o)
 .comment       0x0000022f       0x23 d:/devkitPro/libnds/lib\libz.a(zutil.o)
 .comment       0x00000000       0x23 d:/devkitPro/libnds/lib\libnds9.a(dynamicArray.o)
 .comment       0x00000000       0x23 d:/devkitPro/libnds/lib\libnds9.a(keys.o)
 .comment       0x00000000       0x23 d:/devkitPro/libnds/lib\libnds9.a(system.o)
 .comment       0x00000000       0x23 d:/devkitPro/libnds/lib\libnds9.a(touch.o)
 .comment       0x00000000       0x23 d:/devkitPro/libnds/lib\libnds9.a(trig.o)
 .comment       0x00000000       0x23 d:/devkitPro/libnds/lib\libnds9.a(videoGL.o)
 .comment       0x00000000       0x23 d:/devkitPro/libnds/lib\libnds9.a(initSystem.o)
 .comment       0x00000000       0x23 d:/devkitPro/libnds/lib\libnds9.a(fifosystem.o)
 .comment       0x00000000       0x23 d:/devkitPro/libnds/lib\libnds9.a(interrupts.o)
 .comment       0x00000000       0x23 d:/devkitPro/libnds/lib\libnds9.a(libnds_exit.o)
 .comment       0x00000000       0x23 d:/devkitPro/libnds/lib\libnds9.a(video.o)
 .comment       0x00000000       0x23 d:/devkitpro/devkitarm/bin/../lib/gcc/arm-eabi/4.5.1/../../../../arm-eabi/lib\libstdc++.a(new_op.o)
 .comment       0x00000000       0x23 d:/devkitpro/devkitarm/bin/../lib/gcc/arm-eabi/4.5.1/../../../../arm-eabi/lib\libstdc++.a(eh_alloc.o)
 .comment       0x00000000       0x23 d:/devkitpro/devkitarm/bin/../lib/gcc/arm-eabi/4.5.1/../../../../arm-eabi/lib\libstdc++.a(eh_arm.o)
 .comment       0x00000000       0x23 d:/devkitpro/devkitarm/bin/../lib/gcc/arm-eabi/4.5.1/../../../../arm-eabi/lib\libstdc++.a(eh_aux_runtime.o)
 .comment       0x00000000       0x23 d:/devkitpro/devkitarm/bin/../lib/gcc/arm-eabi/4.5.1/../../../../arm-eabi/lib\libstdc++.a(eh_call.o)
 .comment       0x00000000       0x23 d:/devkitpro/devkitarm/bin/../lib/gcc/arm-eabi/4.5.1/../../../../arm-eabi/lib\libstdc++.a(eh_catch.o)
 .comment       0x00000000       0x23 d:/devkitpro/devkitarm/bin/../lib/gcc/arm-eabi/4.5.1/../../../../arm-eabi/lib\libstdc++.a(eh_exception.o)
 .comment       0x00000000       0x23 d:/devkitpro/devkitarm/bin/../lib/gcc/arm-eabi/4.5.1/../../../../arm-eabi/lib\libstdc++.a(eh_globals.o)
 .comment       0x00000000       0x23 d:/devkitpro/devkitarm/bin/../lib/gcc/arm-eabi/4.5.1/../../../../arm-eabi/lib\libstdc++.a(eh_personality.o)
 .comment       0x00000000       0x23 d:/devkitpro/devkitarm/bin/../lib/gcc/arm-eabi/4.5.1/../../../../arm-eabi/lib\libstdc++.a(eh_terminate.o)
 .comment       0x00000000       0x23 d:/devkitpro/devkitarm/bin/../lib/gcc/arm-eabi/4.5.1/../../../../arm-eabi/lib\libstdc++.a(eh_term_handler.o)
 .comment       0x00000000       0x23 d:/devkitpro/devkitarm/bin/../lib/gcc/arm-eabi/4.5.1/../../../../arm-eabi/lib\libstdc++.a(eh_throw.o)
 .comment       0x00000000       0x23 d:/devkitpro/devkitarm/bin/../lib/gcc/arm-eabi/4.5.1/../../../../arm-eabi/lib\libstdc++.a(eh_unex_handler.o)
 .comment       0x00000000       0x23 d:/devkitpro/devkitarm/bin/../lib/gcc/arm-eabi/4.5.1/../../../../arm-eabi/lib\libstdc++.a(fundamental_type_info.o)
 .comment       0x00000000       0x23 d:/devkitpro/devkitarm/bin/../lib/gcc/arm-eabi/4.5.1/../../../../arm-eabi/lib\libstdc++.a(new_handler.o)
 .comment       0x00000000       0x23 d:/devkitpro/devkitarm/bin/../lib/gcc/arm-eabi/4.5.1/../../../../arm-eabi/lib\libstdc++.a(pointer_type_info.o)
 .comment       0x00000000       0x23 d:/devkitpro/devkitarm/bin/../lib/gcc/arm-eabi/4.5.1/../../../../arm-eabi/lib\libstdc++.a(pure.o)
 .comment       0x00000000       0x23 d:/devkitpro/devkitarm/bin/../lib/gcc/arm-eabi/4.5.1/../../../../arm-eabi/lib\libstdc++.a(si_class_type_info.o)
 .comment       0x00000000       0x23 d:/devkitpro/devkitarm/bin/../lib/gcc/arm-eabi/4.5.1/../../../../arm-eabi/lib\libstdc++.a(tinfo.o)
 .comment       0x00000000       0x23 d:/devkitpro/devkitarm/bin/../lib/gcc/arm-eabi/4.5.1/../../../../arm-eabi/lib\libstdc++.a(vterminate.o)
 .comment       0x00000000       0x23 d:/devkitpro/devkitarm/bin/../lib/gcc/arm-eabi/4.5.1/../../../../arm-eabi/lib\libstdc++.a(bad_cast.o)
 .comment       0x00000000       0x23 d:/devkitpro/devkitarm/bin/../lib/gcc/arm-eabi/4.5.1/../../../../arm-eabi/lib\libstdc++.a(bad_typeid.o)
 .comment       0x00000000       0x23 d:/devkitpro/devkitarm/bin/../lib/gcc/arm-eabi/4.5.1/../../../../arm-eabi/lib\libstdc++.a(class_type_info.o)
 .comment       0x00000000       0x23 d:/devkitpro/devkitarm/bin/../lib/gcc/arm-eabi/4.5.1/../../../../arm-eabi/lib\libstdc++.a(cp-demangle.o)
 .comment       0x00000000       0x23 d:/devkitpro/devkitarm/bin/../lib/gcc/arm-eabi/4.5.1/../../../../arm-eabi/lib\libstdc++.a(del_op.o)
 .comment       0x00000000       0x23 d:/devkitpro/devkitarm/bin/../lib/gcc/arm-eabi/4.5.1/../../../../arm-eabi/lib\libstdc++.a(eh_type.o)
 .comment       0x00000000       0x23 d:/devkitpro/devkitarm/bin/../lib/gcc/arm-eabi/4.5.1/../../../../arm-eabi/lib\libstdc++.a(pbase_type_info.o)
 .comment       0x00000000       0x23 d:/devkitpro/devkitarm/bin/../lib/gcc/arm-eabi/4.5.1/../../../../arm-eabi/lib\libm.a(lib_a-s_cos.o)
 .comment       0x00000000       0x23 d:/devkitpro/devkitarm/bin/../lib/gcc/arm-eabi/4.5.1/../../../../arm-eabi/lib\libm.a(lib_a-s_sin.o)
 .comment       0x00000000       0x23 d:/devkitpro/devkitarm/bin/../lib/gcc/arm-eabi/4.5.1/../../../../arm-eabi/lib\libm.a(lib_a-w_pow.o)
 .comment       0x00000000       0x23 d:/devkitpro/devkitarm/bin/../lib/gcc/arm-eabi/4.5.1/../../../../arm-eabi/lib\libm.a(lib_a-e_pow.o)
 .comment       0x00000000       0x23 d:/devkitpro/devkitarm/bin/../lib/gcc/arm-eabi/4.5.1/../../../../arm-eabi/lib\libm.a(lib_a-e_rem_pio2.o)
 .comment       0x00000000       0x23 d:/devkitpro/devkitarm/bin/../lib/gcc/arm-eabi/4.5.1/../../../../arm-eabi/lib\libm.a(lib_a-e_sqrt.o)
 .comment       0x00000000       0x23 d:/devkitpro/devkitarm/bin/../lib/gcc/arm-eabi/4.5.1/../../../../arm-eabi/lib\libm.a(lib_a-k_cos.o)
 .comment       0x00000000       0x23 d:/devkitpro/devkitarm/bin/../lib/gcc/arm-eabi/4.5.1/../../../../arm-eabi/lib\libm.a(lib_a-k_rem_pio2.o)
 .comment       0x00000000       0x23 d:/devkitpro/devkitarm/bin/../lib/gcc/arm-eabi/4.5.1/../../../../arm-eabi/lib\libm.a(lib_a-k_sin.o)
 .comment       0x00000000       0x23 d:/devkitpro/devkitarm/bin/../lib/gcc/arm-eabi/4.5.1/../../../../arm-eabi/lib\libm.a(lib_a-s_fabs.o)
 .comment       0x00000000       0x23 d:/devkitpro/devkitarm/bin/../lib/gcc/arm-eabi/4.5.1/../../../../arm-eabi/lib\libm.a(lib_a-s_finite.o)
 .comment       0x00000000       0x23 d:/devkitpro/devkitarm/bin/../lib/gcc/arm-eabi/4.5.1/../../../../arm-eabi/lib\libm.a(lib_a-s_floor.o)
 .comment       0x00000000       0x23 d:/devkitpro/devkitarm/bin/../lib/gcc/arm-eabi/4.5.1/../../../../arm-eabi/lib\libm.a(lib_a-s_fpclassify.o)
 .comment       0x00000000       0x23 d:/devkitpro/devkitarm/bin/../lib/gcc/arm-eabi/4.5.1/../../../../arm-eabi/lib\libm.a(lib_a-s_lib_ver.o)
 .comment       0x00000000       0x23 d:/devkitpro/devkitarm/bin/../lib/gcc/arm-eabi/4.5.1/../../../../arm-eabi/lib\libm.a(lib_a-s_matherr.o)
 .comment       0x00000000       0x23 d:/devkitpro/devkitarm/bin/../lib/gcc/arm-eabi/4.5.1/../../../../arm-eabi/lib\libm.a(lib_a-s_nan.o)
 .comment       0x00000000       0x23 d:/devkitpro/devkitarm/bin/../lib/gcc/arm-eabi/4.5.1/../../../../arm-eabi/lib\libm.a(lib_a-s_rint.o)
 .comment       0x00000000       0x23 d:/devkitpro/devkitarm/bin/../lib/gcc/arm-eabi/4.5.1/../../../../arm-eabi/lib\libm.a(lib_a-s_scalbn.o)
 .comment       0x00000000       0x23 d:/devkitpro/devkitarm/bin/../lib/gcc/arm-eabi/4.5.1/../../../../arm-eabi/lib\libm.a(lib_a-s_copysign.o)
 .comment       0x00000000       0x23 d:/devkitpro/devkitarm/bin/../lib/gcc/arm-eabi/4.5.1\libgcc.a(_muldi3.o)
 .comment       0x00000000       0x23 d:/devkitpro/devkitarm/bin/../lib/gcc/arm-eabi/4.5.1\libgcc.a(unwind-arm.o)
 .comment       0x00000000       0x23 d:/devkitpro/devkitarm/bin/../lib/gcc/arm-eabi/4.5.1\libgcc.a(pr-support.o)
 .comment       0x00000000       0x23 d:/devkitpro/devkitarm/bin/../lib/gcc/arm-eabi/4.5.1/../../../../arm-eabi/lib\libg.a(lib_a-abort.o)
 .comment       0x00000000       0x23 d:/devkitpro/devkitarm/bin/../lib/gcc/arm-eabi/4.5.1/../../../../arm-eabi/lib\libg.a(lib_a-bsearch.o)
 .comment       0x00000000       0x23 d:/devkitpro/devkitarm/bin/../lib/gcc/arm-eabi/4.5.1/../../../../arm-eabi/lib\libg.a(lib_a-calloc.o)
 .comment       0x00000000       0x23 d:/devkitpro/devkitarm/bin/../lib/gcc/arm-eabi/4.5.1/../../../../arm-eabi/lib\libg.a(lib_a-callocr.o)
 .comment       0x00000000       0x23 d:/devkitpro/devkitarm/bin/../lib/gcc/arm-eabi/4.5.1/../../../../arm-eabi/lib\libg.a(lib_a-errno.o)
 .comment       0x00000000       0x23 d:/devkitpro/devkitarm/bin/../lib/gcc/arm-eabi/4.5.1/../../../../arm-eabi/lib\libg.a(lib_a-fclose.o)
 .comment       0x00000000       0x23 d:/devkitpro/devkitarm/bin/../lib/gcc/arm-eabi/4.5.1/../../../../arm-eabi/lib\libg.a(lib_a-fflush.o)
 .comment       0x00000000       0x23 d:/devkitpro/devkitarm/bin/../lib/gcc/arm-eabi/4.5.1/../../../../arm-eabi/lib\libg.a(lib_a-findfp.o)
 .comment       0x00000000       0x23 d:/devkitpro/devkitarm/bin/../lib/gcc/arm-eabi/4.5.1/../../../../arm-eabi/lib\libg.a(lib_a-fprintf.o)
 .comment       0x00000000       0x23 d:/devkitpro/devkitarm/bin/../lib/gcc/arm-eabi/4.5.1/../../../../arm-eabi/lib\libg.a(lib_a-fputc.o)
 .comment       0x00000000       0x23 d:/devkitpro/devkitarm/bin/../lib/gcc/arm-eabi/4.5.1/../../../../arm-eabi/lib\libg.a(lib_a-fputs.o)
 .comment       0x00000000       0x23 d:/devkitpro/devkitarm/bin/../lib/gcc/arm-eabi/4.5.1/../../../../arm-eabi/lib\libg.a(lib_a-fread.o)
 .comment       0x00000000       0x23 d:/devkitpro/devkitarm/bin/../lib/gcc/arm-eabi/4.5.1/../../../../arm-eabi/lib\libg.a(lib_a-freer.o)
 .comment       0x00000000       0x23 d:/devkitpro/devkitarm/bin/../lib/gcc/arm-eabi/4.5.1/../../../../arm-eabi/lib\libg.a(lib_a-fvwrite.o)
 .comment       0x00000000       0x23 d:/devkitpro/devkitarm/bin/../lib/gcc/arm-eabi/4.5.1/../../../../arm-eabi/lib\libg.a(lib_a-fwalk.o)
 .comment       0x00000000       0x23 d:/devkitpro/devkitarm/bin/../lib/gcc/arm-eabi/4.5.1/../../../../arm-eabi/lib\libg.a(lib_a-fwrite.o)
 .comment       0x00000000       0x23 d:/devkitpro/devkitarm/bin/../lib/gcc/arm-eabi/4.5.1/../../../../arm-eabi/lib\libg.a(lib_a-impure.o)
 .comment       0x00000000       0x23 d:/devkitpro/devkitarm/bin/../lib/gcc/arm-eabi/4.5.1/../../../../arm-eabi/lib\libg.a(lib_a-init.o)
 .comment       0x00000000       0x23 d:/devkitpro/devkitarm/bin/../lib/gcc/arm-eabi/4.5.1/../../../../arm-eabi/lib\libg.a(lib_a-malloc.o)
 .comment       0x00000000       0x23 d:/devkitpro/devkitarm/bin/../lib/gcc/arm-eabi/4.5.1/../../../../arm-eabi/lib\libg.a(lib_a-mallocr.o)
 .comment       0x00000000       0x23 d:/devkitpro/devkitarm/bin/../lib/gcc/arm-eabi/4.5.1/../../../../arm-eabi/lib\libg.a(lib_a-memchr.o)
 .comment       0x00000000       0x23 d:/devkitpro/devkitarm/bin/../lib/gcc/arm-eabi/4.5.1/../../../../arm-eabi/lib\libg.a(lib_a-memcmp.o)
 .comment       0x00000000       0x23 d:/devkitpro/devkitarm/bin/../lib/gcc/arm-eabi/4.5.1/../../../../arm-eabi/lib\libg.a(lib_a-memcpy.o)
 .comment       0x00000000       0x23 d:/devkitpro/devkitarm/bin/../lib/gcc/arm-eabi/4.5.1/../../../../arm-eabi/lib\libg.a(lib_a-memmove.o)
 .comment       0x00000000       0x23 d:/devkitpro/devkitarm/bin/../lib/gcc/arm-eabi/4.5.1/../../../../arm-eabi/lib\libg.a(lib_a-memset.o)
 .comment       0x00000000       0x23 d:/devkitpro/devkitarm/bin/../lib/gcc/arm-eabi/4.5.1/../../../../arm-eabi/lib\libg.a(lib_a-mlock.o)
 .comment       0x00000000       0x23 d:/devkitpro/devkitarm/bin/../lib/gcc/arm-eabi/4.5.1/../../../../arm-eabi/lib\libg.a(lib_a-putc.o)
 .comment       0x00000000       0x23 d:/devkitpro/devkitarm/bin/../lib/gcc/arm-eabi/4.5.1/../../../../arm-eabi/lib\libg.a(lib_a-rand.o)
 .comment       0x00000000       0x23 d:/devkitpro/devkitarm/bin/../lib/gcc/arm-eabi/4.5.1/../../../../arm-eabi/lib\libg.a(lib_a-realloc.o)
 .comment       0x00000000       0x23 d:/devkitpro/devkitarm/bin/../lib/gcc/arm-eabi/4.5.1/../../../../arm-eabi/lib\libg.a(lib_a-reallocr.o)
 .comment       0x00000000       0x23 d:/devkitpro/devkitarm/bin/../lib/gcc/arm-eabi/4.5.1/../../../../arm-eabi/lib\libg.a(lib_a-refill.o)
 .comment       0x00000000       0x23 d:/devkitpro/devkitarm/bin/../lib/gcc/arm-eabi/4.5.1/../../../../arm-eabi/lib\libg.a(lib_a-signal.o)
 .comment       0x00000000       0x23 d:/devkitpro/devkitarm/bin/../lib/gcc/arm-eabi/4.5.1/../../../../arm-eabi/lib\libg.a(lib_a-snprintf.o)
 .comment       0x00000000       0x23 d:/devkitpro/devkitarm/bin/../lib/gcc/arm-eabi/4.5.1/../../../../arm-eabi/lib\libg.a(lib_a-sprintf.o)
 .comment       0x00000000       0x23 d:/devkitpro/devkitarm/bin/../lib/gcc/arm-eabi/4.5.1/../../../../arm-eabi/lib\libg.a(lib_a-stdio.o)
 .comment       0x00000000       0x23 d:/devkitpro/devkitarm/bin/../lib/gcc/arm-eabi/4.5.1/../../../../arm-eabi/lib\libg.a(lib_a-strcmp.o)
 .comment       0x00000000       0x23 d:/devkitpro/devkitarm/bin/../lib/gcc/arm-eabi/4.5.1/../../../../arm-eabi/lib\libg.a(lib_a-strcpy.o)
 .comment       0x00000000       0x23 d:/devkitpro/devkitarm/bin/../lib/gcc/arm-eabi/4.5.1/../../../../arm-eabi/lib\libg.a(lib_a-strlen.o)
 .comment       0x00000000       0x23 d:/devkitpro/devkitarm/bin/../lib/gcc/arm-eabi/4.5.1/../../../../arm-eabi/lib\libg.a(lib_a-strncmp.o)
 .comment       0x00000000       0x23 d:/devkitpro/devkitarm/bin/../lib/gcc/arm-eabi/4.5.1/../../../../arm-eabi/lib\libg.a(lib_a-strtod.o)
 .comment       0x00000000       0x23 d:/devkitpro/devkitarm/bin/../lib/gcc/arm-eabi/4.5.1/../../../../arm-eabi/lib\libg.a(lib_a-svfprintf.o)
 .comment       0x00000000       0x23 d:/devkitpro/devkitarm/bin/../lib/gcc/arm-eabi/4.5.1/../../../../arm-eabi/lib\libg.a(lib_a-syswrite.o)
 .comment       0x00000000       0x23 d:/devkitpro/devkitarm/bin/../lib/gcc/arm-eabi/4.5.1/../../../../arm-eabi/lib\libg.a(lib_a-vfprintf.o)
 .comment       0x00000000       0x23 d:/devkitpro/devkitarm/bin/../lib/gcc/arm-eabi/4.5.1/../../../../arm-eabi/lib\libg.a(lib_a-wbuf.o)
 .comment       0x00000000       0x23 d:/devkitpro/devkitarm/bin/../lib/gcc/arm-eabi/4.5.1/../../../../arm-eabi/lib\libg.a(lib_a-wcrtomb.o)
 .comment       0x00000000       0x23 d:/devkitpro/devkitarm/bin/../lib/gcc/arm-eabi/4.5.1/../../../../arm-eabi/lib\libg.a(lib_a-wcsrtombs.o)
 .comment       0x00000000       0x23 d:/devkitpro/devkitarm/bin/../lib/gcc/arm-eabi/4.5.1/../../../../arm-eabi/lib\libg.a(lib_a-wctomb_r.o)
 .comment       0x00000000       0x23 d:/devkitpro/devkitarm/bin/../lib/gcc/arm-eabi/4.5.1/../../../../arm-eabi/lib\libg.a(lib_a-wsetup.o)
 .comment       0x00000000       0x23 d:/devkitpro/devkitarm/bin/../lib/gcc/arm-eabi/4.5.1/../../../../arm-eabi/lib\libg.a(lib_a-dtoa.o)
 .comment       0x00000000       0x23 d:/devkitpro/devkitarm/bin/../lib/gcc/arm-eabi/4.5.1/../../../../arm-eabi/lib\libg.a(lib_a-gdtoa-gethex.o)
 .comment       0x00000000       0x23 d:/devkitpro/devkitarm/bin/../lib/gcc/arm-eabi/4.5.1/../../../../arm-eabi/lib\libg.a(lib_a-gdtoa-hexnan.o)
 .comment       0x00000000       0x23 d:/devkitpro/devkitarm/bin/../lib/gcc/arm-eabi/4.5.1/../../../../arm-eabi/lib\libg.a(lib_a-locale.o)
 .comment       0x00000000       0x23 d:/devkitpro/devkitarm/bin/../lib/gcc/arm-eabi/4.5.1/../../../../arm-eabi/lib\libg.a(lib_a-makebuf.o)
 .comment       0x00000000       0x23 d:/devkitpro/devkitarm/bin/../lib/gcc/arm-eabi/4.5.1/../../../../arm-eabi/lib\libg.a(lib_a-mbtowc_r.o)
 .comment       0x00000000       0x23 d:/devkitpro/devkitarm/bin/../lib/gcc/arm-eabi/4.5.1/../../../../arm-eabi/lib\libg.a(lib_a-mprec.o)
 .comment       0x00000000       0x23 d:/devkitpro/devkitarm/bin/../lib/gcc/arm-eabi/4.5.1/../../../../arm-eabi/lib\libg.a(lib_a-sf_nan.o)
 .comment       0x00000000       0x23 d:/devkitpro/devkitarm/bin/../lib/gcc/arm-eabi/4.5.1/../../../../arm-eabi/lib\libg.a(lib_a-strcasecmp.o)
 .comment       0x00000000       0x23 d:/devkitpro/devkitarm/bin/../lib/gcc/arm-eabi/4.5.1/../../../../arm-eabi/lib\libg.a(lib_a-strcat.o)
 .comment       0x00000000       0x23 d:/devkitpro/devkitarm/bin/../lib/gcc/arm-eabi/4.5.1/../../../../arm-eabi/lib\libg.a(lib_a-strchr.o)
 .comment       0x00000000       0x23 d:/devkitpro/devkitarm/bin/../lib/gcc/arm-eabi/4.5.1/../../../../arm-eabi/lib\libg.a(lib_a-strlcpy.o)
 .comment       0x00000000       0x23 d:/devkitpro/devkitarm/bin/../lib/gcc/arm-eabi/4.5.1/../../../../arm-eabi/lib\libg.a(lib_a-strncasecmp.o)
 .comment       0x00000000       0x23 d:/devkitpro/devkitarm/bin/../lib/gcc/arm-eabi/4.5.1/../../../../arm-eabi/lib\libg.a(lib_a-strncpy.o)
 .comment       0x00000000       0x23 d:/devkitpro/devkitarm/bin/../lib/gcc/arm-eabi/4.5.1/../../../../arm-eabi/lib\libg.a(lib_a-strtol.o)
 .comment       0x00000000       0x23 d:/devkitpro/devkitarm/bin/../lib/gcc/arm-eabi/4.5.1/../../../../arm-eabi/lib\libg.a(lib_a-svfiprintf.o)
 .comment       0x00000000       0x23 d:/devkitpro/devkitarm/bin/../lib/gcc/arm-eabi/4.5.1/../../../../arm-eabi/lib\libg.a(lib_a-vfiprintf.o)
 .comment       0x00000000       0x23 d:/devkitpro/devkitarm/bin/../lib/gcc/arm-eabi/4.5.1/../../../../arm-eabi/lib\libg.a(lib_a-wcsnrtombs.o)
 .comment       0x00000000       0x23 d:/devkitpro/devkitarm/bin/../lib/gcc/arm-eabi/4.5.1/../../../../arm-eabi/lib\libg.a(lib_a-ctype_.o)
 .comment       0x00000000       0x23 d:/devkitpro/devkitarm/bin/../lib/gcc/arm-eabi/4.5.1/../../../../arm-eabi/lib\libg.a(lib_a-fputwc.o)
 .comment       0x00000000       0x23 d:/devkitpro/devkitarm/bin/../lib/gcc/arm-eabi/4.5.1/../../../../arm-eabi/lib\libg.a(lib_a-getenv_r.o)
 .comment       0x00000000       0x23 d:/devkitpro/devkitarm/bin/../lib/gcc/arm-eabi/4.5.1/../../../../arm-eabi/lib\libg.a(lib_a-environ.o)
 .comment       0x00000000       0x23 d:/devkitpro/devkitarm/bin/../lib/gcc/arm-eabi/4.5.1/../../../../arm-eabi/lib\libg.a(lib_a-envlock.o)
 .comment       0x00000000       0x23 d:/devkitpro/devkitarm/bin/../lib/gcc/arm-eabi/4.5.1/../../../../arm-eabi/lib\libsysbase.a(close.o)
 .comment       0x00000000       0x23 d:/devkitpro/devkitarm/bin/../lib/gcc/arm-eabi/4.5.1/../../../../arm-eabi/lib\libsysbase.a(fstat.o)
 .comment       0x00000000       0x23 d:/devkitpro/devkitarm/bin/../lib/gcc/arm-eabi/4.5.1/../../../../arm-eabi/lib\libsysbase.a(getpid.o)
 .comment       0x00000000       0x23 d:/devkitpro/devkitarm/bin/../lib/gcc/arm-eabi/4.5.1/../../../../arm-eabi/lib\libsysbase.a(isatty.o)
 .comment       0x00000000       0x23 d:/devkitpro/devkitarm/bin/../lib/gcc/arm-eabi/4.5.1/../../../../arm-eabi/lib\libsysbase.a(kill.o)
 .comment       0x00000000       0x23 d:/devkitpro/devkitarm/bin/../lib/gcc/arm-eabi/4.5.1/../../../../arm-eabi/lib\libsysbase.a(lseek.o)
 .comment       0x00000000       0x23 d:/devkitpro/devkitarm/bin/../lib/gcc/arm-eabi/4.5.1/../../../../arm-eabi/lib\libsysbase.a(read.o)
 .comment       0x00000000       0x23 d:/devkitpro/devkitarm/bin/../lib/gcc/arm-eabi/4.5.1/../../../../arm-eabi/lib\libsysbase.a(sbrk.o)
 .comment       0x00000000       0x23 d:/devkitpro/devkitarm/bin/../lib/gcc/arm-eabi/4.5.1/../../../../arm-eabi/lib\libsysbase.a(times.o)
 .comment       0x00000000       0x23 d:/devkitpro/devkitarm/bin/../lib/gcc/arm-eabi/4.5.1/../../../../arm-eabi/lib\libsysbase.a(write.o)
 .comment       0x00000000       0x23 d:/devkitpro/devkitarm/bin/../lib/gcc/arm-eabi/4.5.1/../../../../arm-eabi/lib\libsysbase.a(_exit.o)
 .comment       0x00000000       0x23 d:/devkitpro/devkitarm/bin/../lib/gcc/arm-eabi/4.5.1/../../../../arm-eabi/lib\libsysbase.a(malloc_vars.o)
 .comment       0x00000000       0x23 d:/devkitpro/devkitarm/bin/../lib/gcc/arm-eabi/4.5.1/../../../../arm-eabi/lib\libsysbase.a(build_argv.o)
 .comment       0x00000000       0x23 d:/devkitpro/devkitarm/bin/../lib/gcc/arm-eabi/4.5.1/../../../../arm-eabi/lib\libsysbase.a(syscall_support.o)
 .comment       0x00000000       0x23 d:/devkitpro/devkitarm/bin/../lib/gcc/arm-eabi/4.5.1/../../../../arm-eabi/lib\libsysbase.a(handle_manager.o)
 .comment       0x00000000       0x23 d:/devkitpro/devkitarm/bin/../lib/gcc/arm-eabi/4.5.1/../../../../arm-eabi/lib\libsysbase.a(iosupport.o)
 .comment       0x00000000       0x23 d:/devkitpro/devkitarm/bin/../lib/gcc/arm-eabi/4.5.1\libgcc.a(bpabi.o)
 .comment       0x00000000       0x23 d:/devkitpro/devkitarm/bin/../lib/gcc/arm-eabi/4.5.1\libgcc.a(_divdi3.o)
 .comment       0x00000000       0x23 d:/devkitpro/devkitarm/bin/../lib/gcc/arm-eabi/4.5.1\libgcc.a(_udivdi3.o)
 .comment       0x00000000       0x23 d:/devkitpro/devkitarm/bin/../lib/gcc/arm-eabi/4.5.1/crtend.o

.debug
 *(.debug)

.line
 *(.line)

.debug_srcinfo
 *(.debug_srcinfo)

.debug_sfnames
 *(.debug_sfnames)

.debug_aranges  0x00000000      0x5a0 load address 0x02053540
 *(.debug_aranges)
 .debug_aranges
                0x00000000       0x20 CBall.o
 .debug_aranges
                0x00000020       0x20 main.o
 .debug_aranges
                0x00000040       0x20 d:/devkitPro/libnds/lib\libul.a(ulib.o)
 .debug_aranges
                0x00000060       0x20 d:/devkitPro/libnds/lib\libul.a(drawing.o)
 .debug_aranges
                0x00000080       0x20 d:/devkitPro/libnds/lib\libul.a(text.o)
 .debug_aranges
                0x000000a0       0x20 d:/devkitPro/libnds/lib\libul.a(VirtualFile.o)
 .debug_aranges
                0x000000c0       0x20 d:/devkitPro/libnds/lib\libul.a(texVramManager.o)
 .debug_aranges
                0x000000e0       0x20 d:/devkitPro/libnds/lib\libul.a(texPalManager.o)
 .debug_aranges
                0x00000100       0x20 d:/devkitPro/libnds/lib\libul.a(keys.o)
 .debug_aranges
                0x00000120       0x20 d:/devkitPro/libnds/lib\libul.a(ulDrawImage.o)
 .debug_aranges
                0x00000140       0x20 d:/devkitPro/libnds/lib\libul.a(ulCreateImagePalette.o)
 .debug_aranges
                0x00000160       0x20 d:/devkitPro/libnds/lib\libul.a(ulDrawGradientRect.o)
 .debug_aranges
                0x00000180       0x20 d:/devkitPro/libnds/lib\libul.a(ulLoadImageFilePNG.o)
 .debug_aranges
                0x000001a0       0x20 d:/devkitPro/libnds/lib\libul.a(ulShowSplashScreen1.o)
 .debug_aranges
                0x000001c0       0x20 d:/devkitPro/libnds/lib\libul.a(ulShowSplashScreen2.o)
 .debug_aranges
                0x000001e0       0x20 d:/devkitPro/libnds/lib\libul.a(glWrapper.o)
 .debug_aranges
                0x00000200       0x20 d:/devkitPro/libnds/lib\libul.a(libLoadPng.o)
 .debug_aranges
                0x00000220       0x20 d:/devkitPro/libnds/lib\libul.a(ulDrawFillRect.o)
 .debug_aranges
                0x00000240       0x20 d:/devkitPro/libnds/lib\libul.a(ulSetImagePixel.o)
 .debug_aranges
                0x00000260       0x20 d:/devkitPro/libnds/lib\libul.a(ulGetImagePixel.o)
 .debug_aranges
                0x00000280       0x20 d:/devkitPro/libnds/lib\libul.a(textSize.o)
 .debug_aranges
                0x000002a0       0x20 d:/devkitPro/libnds/lib\libul.a(ulLoadImageFileJPG.o)
 .debug_aranges
                0x000002c0       0x20 d:/devkitPro/libnds/lib\libul.a(ulLoadImageFileGIF.o)
 .debug_aranges
                0x000002e0       0x20 d:/devkitPro/libnds/lib\libul.a(libLoadJpg.o)
 .debug_aranges
                0x00000300       0x20 d:/devkitPro/libnds/lib\libul.a(libLoadGif.o)
 .debug_aranges
                0x00000320       0x20 d:/devkitPro/libnds/lib\libul.a(dgif_lib.o)
 .debug_aranges
                0x00000340       0x20 d:/devkitPro/libnds/lib\libul.a(gif_err.o)
 .debug_aranges
                0x00000360       0x20 d:/devkitPro/libnds/lib\libul.a(gifalloc.o)
 .debug_aranges
                0x00000380       0x20 d:/devkitPro/libnds/lib\libul.a(ulReadEntireFileToMemory.o)
 .debug_aranges
                0x000003a0       0x20 d:/devkitPro/libnds/lib\libul.a(gba-jpeg-decode.o)
 .debug_aranges
                0x000003c0       0x20 d:/devkitPro/libnds/lib\libnds9.a(dynamicArray.o)
 .debug_aranges
                0x000003e0       0x20 d:/devkitPro/libnds/lib\libnds9.a(keys.o)
 .debug_aranges
                0x00000400       0x20 d:/devkitPro/libnds/lib\libnds9.a(system.o)
 .debug_aranges
                0x00000420       0x20 d:/devkitPro/libnds/lib\libnds9.a(touch.o)
 .debug_aranges
                0x00000440       0x20 d:/devkitPro/libnds/lib\libnds9.a(trig.o)
 .debug_aranges
                0x00000460       0x20 d:/devkitPro/libnds/lib\libnds9.a(videoGL.o)
 .debug_aranges
                0x00000480       0x20 d:/devkitPro/libnds/lib\libnds9.a(initSystem.o)
 .debug_aranges
                0x000004a0       0x20 d:/devkitPro/libnds/lib\libnds9.a(fifosystem.o)
 .debug_aranges
                0x000004c0       0x20 d:/devkitPro/libnds/lib\libnds9.a(interrupts.o)
 .debug_aranges
                0x000004e0       0x20 d:/devkitPro/libnds/lib\libnds9.a(libnds_exit.o)
 .debug_aranges
                0x00000500       0x20 d:/devkitPro/libnds/lib\libnds9.a(mpu_setup.o)
 .debug_aranges
                0x00000520       0x20 d:/devkitPro/libnds/lib\libnds9.a(biosCalls.o)
 .debug_aranges
                0x00000540       0x20 d:/devkitPro/libnds/lib\libnds9.a(interruptDispatcher.o)
 .debug_aranges
                0x00000560       0x20 d:/devkitPro/libnds/lib\libnds9.a(swiSoftReset.o)
 .debug_aranges
                0x00000580       0x20 d:/devkitPro/libnds/lib\libnds9.a(video.o)

.debug_pubnames
                0x00000000     0x1d01 load address 0x02053540
 *(.debug_pubnames)
 .debug_pubnames
                0x00000000       0x80 CBall.o
 .debug_pubnames
                0x00000080       0x1b main.o
 .debug_pubnames
                0x0000009b       0x84 d:/devkitPro/libnds/lib\libul.a(ulib.o)
 .debug_pubnames
                0x0000011f      0x33e d:/devkitPro/libnds/lib\libul.a(drawing.o)
 .debug_pubnames
                0x0000045d      0x119 d:/devkitPro/libnds/lib\libul.a(text.o)
 .debug_pubnames
                0x00000576      0x1c5 d:/devkitPro/libnds/lib\libul.a(VirtualFile.o)
 .debug_pubnames
                0x0000073b      0x259 d:/devkitPro/libnds/lib\libul.a(texVramManager.o)
 .debug_pubnames
                0x00000994      0x176 d:/devkitPro/libnds/lib\libul.a(texPalManager.o)
 .debug_pubnames
                0x00000b0a       0x2d d:/devkitPro/libnds/lib\libul.a(keys.o)
 .debug_pubnames
                0x00000b37       0x22 d:/devkitPro/libnds/lib\libul.a(ulDrawImage.o)
 .debug_pubnames
                0x00000b59       0x2b d:/devkitPro/libnds/lib\libul.a(ulCreateImagePalette.o)
 .debug_pubnames
                0x00000b84       0x29 d:/devkitPro/libnds/lib\libul.a(ulDrawGradientRect.o)
 .debug_pubnames
                0x00000bad       0x29 d:/devkitPro/libnds/lib\libul.a(ulLoadImageFilePNG.o)
 .debug_pubnames
                0x00000bd6      0x1cb d:/devkitPro/libnds/lib\libul.a(ulShowSplashScreen1.o)
 .debug_pubnames
                0x00000da1       0x97 d:/devkitPro/libnds/lib\libul.a(ulShowSplashScreen2.o)
 .debug_pubnames
                0x00000e38       0x2d d:/devkitPro/libnds/lib\libul.a(glWrapper.o)
 .debug_pubnames
                0x00000e65       0x25 d:/devkitPro/libnds/lib\libul.a(libLoadPng.o)
 .debug_pubnames
                0x00000e8a       0x25 d:/devkitPro/libnds/lib\libul.a(ulDrawFillRect.o)
 .debug_pubnames
                0x00000eaf       0x26 d:/devkitPro/libnds/lib\libul.a(ulSetImagePixel.o)
 .debug_pubnames
                0x00000ed5       0x26 d:/devkitPro/libnds/lib\libul.a(ulGetImagePixel.o)
 .debug_pubnames
                0x00000efb       0x3e d:/devkitPro/libnds/lib\libul.a(textSize.o)
 .debug_pubnames
                0x00000f39       0x2e d:/devkitPro/libnds/lib\libul.a(loading_utility.o)
 .debug_pubnames
                0x00000f67       0x29 d:/devkitPro/libnds/lib\libul.a(ulLoadImageFileJPG.o)
 .debug_pubnames
                0x00000f90       0x29 d:/devkitPro/libnds/lib\libul.a(ulLoadImageFileGIF.o)
 .debug_pubnames
                0x00000fb9       0x25 d:/devkitPro/libnds/lib\libul.a(libLoadJpg.o)
 .debug_pubnames
                0x00000fde       0x9f d:/devkitPro/libnds/lib\libul.a(libLoadGif.o)
 .debug_pubnames
                0x0000107d       0xf8 d:/devkitPro/libnds/lib\libul.a(dgif_lib.o)
 .debug_pubnames
                0x00001175       0x31 d:/devkitPro/libnds/lib\libul.a(gif_err.o)
 .debug_pubnames
                0x000011a6       0xe1 d:/devkitPro/libnds/lib\libul.a(gifalloc.o)
 .debug_pubnames
                0x00001287       0x2f d:/devkitPro/libnds/lib\libul.a(ulReadEntireFileToMemory.o)
 .debug_pubnames
                0x000012b6      0x14b d:/devkitPro/libnds/lib\libul.a(gba-jpeg-decode.o)
 .debug_pubnames
                0x00001401       0x66 d:/devkitPro/libnds/lib\libnds9.a(dynamicArray.o)
 .debug_pubnames
                0x00001467       0x79 d:/devkitPro/libnds/lib\libnds9.a(keys.o)
 .debug_pubnames
                0x000014e0       0x87 d:/devkitPro/libnds/lib\libnds9.a(system.o)
 .debug_pubnames
                0x00001567       0x30 d:/devkitPro/libnds/lib\libnds9.a(touch.o)
 .debug_pubnames
                0x00001597       0xa4 d:/devkitPro/libnds/lib\libnds9.a(trig.o)
 .debug_pubnames
                0x0000163b      0x2c2 d:/devkitPro/libnds/lib\libnds9.a(videoGL.o)
 .debug_pubnames
                0x000018fd       0x2f d:/devkitPro/libnds/lib\libnds9.a(initSystem.o)
 .debug_pubnames
                0x0000192c      0x259 d:/devkitPro/libnds/lib\libnds9.a(fifosystem.o)
 .debug_pubnames
                0x00001b85       0x80 d:/devkitPro/libnds/lib\libnds9.a(interrupts.o)
 .debug_pubnames
                0x00001c05       0x38 d:/devkitPro/libnds/lib\libnds9.a(libnds_exit.o)
 .debug_pubnames
                0x00001c3d       0xc4 d:/devkitPro/libnds/lib\libnds9.a(video.o)

.debug_info     0x00000000    0x1f6ef load address 0x02053540
 *(.debug_info)
 .debug_info    0x00000000      0xa9a CBall.o
 .debug_info    0x00000a9a      0xb9d main.o
 .debug_info    0x00001637      0x908 d:/devkitPro/libnds/lib\libul.a(ulib.o)
 .debug_info    0x00001f3f     0x2312 d:/devkitPro/libnds/lib\libul.a(drawing.o)
 .debug_info    0x00004251     0x1338 d:/devkitPro/libnds/lib\libul.a(text.o)
 .debug_info    0x00005589      0xeef d:/devkitPro/libnds/lib\libul.a(VirtualFile.o)
 .debug_info    0x00006478      0xebb d:/devkitPro/libnds/lib\libul.a(texVramManager.o)
 .debug_info    0x00007333      0xb0e d:/devkitPro/libnds/lib\libul.a(texPalManager.o)
 .debug_info    0x00007e41      0xa76 d:/devkitPro/libnds/lib\libul.a(keys.o)
 .debug_info    0x000088b7      0x9da d:/devkitPro/libnds/lib\libul.a(ulDrawImage.o)
 .debug_info    0x00009291      0x8d1 d:/devkitPro/libnds/lib\libul.a(ulCreateImagePalette.o)
 .debug_info    0x00009b62      0x761 d:/devkitPro/libnds/lib\libul.a(ulDrawGradientRect.o)
 .debug_info    0x0000a2c3      0x8eb d:/devkitPro/libnds/lib\libul.a(ulLoadImageFilePNG.o)
 .debug_info    0x0000abae     0x169e d:/devkitPro/libnds/lib\libul.a(ulShowSplashScreen1.o)
 .debug_info    0x0000c24c      0xe89 d:/devkitPro/libnds/lib\libul.a(ulShowSplashScreen2.o)
 .debug_info    0x0000d0d5      0x795 d:/devkitPro/libnds/lib\libul.a(glWrapper.o)
 .debug_info    0x0000d86a     0x240b d:/devkitPro/libnds/lib\libul.a(libLoadPng.o)
 .debug_info    0x0000fc75      0x737 d:/devkitPro/libnds/lib\libul.a(ulDrawFillRect.o)
 .debug_info    0x000103ac      0x8c7 d:/devkitPro/libnds/lib\libul.a(ulSetImagePixel.o)
 .debug_info    0x00010c73      0x8bc d:/devkitPro/libnds/lib\libul.a(ulGetImagePixel.o)
 .debug_info    0x0001152f      0x9ac d:/devkitPro/libnds/lib\libul.a(textSize.o)
 .debug_info    0x00011edb       0x3f d:/devkitPro/libnds/lib\libul.a(loading_utility.o)
 .debug_info    0x00011f1a      0x8eb d:/devkitPro/libnds/lib\libul.a(ulLoadImageFileJPG.o)
 .debug_info    0x00012805      0x8eb d:/devkitPro/libnds/lib\libul.a(ulLoadImageFileGIF.o)
 .debug_info    0x000130f0      0xc62 d:/devkitPro/libnds/lib\libul.a(libLoadJpg.o)
 .debug_info    0x00013d52     0x12ff d:/devkitPro/libnds/lib\libul.a(libLoadGif.o)
 .debug_info    0x00015051     0x1634 d:/devkitPro/libnds/lib\libul.a(dgif_lib.o)
 .debug_info    0x00016685       0xbe d:/devkitPro/libnds/lib\libul.a(gif_err.o)
 .debug_info    0x00016743      0x65c d:/devkitPro/libnds/lib\libul.a(gifalloc.o)
 .debug_info    0x00016d9f      0x917 d:/devkitPro/libnds/lib\libul.a(ulReadEntireFileToMemory.o)
 .debug_info    0x000176b6     0x1e32 d:/devkitPro/libnds/lib\libul.a(gba-jpeg-decode.o)
 .debug_info    0x000194e8      0x1e7 d:/devkitPro/libnds/lib\libnds9.a(dynamicArray.o)
 .debug_info    0x000196cf      0x3d0 d:/devkitPro/libnds/lib\libnds9.a(keys.o)
 .debug_info    0x00019a9f      0x6f4 d:/devkitPro/libnds/lib\libnds9.a(system.o)
 .debug_info    0x0001a193      0x2c2 d:/devkitPro/libnds/lib\libnds9.a(touch.o)
 .debug_info    0x0001a455      0x4b6 d:/devkitPro/libnds/lib\libnds9.a(trig.o)
 .debug_info    0x0001a90b     0x1dc7 d:/devkitPro/libnds/lib\libnds9.a(videoGL.o)
 .debug_info    0x0001c6d2      0xed0 d:/devkitPro/libnds/lib\libnds9.a(initSystem.o)
 .debug_info    0x0001d5a2     0x10ca d:/devkitPro/libnds/lib\libnds9.a(fifosystem.o)
 .debug_info    0x0001e66c      0x466 d:/devkitPro/libnds/lib\libnds9.a(interrupts.o)
 .debug_info    0x0001ead2      0x2a6 d:/devkitPro/libnds/lib\libnds9.a(libnds_exit.o)
 .debug_info    0x0001ed78       0xca d:/devkitPro/libnds/lib\libnds9.a(mpu_setup.o)
 .debug_info    0x0001ee42       0xc5 d:/devkitPro/libnds/lib\libnds9.a(biosCalls.o)
 .debug_info    0x0001ef07       0xcf d:/devkitPro/libnds/lib\libnds9.a(interruptDispatcher.o)
 .debug_info    0x0001efd6       0xc8 d:/devkitPro/libnds/lib\libnds9.a(swiSoftReset.o)
 .debug_info    0x0001f09e      0x651 d:/devkitPro/libnds/lib\libnds9.a(video.o)

.debug_abbrev   0x00000000     0x5533 load address 0x02053540
 *(.debug_abbrev)
 .debug_abbrev  0x00000000      0x2ac CBall.o
 .debug_abbrev  0x000002ac      0x2a9 main.o
 .debug_abbrev  0x00000555      0x1a9 d:/devkitPro/libnds/lib\libul.a(ulib.o)
 .debug_abbrev  0x000006fe      0x4ca d:/devkitPro/libnds/lib\libul.a(drawing.o)
 .debug_abbrev  0x00000bc8      0x270 d:/devkitPro/libnds/lib\libul.a(text.o)
 .debug_abbrev  0x00000e38      0x29d d:/devkitPro/libnds/lib\libul.a(VirtualFile.o)
 .debug_abbrev  0x000010d5      0x30f d:/devkitPro/libnds/lib\libul.a(texVramManager.o)
 .debug_abbrev  0x000013e4      0x245 d:/devkitPro/libnds/lib\libul.a(texPalManager.o)
 .debug_abbrev  0x00001629      0x1cf d:/devkitPro/libnds/lib\libul.a(keys.o)
 .debug_abbrev  0x000017f8      0x1d7 d:/devkitPro/libnds/lib\libul.a(ulDrawImage.o)
 .debug_abbrev  0x000019cf      0x16c d:/devkitPro/libnds/lib\libul.a(ulCreateImagePalette.o)
 .debug_abbrev  0x00001b3b      0x13f d:/devkitPro/libnds/lib\libul.a(ulDrawGradientRect.o)
 .debug_abbrev  0x00001c7a      0x164 d:/devkitPro/libnds/lib\libul.a(ulLoadImageFilePNG.o)
 .debug_abbrev  0x00001dde      0x3bd d:/devkitPro/libnds/lib\libul.a(ulShowSplashScreen1.o)
 .debug_abbrev  0x0000219b      0x2a9 d:/devkitPro/libnds/lib\libul.a(ulShowSplashScreen2.o)
 .debug_abbrev  0x00002444      0x171 d:/devkitPro/libnds/lib\libul.a(glWrapper.o)
 .debug_abbrev  0x000025b5      0x289 d:/devkitPro/libnds/lib\libul.a(libLoadPng.o)
 .debug_abbrev  0x0000283e      0x13f d:/devkitPro/libnds/lib\libul.a(ulDrawFillRect.o)
 .debug_abbrev  0x0000297d      0x176 d:/devkitPro/libnds/lib\libul.a(ulSetImagePixel.o)
 .debug_abbrev  0x00002af3      0x178 d:/devkitPro/libnds/lib\libul.a(ulGetImagePixel.o)
 .debug_abbrev  0x00002c6b      0x1b5 d:/devkitPro/libnds/lib\libul.a(textSize.o)
 .debug_abbrev  0x00002e20       0x30 d:/devkitPro/libnds/lib\libul.a(loading_utility.o)
 .debug_abbrev  0x00002e50      0x164 d:/devkitPro/libnds/lib\libul.a(ulLoadImageFileJPG.o)
 .debug_abbrev  0x00002fb4      0x164 d:/devkitPro/libnds/lib\libul.a(ulLoadImageFileGIF.o)
 .debug_abbrev  0x00003118      0x1bd d:/devkitPro/libnds/lib\libul.a(libLoadJpg.o)
 .debug_abbrev  0x000032d5      0x294 d:/devkitPro/libnds/lib\libul.a(libLoadGif.o)
 .debug_abbrev  0x00003569      0x2fa d:/devkitPro/libnds/lib\libul.a(dgif_lib.o)
 .debug_abbrev  0x00003863       0x74 d:/devkitPro/libnds/lib\libul.a(gif_err.o)
 .debug_abbrev  0x000038d7      0x206 d:/devkitPro/libnds/lib\libul.a(gifalloc.o)
 .debug_abbrev  0x00003add      0x193 d:/devkitPro/libnds/lib\libul.a(ulReadEntireFileToMemory.o)
 .debug_abbrev  0x00003c70      0x348 d:/devkitPro/libnds/lib\libul.a(gba-jpeg-decode.o)
 .debug_abbrev  0x00003fb8       0xf6 d:/devkitPro/libnds/lib\libnds9.a(dynamicArray.o)
 .debug_abbrev  0x000040ae      0x176 d:/devkitPro/libnds/lib\libnds9.a(keys.o)
 .debug_abbrev  0x00004224      0x19a d:/devkitPro/libnds/lib\libnds9.a(system.o)
 .debug_abbrev  0x000043be      0x123 d:/devkitPro/libnds/lib\libnds9.a(touch.o)
 .debug_abbrev  0x000044e1      0x1c2 d:/devkitPro/libnds/lib\libnds9.a(trig.o)
 .debug_abbrev  0x000046a3      0x390 d:/devkitPro/libnds/lib\libnds9.a(videoGL.o)
 .debug_abbrev  0x00004a33      0x242 d:/devkitPro/libnds/lib\libnds9.a(initSystem.o)
 .debug_abbrev  0x00004c75      0x3af d:/devkitPro/libnds/lib\libnds9.a(fifosystem.o)
 .debug_abbrev  0x00005024      0x1d5 d:/devkitPro/libnds/lib\libnds9.a(interrupts.o)
 .debug_abbrev  0x000051f9      0x131 d:/devkitPro/libnds/lib\libnds9.a(libnds_exit.o)
 .debug_abbrev  0x0000532a       0x14 d:/devkitPro/libnds/lib\libnds9.a(mpu_setup.o)
 .debug_abbrev  0x0000533e       0x14 d:/devkitPro/libnds/lib\libnds9.a(biosCalls.o)
 .debug_abbrev  0x00005352       0x14 d:/devkitPro/libnds/lib\libnds9.a(interruptDispatcher.o)
 .debug_abbrev  0x00005366       0x14 d:/devkitPro/libnds/lib\libnds9.a(swiSoftReset.o)
 .debug_abbrev  0x0000537a      0x1b9 d:/devkitPro/libnds/lib\libnds9.a(video.o)

.debug_line     0x00000000     0x7d92 load address 0x02053540
 *(.debug_line)
 .debug_line    0x00000000      0x27f CBall.o
 .debug_line    0x0000027f      0x240 main.o
 .debug_line    0x000004bf      0x1c8 d:/devkitPro/libnds/lib\libul.a(ulib.o)
 .debug_line    0x00000687      0x81c d:/devkitPro/libnds/lib\libul.a(drawing.o)
 .debug_line    0x00000ea3      0x3dd d:/devkitPro/libnds/lib\libul.a(text.o)
 .debug_line    0x00001280      0x2f3 d:/devkitPro/libnds/lib\libul.a(VirtualFile.o)
 .debug_line    0x00001573      0x385 d:/devkitPro/libnds/lib\libul.a(texVramManager.o)
 .debug_line    0x000018f8      0x29c d:/devkitPro/libnds/lib\libul.a(texPalManager.o)
 .debug_line    0x00001b94      0x1c5 d:/devkitPro/libnds/lib\libul.a(keys.o)
 .debug_line    0x00001d59      0x2c1 d:/devkitPro/libnds/lib\libul.a(ulDrawImage.o)
 .debug_line    0x0000201a      0x1e4 d:/devkitPro/libnds/lib\libul.a(ulCreateImagePalette.o)
 .debug_line    0x000021fe      0x1d9 d:/devkitPro/libnds/lib\libul.a(ulDrawGradientRect.o)
 .debug_line    0x000023d7      0x1b0 d:/devkitPro/libnds/lib\libul.a(ulLoadImageFilePNG.o)
 .debug_line    0x00002587      0x4a5 d:/devkitPro/libnds/lib\libul.a(ulShowSplashScreen1.o)
 .debug_line    0x00002a2c      0x367 d:/devkitPro/libnds/lib\libul.a(ulShowSplashScreen2.o)
 .debug_line    0x00002d93      0x190 d:/devkitPro/libnds/lib\libul.a(glWrapper.o)
 .debug_line    0x00002f23      0x442 d:/devkitPro/libnds/lib\libul.a(libLoadPng.o)
 .debug_line    0x00003365      0x1cf d:/devkitPro/libnds/lib\libul.a(ulDrawFillRect.o)
 .debug_line    0x00003534      0x1b0 d:/devkitPro/libnds/lib\libul.a(ulSetImagePixel.o)
 .debug_line    0x000036e4      0x1ac d:/devkitPro/libnds/lib\libul.a(ulGetImagePixel.o)
 .debug_line    0x00003890      0x1cb d:/devkitPro/libnds/lib\libul.a(textSize.o)
 .debug_line    0x00003a5b       0x3b d:/devkitPro/libnds/lib\libul.a(loading_utility.o)
 .debug_line    0x00003a96      0x1b0 d:/devkitPro/libnds/lib\libul.a(ulLoadImageFileJPG.o)
 .debug_line    0x00003c46      0x1b0 d:/devkitPro/libnds/lib\libul.a(ulLoadImageFileGIF.o)
 .debug_line    0x00003df6      0x1bf d:/devkitPro/libnds/lib\libul.a(libLoadJpg.o)
 .debug_line    0x00003fb5      0x30f d:/devkitPro/libnds/lib\libul.a(libLoadGif.o)
 .debug_line    0x000042c4      0x54d d:/devkitPro/libnds/lib\libul.a(dgif_lib.o)
 .debug_line    0x00004811       0x42 d:/devkitPro/libnds/lib\libul.a(gif_err.o)
 .debug_line    0x00004853      0x1cf d:/devkitPro/libnds/lib\libul.a(gifalloc.o)
 .debug_line    0x00004a22      0x1ff d:/devkitPro/libnds/lib\libul.a(ulReadEntireFileToMemory.o)
 .debug_line    0x00004c21      0xac8 d:/devkitPro/libnds/lib\libul.a(gba-jpeg-decode.o)
 .debug_line    0x000056e9      0x178 d:/devkitPro/libnds/lib\libnds9.a(dynamicArray.o)
 .debug_line    0x00005861      0x254 d:/devkitPro/libnds/lib\libnds9.a(keys.o)
 .debug_line    0x00005ab5      0x26c d:/devkitPro/libnds/lib\libnds9.a(system.o)
 .debug_line    0x00005d21      0x22d d:/devkitPro/libnds/lib\libnds9.a(touch.o)
 .debug_line    0x00005f4e      0x224 d:/devkitPro/libnds/lib\libnds9.a(trig.o)
 .debug_line    0x00006172      0x93f d:/devkitPro/libnds/lib\libnds9.a(videoGL.o)
 .debug_line    0x00006ab1      0x36c d:/devkitPro/libnds/lib\libnds9.a(initSystem.o)
 .debug_line    0x00006e1d      0x6c8 d:/devkitPro/libnds/lib\libnds9.a(fifosystem.o)
 .debug_line    0x000074e5      0x1d0 d:/devkitPro/libnds/lib\libnds9.a(interrupts.o)
 .debug_line    0x000076b5      0x1d8 d:/devkitPro/libnds/lib\libnds9.a(libnds_exit.o)
 .debug_line    0x0000788d       0xe3 d:/devkitPro/libnds/lib\libnds9.a(mpu_setup.o)
 .debug_line    0x00007970       0xc5 d:/devkitPro/libnds/lib\libnds9.a(biosCalls.o)
 .debug_line    0x00007a35       0xc4 d:/devkitPro/libnds/lib\libnds9.a(interruptDispatcher.o)
 .debug_line    0x00007af9       0x93 d:/devkitPro/libnds/lib\libnds9.a(swiSoftReset.o)
 .debug_line    0x00007b8c      0x206 d:/devkitPro/libnds/lib\libnds9.a(video.o)

.debug_frame    0x00000000     0x1eac load address 0x02053540
 *(.debug_frame)
 .debug_frame   0x00000000       0x70 CBall.o
 .debug_frame   0x00000070       0x40 main.o
 .debug_frame   0x000000b0       0x70 d:/devkitPro/libnds/lib\libul.a(ulib.o)
 .debug_frame   0x00000120      0x220 d:/devkitPro/libnds/lib\libul.a(drawing.o)
 .debug_frame   0x00000340      0x160 d:/devkitPro/libnds/lib\libul.a(text.o)
 .debug_frame   0x000004a0      0x1b0 d:/devkitPro/libnds/lib\libul.a(VirtualFile.o)
 .debug_frame   0x00000650      0x1a0 d:/devkitPro/libnds/lib\libul.a(texVramManager.o)
 .debug_frame   0x000007f0      0x10c d:/devkitPro/libnds/lib\libul.a(texPalManager.o)
 .debug_frame   0x000008fc       0x30 d:/devkitPro/libnds/lib\libul.a(keys.o)
 .debug_frame   0x0000092c       0x3c d:/devkitPro/libnds/lib\libul.a(ulDrawImage.o)
 .debug_frame   0x00000968       0x30 d:/devkitPro/libnds/lib\libul.a(ulCreateImagePalette.o)
 .debug_frame   0x00000998       0x38 d:/devkitPro/libnds/lib\libul.a(ulDrawGradientRect.o)
 .debug_frame   0x000009d0       0x2c d:/devkitPro/libnds/lib\libul.a(ulLoadImageFilePNG.o)
 .debug_frame   0x000009fc      0x124 d:/devkitPro/libnds/lib\libul.a(ulShowSplashScreen1.o)
 .debug_frame   0x00000b20       0x68 d:/devkitPro/libnds/lib\libul.a(ulShowSplashScreen2.o)
 .debug_frame   0x00000b88       0x28 d:/devkitPro/libnds/lib\libul.a(glWrapper.o)
 .debug_frame   0x00000bb0       0x68 d:/devkitPro/libnds/lib\libul.a(libLoadPng.o)
 .debug_frame   0x00000c18       0x30 d:/devkitPro/libnds/lib\libul.a(ulDrawFillRect.o)
 .debug_frame   0x00000c48       0x2c d:/devkitPro/libnds/lib\libul.a(ulSetImagePixel.o)
 .debug_frame   0x00000c74       0x28 d:/devkitPro/libnds/lib\libul.a(ulGetImagePixel.o)
 .debug_frame   0x00000c9c       0x44 d:/devkitPro/libnds/lib\libul.a(textSize.o)
 .debug_frame   0x00000ce0       0x2c d:/devkitPro/libnds/lib\libul.a(ulLoadImageFileJPG.o)
 .debug_frame   0x00000d0c       0x2c d:/devkitPro/libnds/lib\libul.a(ulLoadImageFileGIF.o)
 .debug_frame   0x00000d38       0x38 d:/devkitPro/libnds/lib\libul.a(libLoadJpg.o)
 .debug_frame   0x00000d70       0xa4 d:/devkitPro/libnds/lib\libul.a(libLoadGif.o)
 .debug_frame   0x00000e14      0x208 d:/devkitPro/libnds/lib\libul.a(dgif_lib.o)
 .debug_frame   0x0000101c       0x20 d:/devkitPro/libnds/lib\libul.a(gif_err.o)
 .debug_frame   0x0000103c      0x140 d:/devkitPro/libnds/lib\libul.a(gifalloc.o)
 .debug_frame   0x0000117c       0x34 d:/devkitPro/libnds/lib\libul.a(ulReadEntireFileToMemory.o)
 .debug_frame   0x000011b0      0x1cc d:/devkitPro/libnds/lib\libul.a(gba-jpeg-decode.o)
 .debug_frame   0x0000137c       0x78 d:/devkitPro/libnds/lib\libnds9.a(dynamicArray.o)
 .debug_frame   0x000013f4       0x8c d:/devkitPro/libnds/lib\libnds9.a(keys.o)
 .debug_frame   0x00001480       0xbc d:/devkitPro/libnds/lib\libnds9.a(system.o)
 .debug_frame   0x0000153c       0x44 d:/devkitPro/libnds/lib\libnds9.a(touch.o)
 .debug_frame   0x00001580       0xf4 d:/devkitPro/libnds/lib\libnds9.a(trig.o)
 .debug_frame   0x00001674      0x3b4 d:/devkitPro/libnds/lib\libnds9.a(videoGL.o)
 .debug_frame   0x00001a28       0x28 d:/devkitPro/libnds/lib\libnds9.a(initSystem.o)
 .debug_frame   0x00001a50      0x2b4 d:/devkitPro/libnds/lib\libnds9.a(fifosystem.o)
 .debug_frame   0x00001d04       0xb4 d:/devkitPro/libnds/lib\libnds9.a(interrupts.o)
 .debug_frame   0x00001db8       0x38 d:/devkitPro/libnds/lib\libnds9.a(libnds_exit.o)
 .debug_frame   0x00001df0       0xbc d:/devkitPro/libnds/lib\libnds9.a(video.o)

.debug_str      0x00000000     0x5ffd load address 0x02053540
 *(.debug_str)
 .debug_str     0x00000000      0x5eb CBall.o
                                0x682 (size before relaxing)
 .debug_str     0x000005eb      0x187 main.o
                                0x6ad (size before relaxing)
 .debug_str     0x00000772      0x23e d:/devkitPro/libnds/lib\libul.a(ulib.o)
                                0x701 (size before relaxing)
 .debug_str     0x000009b0      0xed8 d:/devkitPro/libnds/lib\libul.a(drawing.o)
                               0x1595 (size before relaxing)
 .debug_str     0x00001888      0x33c d:/devkitPro/libnds/lib\libul.a(text.o)
                                0x949 (size before relaxing)
 .debug_str     0x00001bc4      0x1ca d:/devkitPro/libnds/lib\libul.a(VirtualFile.o)
                                0x720 (size before relaxing)
 .debug_str     0x00001d8e      0x30e d:/devkitPro/libnds/lib\libul.a(texVramManager.o)
                                0x8e1 (size before relaxing)
 .debug_str     0x0000209c      0x151 d:/devkitPro/libnds/lib\libul.a(texPalManager.o)
                                0x784 (size before relaxing)
 .debug_str     0x000021ed       0xde d:/devkitPro/libnds/lib\libul.a(keys.o)
                                0x687 (size before relaxing)
 .debug_str     0x000022cb       0x38 d:/devkitPro/libnds/lib\libul.a(ulDrawImage.o)
                                0x57c (size before relaxing)
 .debug_str     0x00002303       0x32 d:/devkitPro/libnds/lib\libul.a(ulCreateImagePalette.o)
                                0x5ce (size before relaxing)
 .debug_str     0x00002335       0x4a d:/devkitPro/libnds/lib\libul.a(ulDrawGradientRect.o)
                                0x4b0 (size before relaxing)
 .debug_str     0x0000237f       0x75 d:/devkitPro/libnds/lib\libul.a(ulLoadImageFilePNG.o)
                                0x54f (size before relaxing)
 .debug_str     0x000023f4      0x246 d:/devkitPro/libnds/lib\libul.a(ulShowSplashScreen1.o)
                                0xf76 (size before relaxing)
 .debug_str     0x0000263a       0xaa d:/devkitPro/libnds/lib\libul.a(ulShowSplashScreen2.o)
                                0x942 (size before relaxing)
 .debug_str     0x000026e4       0x92 d:/devkitPro/libnds/lib\libul.a(glWrapper.o)
                                0x603 (size before relaxing)
 .debug_str     0x00002776      0xd03 d:/devkitPro/libnds/lib\libul.a(libLoadPng.o)
                               0x14e8 (size before relaxing)
 .debug_str     0x00003479       0x26 d:/devkitPro/libnds/lib\libul.a(ulDrawFillRect.o)
                                0x492 (size before relaxing)
 .debug_str     0x0000349f       0x3a d:/devkitPro/libnds/lib\libul.a(ulSetImagePixel.o)
                                0x569 (size before relaxing)
 .debug_str     0x000034d9       0x28 d:/devkitPro/libnds/lib\libul.a(ulGetImagePixel.o)
                                0x55e (size before relaxing)
 .debug_str     0x00003501       0x41 d:/devkitPro/libnds/lib\libul.a(textSize.o)
                                0x571 (size before relaxing)
 .debug_str     0x00003542       0x1b d:/devkitPro/libnds/lib\libul.a(loading_utility.o)
                                 0x5c (size before relaxing)
 .debug_str     0x0000355d       0x31 d:/devkitPro/libnds/lib\libul.a(ulLoadImageFileJPG.o)
                                0x54f (size before relaxing)
 .debug_str     0x0000358e       0x31 d:/devkitPro/libnds/lib\libul.a(ulLoadImageFileGIF.o)
                                0x54f (size before relaxing)
 .debug_str     0x000035bf      0x359 d:/devkitPro/libnds/lib\libul.a(libLoadJpg.o)
                                0x875 (size before relaxing)
 .debug_str     0x00003918      0x253 d:/devkitPro/libnds/lib\libul.a(libLoadGif.o)
                                0xa46 (size before relaxing)
 .debug_str     0x00003b6b      0x5c7 d:/devkitPro/libnds/lib\libul.a(dgif_lib.o)
                                0x904 (size before relaxing)
 .debug_str     0x00004132       0x1b d:/devkitPro/libnds/lib\libul.a(gif_err.o)
                                 0xd7 (size before relaxing)
 .debug_str     0x0000414d      0x10f d:/devkitPro/libnds/lib\libul.a(gifalloc.o)
                                0x35e (size before relaxing)
 .debug_str     0x0000425c       0x4a d:/devkitPro/libnds/lib\libul.a(ulReadEntireFileToMemory.o)
                                0x4da (size before relaxing)
 .debug_str     0x000042a6      0x3dc d:/devkitPro/libnds/lib\libul.a(gba-jpeg-decode.o)
                                0xc4d (size before relaxing)
 .debug_str     0x00004682       0xaa d:/devkitPro/libnds/lib\libnds9.a(dynamicArray.o)
                                0x18f (size before relaxing)
 .debug_str     0x0000472c      0x16d d:/devkitPro/libnds/lib\libnds9.a(keys.o)
                                0x2dc (size before relaxing)
 .debug_str     0x00004899      0x348 d:/devkitPro/libnds/lib\libnds9.a(system.o)
                                0x510 (size before relaxing)
 .debug_str     0x00004be1       0x72 d:/devkitPro/libnds/lib\libnds9.a(touch.o)
                                0x1f8 (size before relaxing)
 .debug_str     0x00004c53       0xdf d:/devkitPro/libnds/lib\libnds9.a(trig.o)
                                0x1d7 (size before relaxing)
 .debug_str     0x00004d32      0xa19 d:/devkitPro/libnds/lib\libnds9.a(videoGL.o)
                               0x130f (size before relaxing)
 .debug_str     0x0000574b       0xc2 d:/devkitPro/libnds/lib\libnds9.a(initSystem.o)
                                0x95d (size before relaxing)
 .debug_str     0x0000580d      0x524 d:/devkitPro/libnds/lib\libnds9.a(fifosystem.o)
                                0x74c (size before relaxing)
 .debug_str     0x00005d31      0x128 d:/devkitPro/libnds/lib\libnds9.a(interrupts.o)
                                0x34a (size before relaxing)
 .debug_str     0x00005e59       0x88 d:/devkitPro/libnds/lib\libnds9.a(libnds_exit.o)
                                0x298 (size before relaxing)
 .debug_str     0x00005ee1      0x11c d:/devkitPro/libnds/lib\libnds9.a(video.o)
                                0xb12 (size before relaxing)

.debug_loc      0x00000000     0xba12 load address 0x02053540
 *(.debug_loc)
 .debug_loc     0x00000000      0x14c CBall.o
 .debug_loc     0x0000014c       0xa4 main.o
 .debug_loc     0x000001f0       0xa4 d:/devkitPro/libnds/lib\libul.a(ulib.o)
 .debug_loc     0x00000294      0xa4b d:/devkitPro/libnds/lib\libul.a(drawing.o)
 .debug_loc     0x00000cdf      0x7ed d:/devkitPro/libnds/lib\libul.a(text.o)
 .debug_loc     0x000014cc      0x776 d:/devkitPro/libnds/lib\libul.a(VirtualFile.o)
 .debug_loc     0x00001c42      0x81d d:/devkitPro/libnds/lib\libul.a(texVramManager.o)
 .debug_loc     0x0000245f      0x413 d:/devkitPro/libnds/lib\libul.a(texPalManager.o)
 .debug_loc     0x00002872       0x99 d:/devkitPro/libnds/lib\libul.a(keys.o)
 .debug_loc     0x0000290b      0x133 d:/devkitPro/libnds/lib\libul.a(ulDrawImage.o)
 .debug_loc     0x00002a3e       0xdd d:/devkitPro/libnds/lib\libul.a(ulCreateImagePalette.o)
 .debug_loc     0x00002b1b       0x78 d:/devkitPro/libnds/lib\libul.a(ulDrawGradientRect.o)
 .debug_loc     0x00002b93       0xd5 d:/devkitPro/libnds/lib\libul.a(ulLoadImageFilePNG.o)
 .debug_loc     0x00002c68      0x86e d:/devkitPro/libnds/lib\libul.a(ulShowSplashScreen1.o)
 .debug_loc     0x000034d6      0x2d1 d:/devkitPro/libnds/lib\libul.a(ulShowSplashScreen2.o)
 .debug_loc     0x000037a7       0x76 d:/devkitPro/libnds/lib\libul.a(glWrapper.o)
 .debug_loc     0x0000381d      0x9ca d:/devkitPro/libnds/lib\libul.a(libLoadPng.o)
 .debug_loc     0x000041e7       0x6c d:/devkitPro/libnds/lib\libul.a(ulDrawFillRect.o)
 .debug_loc     0x00004253       0xae d:/devkitPro/libnds/lib\libul.a(ulSetImagePixel.o)
 .debug_loc     0x00004301       0xa6 d:/devkitPro/libnds/lib\libul.a(ulGetImagePixel.o)
 .debug_loc     0x000043a7      0x1d4 d:/devkitPro/libnds/lib\libul.a(textSize.o)
 .debug_loc     0x0000457b       0xd5 d:/devkitPro/libnds/lib\libul.a(ulLoadImageFileJPG.o)
 .debug_loc     0x00004650       0xd5 d:/devkitPro/libnds/lib\libul.a(ulLoadImageFileGIF.o)
 .debug_loc     0x00004725      0x17e d:/devkitPro/libnds/lib\libul.a(libLoadJpg.o)
 .debug_loc     0x000048a3      0x72a d:/devkitPro/libnds/lib\libul.a(libLoadGif.o)
 .debug_loc     0x00004fcd      0xd7b d:/devkitPro/libnds/lib\libul.a(dgif_lib.o)
 .debug_loc     0x00005d48      0x4ea d:/devkitPro/libnds/lib\libul.a(gifalloc.o)
 .debug_loc     0x00006232      0x14e d:/devkitPro/libnds/lib\libul.a(ulReadEntireFileToMemory.o)
 .debug_loc     0x00006380     0x1b73 d:/devkitPro/libnds/lib\libul.a(gba-jpeg-decode.o)
 .debug_loc     0x00007ef3      0x196 d:/devkitPro/libnds/lib\libnds9.a(dynamicArray.o)
 .debug_loc     0x00008089       0x20 d:/devkitPro/libnds/lib\libnds9.a(keys.o)
 .debug_loc     0x000080a9      0x1ba d:/devkitPro/libnds/lib\libnds9.a(system.o)
 .debug_loc     0x00008263       0x40 d:/devkitPro/libnds/lib\libnds9.a(touch.o)
 .debug_loc     0x000082a3      0x5b9 d:/devkitPro/libnds/lib\libnds9.a(trig.o)
 .debug_loc     0x0000885c     0x1c39 d:/devkitPro/libnds/lib\libnds9.a(videoGL.o)
 .debug_loc     0x0000a495       0x64 d:/devkitPro/libnds/lib\libnds9.a(initSystem.o)
 .debug_loc     0x0000a4f9     0x1131 d:/devkitPro/libnds/lib\libnds9.a(fifosystem.o)
 .debug_loc     0x0000b62a      0x17b d:/devkitPro/libnds/lib\libnds9.a(interrupts.o)
 .debug_loc     0x0000b7a5       0x5c d:/devkitPro/libnds/lib\libnds9.a(libnds_exit.o)
 .debug_loc     0x0000b801      0x211 d:/devkitPro/libnds/lib\libnds9.a(video.o)

.debug_macinfo
 *(.debug_macinfo)

.debug_weaknames
 *(.debug_weaknames)

.debug_funcnames
 *(.debug_funcnames)

.debug_typenames
 *(.debug_typenames)

.debug_varnames
 *(.debug_varnames)

.stack          0x00080000        0x0 load address 0x02053540
                0x00080000                _stack = .
 *(.stack)
LOAD d:/devkitpro/devkitarm/bin/../lib/gcc/arm-eabi/4.5.1/../../../../arm-eabi/lib/ds_arm9_crt0.o
LOAD d:/devkitpro/devkitarm/bin/../lib/gcc/arm-eabi/4.5.1/crti.o
LOAD d:/devkitpro/devkitarm/bin/../lib/gcc/arm-eabi/4.5.1/crtbegin.o
LOAD ball.png.o
LOAD CBall.o
LOAD main.o
LOAD d:/devkitPro/libnds/lib\libul.a
LOAD d:/devkitPro/libnds/lib\libpng.a
LOAD d:/devkitPro/libnds/lib\libz.a
LOAD d:/devkitPro/libnds/lib\libfat.a
LOAD d:/devkitPro/libnds/lib\libnds9.a
LOAD d:/devkitpro/devkitarm/bin/../lib/gcc/arm-eabi/4.5.1/../../../../arm-eabi/lib\libstdc++.a
LOAD d:/devkitpro/devkitarm/bin/../lib/gcc/arm-eabi/4.5.1/../../../../arm-eabi/lib\libm.a
START GROUP
LOAD d:/devkitpro/devkitarm/bin/../lib/gcc/arm-eabi/4.5.1\libgcc.a
LOAD d:/devkitpro/devkitarm/bin/../lib/gcc/arm-eabi/4.5.1/../../../../arm-eabi/lib\libg.a
LOAD d:/devkitpro/devkitarm/bin/../lib/gcc/arm-eabi/4.5.1/../../../../arm-eabi/lib\libc.a
LOAD d:/devkitpro/devkitarm/bin/../lib/gcc/arm-eabi/4.5.1/../../../../arm-eabi/lib\libsysbase.a
END GROUP
LOAD d:/devkitpro/devkitarm/bin/../lib/gcc/arm-eabi/4.5.1/crtend.o
LOAD d:/devkitpro/devkitarm/bin/../lib/gcc/arm-eabi/4.5.1/crtn.o
OUTPUT(d:/devkitpro/uLibrary/Examples/Example03/Example03.elf elf32-littlearm)

.debug_pubtypes
                0x00000000     0x43c7 load address 0x02053540
 .debug_pubtypes
                0x00000000      0x150 CBall.o
 .debug_pubtypes
                0x00000150      0x16b main.o
 .debug_pubtypes
                0x000002bb      0x192 d:/devkitPro/libnds/lib\libul.a(ulib.o)
 .debug_pubtypes
                0x0000044d      0x335 d:/devkitPro/libnds/lib\libul.a(drawing.o)
 .debug_pubtypes
                0x00000782      0x21f d:/devkitPro/libnds/lib\libul.a(text.o)
 .debug_pubtypes
                0x000009a1      0x1ab d:/devkitPro/libnds/lib\libul.a(VirtualFile.o)
 .debug_pubtypes
                0x00000b4c      0x1d0 d:/devkitPro/libnds/lib\libul.a(texVramManager.o)
 .debug_pubtypes
                0x00000d1c      0x19e d:/devkitPro/libnds/lib\libul.a(texPalManager.o)
 .debug_pubtypes
                0x00000eba      0x1c9 d:/devkitPro/libnds/lib\libul.a(keys.o)
 .debug_pubtypes
                0x00001083      0x186 d:/devkitPro/libnds/lib\libul.a(ulDrawImage.o)
 .debug_pubtypes
                0x00001209      0x1b3 d:/devkitPro/libnds/lib\libul.a(ulCreateImagePalette.o)
 .debug_pubtypes
                0x000013bc      0x17d d:/devkitPro/libnds/lib\libul.a(ulDrawGradientRect.o)
 .debug_pubtypes
                0x00001539      0x197 d:/devkitPro/libnds/lib\libul.a(ulLoadImageFilePNG.o)
 .debug_pubtypes
                0x000016d0      0x23b d:/devkitPro/libnds/lib\libul.a(ulShowSplashScreen1.o)
 .debug_pubtypes
                0x0000190b      0x205 d:/devkitPro/libnds/lib\libul.a(ulShowSplashScreen2.o)
 .debug_pubtypes
                0x00001b10      0x19c d:/devkitPro/libnds/lib\libul.a(glWrapper.o)
 .debug_pubtypes
                0x00001cac      0x67d d:/devkitPro/libnds/lib\libul.a(libLoadPng.o)
 .debug_pubtypes
                0x00002329      0x17d d:/devkitPro/libnds/lib\libul.a(ulDrawFillRect.o)
 .debug_pubtypes
                0x000024a6      0x189 d:/devkitPro/libnds/lib\libul.a(ulSetImagePixel.o)
 .debug_pubtypes
                0x0000262f      0x189 d:/devkitPro/libnds/lib\libul.a(ulGetImagePixel.o)
 .debug_pubtypes
                0x000027b8      0x180 d:/devkitPro/libnds/lib\libul.a(textSize.o)
 .debug_pubtypes
                0x00002938      0x197 d:/devkitPro/libnds/lib\libul.a(ulLoadImageFileJPG.o)
 .debug_pubtypes
                0x00002acf      0x197 d:/devkitPro/libnds/lib\libul.a(ulLoadImageFileGIF.o)
 .debug_pubtypes
                0x00002c66      0x2a9 d:/devkitPro/libnds/lib\libul.a(libLoadJpg.o)
 .debug_pubtypes
                0x00002f0f      0x2cb d:/devkitPro/libnds/lib\libul.a(libLoadGif.o)
 .debug_pubtypes
                0x000031da      0x23d d:/devkitPro/libnds/lib\libul.a(dgif_lib.o)
 .debug_pubtypes
                0x00003417       0x12 d:/devkitPro/libnds/lib\libul.a(gif_err.o)
 .debug_pubtypes
                0x00003429       0xfa d:/devkitPro/libnds/lib\libul.a(gifalloc.o)
 .debug_pubtypes
                0x00003523      0x194 d:/devkitPro/libnds/lib\libul.a(ulReadEntireFileToMemory.o)
 .debug_pubtypes
                0x000036b7      0x2a1 d:/devkitPro/libnds/lib\libul.a(gba-jpeg-decode.o)
 .debug_pubtypes
                0x00003958       0x3d d:/devkitPro/libnds/lib\libnds9.a(dynamicArray.o)
 .debug_pubtypes
                0x00003995       0xdd d:/devkitPro/libnds/lib\libnds9.a(keys.o)
 .debug_pubtypes
                0x00003a72      0x109 d:/devkitPro/libnds/lib\libnds9.a(system.o)
 .debug_pubtypes
                0x00003b7b       0xc4 d:/devkitPro/libnds/lib\libnds9.a(touch.o)
 .debug_pubtypes
                0x00003c3f       0x58 d:/devkitPro/libnds/lib\libnds9.a(trig.o)
 .debug_pubtypes
                0x00003c97      0x20c d:/devkitPro/libnds/lib\libnds9.a(videoGL.o)
 .debug_pubtypes
                0x00003ea3      0x1e5 d:/devkitPro/libnds/lib\libnds9.a(initSystem.o)
 .debug_pubtypes
                0x00004088      0x126 d:/devkitPro/libnds/lib\libnds9.a(fifosystem.o)
 .debug_pubtypes
                0x000041ae       0xaa d:/devkitPro/libnds/lib\libnds9.a(interrupts.o)
 .debug_pubtypes
                0x00004258       0x8b d:/devkitPro/libnds/lib\libnds9.a(libnds_exit.o)
 .debug_pubtypes
                0x000042e3       0xe4 d:/devkitPro/libnds/lib\libnds9.a(video.o)

.debug_ranges   0x00000000     0x1ac8 load address 0x02053540
 .debug_ranges  0x00000000       0x18 CBall.o
 .debug_ranges  0x00000018       0x18 main.o
 .debug_ranges  0x00000030      0x4d8 d:/devkitPro/libnds/lib\libul.a(drawing.o)
 .debug_ranges  0x00000508       0x40 d:/devkitPro/libnds/lib\libul.a(text.o)
 .debug_ranges  0x00000548      0x100 d:/devkitPro/libnds/lib\libul.a(texVramManager.o)
 .debug_ranges  0x00000648       0x38 d:/devkitPro/libnds/lib\libul.a(texPalManager.o)
 .debug_ranges  0x00000680       0xf8 d:/devkitPro/libnds/lib\libul.a(ulDrawImage.o)
 .debug_ranges  0x00000778      0x150 d:/devkitPro/libnds/lib\libul.a(ulShowSplashScreen1.o)
 .debug_ranges  0x000008c8       0x90 d:/devkitPro/libnds/lib\libul.a(ulShowSplashScreen2.o)
 .debug_ranges  0x00000958       0x30 d:/devkitPro/libnds/lib\libul.a(glWrapper.o)
 .debug_ranges  0x00000988       0x30 d:/devkitPro/libnds/lib\libul.a(libLoadPng.o)
 .debug_ranges  0x000009b8       0x60 d:/devkitPro/libnds/lib\libul.a(libLoadGif.o)
 .debug_ranges  0x00000a18       0x58 d:/devkitPro/libnds/lib\libul.a(dgif_lib.o)
 .debug_ranges  0x00000a70      0x4b8 d:/devkitPro/libnds/lib\libul.a(gba-jpeg-decode.o)
 .debug_ranges  0x00000f28       0x18 d:/devkitPro/libnds/lib\libnds9.a(touch.o)
 .debug_ranges  0x00000f40       0x80 d:/devkitPro/libnds/lib\libnds9.a(trig.o)
 .debug_ranges  0x00000fc0      0x730 d:/devkitPro/libnds/lib\libnds9.a(videoGL.o)
 .debug_ranges  0x000016f0      0x378 d:/devkitPro/libnds/lib\libnds9.a(fifosystem.o)
 .debug_ranges  0x00001a68       0x30 d:/devkitPro/libnds/lib\libnds9.a(interrupts.o)
 .debug_ranges  0x00001a98       0x30 d:/devkitPro/libnds/lib\libnds9.a(video.o)
