Archive member included because of file (symbol)

d:/devkitPro/libnds/lib\libul.a(ulib.o)
                              main.o (ulInit)
d:/devkitPro/libnds/lib\libul.a(drawing.o)
                              main.o (ulInitGfx)
d:/devkitPro/libnds/lib\libul.a(map.o)
                              main.o (ulDrawMap)
d:/devkitPro/libnds/lib\libul.a(text.o)
                              main.o (ulDrawString)
d:/devkitPro/libnds/lib\libul.a(VirtualFile.o)
                              d:/devkitPro/libnds/lib\libul.a(text.o) (VirtualFileSources)
d:/devkitPro/libnds/lib\libul.a(texVramManager.o)
                              d:/devkitPro/libnds/lib\libul.a(ulib.o) (ulTexVramInit)
d:/devkitPro/libnds/lib\libul.a(texPalManager.o)
                              d:/devkitPro/libnds/lib\libul.a(ulib.o) (ulTexPalInit)
d:/devkitPro/libnds/lib\libul.a(keys.o)
                              main.o (ulReadKeys)
d:/devkitPro/libnds/lib\libul.a(ulCreateImagePalette.o)
                              d:/devkitPro/libnds/lib\libul.a(drawing.o) (ulCreateImagePalette)
d:/devkitPro/libnds/lib\libul.a(ulDrawGradientRect.o)
                              main.o (ulDrawGradientRect)
d:/devkitPro/libnds/lib\libul.a(messagebox.o)
                              main.o (ulMessageBoxEx)
d:/devkitPro/libnds/lib\libul.a(textSize.o)
                              d:/devkitPro/libnds/lib\libul.a(messagebox.o) (ulGetStringWidth)
d:/devkitPro/libnds/lib\libul.a(ulLoadImageFilePNG.o)
                              main.o (ulLoadImageFilePNG)
d:/devkitPro/libnds/lib\libul.a(ulShowSplashScreen1.o)
                              main.o (ulShowSplashScreen1)
d:/devkitPro/libnds/lib\libul.a(ulShowSplashScreen2.o)
                              main.o (ulShowSplashScreen2)
d:/devkitPro/libnds/lib\libul.a(glWrapper.o)
                              d:/devkitPro/libnds/lib\libul.a(texVramManager.o) (ulChangeVramAllocation)
d:/devkitPro/libnds/lib\libul.a(libLoadPng.o)
                              d:/devkitPro/libnds/lib\libul.a(ulLoadImageFilePNG.o) (ulLoadImagePNG)
d:/devkitPro/libnds/lib\libul.a(ulDrawImage.o)
                              d:/devkitPro/libnds/lib\libul.a(ulShowSplashScreen1.o) (ulDrawImage)
d:/devkitPro/libnds/lib\libul.a(ulDrawFillRect.o)
                              d:/devkitPro/libnds/lib\libul.a(ulShowSplashScreen1.o) (ulDrawFillRect)
d:/devkitPro/libnds/lib\libul.a(ulDrawLine.o)
                              d:/devkitPro/libnds/lib\libul.a(messagebox.o) (ulDrawLine)
d:/devkitPro/libnds/lib\libul.a(ulDrawRect.o)
                              d:/devkitPro/libnds/lib\libul.a(messagebox.o) (ulDrawRect)
d:/devkitPro/libnds/lib\libul.a(ulSetImagePixel.o)
                              d:/devkitPro/libnds/lib\libul.a(ulShowSplashScreen1.o) (ulSetImagePixel)
d:/devkitPro/libnds/lib\libul.a(ulGetImagePixel.o)
                              d:/devkitPro/libnds/lib\libul.a(ulShowSplashScreen1.o) (ulGetImagePixel)
d:/devkitPro/libnds/lib\libul.a(loading_utility.o)
                              d:/devkitPro/libnds/lib\libul.a(ulLoadImageFilePNG.o) (ul_loadUtilActiveSource)
d:/devkitPro/libnds/lib\libul.a(ulLoadImageFileJPG.o)
                              d:/devkitPro/libnds/lib\libul.a(ulShowSplashScreen2.o) (ulLoadImageFileJPG)
d:/devkitPro/libnds/lib\libul.a(ulLoadImageFileGIF.o)
                              d:/devkitPro/libnds/lib\libul.a(ulShowSplashScreen1.o) (ulLoadImageFileGIF)
d:/devkitPro/libnds/lib\libul.a(libLoadJpg.o)
                              d:/devkitPro/libnds/lib\libul.a(ulLoadImageFileJPG.o) (ulLoadImageJPG)
d:/devkitPro/libnds/lib\libul.a(libLoadGif.o)
                              d:/devkitPro/libnds/lib\libul.a(ulLoadImageFileGIF.o) (ulLoadImageGIF)
d:/devkitPro/libnds/lib\libul.a(dgif_lib.o)
                              d:/devkitPro/libnds/lib\libul.a(libLoadGif.o) (DGifOpen)
d:/devkitPro/libnds/lib\libul.a(gif_err.o)
                              d:/devkitPro/libnds/lib\libul.a(dgif_lib.o) (_GifError)
d:/devkitPro/libnds/lib\libul.a(gifalloc.o)
                              d:/devkitPro/libnds/lib\libul.a(dgif_lib.o) (MakeMapObject)
d:/devkitPro/libnds/lib\libul.a(ulReadEntireFileToMemory.o)
                              d:/devkitPro/libnds/lib\libul.a(libLoadJpg.o) (ulReadEntireFileToMemory)
d:/devkitPro/libnds/lib\libul.a(gba-jpeg-decode.o)
                              d:/devkitPro/libnds/lib\libul.a(libLoadJpg.o) (JPEG_Decoder_ReadImage)
d:/devkitPro/libnds/lib\libpng.a(png.o)
                              d:/devkitPro/libnds/lib\libul.a(libLoadPng.o) (png_get_io_ptr)
d:/devkitPro/libnds/lib\libpng.a(pngread.o)
                              d:/devkitPro/libnds/lib\libul.a(libLoadPng.o) (png_destroy_read_struct)
d:/devkitPro/libnds/lib\libpng.a(pngrio.o)
                              d:/devkitPro/libnds/lib\libul.a(libLoadPng.o) (png_set_read_fn)
d:/devkitPro/libnds/lib\libpng.a(pngrtran.o)
                              d:/devkitPro/libnds/lib\libpng.a(pngread.o) (png_set_strip_16)
d:/devkitPro/libnds/lib\libpng.a(pngmem.o)
                              d:/devkitPro/libnds/lib\libpng.a(pngread.o) (png_set_mem_fn)
d:/devkitPro/libnds/lib\libpng.a(pngerror.o)
                              d:/devkitPro/libnds/lib\libpng.a(pngread.o) (png_set_error_fn)
d:/devkitPro/libnds/lib\libpng.a(pngget.o)
                              d:/devkitPro/libnds/lib\libpng.a(pngread.o) (png_get_valid)
d:/devkitPro/libnds/lib\libpng.a(pngrutil.o)
                              d:/devkitPro/libnds/lib\libpng.a(pngread.o) (png_read_filter_row)
d:/devkitPro/libnds/lib\libpng.a(pngtrans.o)
                              d:/devkitPro/libnds/lib\libpng.a(pngread.o) (png_set_bgr)
d:/devkitPro/libnds/lib\libpng.a(pngset.o)
                              d:/devkitPro/libnds/lib\libpng.a(pngrutil.o) (png_set_cHRM)
d:/devkitPro/libnds/lib\libz.a(crc32.o)
                              d:/devkitPro/libnds/lib\libpng.a(png.o) (crc32)
d:/devkitPro/libnds/lib\libz.a(inflate.o)
                              d:/devkitPro/libnds/lib\libpng.a(png.o) (inflateReset)
d:/devkitPro/libnds/lib\libz.a(inftrees.o)
                              d:/devkitPro/libnds/lib\libz.a(inflate.o) (inflate_table)
d:/devkitPro/libnds/lib\libz.a(inffast.o)
                              d:/devkitPro/libnds/lib\libz.a(inflate.o) (inflate_fast)
d:/devkitPro/libnds/lib\libz.a(adler32.o)
                              d:/devkitPro/libnds/lib\libz.a(inflate.o) (adler32)
d:/devkitPro/libnds/lib\libz.a(zutil.o)
                              d:/devkitPro/libnds/lib\libz.a(inflate.o) (zcfree)
d:/devkitPro/libnds/lib\libnds9.a(console.o)
                              main.o (consoleDemoInit)
d:/devkitPro/libnds/lib\libnds9.a(dynamicArray.o)
                              d:/devkitPro/libnds/lib\libul.a(texVramManager.o) (DynamicArraySet)
d:/devkitPro/libnds/lib\libnds9.a(keys.o)
                              d:/devkitPro/libnds/lib\libul.a(keys.o) (keysCurrent)
d:/devkitPro/libnds/lib\libnds9.a(system.o)
                              d:/devkitPro/libnds/lib\libul.a(ulib.o) (powerOn)
d:/devkitPro/libnds/lib\libnds9.a(touch.o)
                              d:/devkitPro/libnds/lib\libul.a(keys.o) (touchRead)
d:/devkitPro/libnds/lib\libnds9.a(trig.o)
                              d:/devkitPro/libnds/lib\libul.a(ulDrawImage.o) (sinLerp)
d:/devkitPro/libnds/lib\libnds9.a(videoGL.o)
                              d:/devkitPro/libnds/lib\libul.a(texVramManager.o) (glGlobalData)
d:/devkitPro/libnds/lib\libnds9.a(initSystem.o)
                              d:/devkitpro/devkitarm/bin/../lib/gcc/arm-eabi/4.5.1/../../../../arm-eabi/lib/ds_arm9_crt0.o (initSystem)
d:/devkitPro/libnds/lib\libnds9.a(fifosystem.o)
                              d:/devkitPro/libnds/lib\libnds9.a(system.o) (fifoSendValue32)
d:/devkitPro/libnds/lib\libnds9.a(interrupts.o)
                              d:/devkitPro/libnds/lib\libnds9.a(fifosystem.o) (irqSet)
d:/devkitPro/libnds/lib\libnds9.a(libnds_exit.o)
                              d:/devkitpro/devkitarm/bin/../lib/gcc/arm-eabi/4.5.1/../../../../arm-eabi/lib/ds_arm9_crt0.o (__libnds_exit)
d:/devkitPro/libnds/lib\libnds9.a(mpu_setup.o)
                              d:/devkitpro/devkitarm/bin/../lib/gcc/arm-eabi/4.5.1/../../../../arm-eabi/lib/ds_arm9_crt0.o (__libnds_mpu_setup)
d:/devkitPro/libnds/lib\libnds9.a(biosCalls.o)
                              d:/devkitPro/libnds/lib\libnds9.a(system.o) (swiDelay)
d:/devkitPro/libnds/lib\libnds9.a(debugprint.o)
                              d:/devkitPro/libnds/lib\libnds9.a(console.o) (nocashWrite)
d:/devkitPro/libnds/lib\libnds9.a(interruptDispatcher.o)
                              d:/devkitPro/libnds/lib\libnds9.a(interrupts.o) (IntrMain)
d:/devkitPro/libnds/lib\libnds9.a(swiSoftReset.o)
                              d:/devkitPro/libnds/lib\libnds9.a(fifosystem.o) (swiSoftReset)
d:/devkitPro/libnds/lib\libnds9.a(default_font.bin.o)
                              d:/devkitPro/libnds/lib\libnds9.a(console.o) (default_font_bin)
d:/devkitPro/libnds/lib\libnds9.a(background.o)
                              d:/devkitPro/libnds/lib\libnds9.a(console.o) (bgState)
d:/devkitPro/libnds/lib\libnds9.a(video.o)
                              d:/devkitPro/libnds/lib\libnds9.a(videoGL.o) (vramSetPrimaryBanks)
d:/devkitpro/devkitarm/bin/../lib/gcc/arm-eabi/4.5.1/../../../../arm-eabi/lib\libm.a(lib_a-s_cos.o)
                              d:/devkitPro/libnds/lib\libul.a(ulib.o) (cos)
d:/devkitpro/devkitarm/bin/../lib/gcc/arm-eabi/4.5.1/../../../../arm-eabi/lib\libm.a(lib_a-s_sin.o)
                              d:/devkitPro/libnds/lib\libul.a(ulib.o) (sin)
d:/devkitpro/devkitarm/bin/../lib/gcc/arm-eabi/4.5.1/../../../../arm-eabi/lib\libm.a(lib_a-w_pow.o)
                              d:/devkitPro/libnds/lib\libpng.a(pngrtran.o) (pow)
d:/devkitpro/devkitarm/bin/../lib/gcc/arm-eabi/4.5.1/../../../../arm-eabi/lib\libm.a(lib_a-e_pow.o)
                              d:/devkitpro/devkitarm/bin/../lib/gcc/arm-eabi/4.5.1/../../../../arm-eabi/lib\libm.a(lib_a-w_pow.o) (__ieee754_pow)
d:/devkitpro/devkitarm/bin/../lib/gcc/arm-eabi/4.5.1/../../../../arm-eabi/lib\libm.a(lib_a-e_rem_pio2.o)
                              d:/devkitpro/devkitarm/bin/../lib/gcc/arm-eabi/4.5.1/../../../../arm-eabi/lib\libm.a(lib_a-s_cos.o) (__ieee754_rem_pio2)
d:/devkitpro/devkitarm/bin/../lib/gcc/arm-eabi/4.5.1/../../../../arm-eabi/lib\libm.a(lib_a-e_sqrt.o)
                              d:/devkitpro/devkitarm/bin/../lib/gcc/arm-eabi/4.5.1/../../../../arm-eabi/lib\libm.a(lib_a-e_pow.o) (__ieee754_sqrt)
d:/devkitpro/devkitarm/bin/../lib/gcc/arm-eabi/4.5.1/../../../../arm-eabi/lib\libm.a(lib_a-k_cos.o)
                              d:/devkitpro/devkitarm/bin/../lib/gcc/arm-eabi/4.5.1/../../../../arm-eabi/lib\libm.a(lib_a-s_cos.o) (__kernel_cos)
d:/devkitpro/devkitarm/bin/../lib/gcc/arm-eabi/4.5.1/../../../../arm-eabi/lib\libm.a(lib_a-k_rem_pio2.o)
                              d:/devkitpro/devkitarm/bin/../lib/gcc/arm-eabi/4.5.1/../../../../arm-eabi/lib\libm.a(lib_a-e_rem_pio2.o) (__kernel_rem_pio2)
d:/devkitpro/devkitarm/bin/../lib/gcc/arm-eabi/4.5.1/../../../../arm-eabi/lib\libm.a(lib_a-k_sin.o)
                              d:/devkitpro/devkitarm/bin/../lib/gcc/arm-eabi/4.5.1/../../../../arm-eabi/lib\libm.a(lib_a-s_cos.o) (__kernel_sin)
d:/devkitpro/devkitarm/bin/../lib/gcc/arm-eabi/4.5.1/../../../../arm-eabi/lib\libm.a(lib_a-s_fabs.o)
                              d:/devkitpro/devkitarm/bin/../lib/gcc/arm-eabi/4.5.1/../../../../arm-eabi/lib\libm.a(lib_a-e_pow.o) (fabs)
d:/devkitpro/devkitarm/bin/../lib/gcc/arm-eabi/4.5.1/../../../../arm-eabi/lib\libm.a(lib_a-s_finite.o)
                              d:/devkitpro/devkitarm/bin/../lib/gcc/arm-eabi/4.5.1/../../../../arm-eabi/lib\libm.a(lib_a-w_pow.o) (finite)
d:/devkitpro/devkitarm/bin/../lib/gcc/arm-eabi/4.5.1/../../../../arm-eabi/lib\libm.a(lib_a-s_floor.o)
                              d:/devkitpro/devkitarm/bin/../lib/gcc/arm-eabi/4.5.1/../../../../arm-eabi/lib\libm.a(lib_a-k_rem_pio2.o) (floor)
d:/devkitpro/devkitarm/bin/../lib/gcc/arm-eabi/4.5.1/../../../../arm-eabi/lib\libm.a(lib_a-s_fpclassify.o)
                              d:/devkitpro/devkitarm/bin/../lib/gcc/arm-eabi/4.5.1/../../../../arm-eabi/lib\libm.a(lib_a-w_pow.o) (__fpclassifyd)
d:/devkitpro/devkitarm/bin/../lib/gcc/arm-eabi/4.5.1/../../../../arm-eabi/lib\libm.a(lib_a-s_lib_ver.o)
                              d:/devkitpro/devkitarm/bin/../lib/gcc/arm-eabi/4.5.1/../../../../arm-eabi/lib\libm.a(lib_a-w_pow.o) (__fdlib_version)
d:/devkitpro/devkitarm/bin/../lib/gcc/arm-eabi/4.5.1/../../../../arm-eabi/lib\libm.a(lib_a-s_matherr.o)
                              d:/devkitpro/devkitarm/bin/../lib/gcc/arm-eabi/4.5.1/../../../../arm-eabi/lib\libm.a(lib_a-w_pow.o) (matherr)
d:/devkitpro/devkitarm/bin/../lib/gcc/arm-eabi/4.5.1/../../../../arm-eabi/lib\libm.a(lib_a-s_nan.o)
                              d:/devkitpro/devkitarm/bin/../lib/gcc/arm-eabi/4.5.1/../../../../arm-eabi/lib\libm.a(lib_a-e_pow.o) (nan)
d:/devkitpro/devkitarm/bin/../lib/gcc/arm-eabi/4.5.1/../../../../arm-eabi/lib\libm.a(lib_a-s_rint.o)
                              d:/devkitpro/devkitarm/bin/../lib/gcc/arm-eabi/4.5.1/../../../../arm-eabi/lib\libm.a(lib_a-w_pow.o) (rint)
d:/devkitpro/devkitarm/bin/../lib/gcc/arm-eabi/4.5.1/../../../../arm-eabi/lib\libm.a(lib_a-s_scalbn.o)
                              d:/devkitpro/devkitarm/bin/../lib/gcc/arm-eabi/4.5.1/../../../../arm-eabi/lib\libm.a(lib_a-e_pow.o) (scalbn)
d:/devkitpro/devkitarm/bin/../lib/gcc/arm-eabi/4.5.1/../../../../arm-eabi/lib\libm.a(lib_a-s_copysign.o)
                              d:/devkitpro/devkitarm/bin/../lib/gcc/arm-eabi/4.5.1/../../../../arm-eabi/lib\libm.a(lib_a-s_scalbn.o) (copysign)
d:/devkitpro/devkitarm/bin/../lib/gcc/arm-eabi/4.5.1\libgcc.a(_udivsi3.o)
                              d:/devkitPro/libnds/lib\libul.a(libLoadPng.o) (__aeabi_uidiv)
d:/devkitpro/devkitarm/bin/../lib/gcc/arm-eabi/4.5.1\libgcc.a(_divsi3.o)
                              d:/devkitPro/libnds/lib\libul.a(map.o) (__aeabi_idiv)
d:/devkitpro/devkitarm/bin/../lib/gcc/arm-eabi/4.5.1\libgcc.a(_dvmd_tls.o)
                              d:/devkitpro/devkitarm/bin/../lib/gcc/arm-eabi/4.5.1\libgcc.a(_udivsi3.o) (__aeabi_idiv0)
d:/devkitpro/devkitarm/bin/../lib/gcc/arm-eabi/4.5.1\libgcc.a(_arm_addsubdf3.o)
                              d:/devkitPro/libnds/lib\libpng.a(pngrtran.o) (__aeabi_dsub)
d:/devkitpro/devkitarm/bin/../lib/gcc/arm-eabi/4.5.1\libgcc.a(_arm_muldivdf3.o)
                              d:/devkitPro/libnds/lib\libul.a(ulib.o) (__aeabi_dmul)
d:/devkitpro/devkitarm/bin/../lib/gcc/arm-eabi/4.5.1\libgcc.a(_arm_cmpdf2.o)
                              d:/devkitpro/devkitarm/bin/../lib/gcc/arm-eabi/4.5.1/../../../../arm-eabi/lib\libm.a(lib_a-w_pow.o) (__aeabi_dcmpeq)
d:/devkitpro/devkitarm/bin/../lib/gcc/arm-eabi/4.5.1\libgcc.a(_arm_fixdfsi.o)
                              d:/devkitPro/libnds/lib\libul.a(ulib.o) (__aeabi_d2iz)
d:/devkitpro/devkitarm/bin/../lib/gcc/arm-eabi/4.5.1\libgcc.a(_arm_fixunsdfsi.o)
                              d:/devkitPro/libnds/lib\libpng.a(pngrtran.o) (__aeabi_d2uiz)
d:/devkitpro/devkitarm/bin/../lib/gcc/arm-eabi/4.5.1\libgcc.a(_arm_truncdfsf2.o)
                              d:/devkitPro/libnds/lib\libpng.a(pngrtran.o) (__aeabi_d2f)
d:/devkitpro/devkitarm/bin/../lib/gcc/arm-eabi/4.5.1\libgcc.a(_arm_addsubsf3.o)
                              d:/devkitPro/libnds/lib\libul.a(ulShowSplashScreen2.o) (__aeabi_fsub)
d:/devkitpro/devkitarm/bin/../lib/gcc/arm-eabi/4.5.1\libgcc.a(_arm_muldivsf3.o)
                              d:/devkitPro/libnds/lib\libul.a(ulib.o) (__aeabi_fmul)
d:/devkitpro/devkitarm/bin/../lib/gcc/arm-eabi/4.5.1\libgcc.a(_arm_cmpsf2.o)
                              d:/devkitPro/libnds/lib\libpng.a(pngrtran.o) (__aeabi_fcmpeq)
d:/devkitpro/devkitarm/bin/../lib/gcc/arm-eabi/4.5.1\libgcc.a(_arm_fixsfsi.o)
                              d:/devkitPro/libnds/lib\libul.a(ulShowSplashScreen2.o) (__aeabi_f2iz)
d:/devkitpro/devkitarm/bin/../lib/gcc/arm-eabi/4.5.1\libgcc.a(_arm_fixunssfsi.o)
                              d:/devkitPro/libnds/lib\libul.a(ulShowSplashScreen2.o) (__aeabi_f2uiz)
d:/devkitpro/devkitarm/bin/../lib/gcc/arm-eabi/4.5.1\libgcc.a(_muldi3.o)
                              d:/devkitPro/libnds/lib\libnds9.a(videoGL.o) (__aeabi_lmul)
d:/devkitpro/devkitarm/bin/../lib/gcc/arm-eabi/4.5.1/../../../../arm-eabi/lib\libg.a(lib_a-abort.o)
                              d:/devkitPro/libnds/lib\libpng.a(pngread.o) (abort)
d:/devkitpro/devkitarm/bin/../lib/gcc/arm-eabi/4.5.1/../../../../arm-eabi/lib\libg.a(lib_a-bsearch.o)
                              d:/devkitPro/libnds/lib\libnds9.a(trig.o) (bsearch)
d:/devkitpro/devkitarm/bin/../lib/gcc/arm-eabi/4.5.1/../../../../arm-eabi/lib\libg.a(lib_a-calloc.o)
                              d:/devkitPro/libnds/lib\libul.a(gifalloc.o) (calloc)
d:/devkitpro/devkitarm/bin/../lib/gcc/arm-eabi/4.5.1/../../../../arm-eabi/lib\libg.a(lib_a-callocr.o)
                              d:/devkitpro/devkitarm/bin/../lib/gcc/arm-eabi/4.5.1/../../../../arm-eabi/lib\libg.a(lib_a-calloc.o) (_calloc_r)
d:/devkitpro/devkitarm/bin/../lib/gcc/arm-eabi/4.5.1/../../../../arm-eabi/lib\libg.a(lib_a-errno.o)
                              d:/devkitpro/devkitarm/bin/../lib/gcc/arm-eabi/4.5.1/../../../../arm-eabi/lib\libm.a(lib_a-w_pow.o) (__errno)
d:/devkitpro/devkitarm/bin/../lib/gcc/arm-eabi/4.5.1/../../../../arm-eabi/lib\libg.a(lib_a-fclose.o)
                              d:/devkitPro/libnds/lib\libul.a(dgif_lib.o) (fclose)
d:/devkitpro/devkitarm/bin/../lib/gcc/arm-eabi/4.5.1/../../../../arm-eabi/lib\libg.a(lib_a-fflush.o)
                              d:/devkitpro/devkitarm/bin/../lib/gcc/arm-eabi/4.5.1/../../../../arm-eabi/lib\libg.a(lib_a-fclose.o) (_fflush_r)
d:/devkitpro/devkitarm/bin/../lib/gcc/arm-eabi/4.5.1/../../../../arm-eabi/lib\libg.a(lib_a-findfp.o)
                              d:/devkitpro/devkitarm/bin/../lib/gcc/arm-eabi/4.5.1/../../../../arm-eabi/lib\libg.a(lib_a-fclose.o) (__sinit)
d:/devkitpro/devkitarm/bin/../lib/gcc/arm-eabi/4.5.1/../../../../arm-eabi/lib\libg.a(lib_a-fprintf.o)
                              d:/devkitPro/libnds/lib\libpng.a(pngerror.o) (fprintf)
d:/devkitpro/devkitarm/bin/../lib/gcc/arm-eabi/4.5.1/../../../../arm-eabi/lib\libg.a(lib_a-fread.o)
                              d:/devkitPro/libnds/lib\libul.a(dgif_lib.o) (fread)
d:/devkitpro/devkitarm/bin/../lib/gcc/arm-eabi/4.5.1/../../../../arm-eabi/lib\libg.a(lib_a-freer.o)
                              d:/devkitpro/devkitarm/bin/../lib/gcc/arm-eabi/4.5.1/../../../../arm-eabi/lib\libg.a(lib_a-fclose.o) (_free_r)
d:/devkitpro/devkitarm/bin/../lib/gcc/arm-eabi/4.5.1/../../../../arm-eabi/lib\libg.a(lib_a-fwalk.o)
                              d:/devkitpro/devkitarm/bin/../lib/gcc/arm-eabi/4.5.1/../../../../arm-eabi/lib\libg.a(lib_a-findfp.o) (_fwalk)
d:/devkitpro/devkitarm/bin/../lib/gcc/arm-eabi/4.5.1/../../../../arm-eabi/lib\libg.a(lib_a-impure.o)
                              d:/devkitPro/libnds/lib\libpng.a(pngerror.o) (_impure_ptr)
d:/devkitpro/devkitarm/bin/../lib/gcc/arm-eabi/4.5.1/../../../../arm-eabi/lib\libg.a(lib_a-init.o)
                              d:/devkitpro/devkitarm/bin/../lib/gcc/arm-eabi/4.5.1/../../../../arm-eabi/lib/ds_arm9_crt0.o (__libc_init_array)
d:/devkitpro/devkitarm/bin/../lib/gcc/arm-eabi/4.5.1/../../../../arm-eabi/lib\libg.a(lib_a-iprintf.o)
                              main.o (iprintf)
d:/devkitpro/devkitarm/bin/../lib/gcc/arm-eabi/4.5.1/../../../../arm-eabi/lib\libg.a(lib_a-malloc.o)
                              d:/devkitPro/libnds/lib\libul.a(drawing.o) (malloc)
d:/devkitpro/devkitarm/bin/../lib/gcc/arm-eabi/4.5.1/../../../../arm-eabi/lib\libg.a(lib_a-mallocr.o)
                              d:/devkitpro/devkitarm/bin/../lib/gcc/arm-eabi/4.5.1/../../../../arm-eabi/lib\libg.a(lib_a-callocr.o) (_malloc_r)
d:/devkitpro/devkitarm/bin/../lib/gcc/arm-eabi/4.5.1/../../../../arm-eabi/lib\libg.a(lib_a-memcmp.o)
                              d:/devkitPro/libnds/lib\libul.a(gifalloc.o) (memcmp)
d:/devkitpro/devkitarm/bin/../lib/gcc/arm-eabi/4.5.1/../../../../arm-eabi/lib\libg.a(lib_a-memcpy.o)
                              d:/devkitPro/libnds/lib\libul.a(VirtualFile.o) (memcpy)
d:/devkitpro/devkitarm/bin/../lib/gcc/arm-eabi/4.5.1/../../../../arm-eabi/lib\libg.a(lib_a-memmove.o)
                              d:/devkitPro/libnds/lib\libul.a(texVramManager.o) (memmove)
d:/devkitpro/devkitarm/bin/../lib/gcc/arm-eabi/4.5.1/../../../../arm-eabi/lib\libg.a(lib_a-memset.o)
                              d:/devkitPro/libnds/lib\libul.a(drawing.o) (memset)
d:/devkitpro/devkitarm/bin/../lib/gcc/arm-eabi/4.5.1/../../../../arm-eabi/lib\libg.a(lib_a-mlock.o)
                              d:/devkitpro/devkitarm/bin/../lib/gcc/arm-eabi/4.5.1/../../../../arm-eabi/lib\libg.a(lib_a-freer.o) (__malloc_lock)
d:/devkitpro/devkitarm/bin/../lib/gcc/arm-eabi/4.5.1/../../../../arm-eabi/lib\libg.a(lib_a-rand.o)
                              d:/devkitPro/libnds/lib\libul.a(ulShowSplashScreen2.o) (rand)
d:/devkitpro/devkitarm/bin/../lib/gcc/arm-eabi/4.5.1/../../../../arm-eabi/lib\libg.a(lib_a-realloc.o)
                              d:/devkitPro/libnds/lib\libul.a(texVramManager.o) (realloc)
d:/devkitpro/devkitarm/bin/../lib/gcc/arm-eabi/4.5.1/../../../../arm-eabi/lib\libg.a(lib_a-reallocr.o)
                              d:/devkitpro/devkitarm/bin/../lib/gcc/arm-eabi/4.5.1/../../../../arm-eabi/lib\libg.a(lib_a-realloc.o) (_realloc_r)
d:/devkitpro/devkitarm/bin/../lib/gcc/arm-eabi/4.5.1/../../../../arm-eabi/lib\libg.a(lib_a-refill.o)
                              d:/devkitpro/devkitarm/bin/../lib/gcc/arm-eabi/4.5.1/../../../../arm-eabi/lib\libg.a(lib_a-fread.o) (__srefill_r)
d:/devkitpro/devkitarm/bin/../lib/gcc/arm-eabi/4.5.1/../../../../arm-eabi/lib\libg.a(lib_a-setjmp.o)
                              d:/devkitPro/libnds/lib\libul.a(libLoadPng.o) (setjmp)
d:/devkitpro/devkitarm/bin/../lib/gcc/arm-eabi/4.5.1/../../../../arm-eabi/lib\libg.a(lib_a-setvbuf.o)
                              d:/devkitPro/libnds/lib\libnds9.a(console.o) (setvbuf)
d:/devkitpro/devkitarm/bin/../lib/gcc/arm-eabi/4.5.1/../../../../arm-eabi/lib\libg.a(lib_a-signal.o)
                              d:/devkitpro/devkitarm/bin/../lib/gcc/arm-eabi/4.5.1/../../../../arm-eabi/lib\libg.a(lib_a-abort.o) (raise)
d:/devkitpro/devkitarm/bin/../lib/gcc/arm-eabi/4.5.1/../../../../arm-eabi/lib\libg.a(lib_a-siscanf.o)
                              d:/devkitPro/libnds/lib\libnds9.a(console.o) (siscanf)
d:/devkitpro/devkitarm/bin/../lib/gcc/arm-eabi/4.5.1/../../../../arm-eabi/lib\libg.a(lib_a-snprintf.o)
                              d:/devkitPro/libnds/lib\libpng.a(png.o) (snprintf)
d:/devkitpro/devkitarm/bin/../lib/gcc/arm-eabi/4.5.1/../../../../arm-eabi/lib\libg.a(lib_a-sprintf.o)
                              main.o (sprintf)
d:/devkitpro/devkitarm/bin/../lib/gcc/arm-eabi/4.5.1/../../../../arm-eabi/lib\libg.a(lib_a-stdio.o)
                              d:/devkitpro/devkitarm/bin/../lib/gcc/arm-eabi/4.5.1/../../../../arm-eabi/lib\libg.a(lib_a-findfp.o) (__sread)
d:/devkitpro/devkitarm/bin/../lib/gcc/arm-eabi/4.5.1/../../../../arm-eabi/lib\libg.a(lib_a-strcmp.o)
                              d:/devkitPro/libnds/lib\libul.a(text.o) (strcmp)
d:/devkitpro/devkitarm/bin/../lib/gcc/arm-eabi/4.5.1/../../../../arm-eabi/lib\libg.a(lib_a-strlen.o)
                              d:/devkitPro/libnds/lib\libul.a(VirtualFile.o) (strlen)
d:/devkitpro/devkitarm/bin/../lib/gcc/arm-eabi/4.5.1/../../../../arm-eabi/lib\libg.a(lib_a-strtod.o)
                              d:/devkitPro/libnds/lib\libpng.a(pngrutil.o) (strtod)
d:/devkitpro/devkitarm/bin/../lib/gcc/arm-eabi/4.5.1/../../../../arm-eabi/lib\libg.a(lib_a-svfiscanf.o)
                              d:/devkitpro/devkitarm/bin/../lib/gcc/arm-eabi/4.5.1/../../../../arm-eabi/lib\libg.a(lib_a-siscanf.o) (__ssvfiscanf_r)
d:/devkitpro/devkitarm/bin/../lib/gcc/arm-eabi/4.5.1/../../../../arm-eabi/lib\libg.a(lib_a-svfprintf.o)
                              d:/devkitpro/devkitarm/bin/../lib/gcc/arm-eabi/4.5.1/../../../../arm-eabi/lib\libg.a(lib_a-snprintf.o) (_svfprintf_r)
d:/devkitpro/devkitarm/bin/../lib/gcc/arm-eabi/4.5.1/../../../../arm-eabi/lib\libg.a(lib_a-ungetc.o)
                              d:/devkitpro/devkitarm/bin/../lib/gcc/arm-eabi/4.5.1/../../../../arm-eabi/lib\libg.a(lib_a-svfiscanf.o) (__submore)
d:/devkitpro/devkitarm/bin/../lib/gcc/arm-eabi/4.5.1/../../../../arm-eabi/lib\libg.a(lib_a-vfiprintf.o)
                              d:/devkitpro/devkitarm/bin/../lib/gcc/arm-eabi/4.5.1/../../../../arm-eabi/lib\libg.a(lib_a-iprintf.o) (_vfiprintf_r)
d:/devkitpro/devkitarm/bin/../lib/gcc/arm-eabi/4.5.1/../../../../arm-eabi/lib\libg.a(lib_a-vfprintf.o)
                              d:/devkitpro/devkitarm/bin/../lib/gcc/arm-eabi/4.5.1/../../../../arm-eabi/lib\libg.a(lib_a-fprintf.o) (_vfprintf_r)
d:/devkitpro/devkitarm/bin/../lib/gcc/arm-eabi/4.5.1/../../../../arm-eabi/lib\libg.a(lib_a-wcrtomb.o)
                              d:/devkitpro/devkitarm/bin/../lib/gcc/arm-eabi/4.5.1/../../../../arm-eabi/lib\libg.a(lib_a-svfprintf.o) (_wcrtomb_r)
d:/devkitpro/devkitarm/bin/../lib/gcc/arm-eabi/4.5.1/../../../../arm-eabi/lib\libg.a(lib_a-wcsrtombs.o)
                              d:/devkitpro/devkitarm/bin/../lib/gcc/arm-eabi/4.5.1/../../../../arm-eabi/lib\libg.a(lib_a-svfprintf.o) (_wcsrtombs_r)
d:/devkitpro/devkitarm/bin/../lib/gcc/arm-eabi/4.5.1/../../../../arm-eabi/lib\libg.a(lib_a-wctomb_r.o)
                              d:/devkitpro/devkitarm/bin/../lib/gcc/arm-eabi/4.5.1/../../../../arm-eabi/lib\libg.a(lib_a-wcrtomb.o) (__wctomb)
d:/devkitpro/devkitarm/bin/../lib/gcc/arm-eabi/4.5.1/../../../../arm-eabi/lib\libg.a(lib_a-wsetup.o)
                              d:/devkitpro/devkitarm/bin/../lib/gcc/arm-eabi/4.5.1/../../../../arm-eabi/lib\libg.a(lib_a-vfiprintf.o) (__swsetup_r)
d:/devkitpro/devkitarm/bin/../lib/gcc/arm-eabi/4.5.1/../../../../arm-eabi/lib\libg.a(lib_a-ctype_.o)
                              d:/devkitpro/devkitarm/bin/../lib/gcc/arm-eabi/4.5.1/../../../../arm-eabi/lib\libg.a(lib_a-svfiscanf.o) (__ctype_ptr__)
d:/devkitpro/devkitarm/bin/../lib/gcc/arm-eabi/4.5.1/../../../../arm-eabi/lib\libg.a(lib_a-dtoa.o)
                              d:/devkitpro/devkitarm/bin/../lib/gcc/arm-eabi/4.5.1/../../../../arm-eabi/lib\libg.a(lib_a-svfprintf.o) (_dtoa_r)
d:/devkitpro/devkitarm/bin/../lib/gcc/arm-eabi/4.5.1/../../../../arm-eabi/lib\libg.a(lib_a-fputwc.o)
                              d:/devkitpro/devkitarm/bin/../lib/gcc/arm-eabi/4.5.1/../../../../arm-eabi/lib\libg.a(lib_a-vfiprintf.o) (_fputwc_r)
d:/devkitpro/devkitarm/bin/../lib/gcc/arm-eabi/4.5.1/../../../../arm-eabi/lib\libg.a(lib_a-fvwrite.o)
                              d:/devkitpro/devkitarm/bin/../lib/gcc/arm-eabi/4.5.1/../../../../arm-eabi/lib\libg.a(lib_a-vfiprintf.o) (__sfvwrite_r)
d:/devkitpro/devkitarm/bin/../lib/gcc/arm-eabi/4.5.1/../../../../arm-eabi/lib\libg.a(lib_a-gdtoa-gethex.o)
                              d:/devkitpro/devkitarm/bin/../lib/gcc/arm-eabi/4.5.1/../../../../arm-eabi/lib\libg.a(lib_a-strtod.o) (__gethex)
d:/devkitpro/devkitarm/bin/../lib/gcc/arm-eabi/4.5.1/../../../../arm-eabi/lib\libg.a(lib_a-gdtoa-hexnan.o)
                              d:/devkitpro/devkitarm/bin/../lib/gcc/arm-eabi/4.5.1/../../../../arm-eabi/lib\libg.a(lib_a-strtod.o) (__hexnan)
d:/devkitpro/devkitarm/bin/../lib/gcc/arm-eabi/4.5.1/../../../../arm-eabi/lib\libg.a(lib_a-iswspace.o)
                              d:/devkitpro/devkitarm/bin/../lib/gcc/arm-eabi/4.5.1/../../../../arm-eabi/lib\libg.a(lib_a-svfiscanf.o) (iswspace)
d:/devkitpro/devkitarm/bin/../lib/gcc/arm-eabi/4.5.1/../../../../arm-eabi/lib\libg.a(lib_a-jp2uc.o)
                              d:/devkitpro/devkitarm/bin/../lib/gcc/arm-eabi/4.5.1/../../../../arm-eabi/lib\libg.a(lib_a-iswspace.o) (_jp2uc)
d:/devkitpro/devkitarm/bin/../lib/gcc/arm-eabi/4.5.1/../../../../arm-eabi/lib\libg.a(lib_a-locale.o)
                              d:/devkitpro/devkitarm/bin/../lib/gcc/arm-eabi/4.5.1/../../../../arm-eabi/lib\libg.a(lib_a-svfiscanf.o) (__locale_charset)
d:/devkitpro/devkitarm/bin/../lib/gcc/arm-eabi/4.5.1/../../../../arm-eabi/lib\libg.a(lib_a-makebuf.o)
                              d:/devkitpro/devkitarm/bin/../lib/gcc/arm-eabi/4.5.1/../../../../arm-eabi/lib\libg.a(lib_a-refill.o) (__smakebuf_r)
d:/devkitpro/devkitarm/bin/../lib/gcc/arm-eabi/4.5.1/../../../../arm-eabi/lib\libg.a(lib_a-mbrtowc.o)
                              d:/devkitpro/devkitarm/bin/../lib/gcc/arm-eabi/4.5.1/../../../../arm-eabi/lib\libg.a(lib_a-svfiscanf.o) (_mbrtowc_r)
d:/devkitpro/devkitarm/bin/../lib/gcc/arm-eabi/4.5.1/../../../../arm-eabi/lib\libg.a(lib_a-mbtowc_r.o)
                              d:/devkitpro/devkitarm/bin/../lib/gcc/arm-eabi/4.5.1/../../../../arm-eabi/lib\libg.a(lib_a-locale.o) (__utf8_mbtowc)
d:/devkitpro/devkitarm/bin/../lib/gcc/arm-eabi/4.5.1/../../../../arm-eabi/lib\libg.a(lib_a-memchr.o)
                              d:/devkitpro/devkitarm/bin/../lib/gcc/arm-eabi/4.5.1/../../../../arm-eabi/lib\libg.a(lib_a-svfprintf.o) (memchr)
d:/devkitpro/devkitarm/bin/../lib/gcc/arm-eabi/4.5.1/../../../../arm-eabi/lib\libg.a(lib_a-mprec.o)
                              d:/devkitpro/devkitarm/bin/../lib/gcc/arm-eabi/4.5.1/../../../../arm-eabi/lib\libg.a(lib_a-strtod.o) (_Balloc)
d:/devkitpro/devkitarm/bin/../lib/gcc/arm-eabi/4.5.1/../../../../arm-eabi/lib\libg.a(lib_a-sccl.o)
                              d:/devkitpro/devkitarm/bin/../lib/gcc/arm-eabi/4.5.1/../../../../arm-eabi/lib\libg.a(lib_a-svfiscanf.o) (__sccl)
d:/devkitpro/devkitarm/bin/../lib/gcc/arm-eabi/4.5.1/../../../../arm-eabi/lib\libg.a(lib_a-sf_nan.o)
                              d:/devkitpro/devkitarm/bin/../lib/gcc/arm-eabi/4.5.1/../../../../arm-eabi/lib\libg.a(lib_a-strtod.o) (nanf)
d:/devkitpro/devkitarm/bin/../lib/gcc/arm-eabi/4.5.1/../../../../arm-eabi/lib\libg.a(lib_a-strcasecmp.o)
                              d:/devkitpro/devkitarm/bin/../lib/gcc/arm-eabi/4.5.1/../../../../arm-eabi/lib\libg.a(lib_a-locale.o) (strcasecmp)
d:/devkitpro/devkitarm/bin/../lib/gcc/arm-eabi/4.5.1/../../../../arm-eabi/lib\libg.a(lib_a-strcat.o)
                              d:/devkitpro/devkitarm/bin/../lib/gcc/arm-eabi/4.5.1/../../../../arm-eabi/lib\libg.a(lib_a-locale.o) (strcat)
d:/devkitpro/devkitarm/bin/../lib/gcc/arm-eabi/4.5.1/../../../../arm-eabi/lib\libg.a(lib_a-strchr.o)
                              d:/devkitpro/devkitarm/bin/../lib/gcc/arm-eabi/4.5.1/../../../../arm-eabi/lib\libg.a(lib_a-locale.o) (strchr)
d:/devkitpro/devkitarm/bin/../lib/gcc/arm-eabi/4.5.1/../../../../arm-eabi/lib\libg.a(lib_a-strcpy.o)
                              d:/devkitpro/devkitarm/bin/../lib/gcc/arm-eabi/4.5.1/../../../../arm-eabi/lib\libg.a(lib_a-locale.o) (strcpy)
d:/devkitpro/devkitarm/bin/../lib/gcc/arm-eabi/4.5.1/../../../../arm-eabi/lib\libg.a(lib_a-strlcpy.o)
                              d:/devkitpro/devkitarm/bin/../lib/gcc/arm-eabi/4.5.1/../../../../arm-eabi/lib\libg.a(lib_a-locale.o) (strlcpy)
d:/devkitpro/devkitarm/bin/../lib/gcc/arm-eabi/4.5.1/../../../../arm-eabi/lib\libg.a(lib_a-strncasecmp.o)
                              d:/devkitpro/devkitarm/bin/../lib/gcc/arm-eabi/4.5.1/../../../../arm-eabi/lib\libg.a(lib_a-locale.o) (strncasecmp)
d:/devkitpro/devkitarm/bin/../lib/gcc/arm-eabi/4.5.1/../../../../arm-eabi/lib\libg.a(lib_a-strncmp.o)
                              d:/devkitpro/devkitarm/bin/../lib/gcc/arm-eabi/4.5.1/../../../../arm-eabi/lib\libg.a(lib_a-strtod.o) (strncmp)
d:/devkitpro/devkitarm/bin/../lib/gcc/arm-eabi/4.5.1/../../../../arm-eabi/lib\libg.a(lib_a-strncpy.o)
                              d:/devkitpro/devkitarm/bin/../lib/gcc/arm-eabi/4.5.1/../../../../arm-eabi/lib\libg.a(lib_a-locale.o) (strncpy)
d:/devkitpro/devkitarm/bin/../lib/gcc/arm-eabi/4.5.1/../../../../arm-eabi/lib\libg.a(lib_a-strtol.o)
                              d:/devkitpro/devkitarm/bin/../lib/gcc/arm-eabi/4.5.1/../../../../arm-eabi/lib\libg.a(lib_a-svfiscanf.o) (_strtol_r)
d:/devkitpro/devkitarm/bin/../lib/gcc/arm-eabi/4.5.1/../../../../arm-eabi/lib\libg.a(lib_a-strtoll_r.o)
                              d:/devkitpro/devkitarm/bin/../lib/gcc/arm-eabi/4.5.1/../../../../arm-eabi/lib\libg.a(lib_a-svfiscanf.o) (_strtoll_r)
d:/devkitpro/devkitarm/bin/../lib/gcc/arm-eabi/4.5.1/../../../../arm-eabi/lib\libg.a(lib_a-strtoul.o)
                              d:/devkitpro/devkitarm/bin/../lib/gcc/arm-eabi/4.5.1/../../../../arm-eabi/lib\libg.a(lib_a-svfiscanf.o) (_strtoul_r)
d:/devkitpro/devkitarm/bin/../lib/gcc/arm-eabi/4.5.1/../../../../arm-eabi/lib\libg.a(lib_a-strtoull_r.o)
                              d:/devkitpro/devkitarm/bin/../lib/gcc/arm-eabi/4.5.1/../../../../arm-eabi/lib\libg.a(lib_a-svfiscanf.o) (_strtoull_r)
d:/devkitpro/devkitarm/bin/../lib/gcc/arm-eabi/4.5.1/../../../../arm-eabi/lib\libg.a(lib_a-svfiprintf.o)
                              d:/devkitpro/devkitarm/bin/../lib/gcc/arm-eabi/4.5.1/../../../../arm-eabi/lib\libg.a(lib_a-svfprintf.o) (__ssprint_r)
d:/devkitpro/devkitarm/bin/../lib/gcc/arm-eabi/4.5.1/../../../../arm-eabi/lib\libg.a(lib_a-wbuf.o)
                              d:/devkitpro/devkitarm/bin/../lib/gcc/arm-eabi/4.5.1/../../../../arm-eabi/lib\libg.a(lib_a-fputwc.o) (__swbuf_r)
d:/devkitpro/devkitarm/bin/../lib/gcc/arm-eabi/4.5.1/../../../../arm-eabi/lib\libg.a(lib_a-wcsnrtombs.o)
                              d:/devkitpro/devkitarm/bin/../lib/gcc/arm-eabi/4.5.1/../../../../arm-eabi/lib\libg.a(lib_a-wcsrtombs.o) (_wcsnrtombs_r)
d:/devkitpro/devkitarm/bin/../lib/gcc/arm-eabi/4.5.1/../../../../arm-eabi/lib\libg.a(lib_a-getenv_r.o)
                              d:/devkitpro/devkitarm/bin/../lib/gcc/arm-eabi/4.5.1/../../../../arm-eabi/lib\libg.a(lib_a-locale.o) (_getenv_r)
d:/devkitpro/devkitarm/bin/../lib/gcc/arm-eabi/4.5.1/../../../../arm-eabi/lib\libg.a(lib_a-environ.o)
                              d:/devkitpro/devkitarm/bin/../lib/gcc/arm-eabi/4.5.1/../../../../arm-eabi/lib\libg.a(lib_a-getenv_r.o) (environ)
d:/devkitpro/devkitarm/bin/../lib/gcc/arm-eabi/4.5.1/../../../../arm-eabi/lib\libg.a(lib_a-envlock.o)
                              d:/devkitpro/devkitarm/bin/../lib/gcc/arm-eabi/4.5.1/../../../../arm-eabi/lib\libg.a(lib_a-getenv_r.o) (__env_lock)
d:/devkitpro/devkitarm/bin/../lib/gcc/arm-eabi/4.5.1/../../../../arm-eabi/lib\libsysbase.a(iosupport.o)
                              d:/devkitPro/libnds/lib\libnds9.a(console.o) (devoptab_list)
d:/devkitpro/devkitarm/bin/../lib/gcc/arm-eabi/4.5.1/../../../../arm-eabi/lib\libsysbase.a(close.o)
                              d:/devkitpro/devkitarm/bin/../lib/gcc/arm-eabi/4.5.1/../../../../arm-eabi/lib\libg.a(lib_a-stdio.o) (_close_r)
d:/devkitpro/devkitarm/bin/../lib/gcc/arm-eabi/4.5.1/../../../../arm-eabi/lib\libsysbase.a(fstat.o)
                              d:/devkitpro/devkitarm/bin/../lib/gcc/arm-eabi/4.5.1/../../../../arm-eabi/lib\libg.a(lib_a-makebuf.o) (_fstat_r)
d:/devkitpro/devkitarm/bin/../lib/gcc/arm-eabi/4.5.1/../../../../arm-eabi/lib\libsysbase.a(getpid.o)
                              d:/devkitpro/devkitarm/bin/../lib/gcc/arm-eabi/4.5.1/../../../../arm-eabi/lib\libg.a(lib_a-signal.o) (_getpid_r)
d:/devkitpro/devkitarm/bin/../lib/gcc/arm-eabi/4.5.1/../../../../arm-eabi/lib\libsysbase.a(isatty.o)
                              d:/devkitpro/devkitarm/bin/../lib/gcc/arm-eabi/4.5.1/../../../../arm-eabi/lib\libg.a(lib_a-makebuf.o) (_isatty_r)
d:/devkitpro/devkitarm/bin/../lib/gcc/arm-eabi/4.5.1/../../../../arm-eabi/lib\libsysbase.a(kill.o)
                              d:/devkitpro/devkitarm/bin/../lib/gcc/arm-eabi/4.5.1/../../../../arm-eabi/lib\libg.a(lib_a-signal.o) (_kill_r)
d:/devkitpro/devkitarm/bin/../lib/gcc/arm-eabi/4.5.1/../../../../arm-eabi/lib\libsysbase.a(lseek.o)
                              d:/devkitpro/devkitarm/bin/../lib/gcc/arm-eabi/4.5.1/../../../../arm-eabi/lib\libg.a(lib_a-stdio.o) (_lseek_r)
d:/devkitpro/devkitarm/bin/../lib/gcc/arm-eabi/4.5.1/../../../../arm-eabi/lib\libsysbase.a(read.o)
                              d:/devkitpro/devkitarm/bin/../lib/gcc/arm-eabi/4.5.1/../../../../arm-eabi/lib\libg.a(lib_a-stdio.o) (_read_r)
d:/devkitpro/devkitarm/bin/../lib/gcc/arm-eabi/4.5.1/../../../../arm-eabi/lib\libsysbase.a(sbrk.o)
                              d:/devkitpro/devkitarm/bin/../lib/gcc/arm-eabi/4.5.1/../../../../arm-eabi/lib\libg.a(lib_a-freer.o) (_sbrk_r)
d:/devkitpro/devkitarm/bin/../lib/gcc/arm-eabi/4.5.1/../../../../arm-eabi/lib\libsysbase.a(times.o)
                              d:/devkitPro/libnds/lib\libnds9.a(initSystem.o) (punixTime)
d:/devkitpro/devkitarm/bin/../lib/gcc/arm-eabi/4.5.1/../../../../arm-eabi/lib\libsysbase.a(write.o)
                              d:/devkitpro/devkitarm/bin/../lib/gcc/arm-eabi/4.5.1/../../../../arm-eabi/lib\libg.a(lib_a-stdio.o) (_write_r)
d:/devkitpro/devkitarm/bin/../lib/gcc/arm-eabi/4.5.1/../../../../arm-eabi/lib\libsysbase.a(_exit.o)
                              d:/devkitpro/devkitarm/bin/../lib/gcc/arm-eabi/4.5.1/../../../../arm-eabi/lib\libg.a(lib_a-abort.o) (_exit)
d:/devkitpro/devkitarm/bin/../lib/gcc/arm-eabi/4.5.1/../../../../arm-eabi/lib\libsysbase.a(malloc_vars.o)
                              d:/devkitpro/devkitarm/bin/../lib/gcc/arm-eabi/4.5.1/../../../../arm-eabi/lib/ds_arm9_crt0.o (fake_heap_end)
d:/devkitpro/devkitarm/bin/../lib/gcc/arm-eabi/4.5.1/../../../../arm-eabi/lib\libsysbase.a(build_argv.o)
                              d:/devkitpro/devkitarm/bin/../lib/gcc/arm-eabi/4.5.1/../../../../arm-eabi/lib/ds_arm9_crt0.o (build_argv)
d:/devkitpro/devkitarm/bin/../lib/gcc/arm-eabi/4.5.1/../../../../arm-eabi/lib\libsysbase.a(syscall_support.o)
                              d:/devkitPro/libnds/lib\libnds9.a(initSystem.o) (__syscalls)
d:/devkitpro/devkitarm/bin/../lib/gcc/arm-eabi/4.5.1/../../../../arm-eabi/lib\libsysbase.a(handle_manager.o)
                              d:/devkitpro/devkitarm/bin/../lib/gcc/arm-eabi/4.5.1/../../../../arm-eabi/lib\libsysbase.a(close.o) (__release_handle)
d:/devkitpro/devkitarm/bin/../lib/gcc/arm-eabi/4.5.1\libgcc.a(_aeabi_uldivmod.o)
                              d:/devkitpro/devkitarm/bin/../lib/gcc/arm-eabi/4.5.1/../../../../arm-eabi/lib\libg.a(lib_a-svfprintf.o) (__aeabi_uldivmod)
d:/devkitpro/devkitarm/bin/../lib/gcc/arm-eabi/4.5.1\libgcc.a(bpabi.o)
                              d:/devkitpro/devkitarm/bin/../lib/gcc/arm-eabi/4.5.1\libgcc.a(_aeabi_uldivmod.o) (__gnu_uldivmod_helper)
d:/devkitpro/devkitarm/bin/../lib/gcc/arm-eabi/4.5.1\libgcc.a(unwind-arm.o)
                              d:/devkitpro/devkitarm/bin/../lib/gcc/arm-eabi/4.5.1\libgcc.a(bpabi.o) (__aeabi_unwind_cpp_pr0)
d:/devkitpro/devkitarm/bin/../lib/gcc/arm-eabi/4.5.1\libgcc.a(libunwind.o)
                              d:/devkitpro/devkitarm/bin/../lib/gcc/arm-eabi/4.5.1\libgcc.a(unwind-arm.o) (restore_core_regs)
d:/devkitpro/devkitarm/bin/../lib/gcc/arm-eabi/4.5.1\libgcc.a(pr-support.o)
                              d:/devkitpro/devkitarm/bin/../lib/gcc/arm-eabi/4.5.1\libgcc.a(unwind-arm.o) (__gnu_unwind_execute)
d:/devkitpro/devkitarm/bin/../lib/gcc/arm-eabi/4.5.1\libgcc.a(_divdi3.o)
                              d:/devkitpro/devkitarm/bin/../lib/gcc/arm-eabi/4.5.1\libgcc.a(bpabi.o) (__divdi3)
d:/devkitpro/devkitarm/bin/../lib/gcc/arm-eabi/4.5.1\libgcc.a(_udivdi3.o)
                              d:/devkitpro/devkitarm/bin/../lib/gcc/arm-eabi/4.5.1\libgcc.a(bpabi.o) (__udivdi3)
d:/devkitpro/devkitarm/bin/../lib/gcc/arm-eabi/4.5.1\libgcc.a(_clzsi2.o)
                              d:/devkitpro/devkitarm/bin/../lib/gcc/arm-eabi/4.5.1\libgcc.a(_divdi3.o) (__clzsi2)

Allocating common symbols
Common symbol       size              file

currentCopy         0x5c              d:/devkitPro/libnds/lib\libnds9.a(console.o)
ul_colorKeyValue32  0x4               d:/devkitPro/libnds/lib\libul.a(drawing.o)
fifo_datamsg_data   0x40              d:/devkitPro/libnds/lib\libnds9.a(fifosystem.o)
ulTextureMax        0x4               d:/devkitPro/libnds/lib\libul.a(texVramManager.o)
__dsimode           0x1               d:/devkitPro/libnds/lib\libnds9.a(initSystem.o)
ulTextureParams     0x4               d:/devkitPro/libnds/lib\libul.a(texVramManager.o)
bgState             0x140             d:/devkitPro/libnds/lib\libnds9.a(background.o)
ul_cos              0x400             d:/devkitPro/libnds/lib\libul.a(ulib.o)
fifo_buffer         0x800             d:/devkitPro/libnds/lib\libnds9.a(fifosystem.o)
ulTexRamBlocksNb    0x4               d:/devkitPro/libnds/lib\libul.a(texVramManager.o)
mapMountains        0x4               main.o
bgIsTextLut         0x8               d:/devkitPro/libnds/lib\libnds9.a(background.o)
fifo_value32_func   0x40              d:/devkitPro/libnds/lib\libnds9.a(fifosystem.o)
fifo_address_func   0x40              d:/devkitPro/libnds/lib\libnds9.a(fifosystem.o)
temppalette         0x4               d:/devkitPro/libnds/lib\libul.a(libLoadGif.o)
ulTexPalBlocksNb    0x4               d:/devkitPro/libnds/lib\libul.a(texPalManager.o)
__hexdig            0x100             d:/devkitpro/devkitarm/bin/../lib/gcc/arm-eabi/4.5.1/../../../../arm-eabi/lib\libg.a(lib_a-gdtoa-gethex.o)
ul_colorKeyValue    0x2               d:/devkitPro/libnds/lib\libul.a(drawing.o)
ul_splash1_fadeDir  0x4               d:/devkitPro/libnds/lib\libul.a(ulShowSplashScreen1.o)
VirtualFileSources  0x40              d:/devkitPro/libnds/lib\libul.a(VirtualFile.o)
ulDualScreenSprites
                    0x400             d:/devkitPro/libnds/lib\libul.a(drawing.o)
ulTextureNb         0x4               d:/devkitPro/libnds/lib\libul.a(texVramManager.o)
ul_splash1_fade     0x4               d:/devkitPro/libnds/lib\libul.a(ulShowSplashScreen1.o)
LineBuf             0x800             d:/devkitPro/libnds/lib\libul.a(libLoadGif.o)
JPG_outEnd          0x4               d:/devkitPro/libnds/lib\libul.a(gba-jpeg-decode.o)
fifo_value32_data   0x40              d:/devkitPro/libnds/lib\libnds9.a(fifosystem.o)
ulTexRamBlocksMax   0x4               d:/devkitPro/libnds/lib\libul.a(texVramManager.o)
ulTexPalBlocks      0x4               d:/devkitPro/libnds/lib\libul.a(texPalManager.o)
ul_virtualFileList  0x4               d:/devkitPro/libnds/lib\libul.a(VirtualFile.o)
fifo_value32_queue  0x40              d:/devkitPro/libnds/lib\libnds9.a(fifosystem.o)
fifo_data_queue     0x40              d:/devkitPro/libnds/lib\libnds9.a(fifosystem.o)
ulTexRamBlocks      0x4               d:/devkitPro/libnds/lib\libul.a(texVramManager.o)
ul_autoDepth        0x1               d:/devkitPro/libnds/lib\libul.a(drawing.o)
ul_dualScreenMode   0x1               d:/devkitPro/libnds/lib\libul.a(drawing.o)
ul_neoflashlogo_positions
                    0xc00             d:/devkitPro/libnds/lib\libul.a(ulShowSplashScreen2.o)
ulTexPalBlocksMax   0x4               d:/devkitPro/libnds/lib\libul.a(texPalManager.o)
ul_frameNumber      0x1               d:/devkitPro/libnds/lib\libul.a(drawing.o)
punixTime           0x4               d:/devkitpro/devkitarm/bin/../lib/gcc/arm-eabi/4.5.1/../../../../arm-eabi/lib\libsysbase.a(times.o)
fifo_address_data   0x40              d:/devkitPro/libnds/lib\libnds9.a(fifosystem.o)
ul_sin              0x400             d:/devkitPro/libnds/lib\libul.a(ulib.o)
ul_currentDepth     0x4               d:/devkitPro/libnds/lib\libul.a(drawing.o)
glGlobalData        0x4c              d:/devkitPro/libnds/lib\libnds9.a(videoGL.o)
ulTextureActive     0x4               d:/devkitPro/libnds/lib\libul.a(texVramManager.o)
ul_colorKeyEnabled  0x1               d:/devkitPro/libnds/lib\libul.a(drawing.o)
JPG_outBegin        0x4               d:/devkitPro/libnds/lib\libul.a(gba-jpeg-decode.o)
fifo_datamsg_func   0x40              d:/devkitPro/libnds/lib\libnds9.a(fifosystem.o)
fifo_address_queue  0x40              d:/devkitPro/libnds/lib\libnds9.a(fifosystem.o)

Memory Configuration

Name             Origin             Length             Attributes
rom              0x08000000         0x02000000
ewram            0x02000000         0x003ff000
dtcm             0x0b000000         0x00004000
vectors          0x01000000         0x00000100
itcm             0x01000100         0x00007f00
*default*        0x00000000         0xffffffff

Linker script and memory map

                0x01000000                __vectors_start = 0x1000000
                0x01000100                __itcm_start = 0x1000100
                0x023ff000                __ewram_end = 0x23ff000
                0x023ff000                __eheap_end = 0x23ff000
                0x0b000000                __dtcm_start = 0xb000000
                0x0b004000                __dtcm_top = 0xb004000
                0x0b003ff8                __irq_flags = (__dtcm_top - 0x8)
                0x0b003ffc                __irq_vector = (__dtcm_top - 0x4)
                0x0b003f00                __sp_svc = (__dtcm_top - 0x100)
                0x0b003e00                __sp_irq = (__sp_svc - 0x100)
                0x0b003d00                __sp_usr = (__sp_irq - 0x100)

.init           0x02000000      0x248
                0x02000000                __text_start = .
 *(.init)
 .init          0x02000000      0x230 d:/devkitpro/devkitarm/bin/../lib/gcc/arm-eabi/4.5.1/../../../../arm-eabi/lib/ds_arm9_crt0.o
                0x02000000                _start
 .init          0x02000230        0xc d:/devkitpro/devkitarm/bin/../lib/gcc/arm-eabi/4.5.1/crti.o
                0x02000230                _init
 .init          0x0200023c        0xc d:/devkitpro/devkitarm/bin/../lib/gcc/arm-eabi/4.5.1/crtn.o
                0x02000248                . = ALIGN (0x4)

.plt
 *(.plt)

.text           0x02000250    0x3a4c8
 *(EXCLUDE_FILE(*.itcm*) .text)
 .text          0x02000250        0x0 d:/devkitpro/devkitarm/bin/../lib/gcc/arm-eabi/4.5.1/../../../../arm-eabi/lib/ds_arm9_crt0.o
 .text          0x02000250        0x0 d:/devkitpro/devkitarm/bin/../lib/gcc/arm-eabi/4.5.1/crti.o
 .text          0x02000250       0x94 d:/devkitpro/devkitarm/bin/../lib/gcc/arm-eabi/4.5.1/crtbegin.o
 .text          0x020002e4        0x0 mountains.png.o
 .text          0x020002e4        0x0 Map.o
 .text          0x020002e4      0x218 main.o
                0x020002e4                Render
                0x02000390                main
 .text          0x020004fc      0x15c d:/devkitPro/libnds/lib\libul.a(ulib.o)
                0x020004fc                _initSinTables
                0x020005e8                ulInit
                0x02000620                ulTerminate
                0x02000624                ulGetPowerOf2Count
 .text          0x02000658     0x148c d:/devkitPro/libnds/lib\libul.a(drawing.o)
                0x02000658                ulInitGfx
                0x020006cc                ulInitDualScreenMode
                0x02000800                ulStopDualScreenMode
                0x02000814                ulSetRegCapture
                0x02000878                ulEndDrawing
                0x020008a8                ulSetScreenWindow
                0x02000b48                ulSetScreenClipping
                0x02000dec                ulResetScreenClipping
                0x02001050                ulEndFrame
                0x0200117c                ulSyncFrame
                0x020011b8                ulResetScreenView
                0x020013fc                ulStartDrawing2D
                0x020014b0                ulMoveScreenView
                0x020014c8                ulScaleScreenView
                0x020014e0                ulRotateScreenView
                0x02001540                ulSetAlpha
                0x02001560                ulRealizeImage
                0x020016c4                ulSetTexture
                0x02001734                ulResetImageProperties
                0x02001784                ulDeleteImage
                0x02001804                ulCreateImage
                0x02001a70                ulSetScreenBackgroundColor
                0x02001a7c                ulSetTransparentColor
 .text          0x02001ae4      0x864 d:/devkitPro/libnds/lib\libul.a(map.o)
                0x02001ae4                ulDrawMap
                0x020022dc                ulCreateMap
                0x02002344                ulDeleteMap
 .text          0x02002348      0xa58 d:/devkitPro/libnds/lib\libul.a(text.o)
                0x02002348                ulDrawChar1BitToImage
                0x0200249c                ulCreateFont
                0x020027a4                ulLoadFont
                0x0200294c                ulDeleteFont
                0x02002978                ulDrawTile
                0x02002a70                ulDrawChar
                0x02002b1c                ulDrawString
                0x02002bf0                ulDrawTextBox
                0x02002d58                ulSetTextColor
                0x02002d68                ulInitText
 .text          0x02002da0      0x5fc d:/devkitPro/libnds/lib\libul.a(VirtualFile.o)
                0x02002da0                vfsMemClose
                0x02002da8                vfsMemGetc
                0x02002dec                vfsMemPutc
                0x02002e38                vfsMemGets
                0x02002fe4                vfsMemSeek
                0x02003058                vfsMemEof
                0x02003070                vfsMemPuts
                0x020030ac                vfsMemRead
                0x02003100                vfsMemWrite
                0x0200315c                VirtualFileRegisterSource
                0x0200318c                VirtualFileOpen
                0x02003228                VirtualFileClose
                0x02003260                ulSetVirtualFilenameList
                0x0200327c                ulFindFileInVirtualFilenameList
                0x0200330c                vfsMemOpen
                0x0200334c                VirtualFileInit
 .text          0x0200339c      0x8c0 d:/devkitPro/libnds/lib\libul.a(texVramManager.o)
                0x0200339c                ulTexVramInit
                0x020033fc                ulTexVramAllocBlock
                0x02003564                ulTexVramFreeBlock
                0x020036b4                ulTexImage2D
                0x020038b8                ulInitTextures
                0x0200390c                ulGetNextAvailableTexture
                0x020039f0                ulGenTextures
                0x02003a48                ulFreeTextures
                0x02003aac                ulTexParameter
                0x02003ae4                ulBindTexture
                0x02003b0c                ulBindTextureToGl
                0x02003b48                ulSetTexVramParameters
                0x02003be8                ulGetTexVramAvailMemory
                0x02003c14                ulGetTexVramTotalMemory
                0x02003c24                ulGetTexVramUsedMemory
 .text          0x02003c5c      0x584 d:/devkitPro/libnds/lib\libul.a(texPalManager.o)
                0x02003c5c                ulTexPalInit
                0x02003cbc                ulTexPalAllocBlock
                0x02003ecc                ulTexPalFreeBlock
                0x0200401c                uluTexUnloadPal
                0x02004024                ulTexLoadPal
                0x02004070                uluTexLoadPal
                0x020040cc                ulSetTexPalVramParameters
                0x0200416c                ulGetTexPalAvailMemory
                0x02004198                ulGetTexPalTotalMemory
                0x020041a8                ulGetTexPalUsedMemory
 .text          0x020041e0      0x190 d:/devkitPro/libnds/lib\libul.a(keys.o)
                0x020041e0                ulReadKeys
 .text          0x02004370       0xe8 d:/devkitPro/libnds/lib\libul.a(ulCreateImagePalette.o)
                0x02004370                ulCreateImagePalette
 .text          0x02004458       0xbc d:/devkitPro/libnds/lib\libul.a(ulDrawGradientRect.o)
                0x02004458                ulDrawGradientRect
 .text          0x02004514      0x5f0 d:/devkitPro/libnds/lib\libul.a(messagebox.o)
                0x02004514                _drawButton
                0x02004640                ulMessageBoxEx
 .text          0x02004b04      0x124 d:/devkitPro/libnds/lib\libul.a(textSize.o)
                0x02004b04                ulGetStringWidth
                0x02004b38                ulGetTextBoxHeight
 .text          0x02004c28       0x68 d:/devkitPro/libnds/lib\libul.a(ulLoadImageFilePNG.o)
                0x02004c28                ulLoadImageFilePNG
 .text          0x02004c90      0xb54 d:/devkitPro/libnds/lib\libul.a(ulShowSplashScreen1.o)
                0x02004c90                ul_splash1_applyMask
                0x02004d30                ul_splash1_createCircle
                0x02004dec                ul_splash1_createMaskedImage
                0x02004efc                ul_splash1_handleFade
                0x02004f60                ul_splash1_drawFade
                0x02004fc4                ul_splash1_fadeTerminated
                0x02004ffc                ul_splash1_drawBackText
                0x02005088                ul_splash1_fillSecondScreen
                0x020051cc                ulShowSplashScreen1
 .text          0x020057e4      0x65c d:/devkitPro/libnds/lib\libul.a(ulShowSplashScreen2.o)
                0x020057e4                ul_neoflashlogo_LogoDrawTiles
                0x0200592c                ulShowSplashScreen2
 .text          0x02005e40       0x7c d:/devkitPro/libnds/lib\libul.a(glWrapper.o)
                0x02005e40                ulChangeVramAllocation
 .text          0x02005ebc      0x97c d:/devkitPro/libnds/lib\libul.a(libLoadPng.o)
                0x02005fa0                ulLoadImagePNG
 .text          0x02006838      0x348 d:/devkitPro/libnds/lib\libul.a(ulDrawImage.o)
                0x02006838                ulDrawImage
 .text          0x02006b80       0x94 d:/devkitPro/libnds/lib\libul.a(ulDrawFillRect.o)
                0x02006b80                ulDrawFillRect
 .text          0x02006c14       0x78 d:/devkitPro/libnds/lib\libul.a(ulDrawLine.o)
                0x02006c14                ulDrawLine
 .text          0x02006c8c      0x128 d:/devkitPro/libnds/lib\libul.a(ulDrawRect.o)
                0x02006c8c                ulDrawRect
 .text          0x02006db4       0xb8 d:/devkitPro/libnds/lib\libul.a(ulSetImagePixel.o)
                0x02006db4                ulSetImagePixel
 .text          0x02006e6c       0xa8 d:/devkitPro/libnds/lib\libul.a(ulGetImagePixel.o)
                0x02006e6c                ulGetImagePixel
 .text          0x02006f14        0x0 d:/devkitPro/libnds/lib\libul.a(loading_utility.o)
 .text          0x02006f14       0x68 d:/devkitPro/libnds/lib\libul.a(ulLoadImageFileJPG.o)
                0x02006f14                ulLoadImageFileJPG
 .text          0x02006f7c       0x68 d:/devkitPro/libnds/lib\libul.a(ulLoadImageFileGIF.o)
                0x02006f7c                ulLoadImageFileGIF
 .text          0x02006fe4       0xf8 d:/devkitPro/libnds/lib\libul.a(libLoadJpg.o)
                0x02006fe4                ulLoadImageJPG
 .text          0x020070dc      0x65c d:/devkitPro/libnds/lib\libul.a(libLoadGif.o)
                0x020070dc                fnGifReadFunc
                0x02007110                fnCopyLine
                0x02007240                DGifGetLineByte
                0x02007288                ulLoadImageGIF
 .text          0x02007738     0x1198 d:/devkitPro/libnds/lib\libul.a(dgif_lib.o)
                0x02007c98                DGifGetScreenDesc
                0x02007e54                DGifOpen
                0x02007f7c                DGifGetRecordType
                0x0200803c                DGifGetImageDesc
                0x020083a0                DGifGetExtensionNext
                0x0200846c                DGifGetExtension
                0x020084fc                DGifCloseFile
                0x020085c0                DGifGetCodeNext
                0x02008694                DGifGetCode
                0x020086d8                DGifGetPixel
                0x02008784                DGifGetLine
                0x0200881c                DGifGetLZCodes
 .text          0x020088d0       0x18 d:/devkitPro/libnds/lib\libul.a(gif_err.o)
                0x020088d0                GifLastError
 .text          0x020088e8      0x610 d:/devkitPro/libnds/lib\libul.a(gifalloc.o)
                0x020088e8                BitSize
                0x0200890c                MakeMapObject
                0x0200897c                FreeMapObject
                0x0200899c                UnionColorMap
                0x02008b74                ApplyTranslation
                0x02008bac                MakeExtension
                0x02008bb4                AddExtensionBlock
                0x02008c60                FreeExtension
                0x02008cb4                FreeLastSavedImage
                0x02008d20                MakeSavedImage
                0x02008e70                FreeSavedImages
 .text          0x02008ef8       0xc0 d:/devkitPro/libnds/lib\libul.a(ulReadEntireFileToMemory.o)
                0x02008ef8                ulReadEntireFileToMemory
 .text          0x02008fb8     0x198c d:/devkitPro/libnds/lib\libul.a(gba-jpeg-decode.o)
                0x02009a18                JPEG_IDCT
                0x02009a40                JPEG_HuffmanTable_Read
                0x02009c58                JPEG_HuffmanTable_Skip
                0x02009c88                JPEG_Decoder_ReadImage
                0x0200a444                JPEG_FrameHeader_Read
                0x0200a4fc                JPEG_ScanHeader_Read
                0x0200a598                JPEG_Decoder_ReadHeaders
                0x0200a8a0                JPEG_DecompressImage
                0x0200a904                JPEG_Match
 .text          0x0200a944      0xa58 d:/devkitPro/libnds/lib\libpng.a(png.o)
                0x0200a944                png_data_freer
                0x0200a97c                png_get_io_ptr
                0x0200a988                png_init_io
                0x0200a994                png_get_copyright
                0x0200a9a0                png_get_libpng_ver
                0x0200a9ac                png_get_header_ver
                0x0200a9b8                png_get_header_version
                0x0200a9c4                png_access_version_number
                0x0200a9d0                png_mmx_support
                0x0200a9d8                png_64bit_product
                0x0200aa24                png_check_cHRM_fixed
                0x0200ab20                png_reset_zstream
                0x0200ab44                png_handle_as_unknown
                0x0200abac                png_sig_cmp
                0x0200ac20                png_check_sig
                0x0200ac48                png_zalloc
                0x0200ac9c                png_convert_to_rfc1123
                0x0200ad60                png_zfree
                0x0200ad78                png_free_data
                0x0200b1ac                png_info_init_3
                0x0200b1ec                png_info_destroy
                0x0200b248                png_info_init
                0x0200b270                png_destroy_info_struct
                0x0200b2bc                png_create_info_struct
                0x0200b304                png_calculate_crc
                0x0200b348                png_reset_crc
                0x0200b36c                png_set_sig_bytes
 .text          0x0200b39c     0x1a04 d:/devkitPro/libnds/lib\libpng.a(pngread.o)
                0x0200b39c                png_set_read_status_fn
                0x0200b3a8                png_read_destroy
                0x0200b5f4                png_destroy_read_struct
                0x0200b6d4                png_read_end
                0x0200bb7c                png_start_read_image
                0x0200bba4                png_read_row
                0x0200bffc                png_read_image
                0x0200c060                png_read_rows
                0x0200c12c                png_read_update_info
                0x0200c164                png_read_info
                0x0200c6d4                png_read_png
                0x0200c8a4                png_read_init_3
                0x0200c9f8                png_read_init_2
                0x0200cac0                png_read_init
                0x0200cad4                png_create_read_struct_2
                0x0200cd78                png_create_read_struct
 .text          0x0200cda0       0xa0 d:/devkitPro/libnds/lib\libpng.a(pngrio.o)
                0x0200cda0                png_set_read_fn
                0x0200cdd4                png_default_read_data
                0x0200ce10                png_read_data
 .text          0x0200ce40     0x5814 d:/devkitPro/libnds/lib\libpng.a(pngrtran.o)
                0x0200ce40                png_set_crc_action
                0x0200cee8                png_set_strip_16
                0x0200cefc                png_set_strip_alpha
                0x0200cf10                png_set_gamma
                0x0200cfcc                png_set_expand
                0x0200cff4                png_set_palette_to_rgb
                0x0200d01c                png_set_expand_gray_1_2_4_to_8
                0x0200d040                png_set_gray_1_2_4_to_8
                0x0200d058                png_set_tRNS_to_alpha
                0x0200d078                png_set_gray_to_rgb
                0x0200d094                png_set_rgb_to_gray_fixed
                0x0200d194                png_set_rgb_to_gray
                0x0200d230                png_set_read_user_transform_fn
                0x0200d248                png_read_transform_info
                0x0200d4a0                png_do_unpack
                0x0200d5f0                png_do_unshift
                0x0200d808                png_do_chop
                0x0200d860                png_do_read_swap_alpha
                0x0200d9a0                png_do_read_invert_alpha
                0x0200daa0                png_do_read_filler
                0x0200dd98                png_do_gray_to_rgb
                0x0200df8c                png_do_rgb_to_gray
                0x0200e628                png_build_grayscale_palette
                0x0200e6dc                png_do_gamma
                0x0200eb28                png_do_expand_palette
                0x0200edc8                png_do_expand
                0x0200f244                png_do_dither
                0x0200f3b8                png_do_read_intrapixel
                0x0200f4cc                png_build_gamma_table
                0x0200fbe8                png_init_read_transformations
                0x02010920                png_do_background
                0x02011954                png_set_background
                0x020119bc                png_do_read_transformations
                0x02011e28                png_set_dither
 .text          0x02012654      0x270 d:/devkitPro/libnds/lib\libpng.a(pngmem.o)
                0x02012654                png_set_mem_fn
                0x02012668                png_get_mem_ptr
                0x02012674                png_memset_check
                0x02012698                png_memcpy_check
                0x020126bc                png_free_default
                0x020126e0                png_free
                0x02012724                png_destroy_struct_2
                0x02012768                png_destroy_struct
                0x02012774                png_malloc_default
                0x0201279c                png_malloc
                0x02012800                png_malloc_warn
                0x02012834                png_create_struct_2
                0x020128b8                png_create_struct
 .text          0x020128c4      0x128 d:/devkitPro/libnds/lib\libpng.a(pngerror.o)
                0x020128c4                png_set_error_fn
                0x020128d8                png_get_error_ptr
                0x020128e4                png_set_strip_error_numbers
                0x020128fc                png_err
 .text          0x020129ec      0xb28 d:/devkitPro/libnds/lib\libpng.a(pngget.o)
                0x020129ec                png_get_valid
                0x02012a08                png_get_rowbytes
                0x02012a20                png_get_rows
                0x02012a38                png_get_image_width
                0x02012a50                png_get_image_height
                0x02012a68                png_get_bit_depth
                0x02012a80                png_get_color_type
                0x02012a98                png_get_filter_type
                0x02012ab0                png_get_interlace_type
                0x02012ac8                png_get_compression_type
                0x02012ae0                png_get_x_pixels_per_meter
                0x02012b10                png_get_y_pixels_per_meter
                0x02012b40                png_get_pixels_per_meter
                0x02012b7c                png_get_pixel_aspect_ratio
                0x02012bdc                png_get_x_offset_microns
                0x02012c0c                png_get_y_offset_microns
                0x02012c3c                png_get_x_offset_pixels
                0x02012c6c                png_get_y_offset_pixels
                0x02012c9c                png_get_channels
                0x02012cb4                png_get_signature
                0x02012ccc                png_get_bKGD
                0x02012d04                png_get_cHRM
                0x02012e00                png_get_cHRM_fixed
                0x02012ea4                png_get_gAMA
                0x02012ef0                png_get_gAMA_fixed
                0x02012f28                png_get_sRGB
                0x02012f60                png_get_iCCP
                0x02012fd4                png_get_sPLT
                0x02012ffc                png_get_hIST
                0x02013034                png_get_oFFs
                0x0201309c                png_get_pCAL
                0x02013148                png_get_sCAL
                0x020131a4                png_get_pHYs
                0x02013204                png_get_PLTE
                0x0201324c                png_get_sBIT
                0x02013284                png_get_text
                0x020132d4                png_get_tIME
                0x0201330c                png_get_tRNS
                0x020133a0                png_get_unknown_chunks
                0x020133c8                png_get_rgb_to_gray_status
                0x020133d4                png_get_user_chunk_ptr
                0x020133e0                png_get_asm_flags
                0x020133e8                png_get_asm_flagmask
                0x020133f0                png_get_mmx_flagmask
                0x02013400                png_get_mmx_bitdepth_threshold
                0x02013408                png_get_mmx_rowbytes_threshold
                0x02013410                png_get_user_width_max
                0x0201341c                png_get_user_height_max
                0x02013428                png_get_IHDR
 .text          0x02013514     0x32c0 d:/devkitPro/libnds/lib\libpng.a(pngrutil.o)
                0x02013514                png_get_uint_32
                0x02013534                png_get_int_32
                0x02013554                png_get_uint_16
                0x0201356c                png_read_filter_row
                0x02013738                png_check_chunk_name
                0x020137f0                png_get_uint_31
                0x02013820                png_read_start_row
                0x02013b30                png_crc_error
                0x02013bb8                png_do_read_interlace
                0x02013fc0                png_combine_row
                0x02014278                png_decompress_chunk
                0x020145cc                png_crc_read
                0x020145fc                png_crc_finish
                0x02014684                png_handle_IEND
                0x020146c4                png_read_finish_row
                0x02014918                png_handle_unknown
                0x02014a7c                png_handle_zTXt
                0x02014c04                png_handle_tEXt
                0x02014d38                png_handle_tIME
                0x02014e18                png_handle_sCAL
                0x02014fdc                png_handle_pCAL
                0x0201529c                png_handle_oFFs
                0x0201537c                png_handle_pHYs
                0x0201545c                png_handle_hIST
                0x0201554c                png_handle_bKGD
                0x020156f0                png_handle_tRNS
                0x02015888                png_handle_sPLT
                0x02015ae0                png_handle_iCCP
                0x02015c90                png_handle_sRGB
                0x02015d80                png_handle_cHRM
                0x02016254                png_handle_sBIT
                0x02016360                png_handle_gAMA
                0x020164a4                png_handle_PLTE
                0x02016604                png_handle_IHDR
                0x0201675c                png_read_chunk_header
 .text          0x020167d4      0x704 d:/devkitPro/libnds/lib\libpng.a(pngtrans.o)
                0x020167d4                png_set_bgr
                0x020167e8                png_set_swap
                0x02016808                png_set_packing
                0x02016830                png_set_packswap
                0x02016850                png_set_shift
                0x02016888                png_set_interlace_handling
                0x020168b8                png_set_filler
                0x02016920                png_set_add_alpha
                0x02016944                png_set_swap_alpha
                0x02016958                png_set_invert_alpha
                0x0201696c                png_set_invert_mono
                0x02016980                png_do_invert
                0x02016a3c                png_do_swap
                0x02016a80                png_do_packswap
                0x02016ae0                png_do_strip_filler
                0x02016d94                png_do_bgr
                0x02016eb8                png_set_user_transform_info
                0x02016ecc                png_get_user_transform_ptr
 .text          0x02016ed8     0x1438 d:/devkitPro/libnds/lib\libpng.a(pngset.o)
                0x02016ed8                png_set_cHRM
                0x020170e0                png_set_gAMA
                0x02017178                png_set_gAMA_fixed
                0x020171d0                png_set_oFFs
                0x02017200                png_set_sCAL
                0x02017244                png_set_pHYs
                0x02017274                png_set_sRGB
                0x02017290                png_set_unknown_chunk_location
                0x020172c8                png_permit_empty_plte
                0x020172e4                png_permit_mng_features
                0x020172f8                png_set_read_user_chunk_fn
                0x02017308                png_set_invalid
                0x02017320                png_set_asm_flags
                0x02017330                png_set_mmx_thresholds
                0x02017334                png_set_user_limits
                0x02017344                png_set_rows
                0x020173a0                png_set_tRNS
                0x02017458                png_set_tIME
                0x0201749c                png_set_sBIT
                0x020174d4                png_set_bKGD
                0x0201750c                png_set_keep_unknown_chunks
                0x02017608                png_set_unknown_chunks
                0x02017714                png_set_hIST
                0x020177c8                png_set_sPLT
                0x02017910                png_set_text_2
                0x02017af0                png_set_iCCP
                0x02017bd8                png_set_text
                0x02017bf8                png_set_IHDR
                0x02017e04                png_set_cHRM_fixed
                0x02017f80                png_set_sRGB_gAMA_and_cHRM
                0x020180f4                png_set_PLTE
                0x020181b4                png_set_pCAL
 .text          0x02018310      0x934 d:/devkitPro/libnds/lib\libz.a(crc32.o)
                0x02018310                get_crc_table
                0x0201831c                crc32
                0x02018a60                crc32_combine
 .text          0x02018c44     0x1e8c d:/devkitPro/libnds/lib\libz.a(inflate.o)
                0x02018c44                inflateReset
                0x02018cc0                inflatePrime
                0x02018d1c                inflateInit2_
                0x02018e38                inflateInit_
                0x02018e48                inflateEnd
                0x02018eb0                inflateGetHeader
                0x02018eec                inflateSync
                0x02019090                inflateSyncPoint
                0x020190cc                inflateCopy
                0x02019394                inflateSetDictionary
                0x0201948c                inflate
 .text          0x0201aad0      0x590 d:/devkitPro/libnds/lib\libz.a(inftrees.o)
                0x0201aad0                inflate_table
 .text          0x0201b060      0x570 d:/devkitPro/libnds/lib\libz.a(inffast.o)
                0x0201b060                inflate_fast
 .text          0x0201b5d0      0x3fc d:/devkitPro/libnds/lib\libz.a(adler32.o)
                0x0201b5d0                adler32
                0x0201b910                adler32_combine
 .text          0x0201b9cc       0x60 d:/devkitPro/libnds/lib\libz.a(zutil.o)
                0x0201b9cc                zlibVersion
                0x0201b9d8                zlibCompileFlags
                0x0201b9e0                zError
                0x0201b9f4                zcfree
                0x0201ba10                zcalloc
 .text          0x0201ba2c      0xa2c d:/devkitPro/libnds/lib\libnds9.a(console.o)
                0x0201bac0                nocash_write
                0x0201bad0                consoleGetDefault
                0x0201badc                consoleSelect
                0x0201baec                consoleDebugInit
                0x0201bb3c                consolePrintChar
                0x0201bcdc                consoleLoadFont
                0x0201bf74                consoleSetFont
                0x0201bf94                consoleInit
                0x0201c10c                consoleDemoInit
                0x0201c150                con_write
                0x0201c424                consoleClear
                0x0201c434                consoleSetWindow
 .text          0x0201c458       0x94 d:/devkitPro/libnds/lib\libnds9.a(dynamicArray.o)
                0x0201c458                DynamicArrayInit
                0x0201c470                DynamicArrayDelete
                0x0201c484                DynamicArrayGet
                0x0201c4a0                DynamicArraySet
 .text          0x0201c4ec       0xf8 d:/devkitPro/libnds/lib\libnds9.a(keys.o)
                0x0201c4ec                scanKeys
                0x0201c55c                keysHeld
                0x0201c568                keysDown
                0x0201c578                keysDownRepeat
                0x0201c588                keysSetRepeat
                0x0201c5a0                keysUp
                0x0201c5b0                keysCurrent
 .text          0x0201c5e4       0xf4 d:/devkitPro/libnds/lib\libnds9.a(system.o)
                0x0201c5e4                systemMsgHandler
                0x0201c628                systemSleep
                0x0201c640                powerValueHandler
                0x0201c650                powerOn
                0x0201c67c                powerOff
                0x0201c6a4                ledBlink
                0x0201c6b8                getBatteryLevel
 .text          0x0201c6d8       0x4c d:/devkitPro/libnds/lib\libnds9.a(touch.o)
                0x0201c6d8                touchRead
                0x0201c700                touchReadXY
 .text          0x0201c724      0x238 d:/devkitPro/libnds/lib\libnds9.a(trig.o)
                0x0201c724                asinComp
                0x0201c748                sinLutLookup
                0x0201c784                sinLerp
                0x0201c7b8                cosLerp
                0x0201c7d0                tanLutLookup
                0x0201c808                tanLerp
                0x0201c8b8                asinLerp
                0x0201c920                acosLerp
                0x0201c938                atanComp
 .text          0x0201c95c     0x14b8 d:/devkitPro/libnds/lib\libnds9.a(videoGL.o)
                0x0201c95c                glGetGlobals
                0x0201c964                glRotatef32i
                0x0201cc40                glMaterialf
                0x0201ccb0                glTexCoord2f32
                0x0201cd24                vramBlock_init
                0x0201cd90                vramBlock_Construct
                0x0201cdb8                vramBlock_terminate
                0x0201cde4                vramBlock_Deconstruct
                0x0201cdf8                vramBlock__allocateBlock
                0x0201cf58                vramBlock__deallocateBlock
                0x0201d070                vramBlock_examineSpecial
                0x0201d2ac                vramBlock_allocateSpecial
                0x0201d318                vramBlock_allocateBlock
                0x0201d350                vramBlock_deallocateBlock
                0x0201d394                vramBlock_deallocateAll
                0x0201d3a4                vramBlock_getAddr
                0x0201d3b8                vramBlock_getSize
                0x0201d3cc                glInit_C
                0x0201d56c                glResetTextures
                0x0201d5f4                removePaletteFromTexture
                0x0201d664                glGenTextures
                0x0201d700                glDeleteTextures
                0x0201d7d8                vramGetBank
                0x0201d898                glBindTexture
                0x0201d8fc                glColorTableEXT
                0x0201da64                glAssignColorTable
                0x0201dad8                glTexParameter
                0x0201db10                glGetTexturePointer
                0x0201db30                glGetTexParameter
                0x0201db50                glTexImage2D
 .text          0x0201de14      0x14c d:/devkitPro/libnds/lib\libnds9.a(initSystem.o)
                0x0201de14                initSystem
 .text          0x0201df60      0xc98 d:/devkitPro/libnds/lib\libnds9.a(fifosystem.o)
                0x0201e1d0                fifoSendAddress
                0x0201e1fc                fifoSendValue32
                0x0201e23c                fifoSendDatamsg
                0x0201e2b4                fifoGetAddress
                0x0201e324                fifoSetAddressHandler
                0x0201e398                fifoGetValue32
                0x0201e404                fifoSetValue32Handler
                0x0201e478                fifoGetDatamsg
                0x0201e908                fifoSetDatamsgHandler
                0x0201e9a0                fifoCheckAddress
                0x0201e9c4                fifoCheckDatamsg
                0x0201e9e8                fifoCheckValue32
                0x0201ea0c                fifoInit
 .text          0x0201ebf8      0x1cc d:/devkitPro/libnds/lib\libnds9.a(interrupts.o)
                0x0201ebf8                irqDummy
                0x0201ebfc                irqSet
                0x0201ec68                irqInit
                0x0201ecb4                irqInitHandler
                0x0201ece4                irqEnable
                0x0201ed44                irqDisable
                0x0201ed98                irqClear
 .text          0x0201edc4       0x40 d:/devkitPro/libnds/lib\libnds9.a(libnds_exit.o)
                0x0201edc4                systemErrorExit
                0x0201edc8                __libnds_exit
 .text          0x0201ee04      0x1b4 d:/devkitPro/libnds/lib\libnds9.a(mpu_setup.o)
                0x0201ee04                __libnds_mpu_setup
                0x0201ef44                memCached
                0x0201ef5c                memUncached
 *fill*         0x0201efb8        0x8 ff
 .text          0x0201efc0       0x70 d:/devkitPro/libnds/lib\libnds9.a(biosCalls.o)
                0x0201efc0                swiDelay
                0x0201efc4                swiIntrWait
                0x0201efc8                swiWaitForVBlank
                0x0201efcc                swiSleep
                0x0201efd0                swiChangeSoundBias
                0x0201efd4                swiDivide
                0x0201efd8                swiRemainder
                0x0201efde                swiDivMod
                0x0201efea                swiCopy
                0x0201efee                swiFastCopy
                0x0201eff2                swiSqrt
                0x0201eff6                swiCRC16
                0x0201effa                swiIsDebugger
                0x0201effe                swiUnpackBits
                0x0201f002                swiDecompressLZSSWram
                0x0201f006                swiDecompressLZSSVramNTR
                0x0201f00a                swiDecompressLZSSVramTWL
                0x0201f00e                swiDecompressHuffman
                0x0201f012                swiDecompressRLEWram
                0x0201f016                swiDecompressRLEVram
                0x0201f01a                swiWaitForIRQ
                0x0201f01e                swiDecodeDelta8
                0x0201f022                swiDecodeDelta16
                0x0201f026                swiSetHaltCR
 .text          0x0201f030       0xa4 d:/devkitPro/libnds/lib\libnds9.a(debugprint.o)
                0x0201f030                nocashWrite
                0x0201f032                nocashMessage
 .text          0x0201f0d4        0x0 d:/devkitPro/libnds/lib\libnds9.a(interruptDispatcher.o)
 *fill*         0x0201f0d4        0xc ff
 .text          0x0201f0e0       0x30 d:/devkitPro/libnds/lib\libnds9.a(swiSoftReset.o)
                0x0201f0e0                swiSoftReset
 .text          0x0201f110        0x0 d:/devkitPro/libnds/lib\libnds9.a(default_font.bin.o)
 .text          0x0201f110      0x318 d:/devkitPro/libnds/lib\libnds9.a(background.o)
                0x0201f110                bgIsText
                0x0201f11c                checkIfText
                0x0201f17c                bgUpdate
                0x0201f29c                bgInit_call
                0x0201f360                bgInitSub_call
 .text          0x0201f428      0x148 d:/devkitPro/libnds/lib\libnds9.a(video.o)
                0x0201f428                vramSetPrimaryBanks
                0x0201f46c                vramSetMainBanks
                0x0201f4b0                vramSetBanks_EFG
                0x0201f4e8                vramRestorePrimaryBanks
                0x0201f4f4                vramRestoreMainBanks
                0x0201f500                vramRestoreBanks_EFG
                0x0201f50c                setBrightness
                0x0201f54c                vramDefault
 .text          0x0201f570      0x104 d:/devkitpro/devkitarm/bin/../lib/gcc/arm-eabi/4.5.1/../../../../arm-eabi/lib\libm.a(lib_a-s_cos.o)
                0x0201f570                cos
 .text          0x0201f674      0x110 d:/devkitpro/devkitarm/bin/../lib/gcc/arm-eabi/4.5.1/../../../../arm-eabi/lib\libm.a(lib_a-s_sin.o)
                0x0201f674                sin
 .text          0x0201f784      0x520 d:/devkitpro/devkitarm/bin/../lib/gcc/arm-eabi/4.5.1/../../../../arm-eabi/lib\libm.a(lib_a-w_pow.o)
                0x0201f784                pow
 *fill*         0x0201fca4        0x4 ff
 .text          0x0201fca8      0xff8 d:/devkitpro/devkitarm/bin/../lib/gcc/arm-eabi/4.5.1/../../../../arm-eabi/lib\libm.a(lib_a-e_pow.o)
                0x0201fca8                __ieee754_pow
 .text          0x02020ca0      0x678 d:/devkitpro/devkitarm/bin/../lib/gcc/arm-eabi/4.5.1/../../../../arm-eabi/lib\libm.a(lib_a-e_rem_pio2.o)
                0x02020ca0                __ieee754_rem_pio2
 .text          0x02021318      0x238 d:/devkitpro/devkitarm/bin/../lib/gcc/arm-eabi/4.5.1/../../../../arm-eabi/lib\libm.a(lib_a-e_sqrt.o)
                0x02021318                __ieee754_sqrt
 .text          0x02021550      0x358 d:/devkitpro/devkitarm/bin/../lib/gcc/arm-eabi/4.5.1/../../../../arm-eabi/lib\libm.a(lib_a-k_cos.o)
                0x02021550                __kernel_cos
 .text          0x020218a8      0xb08 d:/devkitpro/devkitarm/bin/../lib/gcc/arm-eabi/4.5.1/../../../../arm-eabi/lib\libm.a(lib_a-k_rem_pio2.o)
                0x020218a8                __kernel_rem_pio2
 .text          0x020223b0      0x218 d:/devkitpro/devkitarm/bin/../lib/gcc/arm-eabi/4.5.1/../../../../arm-eabi/lib\libm.a(lib_a-k_sin.o)
                0x020223b0                __kernel_sin
 .text          0x020225c8       0x14 d:/devkitpro/devkitarm/bin/../lib/gcc/arm-eabi/4.5.1/../../../../arm-eabi/lib\libm.a(lib_a-s_fabs.o)
                0x020225c8                fabs
 .text          0x020225dc       0x14 d:/devkitpro/devkitarm/bin/../lib/gcc/arm-eabi/4.5.1/../../../../arm-eabi/lib\libm.a(lib_a-s_finite.o)
                0x020225dc                finite
 .text          0x020225f0      0x198 d:/devkitpro/devkitarm/bin/../lib/gcc/arm-eabi/4.5.1/../../../../arm-eabi/lib\libm.a(lib_a-s_floor.o)
                0x020225f0                floor
 .text          0x02022788       0x8c d:/devkitpro/devkitarm/bin/../lib/gcc/arm-eabi/4.5.1/../../../../arm-eabi/lib\libm.a(lib_a-s_fpclassify.o)
                0x02022788                __fpclassifyd
 .text          0x02022814        0x0 d:/devkitpro/devkitarm/bin/../lib/gcc/arm-eabi/4.5.1/../../../../arm-eabi/lib\libm.a(lib_a-s_lib_ver.o)
 .text          0x02022814        0x8 d:/devkitpro/devkitarm/bin/../lib/gcc/arm-eabi/4.5.1/../../../../arm-eabi/lib\libm.a(lib_a-s_matherr.o)
                0x02022814                matherr
 .text          0x0202281c       0x10 d:/devkitpro/devkitarm/bin/../lib/gcc/arm-eabi/4.5.1/../../../../arm-eabi/lib\libm.a(lib_a-s_nan.o)
                0x0202281c                nan
 .text          0x0202282c      0x19c d:/devkitpro/devkitarm/bin/../lib/gcc/arm-eabi/4.5.1/../../../../arm-eabi/lib\libm.a(lib_a-s_rint.o)
                0x0202282c                rint
 .text          0x020229c8      0x1a8 d:/devkitpro/devkitarm/bin/../lib/gcc/arm-eabi/4.5.1/../../../../arm-eabi/lib\libm.a(lib_a-s_scalbn.o)
                0x020229c8                scalbn
 .text          0x02022b70       0x24 d:/devkitpro/devkitarm/bin/../lib/gcc/arm-eabi/4.5.1/../../../../arm-eabi/lib\libm.a(lib_a-s_copysign.o)
                0x02022b70                copysign
 .text          0x02022b94      0x114 d:/devkitpro/devkitarm/bin/../lib/gcc/arm-eabi/4.5.1\libgcc.a(_udivsi3.o)
                0x02022b94                __aeabi_uidiv
                0x02022b94                __udivsi3
                0x02022c88                __aeabi_uidivmod
 .text          0x02022ca8      0x148 d:/devkitpro/devkitarm/bin/../lib/gcc/arm-eabi/4.5.1\libgcc.a(_divsi3.o)
                0x02022ca8                __divsi3
                0x02022ca8                __aeabi_idiv
                0x02022dd0                __aeabi_idivmod
 .text          0x02022df0        0x4 d:/devkitpro/devkitarm/bin/../lib/gcc/arm-eabi/4.5.1\libgcc.a(_dvmd_tls.o)
                0x02022df0                __aeabi_idiv0
                0x02022df0                __aeabi_ldiv0
 .text          0x02022df4      0x41c d:/devkitpro/devkitarm/bin/../lib/gcc/arm-eabi/4.5.1\libgcc.a(_arm_addsubdf3.o)
                0x02022df4                __aeabi_drsub
                0x02022dfc                __aeabi_dsub
                0x02022dfc                __subdf3
                0x02022e00                __aeabi_dadd
                0x02022e00                __adddf3
                0x02023110                __floatunsidf
                0x02023110                __aeabi_ui2d
                0x02023134                __floatsidf
                0x02023134                __aeabi_i2d
                0x0202315c                __aeabi_f2d
                0x0202315c                __extendsfdf2
                0x0202319c                __floatundidf
                0x0202319c                __aeabi_ul2d
                0x020231b0                __floatdidf
                0x020231b0                __aeabi_l2d
 .text          0x02023210      0x49c d:/devkitpro/devkitarm/bin/../lib/gcc/arm-eabi/4.5.1\libgcc.a(_arm_muldivdf3.o)
                0x02023210                __aeabi_dmul
                0x02023210                __muldf3
                0x020234a0                __divdf3
                0x020234a0                __aeabi_ddiv
 .text          0x020236ac      0x144 d:/devkitpro/devkitarm/bin/../lib/gcc/arm-eabi/4.5.1\libgcc.a(_arm_cmpdf2.o)
                0x020236ac                __gtdf2
                0x020236ac                __gedf2
                0x020236b4                __ltdf2
                0x020236b4                __ledf2
                0x020236bc                __nedf2
                0x020236bc                __eqdf2
                0x020236bc                __cmpdf2
                0x02023744                __aeabi_cdrcmple
                0x02023760                __aeabi_cdcmpeq
                0x02023760                __aeabi_cdcmple
                0x02023778                __aeabi_dcmpeq
                0x02023790                __aeabi_dcmplt
                0x020237a8                __aeabi_dcmple
                0x020237c0                __aeabi_dcmpge
                0x020237d8                __aeabi_dcmpgt
 .text          0x020237f0       0x5c d:/devkitpro/devkitarm/bin/../lib/gcc/arm-eabi/4.5.1\libgcc.a(_arm_fixdfsi.o)
                0x020237f0                __aeabi_d2iz
                0x020237f0                __fixdfsi
 .text          0x0202384c       0x54 d:/devkitpro/devkitarm/bin/../lib/gcc/arm-eabi/4.5.1\libgcc.a(_arm_fixunsdfsi.o)
                0x0202384c                __aeabi_d2uiz
                0x0202384c                __fixunsdfsi
 .text          0x020238a0       0xa0 d:/devkitpro/devkitarm/bin/../lib/gcc/arm-eabi/4.5.1\libgcc.a(_arm_truncdfsf2.o)
                0x020238a0                __truncdfsf2
                0x020238a0                __aeabi_d2f
 .text          0x02023940      0x2ac d:/devkitpro/devkitarm/bin/../lib/gcc/arm-eabi/4.5.1\libgcc.a(_arm_addsubsf3.o)
                0x02023940                __aeabi_frsub
                0x02023948                __subsf3
                0x02023948                __aeabi_fsub
                0x0202394c                __aeabi_fadd
                0x0202394c                __addsf3
                0x02023b08                __aeabi_ui2f
                0x02023b08                __floatunsisf
                0x02023b10                __aeabi_i2f
                0x02023b10                __floatsisf
                0x02023b30                __aeabi_ul2f
                0x02023b30                __floatundisf
                0x02023b40                __aeabi_l2f
                0x02023b40                __floatdisf
 .text          0x02023bec      0x2f8 d:/devkitpro/devkitarm/bin/../lib/gcc/arm-eabi/4.5.1\libgcc.a(_arm_muldivsf3.o)
                0x02023bec                __mulsf3
                0x02023bec                __aeabi_fmul
                0x02023d84                __aeabi_fdiv
                0x02023d84                __divsf3
 .text          0x02023ee4      0x114 d:/devkitpro/devkitarm/bin/../lib/gcc/arm-eabi/4.5.1\libgcc.a(_arm_cmpsf2.o)
                0x02023ee4                __gesf2
                0x02023ee4                __gtsf2
                0x02023eec                __lesf2
                0x02023eec                __ltsf2
                0x02023ef4                __nesf2
                0x02023ef4                __eqsf2
                0x02023ef4                __cmpsf2
                0x02023f58                __aeabi_cfrcmple
                0x02023f68                __aeabi_cfcmpeq
                0x02023f68                __aeabi_cfcmple
                0x02023f80                __aeabi_fcmpeq
                0x02023f98                __aeabi_fcmplt
                0x02023fb0                __aeabi_fcmple
                0x02023fc8                __aeabi_fcmpge
                0x02023fe0                __aeabi_fcmpgt
 .text          0x02023ff8       0x5c d:/devkitpro/devkitarm/bin/../lib/gcc/arm-eabi/4.5.1\libgcc.a(_arm_fixsfsi.o)
                0x02023ff8                __aeabi_f2iz
                0x02023ff8                __fixsfsi
 .text          0x02024054       0x54 d:/devkitpro/devkitarm/bin/../lib/gcc/arm-eabi/4.5.1\libgcc.a(_arm_fixunssfsi.o)
                0x02024054                __fixunssfsi
                0x02024054                __aeabi_f2uiz
 .text          0x020240a8       0x48 d:/devkitpro/devkitarm/bin/../lib/gcc/arm-eabi/4.5.1\libgcc.a(_muldi3.o)
                0x020240a8                __muldi3
                0x020240a8                __aeabi_lmul
 .text          0x020240f0       0x14 d:/devkitpro/devkitarm/bin/../lib/gcc/arm-eabi/4.5.1/../../../../arm-eabi/lib\libg.a(lib_a-abort.o)
                0x020240f0                abort
 .text          0x02024104       0x7c d:/devkitpro/devkitarm/bin/../lib/gcc/arm-eabi/4.5.1/../../../../arm-eabi/lib\libg.a(lib_a-bsearch.o)
                0x02024104                bsearch
 .text          0x02024180       0x28 d:/devkitpro/devkitarm/bin/../lib/gcc/arm-eabi/4.5.1/../../../../arm-eabi/lib\libg.a(lib_a-calloc.o)
                0x02024180                calloc
 .text          0x020241a8       0x9c d:/devkitpro/devkitarm/bin/../lib/gcc/arm-eabi/4.5.1/../../../../arm-eabi/lib\libg.a(lib_a-callocr.o)
                0x020241a8                _calloc_r
 .text          0x02024244       0x10 d:/devkitpro/devkitarm/bin/../lib/gcc/arm-eabi/4.5.1/../../../../arm-eabi/lib\libg.a(lib_a-errno.o)
                0x02024244                __errno
 .text          0x02024254      0x10c d:/devkitpro/devkitarm/bin/../lib/gcc/arm-eabi/4.5.1/../../../../arm-eabi/lib\libg.a(lib_a-fclose.o)
                0x02024254                _fclose_r
                0x0202434c                fclose
 .text          0x02024360      0x298 d:/devkitpro/devkitarm/bin/../lib/gcc/arm-eabi/4.5.1/../../../../arm-eabi/lib\libg.a(lib_a-fflush.o)
                0x02024360                _fflush_r
                0x020245b8                fflush
 .text          0x020245f8      0x334 d:/devkitpro/devkitarm/bin/../lib/gcc/arm-eabi/4.5.1/../../../../arm-eabi/lib\libg.a(lib_a-findfp.o)
                0x02024608                _cleanup_r
                0x02024620                __sfmoreglue
                0x02024668                _cleanup
                0x02024678                __sinit
                0x020247e0                __sfp
                0x020248d4                __sfp_lock_acquire
                0x020248d8                __sfp_lock_release
                0x020248dc                __sinit_lock_acquire
                0x020248e0                __sinit_lock_release
                0x020248e4                __fp_lock_all
                0x02024908                __fp_unlock_all
 .text          0x0202492c       0x70 d:/devkitpro/devkitarm/bin/../lib/gcc/arm-eabi/4.5.1/../../../../arm-eabi/lib\libg.a(lib_a-fprintf.o)
                0x0202492c                _fprintf_r
                0x0202495c                fprintf
 .text          0x0202499c      0x270 d:/devkitpro/devkitarm/bin/../lib/gcc/arm-eabi/4.5.1/../../../../arm-eabi/lib\libg.a(lib_a-fread.o)
                0x0202499c                _fread_r
                0x02024bc8                fread
 .text          0x02024c0c      0x360 d:/devkitpro/devkitarm/bin/../lib/gcc/arm-eabi/4.5.1/../../../../arm-eabi/lib\libg.a(lib_a-freer.o)
                0x02024c0c                _malloc_trim_r
                0x02024d08                _free_r
 .text          0x02024f6c      0x10c d:/devkitpro/devkitarm/bin/../lib/gcc/arm-eabi/4.5.1/../../../../arm-eabi/lib\libg.a(lib_a-fwalk.o)
                0x02024f6c                _fwalk
                0x02024ff0                _fwalk_reent
 .text          0x02025078        0x0 d:/devkitpro/devkitarm/bin/../lib/gcc/arm-eabi/4.5.1/../../../../arm-eabi/lib\libg.a(lib_a-impure.o)
 .text          0x02025078       0xc4 d:/devkitpro/devkitarm/bin/../lib/gcc/arm-eabi/4.5.1/../../../../arm-eabi/lib\libg.a(lib_a-init.o)
                0x02025078                __libc_init_array
                0x020250f8                __libc_fini_array
 .text          0x0202513c       0x74 d:/devkitpro/devkitarm/bin/../lib/gcc/arm-eabi/4.5.1/../../../../arm-eabi/lib\libg.a(lib_a-iprintf.o)
                0x0202513c                iprintf
                0x0202517c                _iprintf_r
 .text          0x020251b0       0x40 d:/devkitpro/devkitarm/bin/../lib/gcc/arm-eabi/4.5.1/../../../../arm-eabi/lib\libg.a(lib_a-malloc.o)
                0x020251b0                malloc
                0x020251d0                free
 .text          0x020251f0      0x710 d:/devkitpro/devkitarm/bin/../lib/gcc/arm-eabi/4.5.1/../../../../arm-eabi/lib\libg.a(lib_a-mallocr.o)
                0x020251f0                _malloc_r
 .text          0x02025900       0xa8 d:/devkitpro/devkitarm/bin/../lib/gcc/arm-eabi/4.5.1/../../../../arm-eabi/lib\libg.a(lib_a-memcmp.o)
                0x02025900                memcmp
 .text          0x020259a8       0xf8 d:/devkitpro/devkitarm/bin/../lib/gcc/arm-eabi/4.5.1/../../../../arm-eabi/lib\libg.a(lib_a-memcpy.o)
                0x020259a8                memcpy
 .text          0x02025aa0      0x138 d:/devkitpro/devkitarm/bin/../lib/gcc/arm-eabi/4.5.1/../../../../arm-eabi/lib\libg.a(lib_a-memmove.o)
                0x02025aa0                memmove
 .text          0x02025bd8      0x100 d:/devkitpro/devkitarm/bin/../lib/gcc/arm-eabi/4.5.1/../../../../arm-eabi/lib\libg.a(lib_a-memset.o)
                0x02025bd8                memset
 .text          0x02025cd8        0x8 d:/devkitpro/devkitarm/bin/../lib/gcc/arm-eabi/4.5.1/../../../../arm-eabi/lib\libg.a(lib_a-mlock.o)
                0x02025cd8                __malloc_lock
                0x02025cdc                __malloc_unlock
 .text          0x02025ce0       0x78 d:/devkitpro/devkitarm/bin/../lib/gcc/arm-eabi/4.5.1/../../../../arm-eabi/lib\libg.a(lib_a-rand.o)
                0x02025ce0                srand
                0x02025cfc                rand
 .text          0x02025d58       0x28 d:/devkitpro/devkitarm/bin/../lib/gcc/arm-eabi/4.5.1/../../../../arm-eabi/lib\libg.a(lib_a-realloc.o)
                0x02025d58                realloc
 .text          0x02025d80      0x5c0 d:/devkitpro/devkitarm/bin/../lib/gcc/arm-eabi/4.5.1/../../../../arm-eabi/lib\libg.a(lib_a-reallocr.o)
                0x02025d80                _realloc_r
 .text          0x02026340      0x1d0 d:/devkitpro/devkitarm/bin/../lib/gcc/arm-eabi/4.5.1/../../../../arm-eabi/lib\libg.a(lib_a-refill.o)
                0x02026368                __srefill_r
 .text          0x02026510       0x2c d:/devkitpro/devkitarm/bin/../lib/gcc/arm-eabi/4.5.1/../../../../arm-eabi/lib\libg.a(lib_a-setjmp.o)
                0x02026510                setjmp
                0x02026524                longjmp
 .text          0x0202653c      0x178 d:/devkitpro/devkitarm/bin/../lib/gcc/arm-eabi/4.5.1/../../../../arm-eabi/lib\libg.a(lib_a-setvbuf.o)
                0x0202653c                setvbuf
 .text          0x020266b4      0x238 d:/devkitpro/devkitarm/bin/../lib/gcc/arm-eabi/4.5.1/../../../../arm-eabi/lib\libg.a(lib_a-signal.o)
                0x020266b4                _init_signal_r
                0x02026708                _signal_r
                0x02026770                _raise_r
                0x02026804                __sigtramp_r
                0x02026898                raise
                0x020268ac                signal
                0x020268c8                _init_signal
                0x020268d8                __sigtramp
 .text          0x020268ec      0x100 d:/devkitpro/devkitarm/bin/../lib/gcc/arm-eabi/4.5.1/../../../../arm-eabi/lib\libg.a(lib_a-siscanf.o)
                0x020268ec                siscanf
                0x0202696c                _siscanf_r
 .text          0x020269ec      0x130 d:/devkitpro/devkitarm/bin/../lib/gcc/arm-eabi/4.5.1/../../../../arm-eabi/lib\libg.a(lib_a-snprintf.o)
                0x020269ec                _snprintf_r
                0x02026a80                snprintf
 .text          0x02026b1c       0xdc d:/devkitpro/devkitarm/bin/../lib/gcc/arm-eabi/4.5.1/../../../../arm-eabi/lib\libg.a(lib_a-sprintf.o)
                0x02026b1c                _sprintf_r
                0x02026b84                sprintf
 .text          0x02026bf8       0xe0 d:/devkitpro/devkitarm/bin/../lib/gcc/arm-eabi/4.5.1/../../../../arm-eabi/lib\libg.a(lib_a-stdio.o)
                0x02026bf8                __sread
                0x02026c2c                __seofread
                0x02026c34                __swrite
                0x02026c8c                __sseek
                0x02026cc4                __sclose
 .text          0x02026cd8      0x230 d:/devkitpro/devkitarm/bin/../lib/gcc/arm-eabi/4.5.1/../../../../arm-eabi/lib\libg.a(lib_a-strcmp.o)
                0x02026cd8                strcmp
 .text          0x02026f08       0x60 d:/devkitpro/devkitarm/bin/../lib/gcc/arm-eabi/4.5.1/../../../../arm-eabi/lib\libg.a(lib_a-strlen.o)
                0x02026f08                strlen
 .text          0x02026f68     0x16a0 d:/devkitpro/devkitarm/bin/../lib/gcc/arm-eabi/4.5.1/../../../../arm-eabi/lib\libg.a(lib_a-strtod.o)
                0x02026fb0                _strtod_r
                0x0202859c                strtod
                0x020285b8                strtof
 .text          0x02028608     0x12f0 d:/devkitpro/devkitarm/bin/../lib/gcc/arm-eabi/4.5.1/../../../../arm-eabi/lib\libg.a(lib_a-svfiscanf.o)
                0x02028608                _sungetc_r
                0x02028708                __ssrefill_r
                0x02028774                _sfread_r
                0x02028834                __ssvfiscanf_r
 .text          0x020298f8     0x233c d:/devkitpro/devkitarm/bin/../lib/gcc/arm-eabi/4.5.1/../../../../arm-eabi/lib\libg.a(lib_a-svfprintf.o)
                0x020298f8                _svfprintf_r
 .text          0x0202bc34      0x24c d:/devkitpro/devkitarm/bin/../lib/gcc/arm-eabi/4.5.1/../../../../arm-eabi/lib\libg.a(lib_a-ungetc.o)
                0x0202bc34                __submore
                0x0202bce0                _ungetc_r
                0x0202be64                ungetc
 .text          0x0202be80     0x16dc d:/devkitpro/devkitarm/bin/../lib/gcc/arm-eabi/4.5.1/../../../../arm-eabi/lib\libg.a(lib_a-vfiprintf.o)
                0x0202be80                __sprint_r
                0x0202bf40                _vfiprintf_r
                0x0202d530                vfiprintf
 .text          0x0202d55c     0x2588 d:/devkitpro/devkitarm/bin/../lib/gcc/arm-eabi/4.5.1/../../../../arm-eabi/lib\libg.a(lib_a-vfprintf.o)
                0x0202d55c                _vfprintf_r
                0x0202fab8                vfprintf
 .text          0x0202fae4      0x14c d:/devkitpro/devkitarm/bin/../lib/gcc/arm-eabi/4.5.1/../../../../arm-eabi/lib\libg.a(lib_a-wcrtomb.o)
                0x0202fae4                _wcrtomb_r
                0x0202fb80                wcrtomb
 .text          0x0202fc30       0x68 d:/devkitpro/devkitarm/bin/../lib/gcc/arm-eabi/4.5.1/../../../../arm-eabi/lib\libg.a(lib_a-wcsrtombs.o)
                0x0202fc30                _wcsrtombs_r
                0x0202fc58                wcsrtombs
 .text          0x0202fc98      0x3a8 d:/devkitpro/devkitarm/bin/../lib/gcc/arm-eabi/4.5.1/../../../../arm-eabi/lib\libg.a(lib_a-wctomb_r.o)
                0x0202fc98                __utf8_wctomb
                0x0202fdb4                _wctomb_r
                0x0202fe04                __ascii_wctomb
                0x0202fe30                __sjis_wctomb
                0x0202feb0                __eucjp_wctomb
                0x0202ff68                __jis_wctomb
 .text          0x02030040      0x134 d:/devkitpro/devkitarm/bin/../lib/gcc/arm-eabi/4.5.1/../../../../arm-eabi/lib\libg.a(lib_a-wsetup.o)
                0x02030040                __swsetup_r
 .text          0x02030174       0x18 d:/devkitpro/devkitarm/bin/../lib/gcc/arm-eabi/4.5.1/../../../../arm-eabi/lib\libg.a(lib_a-ctype_.o)
                0x02030174                __set_ctype
 *fill*         0x0203018c        0x4 ff
 .text          0x02030190     0x1810 d:/devkitpro/devkitarm/bin/../lib/gcc/arm-eabi/4.5.1/../../../../arm-eabi/lib\libg.a(lib_a-dtoa.o)
                0x02030360                _dtoa_r
 .text          0x020319a0      0x1c0 d:/devkitpro/devkitarm/bin/../lib/gcc/arm-eabi/4.5.1/../../../../arm-eabi/lib\libg.a(lib_a-fputwc.o)
                0x020319a0                _fputwc_r
                0x02031b14                fputwc
 .text          0x02031b60      0x4ac d:/devkitpro/devkitarm/bin/../lib/gcc/arm-eabi/4.5.1/../../../../arm-eabi/lib\libg.a(lib_a-fvwrite.o)
                0x02031b60                __sfvwrite_r
 .text          0x0203200c      0x9b4 d:/devkitpro/devkitarm/bin/../lib/gcc/arm-eabi/4.5.1/../../../../arm-eabi/lib\libg.a(lib_a-gdtoa-gethex.o)
                0x020320e8                __hexdig_init
                0x0203216c                __gethex
 .text          0x020329c0      0x2bc d:/devkitpro/devkitarm/bin/../lib/gcc/arm-eabi/4.5.1/../../../../arm-eabi/lib\libg.a(lib_a-gdtoa-hexnan.o)
                0x020329c0                __hexnan
 .text          0x02032c7c       0x80 d:/devkitpro/devkitarm/bin/../lib/gcc/arm-eabi/4.5.1/../../../../arm-eabi/lib\libg.a(lib_a-iswspace.o)
                0x02032c7c                iswspace
 .text          0x02032cfc      0x2b0 d:/devkitpro/devkitarm/bin/../lib/gcc/arm-eabi/4.5.1/../../../../arm-eabi/lib\libg.a(lib_a-jp2uc.o)
                0x02032f20                _jp2uc
 .text          0x02032fac      0xbb0 d:/devkitpro/devkitarm/bin/../lib/gcc/arm-eabi/4.5.1/../../../../arm-eabi/lib\libg.a(lib_a-locale.o)
                0x020337c4                _setlocale_r
                0x02033b00                __locale_charset
                0x02033b0c                __locale_msgcharset
                0x02033b18                __locale_cjk_lang
                0x02033b28                _localeconv_r
                0x02033b34                setlocale
                0x02033b50                localeconv
 .text          0x02033b5c      0x164 d:/devkitpro/devkitarm/bin/../lib/gcc/arm-eabi/4.5.1/../../../../arm-eabi/lib\libg.a(lib_a-makebuf.o)
                0x02033b5c                __smakebuf_r
 .text          0x02033cc0      0x164 d:/devkitpro/devkitarm/bin/../lib/gcc/arm-eabi/4.5.1/../../../../arm-eabi/lib\libg.a(lib_a-mbrtowc.o)
                0x02033cc0                _mbrtowc_r
                0x02033d6c                mbrtowc
 .text          0x02033e24      0x720 d:/devkitpro/devkitarm/bin/../lib/gcc/arm-eabi/4.5.1/../../../../arm-eabi/lib\libg.a(lib_a-mbtowc_r.o)
                0x02033e24                __utf8_mbtowc
                0x02034128                _mbtowc_r
                0x0203417c                __ascii_mbtowc
                0x020341c0                __sjis_mbtowc
                0x02034294                __eucjp_mbtowc
                0x020343c0                __jis_mbtowc
 .text          0x02034544      0x108 d:/devkitpro/devkitarm/bin/../lib/gcc/arm-eabi/4.5.1/../../../../arm-eabi/lib\libg.a(lib_a-memchr.o)
                0x02034544                memchr
 .text          0x0203464c      0xd3c d:/devkitpro/devkitarm/bin/../lib/gcc/arm-eabi/4.5.1/../../../../arm-eabi/lib\libg.a(lib_a-mprec.o)
                0x0203464c                _Balloc
                0x020346d4                _Bfree
                0x020346f0                __multadd
                0x020347cc                __s2b
                0x020348bc                __hi0bits
                0x0203490c                __lo0bits
                0x0203499c                __i2b
                0x020349c0                __multiply
                0x02034bb0                __pow5mult
                0x02034ca8                __lshift
                0x02034dac                __mcmp
                0x02034e0c                __mdiff
                0x02034f64                __ulp
                0x02034fc4                __b2d
                0x0203508c                __d2b
                0x02035198                __ratio
                0x02035238                _mprec_log10
                0x0203528c                __copybits
                0x02035300                __any_on
 .text          0x02035388       0xc8 d:/devkitpro/devkitarm/bin/../lib/gcc/arm-eabi/4.5.1/../../../../arm-eabi/lib\libg.a(lib_a-sccl.o)
                0x02035388                __sccl
 .text          0x02035450        0xc d:/devkitpro/devkitarm/bin/../lib/gcc/arm-eabi/4.5.1/../../../../arm-eabi/lib\libg.a(lib_a-sf_nan.o)
                0x02035450                nanf
 .text          0x0203545c       0x64 d:/devkitpro/devkitarm/bin/../lib/gcc/arm-eabi/4.5.1/../../../../arm-eabi/lib\libg.a(lib_a-strcasecmp.o)
                0x0203545c                strcasecmp
 .text          0x020354c0       0xb0 d:/devkitpro/devkitarm/bin/../lib/gcc/arm-eabi/4.5.1/../../../../arm-eabi/lib\libg.a(lib_a-strcat.o)
                0x020354c0                strcat
 .text          0x02035570      0x23c d:/devkitpro/devkitarm/bin/../lib/gcc/arm-eabi/4.5.1/../../../../arm-eabi/lib\libg.a(lib_a-strchr.o)
                0x02035570                strchr
 .text          0x020357ac       0xf0 d:/devkitpro/devkitarm/bin/../lib/gcc/arm-eabi/4.5.1/../../../../arm-eabi/lib\libg.a(lib_a-strcpy.o)
                0x020357ac                strcpy
 .text          0x0203589c       0x7c d:/devkitpro/devkitarm/bin/../lib/gcc/arm-eabi/4.5.1/../../../../arm-eabi/lib\libg.a(lib_a-strlcpy.o)
                0x0203589c                strlcpy
 .text          0x02035918       0x7c d:/devkitpro/devkitarm/bin/../lib/gcc/arm-eabi/4.5.1/../../../../arm-eabi/lib\libg.a(lib_a-strncasecmp.o)
                0x02035918                strncasecmp
 .text          0x02035994      0x170 d:/devkitpro/devkitarm/bin/../lib/gcc/arm-eabi/4.5.1/../../../../arm-eabi/lib\libg.a(lib_a-strncmp.o)
                0x02035994                strncmp
 .text          0x02035b04       0xec d:/devkitpro/devkitarm/bin/../lib/gcc/arm-eabi/4.5.1/../../../../arm-eabi/lib\libg.a(lib_a-strncpy.o)
                0x02035b04                strncpy
 .text          0x02035bf0      0x1f4 d:/devkitpro/devkitarm/bin/../lib/gcc/arm-eabi/4.5.1/../../../../arm-eabi/lib\libg.a(lib_a-strtol.o)
                0x02035bf0                _strtol_r
                0x02035db8                strtol
 .text          0x02035de4      0x2b4 d:/devkitpro/devkitarm/bin/../lib/gcc/arm-eabi/4.5.1/../../../../arm-eabi/lib\libg.a(lib_a-strtoll_r.o)
                0x02035de4                _strtoll_r
 .text          0x02036098      0x1f4 d:/devkitpro/devkitarm/bin/../lib/gcc/arm-eabi/4.5.1/../../../../arm-eabi/lib\libg.a(lib_a-strtoul.o)
                0x02036098                _strtoul_r
                0x02036260                strtoul
 *fill*         0x0203628c        0x4 ff
 .text          0x02036290      0x290 d:/devkitpro/devkitarm/bin/../lib/gcc/arm-eabi/4.5.1/../../../../arm-eabi/lib\libg.a(lib_a-strtoull_r.o)
                0x02036290                _strtoull_r
 .text          0x02036520     0x16b4 d:/devkitpro/devkitarm/bin/../lib/gcc/arm-eabi/4.5.1/../../../../arm-eabi/lib\libg.a(lib_a-svfiprintf.o)
                0x02036520                __ssprint_r
                0x020366b4                _svfiprintf_r
 .text          0x02037bd4      0x15c d:/devkitpro/devkitarm/bin/../lib/gcc/arm-eabi/4.5.1/../../../../arm-eabi/lib\libg.a(lib_a-wbuf.o)
                0x02037bd4                __swbuf_r
                0x02037d14                __swbuf
 .text          0x02037d30      0x1dc d:/devkitpro/devkitarm/bin/../lib/gcc/arm-eabi/4.5.1/../../../../arm-eabi/lib\libg.a(lib_a-wcsnrtombs.o)
                0x02037d30                _wcsnrtombs_r
                0x02037ec0                wcsnrtombs
 .text          0x02037f0c      0x100 d:/devkitpro/devkitarm/bin/../lib/gcc/arm-eabi/4.5.1/../../../../arm-eabi/lib\libg.a(lib_a-getenv_r.o)
                0x02037f0c                _findenv_r
                0x02037ff0                _getenv_r
 .text          0x0203800c        0x0 d:/devkitpro/devkitarm/bin/../lib/gcc/arm-eabi/4.5.1/../../../../arm-eabi/lib\libg.a(lib_a-environ.o)
 .text          0x0203800c        0x8 d:/devkitpro/devkitarm/bin/../lib/gcc/arm-eabi/4.5.1/../../../../arm-eabi/lib\libg.a(lib_a-envlock.o)
                0x0203800c                __env_lock
                0x02038010                __env_unlock
 .text          0x02038014      0x1b4 d:/devkitpro/devkitarm/bin/../lib/gcc/arm-eabi/4.5.1/../../../../arm-eabi/lib\libsysbase.a(iosupport.o)
                0x02038014                setDefaultDevice
                0x0203802c                FindDevice
                0x020380d8                RemoveDevice
                0x02038108                AddDevice
                0x020381a0                GetDeviceOpTab
 .text          0x020381c8       0x78 d:/devkitpro/devkitarm/bin/../lib/gcc/arm-eabi/4.5.1/../../../../arm-eabi/lib\libsysbase.a(close.o)
                0x020381c8                _close_r
 .text          0x02038240       0x88 d:/devkitpro/devkitarm/bin/../lib/gcc/arm-eabi/4.5.1/../../../../arm-eabi/lib\libsysbase.a(fstat.o)
                0x02038240                _fstat_r
 .text          0x020382c8       0x10 d:/devkitpro/devkitarm/bin/../lib/gcc/arm-eabi/4.5.1/../../../../arm-eabi/lib\libsysbase.a(getpid.o)
                0x020382c8                _getpid_r
 .text          0x020382d8        0x8 d:/devkitpro/devkitarm/bin/../lib/gcc/arm-eabi/4.5.1/../../../../arm-eabi/lib\libsysbase.a(isatty.o)
                0x020382d8                _isatty_r
 .text          0x020382e0       0x10 d:/devkitpro/devkitarm/bin/../lib/gcc/arm-eabi/4.5.1/../../../../arm-eabi/lib\libsysbase.a(kill.o)
                0x020382e0                _kill_r
 .text          0x020382f0       0x8c d:/devkitpro/devkitarm/bin/../lib/gcc/arm-eabi/4.5.1/../../../../arm-eabi/lib\libsysbase.a(lseek.o)
                0x020382f0                _lseek_r
 .text          0x0203837c       0x8c d:/devkitpro/devkitarm/bin/../lib/gcc/arm-eabi/4.5.1/../../../../arm-eabi/lib\libsysbase.a(read.o)
                0x0203837c                _read_r
 .text          0x02038408       0x78 d:/devkitpro/devkitarm/bin/../lib/gcc/arm-eabi/4.5.1/../../../../arm-eabi/lib\libsysbase.a(sbrk.o)
                0x02038408                _sbrk_r
 .text          0x02038480       0x68 d:/devkitpro/devkitarm/bin/../lib/gcc/arm-eabi/4.5.1/../../../../arm-eabi/lib\libsysbase.a(times.o)
                0x02038480                _times
                0x0203849c                _times_r
                0x020384a4                _gettimeofday_r
 .text          0x020384e8       0x8c d:/devkitpro/devkitarm/bin/../lib/gcc/arm-eabi/4.5.1/../../../../arm-eabi/lib\libsysbase.a(write.o)
                0x020384e8                _write_r
 .text          0x02038574       0x20 d:/devkitpro/devkitarm/bin/../lib/gcc/arm-eabi/4.5.1/../../../../arm-eabi/lib\libsysbase.a(_exit.o)
                0x02038574                _exit
 .text          0x02038594        0x0 d:/devkitpro/devkitarm/bin/../lib/gcc/arm-eabi/4.5.1/../../../../arm-eabi/lib\libsysbase.a(malloc_vars.o)
 .text          0x02038594       0x84 d:/devkitpro/devkitarm/bin/../lib/gcc/arm-eabi/4.5.1/../../../../arm-eabi/lib\libsysbase.a(build_argv.o)
                0x02038594                build_argv
 .text          0x02038618        0x0 d:/devkitpro/devkitarm/bin/../lib/gcc/arm-eabi/4.5.1/../../../../arm-eabi/lib\libsysbase.a(syscall_support.o)
 .text          0x02038618       0xac d:/devkitpro/devkitarm/bin/../lib/gcc/arm-eabi/4.5.1/../../../../arm-eabi/lib\libsysbase.a(handle_manager.o)
                0x02038618                __release_handle
                0x02038650                __alloc_handle
                0x020386a8                __get_handle
 .text          0x020386c4       0x3c d:/devkitpro/devkitarm/bin/../lib/gcc/arm-eabi/4.5.1\libgcc.a(_aeabi_uldivmod.o)
                0x020386c4                __aeabi_uldivmod
 .text          0x02038700       0x80 d:/devkitpro/devkitarm/bin/../lib/gcc/arm-eabi/4.5.1\libgcc.a(bpabi.o)
                0x02038700                __gnu_ldivmod_helper
                0x02038740                __gnu_uldivmod_helper
 .text          0x02038780      0xf3c d:/devkitpro/devkitarm/bin/../lib/gcc/arm-eabi/4.5.1\libgcc.a(unwind-arm.o)
                0x02038bb8                _Unwind_VRS_Get
                0x02038c2c                _Unwind_VRS_Set
                0x02039098                __aeabi_unwind_cpp_pr2
                0x020390a0                __aeabi_unwind_cpp_pr1
                0x020390a8                __aeabi_unwind_cpp_pr0
                0x020390b0                _Unwind_VRS_Pop
                0x0203944c                _Unwind_GetCFA
                0x02039454                __gnu_Unwind_RaiseException
                0x02039508                __gnu_Unwind_ForcedUnwind
                0x0203952c                __gnu_Unwind_Resume
                0x02039598                __gnu_Unwind_Resume_or_Rethrow
                0x020395b8                _Unwind_Complete
                0x020395bc                _Unwind_DeleteException
                0x020395e0                __gnu_Unwind_Backtrace
 .text          0x020396bc      0x1b0 d:/devkitpro/devkitarm/bin/../lib/gcc/arm-eabi/4.5.1\libgcc.a(libunwind.o)
                0x020396bc                __restore_core_regs
                0x020396bc                restore_core_regs
                0x020396d8                __gnu_Unwind_Restore_VFP
                0x020396e0                __gnu_Unwind_Save_VFP
                0x020396e8                __gnu_Unwind_Restore_VFP_D
                0x020396f0                __gnu_Unwind_Save_VFP_D
                0x020396f8                __gnu_Unwind_Restore_VFP_D_16_to_31
                0x02039700                __gnu_Unwind_Save_VFP_D_16_to_31
                0x02039708                __gnu_Unwind_Restore_WMMXD
                0x0203974c                __gnu_Unwind_Save_WMMXD
                0x02039790                __gnu_Unwind_Restore_WMMXC
                0x020397a4                __gnu_Unwind_Save_WMMXC
                0x020397b8                ___Unwind_RaiseException
                0x020397b8                _Unwind_RaiseException
                0x020397dc                _Unwind_Resume
                0x020397dc                ___Unwind_Resume
                0x02039800                _Unwind_Resume_or_Rethrow
                0x02039800                ___Unwind_Resume_or_Rethrow
                0x02039824                _Unwind_ForcedUnwind
                0x02039824                ___Unwind_ForcedUnwind
                0x02039848                ___Unwind_Backtrace
                0x02039848                _Unwind_Backtrace
 .text          0x0203986c      0x554 d:/devkitpro/devkitarm/bin/../lib/gcc/arm-eabi/4.5.1\libgcc.a(pr-support.o)
                0x0203990c                __gnu_unwind_execute
                0x02039d34                __gnu_unwind_frame
                0x02039d7c                _Unwind_GetRegionStart
                0x02039d90                _Unwind_GetLanguageSpecificData
                0x02039db0                _Unwind_GetDataRelBase
                0x02039db8                _Unwind_GetTextRelBase
 .text          0x02039dc0      0x4b8 d:/devkitpro/devkitarm/bin/../lib/gcc/arm-eabi/4.5.1\libgcc.a(_divdi3.o)
                0x02039dc0                __divdi3
 .text          0x0203a278      0x44c d:/devkitpro/devkitarm/bin/../lib/gcc/arm-eabi/4.5.1\libgcc.a(_udivdi3.o)
                0x0203a278                __udivdi3
 .text          0x0203a6c4       0x48 d:/devkitpro/devkitarm/bin/../lib/gcc/arm-eabi/4.5.1\libgcc.a(_clzsi2.o)
                0x0203a6c4                __clzsi2
 .text          0x0203a70c        0x0 d:/devkitpro/devkitarm/bin/../lib/gcc/arm-eabi/4.5.1/crtend.o
 .text          0x0203a70c        0x0 d:/devkitpro/devkitarm/bin/../lib/gcc/arm-eabi/4.5.1/crtn.o
 *fill*         0x0203a70c        0x4 ff
 .text.stub     0x0203a710        0x8 linker stubs
 *(.text.*)
 *(.stub)
 *(.gnu.warning)
 *(.gnu.linkonce.t*)
 *(.glue_7)
 .glue_7        0x00000000        0x0 linker stubs
 *(.glue_7t)
 .glue_7t       0x00000000        0x0 linker stubs
                0x0203a718                . = ALIGN (0x4)

.vfp11_veneer   0x00000000        0x0 load address 0x0203a718
 .vfp11_veneer  0x00000000        0x0 linker stubs

.v4_bx          0x00000000        0x0 load address 0x0203a718
 .v4_bx         0x00000000        0x0 linker stubs

.fini           0x0203a718       0x18
 *(.fini)
 .fini          0x0203a718        0xc d:/devkitpro/devkitarm/bin/../lib/gcc/arm-eabi/4.5.1/crti.o
                0x0203a718                _fini
 .fini          0x0203a724        0xc d:/devkitpro/devkitarm/bin/../lib/gcc/arm-eabi/4.5.1/crtn.o
                0x0203a730                __text_end = .

.rodata         0x0203a730    0x174d8
 *(.rodata)
 .rodata        0x0203a730      0x618 mountains.png.o
                0x0203a730                mountains_png
                0x0203ad41                mountains_png_end
                0x0203ad44                mountains_png_size
 .rodata        0x0203ad48      0x300 Map.o
                0x0203ad48                mountains_map
 .rodata        0x0203b048       0x10 main.o
 .rodata        0x0203b058       0x48 d:/devkitPro/libnds/lib\libul.a(drawing.o)
                0x0203b058                ul_pixelSizes
                0x0203b064                ul_pixelWidth
                0x0203b088                ul_paletteSizes
                0x0203b094                ul_pixelsPerByte
 .rodata        0x0203b0a0      0x810 d:/devkitPro/libnds/lib\libul.a(text.o)
                0x0203b0b0                ul_lcdFont_data
 .rodata        0x0203b8b0     0x246c d:/devkitPro/libnds/lib\libul.a(ulShowSplashScreen1.o)
                0x0203b8b0                ul_logo_msk
                0x0203c098                ul_logo_base
                0x0203cc8c                ul_logo
                0x0203d7a8                ul_circle_mask
                0x0203dd0c                ul_circle_mask_size
                0x0203dd10                ul_logo_size
                0x0203dd14                ul_logo_base_size
                0x0203dd18                ul_logo_msk_size
 .rodata        0x0203dd1c     0xa62c d:/devkitPro/libnds/lib\libul.a(ulShowSplashScreen2.o)
                0x0203dd1c                ul_neoflashlogo
                0x02048344                ul_neoflashlogo_size
 .rodata        0x02048348       0x10 d:/devkitPro/libnds/lib\libul.a(libLoadGif.o)
                0x02048348                InterlacedOffset
                0x02048350                InterlacedJumps
 .rodata        0x02048358       0x1c d:/devkitPro/libnds/lib\libul.a(dgif_lib.o)
 .rodata        0x02048374      0x1a0 d:/devkitPro/libnds/lib\libul.a(gba-jpeg-decode.o)
                0x02048374                JPEG_ToZigZag
                0x020483b4                JPEG_ComponentRange
                0x02048414                JPEG_AANScaleFactor
 .rodata        0x02048514       0xfc d:/devkitPro/libnds/lib\libpng.a(png.o)
                0x02048514                png_libpng_ver
                0x02048526                png_sig
                0x02048530                png_pass_start
                0x0204854c                png_pass_inc
                0x02048568                png_pass_ystart
                0x02048584                png_pass_yinc
                0x020485a0                png_pass_mask
                0x020485bc                png_pass_dsp_mask
 .rodata        0x02048610       0x24 d:/devkitPro/libnds/lib\libpng.a(pngrtran.o)
 .rodata        0x02048634       0x1f d:/devkitPro/libnds/lib\libpng.a(pngrutil.o)
 .rodata        0x02048653      0x300 d:/devkitPro/libnds/lib\libpng.a(pngtrans.o)
 *fill*         0x02048953        0x1 ff
 .rodata        0x02048954     0x2000 d:/devkitPro/libnds/lib\libz.a(crc32.o)
 .rodata        0x0204a954      0x8a6 d:/devkitPro/libnds/lib\libz.a(inflate.o)
 .rodata        0x0204b1fa      0x12c d:/devkitPro/libnds/lib\libz.a(inftrees.o)
                0x0204b1fa                inflate_copyright
 *fill*         0x0204b326        0x2 ff
 .rodata        0x0204b328       0x28 d:/devkitPro/libnds/lib\libz.a(zutil.o)
                0x0204b328                z_errmsg
 .rodata        0x0204b350      0x200 d:/devkitPro/libnds/lib\libnds9.a(console.o)
 .rodata        0x0204b550      0x308 d:/devkitPro/libnds/lib\libnds9.a(trig.o)
                0x0204b550                SIN_LUT
                0x0204b654                TAN_LUT
 .rodata        0x0204b858       0x68 d:/devkitPro/libnds/lib\libnds9.a(videoGL.o)
 .rodata        0x0204b8c0     0x2004 d:/devkitPro/libnds/lib\libnds9.a(default_font.bin.o)
                0x0204b8c0                default_font_bin
                0x0204d8c0                default_font_bin_size
                0x0204d8c0                default_font_bin_end
 *fill*         0x0204d8c4        0x4 ff
 .rodata        0x0204d8c8       0x30 d:/devkitpro/devkitarm/bin/../lib/gcc/arm-eabi/4.5.1/../../../../arm-eabi/lib\libm.a(lib_a-e_pow.o)
 .rodata        0x0204d8f8      0x188 d:/devkitpro/devkitarm/bin/../lib/gcc/arm-eabi/4.5.1/../../../../arm-eabi/lib\libm.a(lib_a-e_rem_pio2.o)
 .rodata        0x0204da80       0x50 d:/devkitpro/devkitarm/bin/../lib/gcc/arm-eabi/4.5.1/../../../../arm-eabi/lib\libm.a(lib_a-k_rem_pio2.o)
 .rodata        0x0204dad0       0x10 d:/devkitpro/devkitarm/bin/../lib/gcc/arm-eabi/4.5.1/../../../../arm-eabi/lib\libm.a(lib_a-s_rint.o)
 .rodata        0x0204dae0        0x4 d:/devkitpro/devkitarm/bin/../lib/gcc/arm-eabi/4.5.1/../../../../arm-eabi/lib\libg.a(lib_a-impure.o)
                0x0204dae0                _global_impure_ptr
 *fill*         0x0204dae4        0x4 ff
 .rodata        0x0204dae8       0x28 d:/devkitpro/devkitarm/bin/../lib/gcc/arm-eabi/4.5.1/../../../../arm-eabi/lib\libg.a(lib_a-strtod.o)
 .rodata        0x0204db10       0x24 d:/devkitpro/devkitarm/bin/../lib/gcc/arm-eabi/4.5.1/../../../../arm-eabi/lib\libg.a(lib_a-svfiscanf.o)
 .rodata        0x0204db34       0x20 d:/devkitpro/devkitarm/bin/../lib/gcc/arm-eabi/4.5.1/../../../../arm-eabi/lib\libg.a(lib_a-svfprintf.o)
 .rodata        0x0204db54       0x20 d:/devkitpro/devkitarm/bin/../lib/gcc/arm-eabi/4.5.1/../../../../arm-eabi/lib\libg.a(lib_a-vfiprintf.o)
 .rodata        0x0204db74       0x20 d:/devkitpro/devkitarm/bin/../lib/gcc/arm-eabi/4.5.1/../../../../arm-eabi/lib\libg.a(lib_a-vfprintf.o)
 .rodata        0x0204db94      0x104 d:/devkitpro/devkitarm/bin/../lib/gcc/arm-eabi/4.5.1/../../../../arm-eabi/lib\libg.a(lib_a-ctype_.o)
                0x0204db94                _ctype_
 .rodata        0x0204dc98     0x34d0 d:/devkitpro/devkitarm/bin/../lib/gcc/arm-eabi/4.5.1/../../../../arm-eabi/lib\libg.a(lib_a-jp2uc.o)
 .rodata        0x02051168       0x54 d:/devkitpro/devkitarm/bin/../lib/gcc/arm-eabi/4.5.1/../../../../arm-eabi/lib\libg.a(lib_a-locale.o)
 .rodata        0x020511bc       0x90 d:/devkitpro/devkitarm/bin/../lib/gcc/arm-eabi/4.5.1/../../../../arm-eabi/lib\libg.a(lib_a-mbtowc_r.o)
 *fill*         0x0205124c        0x4 ff
 .rodata        0x02051250      0x128 d:/devkitpro/devkitarm/bin/../lib/gcc/arm-eabi/4.5.1/../../../../arm-eabi/lib\libg.a(lib_a-mprec.o)
                0x02051260                __mprec_tens
                0x02051328                __mprec_bigtens
                0x02051350                __mprec_tinytens
 .rodata        0x02051378       0x20 d:/devkitpro/devkitarm/bin/../lib/gcc/arm-eabi/4.5.1/../../../../arm-eabi/lib\libg.a(lib_a-svfiprintf.o)
 .rodata        0x02051398       0x64 d:/devkitpro/devkitarm/bin/../lib/gcc/arm-eabi/4.5.1/../../../../arm-eabi/lib\libsysbase.a(iosupport.o)
                0x02051398                dotab_stdnull
 *all.rodata*(*)
 *(.roda)
 *(.rodata.*)
 .rodata.str1.4
                0x020513fc       0xb8 main.o
 .rodata.str1.4
                0x020514b4        0xc d:/devkitPro/libnds/lib\libul.a(text.o)
 .rodata.str1.4
                0x020514c0       0x3f d:/devkitPro/libnds/lib\libul.a(ulShowSplashScreen1.o)
                                 0x40 (size before relaxing)
 .rodata.str1.1
                0x020514ff        0x6 d:/devkitPro/libnds/lib\libul.a(libLoadPng.o)
 .rodata.str1.1
                0x02051505      0x117 d:/devkitPro/libnds/lib\libpng.a(png.o)
 .rodata.str1.1
                0x0205161c       0x83 d:/devkitPro/libnds/lib\libpng.a(pngread.o)
 .rodata.str1.1
                0x0205169f       0x25 d:/devkitPro/libnds/lib\libpng.a(pngrtran.o)
 .rodata.str1.1
                0x020516c4       0x48 d:/devkitPro/libnds/lib\libpng.a(pngerror.o)
 .rodata.str1.1
                0x0205170c      0x119 d:/devkitPro/libnds/lib\libpng.a(pngrutil.o)
 .rodata.str1.1
                0x02051825      0x1a8 d:/devkitPro/libnds/lib\libz.a(inflate.o)
 .rodata.str1.1
                0x00000000       0x50 d:/devkitPro/libnds/lib\libz.a(inffast.o)
 .rodata.str1.1
                0x020519cd       0x74 d:/devkitPro/libnds/lib\libz.a(zutil.o)
                                 0x7b (size before relaxing)
 *fill*         0x02051a41        0x3 ff
 .rodata.str1.4
                0x02051a44       0x49 d:/devkitPro/libnds/lib\libnds9.a(console.o)
                                 0x4c (size before relaxing)
 *fill*         0x02051a8d        0x3 ff
 .rodata.str1.4
                0x02051a90        0x4 d:/devkitpro/devkitarm/bin/../lib/gcc/arm-eabi/4.5.1/../../../../arm-eabi/lib\libm.a(lib_a-w_pow.o)
 .rodata.str1.4
                0x00000000        0x4 d:/devkitpro/devkitarm/bin/../lib/gcc/arm-eabi/4.5.1/../../../../arm-eabi/lib\libm.a(lib_a-e_pow.o)
 .rodata.str1.4
                0x02051a94        0x2 d:/devkitpro/devkitarm/bin/../lib/gcc/arm-eabi/4.5.1/../../../../arm-eabi/lib\libg.a(lib_a-impure.o)
                                  0x4 (size before relaxing)
 *fill*         0x02051a96        0x2 ff
 .rodata.str1.4
                0x02051a98        0xf d:/devkitpro/devkitarm/bin/../lib/gcc/arm-eabi/4.5.1/../../../../arm-eabi/lib\libg.a(lib_a-strtod.o)
                                 0x10 (size before relaxing)
 *fill*         0x02051aa7        0x1 ff
 .rodata.str1.4
                0x02051aa8       0x42 d:/devkitpro/devkitarm/bin/../lib/gcc/arm-eabi/4.5.1/../../../../arm-eabi/lib\libg.a(lib_a-svfprintf.o)
                                 0x44 (size before relaxing)
 .rodata.str1.4
                0x00000000       0x30 d:/devkitpro/devkitarm/bin/../lib/gcc/arm-eabi/4.5.1/../../../../arm-eabi/lib\libg.a(lib_a-vfiprintf.o)
 .rodata.str1.4
                0x00000000       0x44 d:/devkitpro/devkitarm/bin/../lib/gcc/arm-eabi/4.5.1/../../../../arm-eabi/lib\libg.a(lib_a-vfprintf.o)
 *fill*         0x02051aea        0x2 ff
 .rodata.str1.4
                0x02051aec       0x10 d:/devkitpro/devkitarm/bin/../lib/gcc/arm-eabi/4.5.1/../../../../arm-eabi/lib\libg.a(lib_a-dtoa.o)
                                 0x14 (size before relaxing)
 .rodata.str1.4
                0x02051afc       0x1b d:/devkitpro/devkitarm/bin/../lib/gcc/arm-eabi/4.5.1/../../../../arm-eabi/lib\libg.a(lib_a-gdtoa-gethex.o)
                                 0x1c (size before relaxing)
 *fill*         0x02051b17        0x1 ff
 .rodata.str1.4
                0x02051b18       0x12 d:/devkitpro/devkitarm/bin/../lib/gcc/arm-eabi/4.5.1/../../../../arm-eabi/lib\libg.a(lib_a-jp2uc.o)
                                 0x14 (size before relaxing)
 *fill*         0x02051b2a        0x2 ff
 .rodata.str1.4
                0x02051b2c       0xd4 d:/devkitpro/devkitarm/bin/../lib/gcc/arm-eabi/4.5.1/../../../../arm-eabi/lib\libg.a(lib_a-locale.o)
                                 0xf0 (size before relaxing)
 .rodata.str1.4
                0x00000000        0x4 d:/devkitpro/devkitarm/bin/../lib/gcc/arm-eabi/4.5.1/../../../../arm-eabi/lib\libg.a(lib_a-mbrtowc.o)
 .rodata.str1.4
                0x00000000       0x30 d:/devkitpro/devkitarm/bin/../lib/gcc/arm-eabi/4.5.1/../../../../arm-eabi/lib\libg.a(lib_a-svfiprintf.o)
 .rodata.str1.4
                0x02051c00        0x8 d:/devkitpro/devkitarm/bin/../lib/gcc/arm-eabi/4.5.1/../../../../arm-eabi/lib\libsysbase.a(iosupport.o)
 *(.gnu.linkonce.r*)
                0x02051c08                . = ALIGN (0x4)

.ARM.extab      0x02051c08       0x30
 *(.ARM.extab* .gnu.linkonce.armextab.*)
 .ARM.extab     0x02051c08        0x0 d:/devkitpro/devkitarm/bin/../lib/gcc/arm-eabi/4.5.1\libgcc.a(bpabi.o)
 .ARM.extab     0x02051c08       0x18 d:/devkitpro/devkitarm/bin/../lib/gcc/arm-eabi/4.5.1\libgcc.a(unwind-arm.o)
 .ARM.extab     0x02051c20       0x18 d:/devkitpro/devkitarm/bin/../lib/gcc/arm-eabi/4.5.1\libgcc.a(pr-support.o)
 .ARM.extab     0x02051c38        0x0 d:/devkitpro/devkitarm/bin/../lib/gcc/arm-eabi/4.5.1\libgcc.a(_divdi3.o)
 .ARM.extab     0x02051c38        0x0 d:/devkitpro/devkitarm/bin/../lib/gcc/arm-eabi/4.5.1\libgcc.a(_udivdi3.o)
                0x02051c38                __exidx_start = .

.ARM.exidx      0x02051c38       0xe0
 *(.ARM.exidx* .gnu.linkonce.armexidx.*)
 .ARM.exidx     0x02051c38        0x8 d:/devkitpro/devkitarm/bin/../lib/gcc/arm-eabi/4.5.1\libgcc.a(bpabi.o)
                                 0x10 (size before relaxing)
 .ARM.exidx     0x02051c40       0x88 d:/devkitpro/devkitarm/bin/../lib/gcc/arm-eabi/4.5.1\libgcc.a(unwind-arm.o)
                                 0xc0 (size before relaxing)
 .ARM.exidx     0x02051cc8       0x38 d:/devkitpro/devkitarm/bin/../lib/gcc/arm-eabi/4.5.1\libgcc.a(pr-support.o)
                                 0x48 (size before relaxing)
 .ARM.exidx     0x02051d00        0x8 d:/devkitpro/devkitarm/bin/../lib/gcc/arm-eabi/4.5.1\libgcc.a(_divdi3.o)
 .ARM.exidx     0x02051d08       0x10 d:/devkitpro/devkitarm/bin/../lib/gcc/arm-eabi/4.5.1\libgcc.a(_udivdi3.o)
                                  0x8 (size before relaxing)
                0x02051d18                __exidx_end = .
                0x02051d18                . = ALIGN (0x4)
                0x02051d18                PROVIDE (__preinit_array_start, .)

.preinit_array
 *(.preinit_array)
                0x02051d18                PROVIDE (__preinit_array_end, .)
                0x02051d18                PROVIDE (__init_array_start, .)

.init_array     0x02051d18        0x4
 *(SORT(.init_array.*))
 *(.init_array)
 .init_array    0x02051d18        0x4 d:/devkitpro/devkitarm/bin/../lib/gcc/arm-eabi/4.5.1/crtbegin.o
                0x02051d1c                PROVIDE (__init_array_end, .)
                0x02051d1c                PROVIDE (__fini_array_start, .)

.fini_array     0x02051d1c        0x4
 *(.fini_array)
 .fini_array    0x02051d1c        0x4 d:/devkitpro/devkitarm/bin/../lib/gcc/arm-eabi/4.5.1/crtbegin.o
 *(SORT(.fini_array.*))
                0x02051d20                PROVIDE (__fini_array_end, .)

.ctors          0x02051d20        0x0
 *crtbegin.o(.ctors)
 *(EXCLUDE_FILE(*crtend.o) .ctors)
 *(SORT(.ctors.*))
 *(.ctors)
                0x02051d20                . = ALIGN (0x4)

.dtors          0x02051d20        0x0
 *crtbegin.o(.dtors)
 *(EXCLUDE_FILE(*crtend.o) .dtors)
 *(SORT(.dtors.*))
 *(.dtors)
                0x02051d20                . = ALIGN (0x4)

.eh_frame       0x02051d20        0x4
 *(.eh_frame)
 .eh_frame      0x02051d20        0x0 d:/devkitpro/devkitarm/bin/../lib/gcc/arm-eabi/4.5.1/crtbegin.o
 .eh_frame      0x02051d20        0x4 d:/devkitpro/devkitarm/bin/../lib/gcc/arm-eabi/4.5.1/crtend.o
                0x02051d24                . = ALIGN (0x4)

.gcc_except_table
                0x02051d24        0x0
 *(.gcc_except_table)
                0x02051d24                . = ALIGN (0x4)

.jcr            0x02051d24        0x4
 *(.jcr)
 .jcr           0x02051d24        0x0 d:/devkitpro/devkitarm/bin/../lib/gcc/arm-eabi/4.5.1/crtbegin.o
 .jcr           0x02051d24        0x4 d:/devkitpro/devkitarm/bin/../lib/gcc/arm-eabi/4.5.1/crtend.o

.got
 *(.got.plt)
 *(.got)
 *(.rel.got)

.ewram          0x02051d28        0x0
                0x02051d28                __ewram_start = ABSOLUTE (.)
 *(.ewram)
 *ewram.*(.text)
                0x02051d28                . = ALIGN (0x4)

.data           0x02051d28      0xbf0
                0x02051d28                __data_start = ABSOLUTE (.)
 *(.data)
 .data          0x02051d28        0x0 d:/devkitpro/devkitarm/bin/../lib/gcc/arm-eabi/4.5.1/../../../../arm-eabi/lib/ds_arm9_crt0.o
 .data          0x02051d28        0x0 d:/devkitpro/devkitarm/bin/../lib/gcc/arm-eabi/4.5.1/crti.o
 .data          0x02051d28        0x4 d:/devkitpro/devkitarm/bin/../lib/gcc/arm-eabi/4.5.1/crtbegin.o
                0x02051d28                __dso_handle
 .data          0x02051d2c        0x0 mountains.png.o
 .data          0x02051d2c        0x0 Map.o
 .data          0x02051d2c        0x0 main.o
 .data          0x02051d2c        0x0 d:/devkitPro/libnds/lib\libul.a(ulib.o)
 .data          0x02051d2c        0x0 d:/devkitPro/libnds/lib\libul.a(drawing.o)
 .data          0x02051d2c        0x0 d:/devkitPro/libnds/lib\libul.a(map.o)
 .data          0x02051d2c       0x28 d:/devkitPro/libnds/lib\libul.a(text.o)
                0x02051d2c                ul_curTextColor
                0x02051d30                ul_lcdFontInfo
 .data          0x02051d54       0x2c d:/devkitPro/libnds/lib\libul.a(VirtualFile.o)
                0x02051d54                VF_MEMORY
                0x02051d58                vfsMemory
 .data          0x02051d80       0x10 d:/devkitPro/libnds/lib\libul.a(texVramManager.o)
                0x02051d80                ul_texVramSize
                0x02051d84                ul_optimizeTextureSize
                0x02051d88                ul_texVramBase
                0x02051d8c                ul_texVramBanks
                0x02051d8e                ul_initTexturesToZero
 .data          0x02051d90        0xc d:/devkitPro/libnds/lib\libul.a(texPalManager.o)
                0x02051d90                ul_texPalVramSize
                0x02051d94                ul_texPalVramBanks
                0x02051d98                ul_texPalVramBase
 .data          0x02051d9c       0x28 d:/devkitPro/libnds/lib\libul.a(keys.o)
                0x02051d9c                ul_keys
 .data          0x02051dc4        0x0 d:/devkitPro/libnds/lib\libul.a(ulCreateImagePalette.o)
 .data          0x02051dc4        0x0 d:/devkitPro/libnds/lib\libul.a(ulDrawGradientRect.o)
 .data          0x02051dc4        0x0 d:/devkitPro/libnds/lib\libul.a(messagebox.o)
 .data          0x02051dc4        0x0 d:/devkitPro/libnds/lib\libul.a(textSize.o)
 .data          0x02051dc4        0x0 d:/devkitPro/libnds/lib\libul.a(ulLoadImageFilePNG.o)
 .data          0x02051dc4        0x0 d:/devkitPro/libnds/lib\libul.a(ulShowSplashScreen1.o)
 .data          0x02051dc4        0x0 d:/devkitPro/libnds/lib\libul.a(ulShowSplashScreen2.o)
 .data          0x02051dc4        0x0 d:/devkitPro/libnds/lib\libul.a(glWrapper.o)
 .data          0x02051dc4        0x0 d:/devkitPro/libnds/lib\libul.a(libLoadPng.o)
 .data          0x02051dc4        0x0 d:/devkitPro/libnds/lib\libul.a(ulDrawImage.o)
 .data          0x02051dc4        0x0 d:/devkitPro/libnds/lib\libul.a(ulDrawFillRect.o)
 .data          0x02051dc4        0x0 d:/devkitPro/libnds/lib\libul.a(ulDrawLine.o)
 .data          0x02051dc4        0x0 d:/devkitPro/libnds/lib\libul.a(ulDrawRect.o)
 .data          0x02051dc4        0x0 d:/devkitPro/libnds/lib\libul.a(ulSetImagePixel.o)
 .data          0x02051dc4        0x0 d:/devkitPro/libnds/lib\libul.a(ulGetImagePixel.o)
 .data          0x02051dc4        0x4 d:/devkitPro/libnds/lib\libul.a(loading_utility.o)
                0x02051dc4                ul_loadUtilActiveSource
 .data          0x02051dc8        0x0 d:/devkitPro/libnds/lib\libul.a(ulLoadImageFileJPG.o)
 .data          0x02051dc8        0x0 d:/devkitPro/libnds/lib\libul.a(ulLoadImageFileGIF.o)
 .data          0x02051dc8        0x0 d:/devkitPro/libnds/lib\libul.a(libLoadJpg.o)
 .data          0x02051dc8        0x0 d:/devkitPro/libnds/lib\libul.a(libLoadGif.o)
 .data          0x02051dc8        0x0 d:/devkitPro/libnds/lib\libul.a(dgif_lib.o)
 .data          0x02051dc8        0x0 d:/devkitPro/libnds/lib\libul.a(gif_err.o)
 .data          0x02051dc8        0x0 d:/devkitPro/libnds/lib\libul.a(gifalloc.o)
 .data          0x02051dc8        0x0 d:/devkitPro/libnds/lib\libul.a(ulReadEntireFileToMemory.o)
 .data          0x02051dc8        0x0 d:/devkitPro/libnds/lib\libul.a(gba-jpeg-decode.o)
 .data          0x02051dc8       0x69 d:/devkitPro/libnds/lib\libpng.a(png.o)
                0x02051dc8                png_IHDR
                0x02051dcd                png_IDAT
                0x02051dd2                png_IEND
                0x02051dd7                png_PLTE
                0x02051ddc                png_bKGD
                0x02051de1                png_cHRM
                0x02051de6                png_gAMA
                0x02051deb                png_hIST
                0x02051df0                png_iCCP
                0x02051df5                png_iTXt
                0x02051dfa                png_oFFs
                0x02051dff                png_pCAL
                0x02051e04                png_sCAL
                0x02051e09                png_pHYs
                0x02051e0e                png_sBIT
                0x02051e13                png_sPLT
                0x02051e18                png_sRGB
                0x02051e1d                png_tEXt
                0x02051e22                png_tIME
                0x02051e27                png_tRNS
                0x02051e2c                png_zTXt
 .data          0x02051e31        0x0 d:/devkitPro/libnds/lib\libpng.a(pngread.o)
 .data          0x02051e31        0x0 d:/devkitPro/libnds/lib\libpng.a(pngrio.o)
 .data          0x02051e31        0x0 d:/devkitPro/libnds/lib\libpng.a(pngrtran.o)
 .data          0x02051e31        0x0 d:/devkitPro/libnds/lib\libpng.a(pngmem.o)
 .data          0x02051e31        0x0 d:/devkitPro/libnds/lib\libpng.a(pngerror.o)
 .data          0x02051e31        0x0 d:/devkitPro/libnds/lib\libpng.a(pngget.o)
 .data          0x02051e31        0x0 d:/devkitPro/libnds/lib\libpng.a(pngrutil.o)
 .data          0x02051e31        0x0 d:/devkitPro/libnds/lib\libpng.a(pngtrans.o)
 .data          0x02051e31        0x0 d:/devkitPro/libnds/lib\libpng.a(pngset.o)
 .data          0x02051e31        0x0 d:/devkitPro/libnds/lib\libz.a(crc32.o)
 .data          0x02051e31        0x0 d:/devkitPro/libnds/lib\libz.a(inflate.o)
 .data          0x02051e31        0x0 d:/devkitPro/libnds/lib\libz.a(inftrees.o)
 .data          0x02051e31        0x0 d:/devkitPro/libnds/lib\libz.a(inffast.o)
 .data          0x02051e31        0x0 d:/devkitPro/libnds/lib\libz.a(adler32.o)
 .data          0x02051e31        0x0 d:/devkitPro/libnds/lib\libz.a(zutil.o)
 *fill*         0x02051e31        0x3 ff
 .data          0x02051e34       0x64 d:/devkitPro/libnds/lib\libnds9.a(console.o)
                0x02051e34                currentConsole
                0x02051e38                defaultConsole
 .data          0x02051e98        0x0 d:/devkitPro/libnds/lib\libnds9.a(dynamicArray.o)
 .data          0x02051e98        0x3 d:/devkitPro/libnds/lib\libnds9.a(keys.o)
 .data          0x02051e9b        0x0 d:/devkitPro/libnds/lib\libnds9.a(system.o)
 .data          0x02051e9b        0x0 d:/devkitPro/libnds/lib\libnds9.a(touch.o)
 .data          0x02051e9b        0x0 d:/devkitPro/libnds/lib\libnds9.a(trig.o)
 *fill*         0x02051e9b        0x1 ff
 .data          0x02051e9c        0x4 d:/devkitPro/libnds/lib\libnds9.a(videoGL.o)
 .data          0x02051ea0        0x0 d:/devkitPro/libnds/lib\libnds9.a(initSystem.o)
 .data          0x02051ea0       0x10 d:/devkitPro/libnds/lib\libnds9.a(fifosystem.o)
                0x02051ea0                fifo_freewords
                0x02051ea4                fifo_buffer_free
                0x02051ea8                fifo_send_queue
                0x02051eac                fifo_receive_queue
 .data          0x02051eb0        0x0 d:/devkitPro/libnds/lib\libnds9.a(interrupts.o)
 .data          0x02051eb0        0x0 d:/devkitPro/libnds/lib\libnds9.a(libnds_exit.o)
 .data          0x02051eb0        0x0 d:/devkitPro/libnds/lib\libnds9.a(mpu_setup.o)
 .data          0x02051eb0        0x0 d:/devkitPro/libnds/lib\libnds9.a(biosCalls.o)
 .data          0x02051eb0        0x0 d:/devkitPro/libnds/lib\libnds9.a(debugprint.o)
 .data          0x02051eb0        0x0 d:/devkitPro/libnds/lib\libnds9.a(interruptDispatcher.o)
 .data          0x02051eb0        0x0 d:/devkitPro/libnds/lib\libnds9.a(swiSoftReset.o)
 .data          0x02051eb0        0x0 d:/devkitPro/libnds/lib\libnds9.a(default_font.bin.o)
 .data          0x02051eb0       0x60 d:/devkitPro/libnds/lib\libnds9.a(background.o)
                0x02051eb0                bgScrollTable
                0x02051ed0                bgTransform
                0x02051ef0                bgControl
 .data          0x02051f10        0x0 d:/devkitPro/libnds/lib\libnds9.a(video.o)
 .data          0x02051f10        0x0 d:/devkitpro/devkitarm/bin/../lib/gcc/arm-eabi/4.5.1/../../../../arm-eabi/lib\libm.a(lib_a-s_cos.o)
 .data          0x02051f10        0x0 d:/devkitpro/devkitarm/bin/../lib/gcc/arm-eabi/4.5.1/../../../../arm-eabi/lib\libm.a(lib_a-s_sin.o)
 .data          0x02051f10        0x0 d:/devkitpro/devkitarm/bin/../lib/gcc/arm-eabi/4.5.1/../../../../arm-eabi/lib\libm.a(lib_a-w_pow.o)
 .data          0x02051f10        0x0 d:/devkitpro/devkitarm/bin/../lib/gcc/arm-eabi/4.5.1/../../../../arm-eabi/lib\libm.a(lib_a-e_pow.o)
 .data          0x02051f10        0x0 d:/devkitpro/devkitarm/bin/../lib/gcc/arm-eabi/4.5.1/../../../../arm-eabi/lib\libm.a(lib_a-e_rem_pio2.o)
 .data          0x02051f10        0x0 d:/devkitpro/devkitarm/bin/../lib/gcc/arm-eabi/4.5.1/../../../../arm-eabi/lib\libm.a(lib_a-e_sqrt.o)
 .data          0x02051f10        0x0 d:/devkitpro/devkitarm/bin/../lib/gcc/arm-eabi/4.5.1/../../../../arm-eabi/lib\libm.a(lib_a-k_cos.o)
 .data          0x02051f10        0x0 d:/devkitpro/devkitarm/bin/../lib/gcc/arm-eabi/4.5.1/../../../../arm-eabi/lib\libm.a(lib_a-k_rem_pio2.o)
 .data          0x02051f10        0x0 d:/devkitpro/devkitarm/bin/../lib/gcc/arm-eabi/4.5.1/../../../../arm-eabi/lib\libm.a(lib_a-k_sin.o)
 .data          0x02051f10        0x0 d:/devkitpro/devkitarm/bin/../lib/gcc/arm-eabi/4.5.1/../../../../arm-eabi/lib\libm.a(lib_a-s_fabs.o)
 .data          0x02051f10        0x0 d:/devkitpro/devkitarm/bin/../lib/gcc/arm-eabi/4.5.1/../../../../arm-eabi/lib\libm.a(lib_a-s_finite.o)
 .data          0x02051f10        0x0 d:/devkitpro/devkitarm/bin/../lib/gcc/arm-eabi/4.5.1/../../../../arm-eabi/lib\libm.a(lib_a-s_floor.o)
 .data          0x02051f10        0x0 d:/devkitpro/devkitarm/bin/../lib/gcc/arm-eabi/4.5.1/../../../../arm-eabi/lib\libm.a(lib_a-s_fpclassify.o)
 .data          0x02051f10        0x1 d:/devkitpro/devkitarm/bin/../lib/gcc/arm-eabi/4.5.1/../../../../arm-eabi/lib\libm.a(lib_a-s_lib_ver.o)
                0x02051f10                __fdlib_version
 .data          0x02051f11        0x0 d:/devkitpro/devkitarm/bin/../lib/gcc/arm-eabi/4.5.1/../../../../arm-eabi/lib\libm.a(lib_a-s_matherr.o)
 .data          0x02051f11        0x0 d:/devkitpro/devkitarm/bin/../lib/gcc/arm-eabi/4.5.1/../../../../arm-eabi/lib\libm.a(lib_a-s_nan.o)
 .data          0x02051f11        0x0 d:/devkitpro/devkitarm/bin/../lib/gcc/arm-eabi/4.5.1/../../../../arm-eabi/lib\libm.a(lib_a-s_rint.o)
 .data          0x02051f11        0x0 d:/devkitpro/devkitarm/bin/../lib/gcc/arm-eabi/4.5.1/../../../../arm-eabi/lib\libm.a(lib_a-s_scalbn.o)
 .data          0x02051f11        0x0 d:/devkitpro/devkitarm/bin/../lib/gcc/arm-eabi/4.5.1/../../../../arm-eabi/lib\libm.a(lib_a-s_copysign.o)
 .data          0x02051f11        0x0 d:/devkitpro/devkitarm/bin/../lib/gcc/arm-eabi/4.5.1\libgcc.a(_udivsi3.o)
 .data          0x02051f11        0x0 d:/devkitpro/devkitarm/bin/../lib/gcc/arm-eabi/4.5.1\libgcc.a(_divsi3.o)
 .data          0x02051f11        0x0 d:/devkitpro/devkitarm/bin/../lib/gcc/arm-eabi/4.5.1\libgcc.a(_dvmd_tls.o)
 .data          0x02051f11        0x0 d:/devkitpro/devkitarm/bin/../lib/gcc/arm-eabi/4.5.1\libgcc.a(_arm_addsubdf3.o)
 .data          0x02051f11        0x0 d:/devkitpro/devkitarm/bin/../lib/gcc/arm-eabi/4.5.1\libgcc.a(_arm_muldivdf3.o)
 .data          0x02051f11        0x0 d:/devkitpro/devkitarm/bin/../lib/gcc/arm-eabi/4.5.1\libgcc.a(_arm_cmpdf2.o)
 .data          0x02051f11        0x0 d:/devkitpro/devkitarm/bin/../lib/gcc/arm-eabi/4.5.1\libgcc.a(_arm_fixdfsi.o)
 .data          0x02051f11        0x0 d:/devkitpro/devkitarm/bin/../lib/gcc/arm-eabi/4.5.1\libgcc.a(_arm_fixunsdfsi.o)
 .data          0x02051f11        0x0 d:/devkitpro/devkitarm/bin/../lib/gcc/arm-eabi/4.5.1\libgcc.a(_arm_truncdfsf2.o)
 .data          0x02051f11        0x0 d:/devkitpro/devkitarm/bin/../lib/gcc/arm-eabi/4.5.1\libgcc.a(_arm_addsubsf3.o)
 .data          0x02051f11        0x0 d:/devkitpro/devkitarm/bin/../lib/gcc/arm-eabi/4.5.1\libgcc.a(_arm_muldivsf3.o)
 .data          0x02051f11        0x0 d:/devkitpro/devkitarm/bin/../lib/gcc/arm-eabi/4.5.1\libgcc.a(_arm_cmpsf2.o)
 .data          0x02051f11        0x0 d:/devkitpro/devkitarm/bin/../lib/gcc/arm-eabi/4.5.1\libgcc.a(_arm_fixsfsi.o)
 .data          0x02051f11        0x0 d:/devkitpro/devkitarm/bin/../lib/gcc/arm-eabi/4.5.1\libgcc.a(_arm_fixunssfsi.o)
 .data          0x02051f11        0x0 d:/devkitpro/devkitarm/bin/../lib/gcc/arm-eabi/4.5.1\libgcc.a(_muldi3.o)
 .data          0x02051f11        0x0 d:/devkitpro/devkitarm/bin/../lib/gcc/arm-eabi/4.5.1/../../../../arm-eabi/lib\libg.a(lib_a-abort.o)
 .data          0x02051f11        0x0 d:/devkitpro/devkitarm/bin/../lib/gcc/arm-eabi/4.5.1/../../../../arm-eabi/lib\libg.a(lib_a-bsearch.o)
 .data          0x02051f11        0x0 d:/devkitpro/devkitarm/bin/../lib/gcc/arm-eabi/4.5.1/../../../../arm-eabi/lib\libg.a(lib_a-calloc.o)
 .data          0x02051f11        0x0 d:/devkitpro/devkitarm/bin/../lib/gcc/arm-eabi/4.5.1/../../../../arm-eabi/lib\libg.a(lib_a-callocr.o)
 .data          0x02051f11        0x0 d:/devkitpro/devkitarm/bin/../lib/gcc/arm-eabi/4.5.1/../../../../arm-eabi/lib\libg.a(lib_a-errno.o)
 .data          0x02051f11        0x0 d:/devkitpro/devkitarm/bin/../lib/gcc/arm-eabi/4.5.1/../../../../arm-eabi/lib\libg.a(lib_a-fclose.o)
 .data          0x02051f11        0x0 d:/devkitpro/devkitarm/bin/../lib/gcc/arm-eabi/4.5.1/../../../../arm-eabi/lib\libg.a(lib_a-fflush.o)
 .data          0x02051f11        0x0 d:/devkitpro/devkitarm/bin/../lib/gcc/arm-eabi/4.5.1/../../../../arm-eabi/lib\libg.a(lib_a-findfp.o)
 .data          0x02051f11        0x0 d:/devkitpro/devkitarm/bin/../lib/gcc/arm-eabi/4.5.1/../../../../arm-eabi/lib\libg.a(lib_a-fprintf.o)
 .data          0x02051f11        0x0 d:/devkitpro/devkitarm/bin/../lib/gcc/arm-eabi/4.5.1/../../../../arm-eabi/lib\libg.a(lib_a-fread.o)
 .data          0x02051f11        0x0 d:/devkitpro/devkitarm/bin/../lib/gcc/arm-eabi/4.5.1/../../../../arm-eabi/lib\libg.a(lib_a-freer.o)
 .data          0x02051f11        0x0 d:/devkitpro/devkitarm/bin/../lib/gcc/arm-eabi/4.5.1/../../../../arm-eabi/lib\libg.a(lib_a-fwalk.o)
 *fill*         0x02051f11        0x7 ff
 .data          0x02051f18      0x430 d:/devkitpro/devkitarm/bin/../lib/gcc/arm-eabi/4.5.1/../../../../arm-eabi/lib\libg.a(lib_a-impure.o)
                0x02051f18                _impure_ptr
 .data          0x02052348        0x0 d:/devkitpro/devkitarm/bin/../lib/gcc/arm-eabi/4.5.1/../../../../arm-eabi/lib\libg.a(lib_a-init.o)
 .data          0x02052348        0x0 d:/devkitpro/devkitarm/bin/../lib/gcc/arm-eabi/4.5.1/../../../../arm-eabi/lib\libg.a(lib_a-iprintf.o)
 .data          0x02052348        0x0 d:/devkitpro/devkitarm/bin/../lib/gcc/arm-eabi/4.5.1/../../../../arm-eabi/lib\libg.a(lib_a-malloc.o)
 .data          0x02052348      0x410 d:/devkitpro/devkitarm/bin/../lib/gcc/arm-eabi/4.5.1/../../../../arm-eabi/lib\libg.a(lib_a-mallocr.o)
                0x02052348                __malloc_av_
                0x02052750                __malloc_sbrk_base
                0x02052754                __malloc_trim_threshold
 .data          0x02052758        0x0 d:/devkitpro/devkitarm/bin/../lib/gcc/arm-eabi/4.5.1/../../../../arm-eabi/lib\libg.a(lib_a-memcmp.o)
 .data          0x02052758        0x0 d:/devkitpro/devkitarm/bin/../lib/gcc/arm-eabi/4.5.1/../../../../arm-eabi/lib\libg.a(lib_a-memcpy.o)
 .data          0x02052758        0x0 d:/devkitpro/devkitarm/bin/../lib/gcc/arm-eabi/4.5.1/../../../../arm-eabi/lib\libg.a(lib_a-memmove.o)
 .data          0x02052758        0x0 d:/devkitpro/devkitarm/bin/../lib/gcc/arm-eabi/4.5.1/../../../../arm-eabi/lib\libg.a(lib_a-memset.o)
 .data          0x02052758        0x0 d:/devkitpro/devkitarm/bin/../lib/gcc/arm-eabi/4.5.1/../../../../arm-eabi/lib\libg.a(lib_a-mlock.o)
 .data          0x02052758        0x0 d:/devkitpro/devkitarm/bin/../lib/gcc/arm-eabi/4.5.1/../../../../arm-eabi/lib\libg.a(lib_a-rand.o)
 .data          0x02052758        0x0 d:/devkitpro/devkitarm/bin/../lib/gcc/arm-eabi/4.5.1/../../../../arm-eabi/lib\libg.a(lib_a-realloc.o)
 .data          0x02052758        0x0 d:/devkitpro/devkitarm/bin/../lib/gcc/arm-eabi/4.5.1/../../../../arm-eabi/lib\libg.a(lib_a-reallocr.o)
 .data          0x02052758        0x0 d:/devkitpro/devkitarm/bin/../lib/gcc/arm-eabi/4.5.1/../../../../arm-eabi/lib\libg.a(lib_a-refill.o)
 .data          0x02052758        0x0 d:/devkitpro/devkitarm/bin/../lib/gcc/arm-eabi/4.5.1/../../../../arm-eabi/lib\libg.a(lib_a-setjmp.o)
 .data          0x02052758        0x0 d:/devkitpro/devkitarm/bin/../lib/gcc/arm-eabi/4.5.1/../../../../arm-eabi/lib\libg.a(lib_a-setvbuf.o)
 .data          0x02052758        0x0 d:/devkitpro/devkitarm/bin/../lib/gcc/arm-eabi/4.5.1/../../../../arm-eabi/lib\libg.a(lib_a-signal.o)
 .data          0x02052758        0x0 d:/devkitpro/devkitarm/bin/../lib/gcc/arm-eabi/4.5.1/../../../../arm-eabi/lib\libg.a(lib_a-siscanf.o)
 .data          0x02052758        0x0 d:/devkitpro/devkitarm/bin/../lib/gcc/arm-eabi/4.5.1/../../../../arm-eabi/lib\libg.a(lib_a-snprintf.o)
 .data          0x02052758        0x0 d:/devkitpro/devkitarm/bin/../lib/gcc/arm-eabi/4.5.1/../../../../arm-eabi/lib\libg.a(lib_a-sprintf.o)
 .data          0x02052758        0x0 d:/devkitpro/devkitarm/bin/../lib/gcc/arm-eabi/4.5.1/../../../../arm-eabi/lib\libg.a(lib_a-stdio.o)
 .data          0x02052758        0x0 d:/devkitpro/devkitarm/bin/../lib/gcc/arm-eabi/4.5.1/../../../../arm-eabi/lib\libg.a(lib_a-strcmp.o)
 .data          0x02052758        0x0 d:/devkitpro/devkitarm/bin/../lib/gcc/arm-eabi/4.5.1/../../../../arm-eabi/lib\libg.a(lib_a-strlen.o)
 .data          0x02052758       0x28 d:/devkitpro/devkitarm/bin/../lib/gcc/arm-eabi/4.5.1/../../../../arm-eabi/lib\libg.a(lib_a-strtod.o)
 .data          0x02052780        0x0 d:/devkitpro/devkitarm/bin/../lib/gcc/arm-eabi/4.5.1/../../../../arm-eabi/lib\libg.a(lib_a-svfiscanf.o)
 .data          0x02052780        0x0 d:/devkitpro/devkitarm/bin/../lib/gcc/arm-eabi/4.5.1/../../../../arm-eabi/lib\libg.a(lib_a-svfprintf.o)
 .data          0x02052780        0x0 d:/devkitpro/devkitarm/bin/../lib/gcc/arm-eabi/4.5.1/../../../../arm-eabi/lib\libg.a(lib_a-ungetc.o)
 .data          0x02052780        0x0 d:/devkitpro/devkitarm/bin/../lib/gcc/arm-eabi/4.5.1/../../../../arm-eabi/lib\libg.a(lib_a-vfiprintf.o)
 .data          0x02052780        0x0 d:/devkitpro/devkitarm/bin/../lib/gcc/arm-eabi/4.5.1/../../../../arm-eabi/lib\libg.a(lib_a-vfprintf.o)
 .data          0x02052780        0x0 d:/devkitpro/devkitarm/bin/../lib/gcc/arm-eabi/4.5.1/../../../../arm-eabi/lib\libg.a(lib_a-wcrtomb.o)
 .data          0x02052780        0x0 d:/devkitpro/devkitarm/bin/../lib/gcc/arm-eabi/4.5.1/../../../../arm-eabi/lib\libg.a(lib_a-wcsrtombs.o)
 .data          0x02052780        0x4 d:/devkitpro/devkitarm/bin/../lib/gcc/arm-eabi/4.5.1/../../../../arm-eabi/lib\libg.a(lib_a-wctomb_r.o)
                0x02052780                __wctomb
 .data          0x02052784        0x0 d:/devkitpro/devkitarm/bin/../lib/gcc/arm-eabi/4.5.1/../../../../arm-eabi/lib\libg.a(lib_a-wsetup.o)
 .data          0x02052784        0x4 d:/devkitpro/devkitarm/bin/../lib/gcc/arm-eabi/4.5.1/../../../../arm-eabi/lib\libg.a(lib_a-ctype_.o)
                0x02052784                __ctype_ptr__
 .data          0x02052788        0x0 d:/devkitpro/devkitarm/bin/../lib/gcc/arm-eabi/4.5.1/../../../../arm-eabi/lib\libg.a(lib_a-dtoa.o)
 .data          0x02052788        0x0 d:/devkitpro/devkitarm/bin/../lib/gcc/arm-eabi/4.5.1/../../../../arm-eabi/lib\libg.a(lib_a-fputwc.o)
 .data          0x02052788        0x0 d:/devkitpro/devkitarm/bin/../lib/gcc/arm-eabi/4.5.1/../../../../arm-eabi/lib\libg.a(lib_a-fvwrite.o)
 .data          0x02052788        0x0 d:/devkitpro/devkitarm/bin/../lib/gcc/arm-eabi/4.5.1/../../../../arm-eabi/lib\libg.a(lib_a-gdtoa-gethex.o)
 .data          0x02052788        0x0 d:/devkitpro/devkitarm/bin/../lib/gcc/arm-eabi/4.5.1/../../../../arm-eabi/lib\libg.a(lib_a-gdtoa-hexnan.o)
 .data          0x02052788        0x0 d:/devkitpro/devkitarm/bin/../lib/gcc/arm-eabi/4.5.1/../../../../arm-eabi/lib\libg.a(lib_a-iswspace.o)
 .data          0x02052788        0x0 d:/devkitpro/devkitarm/bin/../lib/gcc/arm-eabi/4.5.1/../../../../arm-eabi/lib\libg.a(lib_a-jp2uc.o)
 .data          0x02052788      0x144 d:/devkitpro/devkitarm/bin/../lib/gcc/arm-eabi/4.5.1/../../../../arm-eabi/lib\libg.a(lib_a-locale.o)
                0x02052788                __default_locale
                0x020527c8                __mb_cur_max
 .data          0x020528cc        0x0 d:/devkitpro/devkitarm/bin/../lib/gcc/arm-eabi/4.5.1/../../../../arm-eabi/lib\libg.a(lib_a-makebuf.o)
 .data          0x020528cc        0x0 d:/devkitpro/devkitarm/bin/../lib/gcc/arm-eabi/4.5.1/../../../../arm-eabi/lib\libg.a(lib_a-mbrtowc.o)
 .data          0x020528cc        0x4 d:/devkitpro/devkitarm/bin/../lib/gcc/arm-eabi/4.5.1/../../../../arm-eabi/lib\libg.a(lib_a-mbtowc_r.o)
                0x020528cc                __mbtowc
 .data          0x020528d0        0x0 d:/devkitpro/devkitarm/bin/../lib/gcc/arm-eabi/4.5.1/../../../../arm-eabi/lib\libg.a(lib_a-memchr.o)
 .data          0x020528d0        0x0 d:/devkitpro/devkitarm/bin/../lib/gcc/arm-eabi/4.5.1/../../../../arm-eabi/lib\libg.a(lib_a-mprec.o)
 .data          0x020528d0        0x0 d:/devkitpro/devkitarm/bin/../lib/gcc/arm-eabi/4.5.1/../../../../arm-eabi/lib\libg.a(lib_a-sccl.o)
 .data          0x020528d0        0x0 d:/devkitpro/devkitarm/bin/../lib/gcc/arm-eabi/4.5.1/../../../../arm-eabi/lib\libg.a(lib_a-sf_nan.o)
 .data          0x020528d0        0x0 d:/devkitpro/devkitarm/bin/../lib/gcc/arm-eabi/4.5.1/../../../../arm-eabi/lib\libg.a(lib_a-strcasecmp.o)
 .data          0x020528d0        0x0 d:/devkitpro/devkitarm/bin/../lib/gcc/arm-eabi/4.5.1/../../../../arm-eabi/lib\libg.a(lib_a-strcat.o)
 .data          0x020528d0        0x0 d:/devkitpro/devkitarm/bin/../lib/gcc/arm-eabi/4.5.1/../../../../arm-eabi/lib\libg.a(lib_a-strchr.o)
 .data          0x020528d0        0x0 d:/devkitpro/devkitarm/bin/../lib/gcc/arm-eabi/4.5.1/../../../../arm-eabi/lib\libg.a(lib_a-strcpy.o)
 .data          0x020528d0        0x0 d:/devkitpro/devkitarm/bin/../lib/gcc/arm-eabi/4.5.1/../../../../arm-eabi/lib\libg.a(lib_a-strlcpy.o)
 .data          0x020528d0        0x0 d:/devkitpro/devkitarm/bin/../lib/gcc/arm-eabi/4.5.1/../../../../arm-eabi/lib\libg.a(lib_a-strncasecmp.o)
 .data          0x020528d0        0x0 d:/devkitpro/devkitarm/bin/../lib/gcc/arm-eabi/4.5.1/../../../../arm-eabi/lib\libg.a(lib_a-strncmp.o)
 .data          0x020528d0        0x0 d:/devkitpro/devkitarm/bin/../lib/gcc/arm-eabi/4.5.1/../../../../arm-eabi/lib\libg.a(lib_a-strncpy.o)
 .data          0x020528d0        0x0 d:/devkitpro/devkitarm/bin/../lib/gcc/arm-eabi/4.5.1/../../../../arm-eabi/lib\libg.a(lib_a-strtol.o)
 .data          0x020528d0        0x0 d:/devkitpro/devkitarm/bin/../lib/gcc/arm-eabi/4.5.1/../../../../arm-eabi/lib\libg.a(lib_a-strtoll_r.o)
 .data          0x020528d0        0x0 d:/devkitpro/devkitarm/bin/../lib/gcc/arm-eabi/4.5.1/../../../../arm-eabi/lib\libg.a(lib_a-strtoul.o)
 .data          0x020528d0        0x0 d:/devkitpro/devkitarm/bin/../lib/gcc/arm-eabi/4.5.1/../../../../arm-eabi/lib\libg.a(lib_a-strtoull_r.o)
 .data          0x020528d0        0x0 d:/devkitpro/devkitarm/bin/../lib/gcc/arm-eabi/4.5.1/../../../../arm-eabi/lib\libg.a(lib_a-svfiprintf.o)
 .data          0x020528d0        0x0 d:/devkitpro/devkitarm/bin/../lib/gcc/arm-eabi/4.5.1/../../../../arm-eabi/lib\libg.a(lib_a-wbuf.o)
 .data          0x020528d0        0x0 d:/devkitpro/devkitarm/bin/../lib/gcc/arm-eabi/4.5.1/../../../../arm-eabi/lib\libg.a(lib_a-wcsnrtombs.o)
 .data          0x020528d0        0x0 d:/devkitpro/devkitarm/bin/../lib/gcc/arm-eabi/4.5.1/../../../../arm-eabi/lib\libg.a(lib_a-getenv_r.o)
 .data          0x020528d0        0x4 d:/devkitpro/devkitarm/bin/../lib/gcc/arm-eabi/4.5.1/../../../../arm-eabi/lib\libg.a(lib_a-environ.o)
                0x020528d0                environ
 .data          0x020528d4        0x0 d:/devkitpro/devkitarm/bin/../lib/gcc/arm-eabi/4.5.1/../../../../arm-eabi/lib\libg.a(lib_a-envlock.o)
 .data          0x020528d4       0x44 d:/devkitpro/devkitarm/bin/../lib/gcc/arm-eabi/4.5.1/../../../../arm-eabi/lib\libsysbase.a(iosupport.o)
                0x020528d8                devoptab_list
 .data          0x02052918        0x0 d:/devkitpro/devkitarm/bin/../lib/gcc/arm-eabi/4.5.1/../../../../arm-eabi/lib\libsysbase.a(close.o)
 .data          0x02052918        0x0 d:/devkitpro/devkitarm/bin/../lib/gcc/arm-eabi/4.5.1/../../../../arm-eabi/lib\libsysbase.a(fstat.o)
 .data          0x02052918        0x0 d:/devkitpro/devkitarm/bin/../lib/gcc/arm-eabi/4.5.1/../../../../arm-eabi/lib\libsysbase.a(getpid.o)
 .data          0x02052918        0x0 d:/devkitpro/devkitarm/bin/../lib/gcc/arm-eabi/4.5.1/../../../../arm-eabi/lib\libsysbase.a(isatty.o)
 .data          0x02052918        0x0 d:/devkitpro/devkitarm/bin/../lib/gcc/arm-eabi/4.5.1/../../../../arm-eabi/lib\libsysbase.a(kill.o)
 .data          0x02052918        0x0 d:/devkitpro/devkitarm/bin/../lib/gcc/arm-eabi/4.5.1/../../../../arm-eabi/lib\libsysbase.a(lseek.o)
 .data          0x02052918        0x0 d:/devkitpro/devkitarm/bin/../lib/gcc/arm-eabi/4.5.1/../../../../arm-eabi/lib\libsysbase.a(read.o)
 .data          0x02052918        0x0 d:/devkitpro/devkitarm/bin/../lib/gcc/arm-eabi/4.5.1/../../../../arm-eabi/lib\libsysbase.a(sbrk.o)
 .data          0x02052918        0x0 d:/devkitpro/devkitarm/bin/../lib/gcc/arm-eabi/4.5.1/../../../../arm-eabi/lib\libsysbase.a(times.o)
 .data          0x02052918        0x0 d:/devkitpro/devkitarm/bin/../lib/gcc/arm-eabi/4.5.1/../../../../arm-eabi/lib\libsysbase.a(write.o)
 .data          0x02052918        0x0 d:/devkitpro/devkitarm/bin/../lib/gcc/arm-eabi/4.5.1/../../../../arm-eabi/lib\libsysbase.a(_exit.o)
 .data          0x02052918        0x0 d:/devkitpro/devkitarm/bin/../lib/gcc/arm-eabi/4.5.1/../../../../arm-eabi/lib\libsysbase.a(malloc_vars.o)
 .data          0x02052918        0x0 d:/devkitpro/devkitarm/bin/../lib/gcc/arm-eabi/4.5.1/../../../../arm-eabi/lib\libsysbase.a(build_argv.o)
 .data          0x02052918        0x0 d:/devkitpro/devkitarm/bin/../lib/gcc/arm-eabi/4.5.1/../../../../arm-eabi/lib\libsysbase.a(syscall_support.o)
 .data          0x02052918        0x0 d:/devkitpro/devkitarm/bin/../lib/gcc/arm-eabi/4.5.1/../../../../arm-eabi/lib\libsysbase.a(handle_manager.o)
 .data          0x02052918        0x0 d:/devkitpro/devkitarm/bin/../lib/gcc/arm-eabi/4.5.1\libgcc.a(_aeabi_uldivmod.o)
 .data          0x02052918        0x0 d:/devkitpro/devkitarm/bin/../lib/gcc/arm-eabi/4.5.1\libgcc.a(bpabi.o)
 .data          0x02052918        0x0 d:/devkitpro/devkitarm/bin/../lib/gcc/arm-eabi/4.5.1\libgcc.a(unwind-arm.o)
 .data          0x02052918        0x0 d:/devkitpro/devkitarm/bin/../lib/gcc/arm-eabi/4.5.1\libgcc.a(libunwind.o)
 .data          0x02052918        0x0 d:/devkitpro/devkitarm/bin/../lib/gcc/arm-eabi/4.5.1\libgcc.a(pr-support.o)
 .data          0x02052918        0x0 d:/devkitpro/devkitarm/bin/../lib/gcc/arm-eabi/4.5.1\libgcc.a(_divdi3.o)
 .data          0x02052918        0x0 d:/devkitpro/devkitarm/bin/../lib/gcc/arm-eabi/4.5.1\libgcc.a(_udivdi3.o)
 .data          0x02052918        0x0 d:/devkitpro/devkitarm/bin/../lib/gcc/arm-eabi/4.5.1\libgcc.a(_clzsi2.o)
 .data          0x02052918        0x0 d:/devkitpro/devkitarm/bin/../lib/gcc/arm-eabi/4.5.1/crtend.o
 .data          0x02052918        0x0 d:/devkitpro/devkitarm/bin/../lib/gcc/arm-eabi/4.5.1/crtn.o
 *(.data.*)
 *(.gnu.linkonce.d*)
                0x02052918                . = ALIGN (0x4)
                0x02052918                __data_end = ABSOLUTE (.)
                0x02052918                __dtcm_lma = .
                0x02052918                __bss_vma = .

.dtcm           0x0b000000        0x0 load address 0x02052918
 *(.dtcm)
 *(.dtcm.*)
                0x0b000000                . = ALIGN (0x4)
                0x0b000000                __dtcm_end = ABSOLUTE (.)
                0x02052918                __itcm_lma = (__dtcm_lma + SIZEOF (.dtcm))

.itcm           0x01000100      0x194 load address 0x02052918
 *(.itcm)
 .itcm          0x01000100       0xc8 d:/devkitPro/libnds/lib\libnds9.a(interrupts.o)
                0x01000100                irqTable
 .itcm          0x010001c8       0xcc d:/devkitPro/libnds/lib\libnds9.a(interruptDispatcher.o)
                0x010001c8                IntrMain
 *itcm.*(.text)
                0x01000294                . = ALIGN (0x4)
                0x01000294                __itcm_end = ABSOLUTE (.)
                0x02052aac                __vectors_lma = (__itcm_lma + SIZEOF (.itcm))

.vectors        0x01000000        0x0 load address 0x02052aac
 *(.vectors)
 *vectors.*(.text)
                0x01000000                . = ALIGN (0x4)
                0x01000000                __vectors_end = ABSOLUTE (.)

.sbss           0x0b000000        0x0
                0x0b000000                __sbss_start = ABSOLUTE (.)
                0x0b000000                __sbss_start__ = ABSOLUTE (.)
 *(.sbss)
                0x0b000000                . = ALIGN (0x4)
                0x0b000000                __sbss_end = ABSOLUTE (.)

.bss            0x02052918     0x4124
                0x02052918                __bss_start = ABSOLUTE (.)
                0x02052918                __bss_start__ = ABSOLUTE (.)
 *(.dynbss)
 *(.gnu.linkonce.b*)
 *(.bss*)
 .bss           0x02052918        0x0 d:/devkitpro/devkitarm/bin/../lib/gcc/arm-eabi/4.5.1/../../../../arm-eabi/lib/ds_arm9_crt0.o
 .bss           0x02052918        0x0 d:/devkitpro/devkitarm/bin/../lib/gcc/arm-eabi/4.5.1/crti.o
 .bss           0x02052918       0x1c d:/devkitpro/devkitarm/bin/../lib/gcc/arm-eabi/4.5.1/crtbegin.o
 .bss           0x02052934        0x0 mountains.png.o
 .bss           0x02052934        0x0 Map.o
 .bss           0x02052934        0x0 main.o
 .bss           0x02052934        0x4 d:/devkitPro/libnds/lib\libul.a(ulib.o)
                0x02052934                ul_isConsoleInited
 .bss           0x02052938        0x3 d:/devkitPro/libnds/lib\libul.a(drawing.o)
                0x02052938                ul_drawingStarted
                0x02052939                ul_screenClippingChanged
                0x0205293a                ul_firstPaletteColorOpaque
 .bss           0x0205293b        0x0 d:/devkitPro/libnds/lib\libul.a(map.o)
 *fill*         0x0205293b        0x1 00
 .bss           0x0205293c        0x8 d:/devkitPro/libnds/lib\libul.a(text.o)
                0x0205293c                ul_curFont
                0x02052940                ul_lcdFont
 .bss           0x02052944        0x8 d:/devkitPro/libnds/lib\libul.a(VirtualFile.o)
                0x02052944                VirtualFileSourcesNb
                0x02052948                ul_virtualFileListNumber
 .bss           0x0205294c        0x0 d:/devkitPro/libnds/lib\libul.a(texVramManager.o)
 .bss           0x0205294c        0x0 d:/devkitPro/libnds/lib\libul.a(texPalManager.o)
 .bss           0x0205294c        0x0 d:/devkitPro/libnds/lib\libul.a(keys.o)
 .bss           0x0205294c        0x0 d:/devkitPro/libnds/lib\libul.a(ulCreateImagePalette.o)
 .bss           0x0205294c        0x0 d:/devkitPro/libnds/lib\libul.a(ulDrawGradientRect.o)
 .bss           0x0205294c        0x0 d:/devkitPro/libnds/lib\libul.a(messagebox.o)
 .bss           0x0205294c        0x0 d:/devkitPro/libnds/lib\libul.a(textSize.o)
 .bss           0x0205294c        0x0 d:/devkitPro/libnds/lib\libul.a(ulLoadImageFilePNG.o)
 .bss           0x0205294c        0x0 d:/devkitPro/libnds/lib\libul.a(ulShowSplashScreen1.o)
 .bss           0x0205294c        0x0 d:/devkitPro/libnds/lib\libul.a(ulShowSplashScreen2.o)
 .bss           0x0205294c        0x0 d:/devkitPro/libnds/lib\libul.a(glWrapper.o)
 .bss           0x0205294c        0x0 d:/devkitPro/libnds/lib\libul.a(libLoadPng.o)
 .bss           0x0205294c        0x0 d:/devkitPro/libnds/lib\libul.a(ulDrawImage.o)
 .bss           0x0205294c        0x0 d:/devkitPro/libnds/lib\libul.a(ulDrawFillRect.o)
 .bss           0x0205294c        0x0 d:/devkitPro/libnds/lib\libul.a(ulDrawLine.o)
 .bss           0x0205294c        0x0 d:/devkitPro/libnds/lib\libul.a(ulDrawRect.o)
 .bss           0x0205294c        0x0 d:/devkitPro/libnds/lib\libul.a(ulSetImagePixel.o)
 .bss           0x0205294c        0x0 d:/devkitPro/libnds/lib\libul.a(ulGetImagePixel.o)
 .bss           0x0205294c        0x0 d:/devkitPro/libnds/lib\libul.a(loading_utility.o)
 .bss           0x0205294c        0x0 d:/devkitPro/libnds/lib\libul.a(ulLoadImageFileJPG.o)
 .bss           0x0205294c        0x0 d:/devkitPro/libnds/lib\libul.a(ulLoadImageFileGIF.o)
 .bss           0x0205294c        0x0 d:/devkitPro/libnds/lib\libul.a(libLoadJpg.o)
 .bss           0x0205294c        0x0 d:/devkitPro/libnds/lib\libul.a(libLoadGif.o)
 .bss           0x0205294c        0x0 d:/devkitPro/libnds/lib\libul.a(dgif_lib.o)
 .bss           0x0205294c        0x4 d:/devkitPro/libnds/lib\libul.a(gif_err.o)
                0x0205294c                _GifError
 .bss           0x02052950        0x0 d:/devkitPro/libnds/lib\libul.a(gifalloc.o)
 .bss           0x02052950        0x0 d:/devkitPro/libnds/lib\libul.a(ulReadEntireFileToMemory.o)
 .bss           0x02052950        0x0 d:/devkitPro/libnds/lib\libul.a(gba-jpeg-decode.o)
 .bss           0x02052950        0x0 d:/devkitPro/libnds/lib\libpng.a(png.o)
 .bss           0x02052950        0x0 d:/devkitPro/libnds/lib\libpng.a(pngread.o)
 .bss           0x02052950        0x0 d:/devkitPro/libnds/lib\libpng.a(pngrio.o)
 .bss           0x02052950        0x0 d:/devkitPro/libnds/lib\libpng.a(pngrtran.o)
 .bss           0x02052950        0x0 d:/devkitPro/libnds/lib\libpng.a(pngmem.o)
 .bss           0x02052950        0x0 d:/devkitPro/libnds/lib\libpng.a(pngerror.o)
 .bss           0x02052950        0x0 d:/devkitPro/libnds/lib\libpng.a(pngget.o)
 .bss           0x02052950        0x0 d:/devkitPro/libnds/lib\libpng.a(pngrutil.o)
 .bss           0x02052950        0x0 d:/devkitPro/libnds/lib\libpng.a(pngtrans.o)
 .bss           0x02052950        0x0 d:/devkitPro/libnds/lib\libpng.a(pngset.o)
 .bss           0x02052950        0x0 d:/devkitPro/libnds/lib\libz.a(crc32.o)
 .bss           0x02052950        0x0 d:/devkitPro/libnds/lib\libz.a(inflate.o)
 .bss           0x02052950        0x0 d:/devkitPro/libnds/lib\libz.a(inftrees.o)
 .bss           0x02052950        0x0 d:/devkitPro/libnds/lib\libz.a(inffast.o)
 .bss           0x02052950        0x0 d:/devkitPro/libnds/lib\libz.a(adler32.o)
 .bss           0x02052950        0x0 d:/devkitPro/libnds/lib\libz.a(zutil.o)
 .bss           0x02052950        0x0 d:/devkitPro/libnds/lib\libnds9.a(console.o)
 .bss           0x02052950        0x0 d:/devkitPro/libnds/lib\libnds9.a(dynamicArray.o)
 .bss           0x02052950        0x6 d:/devkitPro/libnds/lib\libnds9.a(keys.o)
 .bss           0x02052956        0x0 d:/devkitPro/libnds/lib\libnds9.a(system.o)
 .bss           0x02052956        0x0 d:/devkitPro/libnds/lib\libnds9.a(touch.o)
 .bss           0x02052956        0x0 d:/devkitPro/libnds/lib\libnds9.a(trig.o)
 *fill*         0x02052956        0x2 00
 .bss           0x02052958        0x8 d:/devkitPro/libnds/lib\libnds9.a(videoGL.o)
 .bss           0x02052960        0x0 d:/devkitPro/libnds/lib\libnds9.a(initSystem.o)
 .bss           0x02052960        0x8 d:/devkitPro/libnds/lib\libnds9.a(fifosystem.o)
                0x02052964                processing
 .bss           0x02052968        0x0 d:/devkitPro/libnds/lib\libnds9.a(interrupts.o)
 .bss           0x02052968        0x0 d:/devkitPro/libnds/lib\libnds9.a(libnds_exit.o)
 .bss           0x02052968        0x0 d:/devkitPro/libnds/lib\libnds9.a(mpu_setup.o)
 .bss           0x02052968        0x0 d:/devkitPro/libnds/lib\libnds9.a(biosCalls.o)
 .bss           0x02052968        0x0 d:/devkitPro/libnds/lib\libnds9.a(debugprint.o)
 .bss           0x02052968        0x0 d:/devkitPro/libnds/lib\libnds9.a(interruptDispatcher.o)
 .bss           0x02052968        0x0 d:/devkitPro/libnds/lib\libnds9.a(swiSoftReset.o)
 .bss           0x02052968        0x0 d:/devkitPro/libnds/lib\libnds9.a(default_font.bin.o)
 .bss           0x02052968        0x0 d:/devkitPro/libnds/lib\libnds9.a(background.o)
 .bss           0x02052968        0x0 d:/devkitPro/libnds/lib\libnds9.a(video.o)
 .bss           0x02052968        0x0 d:/devkitpro/devkitarm/bin/../lib/gcc/arm-eabi/4.5.1/../../../../arm-eabi/lib\libm.a(lib_a-s_cos.o)
 .bss           0x02052968        0x0 d:/devkitpro/devkitarm/bin/../lib/gcc/arm-eabi/4.5.1/../../../../arm-eabi/lib\libm.a(lib_a-s_sin.o)
 .bss           0x02052968        0x0 d:/devkitpro/devkitarm/bin/../lib/gcc/arm-eabi/4.5.1/../../../../arm-eabi/lib\libm.a(lib_a-w_pow.o)
 .bss           0x02052968        0x0 d:/devkitpro/devkitarm/bin/../lib/gcc/arm-eabi/4.5.1/../../../../arm-eabi/lib\libm.a(lib_a-e_pow.o)
 .bss           0x02052968        0x0 d:/devkitpro/devkitarm/bin/../lib/gcc/arm-eabi/4.5.1/../../../../arm-eabi/lib\libm.a(lib_a-e_rem_pio2.o)
 .bss           0x02052968        0x0 d:/devkitpro/devkitarm/bin/../lib/gcc/arm-eabi/4.5.1/../../../../arm-eabi/lib\libm.a(lib_a-e_sqrt.o)
 .bss           0x02052968        0x0 d:/devkitpro/devkitarm/bin/../lib/gcc/arm-eabi/4.5.1/../../../../arm-eabi/lib\libm.a(lib_a-k_cos.o)
 .bss           0x02052968        0x0 d:/devkitpro/devkitarm/bin/../lib/gcc/arm-eabi/4.5.1/../../../../arm-eabi/lib\libm.a(lib_a-k_rem_pio2.o)
 .bss           0x02052968        0x0 d:/devkitpro/devkitarm/bin/../lib/gcc/arm-eabi/4.5.1/../../../../arm-eabi/lib\libm.a(lib_a-k_sin.o)
 .bss           0x02052968        0x0 d:/devkitpro/devkitarm/bin/../lib/gcc/arm-eabi/4.5.1/../../../../arm-eabi/lib\libm.a(lib_a-s_fabs.o)
 .bss           0x02052968        0x0 d:/devkitpro/devkitarm/bin/../lib/gcc/arm-eabi/4.5.1/../../../../arm-eabi/lib\libm.a(lib_a-s_finite.o)
 .bss           0x02052968        0x0 d:/devkitpro/devkitarm/bin/../lib/gcc/arm-eabi/4.5.1/../../../../arm-eabi/lib\libm.a(lib_a-s_floor.o)
 .bss           0x02052968        0x0 d:/devkitpro/devkitarm/bin/../lib/gcc/arm-eabi/4.5.1/../../../../arm-eabi/lib\libm.a(lib_a-s_fpclassify.o)
 .bss           0x02052968        0x0 d:/devkitpro/devkitarm/bin/../lib/gcc/arm-eabi/4.5.1/../../../../arm-eabi/lib\libm.a(lib_a-s_lib_ver.o)
 .bss           0x02052968        0x0 d:/devkitpro/devkitarm/bin/../lib/gcc/arm-eabi/4.5.1/../../../../arm-eabi/lib\libm.a(lib_a-s_matherr.o)
 .bss           0x02052968        0x0 d:/devkitpro/devkitarm/bin/../lib/gcc/arm-eabi/4.5.1/../../../../arm-eabi/lib\libm.a(lib_a-s_nan.o)
 .bss           0x02052968        0x0 d:/devkitpro/devkitarm/bin/../lib/gcc/arm-eabi/4.5.1/../../../../arm-eabi/lib\libm.a(lib_a-s_rint.o)
 .bss           0x02052968        0x0 d:/devkitpro/devkitarm/bin/../lib/gcc/arm-eabi/4.5.1/../../../../arm-eabi/lib\libm.a(lib_a-s_scalbn.o)
 .bss           0x02052968        0x0 d:/devkitpro/devkitarm/bin/../lib/gcc/arm-eabi/4.5.1/../../../../arm-eabi/lib\libm.a(lib_a-s_copysign.o)
 .bss           0x02052968        0x0 d:/devkitpro/devkitarm/bin/../lib/gcc/arm-eabi/4.5.1\libgcc.a(_udivsi3.o)
 .bss           0x02052968        0x0 d:/devkitpro/devkitarm/bin/../lib/gcc/arm-eabi/4.5.1\libgcc.a(_divsi3.o)
 .bss           0x02052968        0x0 d:/devkitpro/devkitarm/bin/../lib/gcc/arm-eabi/4.5.1\libgcc.a(_dvmd_tls.o)
 .bss           0x02052968        0x0 d:/devkitpro/devkitarm/bin/../lib/gcc/arm-eabi/4.5.1\libgcc.a(_arm_addsubdf3.o)
 .bss           0x02052968        0x0 d:/devkitpro/devkitarm/bin/../lib/gcc/arm-eabi/4.5.1\libgcc.a(_arm_muldivdf3.o)
 .bss           0x02052968        0x0 d:/devkitpro/devkitarm/bin/../lib/gcc/arm-eabi/4.5.1\libgcc.a(_arm_cmpdf2.o)
 .bss           0x02052968        0x0 d:/devkitpro/devkitarm/bin/../lib/gcc/arm-eabi/4.5.1\libgcc.a(_arm_fixdfsi.o)
 .bss           0x02052968        0x0 d:/devkitpro/devkitarm/bin/../lib/gcc/arm-eabi/4.5.1\libgcc.a(_arm_fixunsdfsi.o)
 .bss           0x02052968        0x0 d:/devkitpro/devkitarm/bin/../lib/gcc/arm-eabi/4.5.1\libgcc.a(_arm_truncdfsf2.o)
 .bss           0x02052968        0x0 d:/devkitpro/devkitarm/bin/../lib/gcc/arm-eabi/4.5.1\libgcc.a(_arm_addsubsf3.o)
 .bss           0x02052968        0x0 d:/devkitpro/devkitarm/bin/../lib/gcc/arm-eabi/4.5.1\libgcc.a(_arm_muldivsf3.o)
 .bss           0x02052968        0x0 d:/devkitpro/devkitarm/bin/../lib/gcc/arm-eabi/4.5.1\libgcc.a(_arm_cmpsf2.o)
 .bss           0x02052968        0x0 d:/devkitpro/devkitarm/bin/../lib/gcc/arm-eabi/4.5.1\libgcc.a(_arm_fixsfsi.o)
 .bss           0x02052968        0x0 d:/devkitpro/devkitarm/bin/../lib/gcc/arm-eabi/4.5.1\libgcc.a(_arm_fixunssfsi.o)
 .bss           0x02052968        0x0 d:/devkitpro/devkitarm/bin/../lib/gcc/arm-eabi/4.5.1\libgcc.a(_muldi3.o)
 .bss           0x02052968        0x0 d:/devkitpro/devkitarm/bin/../lib/gcc/arm-eabi/4.5.1/../../../../arm-eabi/lib\libg.a(lib_a-abort.o)
 .bss           0x02052968        0x0 d:/devkitpro/devkitarm/bin/../lib/gcc/arm-eabi/4.5.1/../../../../arm-eabi/lib\libg.a(lib_a-bsearch.o)
 .bss           0x02052968        0x0 d:/devkitpro/devkitarm/bin/../lib/gcc/arm-eabi/4.5.1/../../../../arm-eabi/lib\libg.a(lib_a-calloc.o)
 .bss           0x02052968        0x0 d:/devkitpro/devkitarm/bin/../lib/gcc/arm-eabi/4.5.1/../../../../arm-eabi/lib\libg.a(lib_a-callocr.o)
 .bss           0x02052968        0x0 d:/devkitpro/devkitarm/bin/../lib/gcc/arm-eabi/4.5.1/../../../../arm-eabi/lib\libg.a(lib_a-errno.o)
 .bss           0x02052968        0x0 d:/devkitpro/devkitarm/bin/../lib/gcc/arm-eabi/4.5.1/../../../../arm-eabi/lib\libg.a(lib_a-fclose.o)
 .bss           0x02052968        0x0 d:/devkitpro/devkitarm/bin/../lib/gcc/arm-eabi/4.5.1/../../../../arm-eabi/lib\libg.a(lib_a-fflush.o)
 .bss           0x02052968        0x0 d:/devkitpro/devkitarm/bin/../lib/gcc/arm-eabi/4.5.1/../../../../arm-eabi/lib\libg.a(lib_a-findfp.o)
 .bss           0x02052968        0x0 d:/devkitpro/devkitarm/bin/../lib/gcc/arm-eabi/4.5.1/../../../../arm-eabi/lib\libg.a(lib_a-fprintf.o)
 .bss           0x02052968        0x0 d:/devkitpro/devkitarm/bin/../lib/gcc/arm-eabi/4.5.1/../../../../arm-eabi/lib\libg.a(lib_a-fread.o)
 .bss           0x02052968        0x0 d:/devkitpro/devkitarm/bin/../lib/gcc/arm-eabi/4.5.1/../../../../arm-eabi/lib\libg.a(lib_a-freer.o)
 .bss           0x02052968        0x0 d:/devkitpro/devkitarm/bin/../lib/gcc/arm-eabi/4.5.1/../../../../arm-eabi/lib\libg.a(lib_a-fwalk.o)
 .bss           0x02052968        0x0 d:/devkitpro/devkitarm/bin/../lib/gcc/arm-eabi/4.5.1/../../../../arm-eabi/lib\libg.a(lib_a-impure.o)
 .bss           0x02052968        0x0 d:/devkitpro/devkitarm/bin/../lib/gcc/arm-eabi/4.5.1/../../../../arm-eabi/lib\libg.a(lib_a-init.o)
 .bss           0x02052968        0x0 d:/devkitpro/devkitarm/bin/../lib/gcc/arm-eabi/4.5.1/../../../../arm-eabi/lib\libg.a(lib_a-iprintf.o)
 .bss           0x02052968        0x0 d:/devkitpro/devkitarm/bin/../lib/gcc/arm-eabi/4.5.1/../../../../arm-eabi/lib\libg.a(lib_a-malloc.o)
 .bss           0x02052968       0x34 d:/devkitpro/devkitarm/bin/../lib/gcc/arm-eabi/4.5.1/../../../../arm-eabi/lib\libg.a(lib_a-mallocr.o)
                0x02052968                __malloc_top_pad
                0x0205296c                __malloc_current_mallinfo
                0x02052994                __malloc_max_sbrked_mem
                0x02052998                __malloc_max_total_mem
 .bss           0x0205299c        0x0 d:/devkitpro/devkitarm/bin/../lib/gcc/arm-eabi/4.5.1/../../../../arm-eabi/lib\libg.a(lib_a-memcmp.o)
 .bss           0x0205299c        0x0 d:/devkitpro/devkitarm/bin/../lib/gcc/arm-eabi/4.5.1/../../../../arm-eabi/lib\libg.a(lib_a-memcpy.o)
 .bss           0x0205299c        0x0 d:/devkitpro/devkitarm/bin/../lib/gcc/arm-eabi/4.5.1/../../../../arm-eabi/lib\libg.a(lib_a-memmove.o)
 .bss           0x0205299c        0x0 d:/devkitpro/devkitarm/bin/../lib/gcc/arm-eabi/4.5.1/../../../../arm-eabi/lib\libg.a(lib_a-memset.o)
 .bss           0x0205299c        0x0 d:/devkitpro/devkitarm/bin/../lib/gcc/arm-eabi/4.5.1/../../../../arm-eabi/lib\libg.a(lib_a-mlock.o)
 .bss           0x0205299c        0x0 d:/devkitpro/devkitarm/bin/../lib/gcc/arm-eabi/4.5.1/../../../../arm-eabi/lib\libg.a(lib_a-rand.o)
 .bss           0x0205299c        0x0 d:/devkitpro/devkitarm/bin/../lib/gcc/arm-eabi/4.5.1/../../../../arm-eabi/lib\libg.a(lib_a-realloc.o)
 .bss           0x0205299c        0x0 d:/devkitpro/devkitarm/bin/../lib/gcc/arm-eabi/4.5.1/../../../../arm-eabi/lib\libg.a(lib_a-reallocr.o)
 .bss           0x0205299c        0x0 d:/devkitpro/devkitarm/bin/../lib/gcc/arm-eabi/4.5.1/../../../../arm-eabi/lib\libg.a(lib_a-refill.o)
 .bss           0x0205299c        0x0 d:/devkitpro/devkitarm/bin/../lib/gcc/arm-eabi/4.5.1/../../../../arm-eabi/lib\libg.a(lib_a-setjmp.o)
 .bss           0x0205299c        0x0 d:/devkitpro/devkitarm/bin/../lib/gcc/arm-eabi/4.5.1/../../../../arm-eabi/lib\libg.a(lib_a-setvbuf.o)
 .bss           0x0205299c        0x0 d:/devkitpro/devkitarm/bin/../lib/gcc/arm-eabi/4.5.1/../../../../arm-eabi/lib\libg.a(lib_a-signal.o)
 .bss           0x0205299c        0x0 d:/devkitpro/devkitarm/bin/../lib/gcc/arm-eabi/4.5.1/../../../../arm-eabi/lib\libg.a(lib_a-siscanf.o)
 .bss           0x0205299c        0x0 d:/devkitpro/devkitarm/bin/../lib/gcc/arm-eabi/4.5.1/../../../../arm-eabi/lib\libg.a(lib_a-snprintf.o)
 .bss           0x0205299c        0x0 d:/devkitpro/devkitarm/bin/../lib/gcc/arm-eabi/4.5.1/../../../../arm-eabi/lib\libg.a(lib_a-sprintf.o)
 .bss           0x0205299c        0x0 d:/devkitpro/devkitarm/bin/../lib/gcc/arm-eabi/4.5.1/../../../../arm-eabi/lib\libg.a(lib_a-stdio.o)
 .bss           0x0205299c        0x0 d:/devkitpro/devkitarm/bin/../lib/gcc/arm-eabi/4.5.1/../../../../arm-eabi/lib\libg.a(lib_a-strcmp.o)
 .bss           0x0205299c        0x0 d:/devkitpro/devkitarm/bin/../lib/gcc/arm-eabi/4.5.1/../../../../arm-eabi/lib\libg.a(lib_a-strlen.o)
 .bss           0x0205299c        0x0 d:/devkitpro/devkitarm/bin/../lib/gcc/arm-eabi/4.5.1/../../../../arm-eabi/lib\libg.a(lib_a-strtod.o)
 .bss           0x0205299c        0x0 d:/devkitpro/devkitarm/bin/../lib/gcc/arm-eabi/4.5.1/../../../../arm-eabi/lib\libg.a(lib_a-svfiscanf.o)
 .bss           0x0205299c        0x0 d:/devkitpro/devkitarm/bin/../lib/gcc/arm-eabi/4.5.1/../../../../arm-eabi/lib\libg.a(lib_a-svfprintf.o)
 .bss           0x0205299c        0x0 d:/devkitpro/devkitarm/bin/../lib/gcc/arm-eabi/4.5.1/../../../../arm-eabi/lib\libg.a(lib_a-ungetc.o)
 .bss           0x0205299c        0x0 d:/devkitpro/devkitarm/bin/../lib/gcc/arm-eabi/4.5.1/../../../../arm-eabi/lib\libg.a(lib_a-vfiprintf.o)
 .bss           0x0205299c        0x0 d:/devkitpro/devkitarm/bin/../lib/gcc/arm-eabi/4.5.1/../../../../arm-eabi/lib\libg.a(lib_a-vfprintf.o)
 .bss           0x0205299c        0x0 d:/devkitpro/devkitarm/bin/../lib/gcc/arm-eabi/4.5.1/../../../../arm-eabi/lib\libg.a(lib_a-wcrtomb.o)
 .bss           0x0205299c        0x0 d:/devkitpro/devkitarm/bin/../lib/gcc/arm-eabi/4.5.1/../../../../arm-eabi/lib\libg.a(lib_a-wcsrtombs.o)
 .bss           0x0205299c        0x0 d:/devkitpro/devkitarm/bin/../lib/gcc/arm-eabi/4.5.1/../../../../arm-eabi/lib\libg.a(lib_a-wctomb_r.o)
 .bss           0x0205299c        0x0 d:/devkitpro/devkitarm/bin/../lib/gcc/arm-eabi/4.5.1/../../../../arm-eabi/lib\libg.a(lib_a-wsetup.o)
 .bss           0x0205299c        0x0 d:/devkitpro/devkitarm/bin/../lib/gcc/arm-eabi/4.5.1/../../../../arm-eabi/lib\libg.a(lib_a-ctype_.o)
 .bss           0x0205299c        0x0 d:/devkitpro/devkitarm/bin/../lib/gcc/arm-eabi/4.5.1/../../../../arm-eabi/lib\libg.a(lib_a-dtoa.o)
 .bss           0x0205299c        0x0 d:/devkitpro/devkitarm/bin/../lib/gcc/arm-eabi/4.5.1/../../../../arm-eabi/lib\libg.a(lib_a-fputwc.o)
 .bss           0x0205299c        0x0 d:/devkitpro/devkitarm/bin/../lib/gcc/arm-eabi/4.5.1/../../../../arm-eabi/lib\libg.a(lib_a-fvwrite.o)
 .bss           0x0205299c        0x0 d:/devkitpro/devkitarm/bin/../lib/gcc/arm-eabi/4.5.1/../../../../arm-eabi/lib\libg.a(lib_a-gdtoa-gethex.o)
 .bss           0x0205299c        0x0 d:/devkitpro/devkitarm/bin/../lib/gcc/arm-eabi/4.5.1/../../../../arm-eabi/lib\libg.a(lib_a-gdtoa-hexnan.o)
 .bss           0x0205299c        0x0 d:/devkitpro/devkitarm/bin/../lib/gcc/arm-eabi/4.5.1/../../../../arm-eabi/lib\libg.a(lib_a-iswspace.o)
 .bss           0x0205299c        0x0 d:/devkitpro/devkitarm/bin/../lib/gcc/arm-eabi/4.5.1/../../../../arm-eabi/lib\libg.a(lib_a-jp2uc.o)
 .bss           0x0205299c      0x2b8 d:/devkitpro/devkitarm/bin/../lib/gcc/arm-eabi/4.5.1/../../../../arm-eabi/lib\libg.a(lib_a-locale.o)
                0x02052c48                __nlocale_changed
                0x02052c4c                __mlocale_changed
                0x02052c50                _PathLocale
 .bss           0x02052c54        0x0 d:/devkitpro/devkitarm/bin/../lib/gcc/arm-eabi/4.5.1/../../../../arm-eabi/lib\libg.a(lib_a-makebuf.o)
 .bss           0x02052c54        0x0 d:/devkitpro/devkitarm/bin/../lib/gcc/arm-eabi/4.5.1/../../../../arm-eabi/lib\libg.a(lib_a-mbrtowc.o)
 .bss           0x02052c54        0x0 d:/devkitpro/devkitarm/bin/../lib/gcc/arm-eabi/4.5.1/../../../../arm-eabi/lib\libg.a(lib_a-mbtowc_r.o)
 .bss           0x02052c54        0x0 d:/devkitpro/devkitarm/bin/../lib/gcc/arm-eabi/4.5.1/../../../../arm-eabi/lib\libg.a(lib_a-memchr.o)
 .bss           0x02052c54        0x0 d:/devkitpro/devkitarm/bin/../lib/gcc/arm-eabi/4.5.1/../../../../arm-eabi/lib\libg.a(lib_a-mprec.o)
 .bss           0x02052c54        0x0 d:/devkitpro/devkitarm/bin/../lib/gcc/arm-eabi/4.5.1/../../../../arm-eabi/lib\libg.a(lib_a-sccl.o)
 .bss           0x02052c54        0x0 d:/devkitpro/devkitarm/bin/../lib/gcc/arm-eabi/4.5.1/../../../../arm-eabi/lib\libg.a(lib_a-sf_nan.o)
 .bss           0x02052c54        0x0 d:/devkitpro/devkitarm/bin/../lib/gcc/arm-eabi/4.5.1/../../../../arm-eabi/lib\libg.a(lib_a-strcasecmp.o)
 .bss           0x02052c54        0x0 d:/devkitpro/devkitarm/bin/../lib/gcc/arm-eabi/4.5.1/../../../../arm-eabi/lib\libg.a(lib_a-strcat.o)
 .bss           0x02052c54        0x0 d:/devkitpro/devkitarm/bin/../lib/gcc/arm-eabi/4.5.1/../../../../arm-eabi/lib\libg.a(lib_a-strchr.o)
 .bss           0x02052c54        0x0 d:/devkitpro/devkitarm/bin/../lib/gcc/arm-eabi/4.5.1/../../../../arm-eabi/lib\libg.a(lib_a-strcpy.o)
 .bss           0x02052c54        0x0 d:/devkitpro/devkitarm/bin/../lib/gcc/arm-eabi/4.5.1/../../../../arm-eabi/lib\libg.a(lib_a-strlcpy.o)
 .bss           0x02052c54        0x0 d:/devkitpro/devkitarm/bin/../lib/gcc/arm-eabi/4.5.1/../../../../arm-eabi/lib\libg.a(lib_a-strncasecmp.o)
 .bss           0x02052c54        0x0 d:/devkitpro/devkitarm/bin/../lib/gcc/arm-eabi/4.5.1/../../../../arm-eabi/lib\libg.a(lib_a-strncmp.o)
 .bss           0x02052c54        0x0 d:/devkitpro/devkitarm/bin/../lib/gcc/arm-eabi/4.5.1/../../../../arm-eabi/lib\libg.a(lib_a-strncpy.o)
 .bss           0x02052c54        0x0 d:/devkitpro/devkitarm/bin/../lib/gcc/arm-eabi/4.5.1/../../../../arm-eabi/lib\libg.a(lib_a-strtol.o)
 .bss           0x02052c54        0x0 d:/devkitpro/devkitarm/bin/../lib/gcc/arm-eabi/4.5.1/../../../../arm-eabi/lib\libg.a(lib_a-strtoll_r.o)
 .bss           0x02052c54        0x0 d:/devkitpro/devkitarm/bin/../lib/gcc/arm-eabi/4.5.1/../../../../arm-eabi/lib\libg.a(lib_a-strtoul.o)
 .bss           0x02052c54        0x0 d:/devkitpro/devkitarm/bin/../lib/gcc/arm-eabi/4.5.1/../../../../arm-eabi/lib\libg.a(lib_a-strtoull_r.o)
 .bss           0x02052c54        0x0 d:/devkitpro/devkitarm/bin/../lib/gcc/arm-eabi/4.5.1/../../../../arm-eabi/lib\libg.a(lib_a-svfiprintf.o)
 .bss           0x02052c54        0x0 d:/devkitpro/devkitarm/bin/../lib/gcc/arm-eabi/4.5.1/../../../../arm-eabi/lib\libg.a(lib_a-wbuf.o)
 .bss           0x02052c54        0x0 d:/devkitpro/devkitarm/bin/../lib/gcc/arm-eabi/4.5.1/../../../../arm-eabi/lib\libg.a(lib_a-wcsnrtombs.o)
 .bss           0x02052c54        0x0 d:/devkitpro/devkitarm/bin/../lib/gcc/arm-eabi/4.5.1/../../../../arm-eabi/lib\libg.a(lib_a-getenv_r.o)
 .bss           0x02052c54        0x4 d:/devkitpro/devkitarm/bin/../lib/gcc/arm-eabi/4.5.1/../../../../arm-eabi/lib\libg.a(lib_a-environ.o)
 .bss           0x02052c58        0x0 d:/devkitpro/devkitarm/bin/../lib/gcc/arm-eabi/4.5.1/../../../../arm-eabi/lib\libg.a(lib_a-envlock.o)
 .bss           0x02052c58        0x0 d:/devkitpro/devkitarm/bin/../lib/gcc/arm-eabi/4.5.1/../../../../arm-eabi/lib\libsysbase.a(iosupport.o)
 .bss           0x02052c58        0x0 d:/devkitpro/devkitarm/bin/../lib/gcc/arm-eabi/4.5.1/../../../../arm-eabi/lib\libsysbase.a(close.o)
 .bss           0x02052c58        0x0 d:/devkitpro/devkitarm/bin/../lib/gcc/arm-eabi/4.5.1/../../../../arm-eabi/lib\libsysbase.a(fstat.o)
 .bss           0x02052c58        0x0 d:/devkitpro/devkitarm/bin/../lib/gcc/arm-eabi/4.5.1/../../../../arm-eabi/lib\libsysbase.a(getpid.o)
 .bss           0x02052c58        0x0 d:/devkitpro/devkitarm/bin/../lib/gcc/arm-eabi/4.5.1/../../../../arm-eabi/lib\libsysbase.a(isatty.o)
 .bss           0x02052c58        0x0 d:/devkitpro/devkitarm/bin/../lib/gcc/arm-eabi/4.5.1/../../../../arm-eabi/lib\libsysbase.a(kill.o)
 .bss           0x02052c58        0x0 d:/devkitpro/devkitarm/bin/../lib/gcc/arm-eabi/4.5.1/../../../../arm-eabi/lib\libsysbase.a(lseek.o)
 .bss           0x02052c58        0x0 d:/devkitpro/devkitarm/bin/../lib/gcc/arm-eabi/4.5.1/../../../../arm-eabi/lib\libsysbase.a(read.o)
 .bss           0x02052c58        0x4 d:/devkitpro/devkitarm/bin/../lib/gcc/arm-eabi/4.5.1/../../../../arm-eabi/lib\libsysbase.a(sbrk.o)
 .bss           0x02052c5c        0x0 d:/devkitpro/devkitarm/bin/../lib/gcc/arm-eabi/4.5.1/../../../../arm-eabi/lib\libsysbase.a(times.o)
 .bss           0x02052c5c        0x0 d:/devkitpro/devkitarm/bin/../lib/gcc/arm-eabi/4.5.1/../../../../arm-eabi/lib\libsysbase.a(write.o)
 .bss           0x02052c5c        0x0 d:/devkitpro/devkitarm/bin/../lib/gcc/arm-eabi/4.5.1/../../../../arm-eabi/lib\libsysbase.a(_exit.o)
 .bss           0x02052c5c        0x8 d:/devkitpro/devkitarm/bin/../lib/gcc/arm-eabi/4.5.1/../../../../arm-eabi/lib\libsysbase.a(malloc_vars.o)
                0x02052c5c                fake_heap_end
                0x02052c60                fake_heap_start
 .bss           0x02052c64        0x0 d:/devkitpro/devkitarm/bin/../lib/gcc/arm-eabi/4.5.1/../../../../arm-eabi/lib\libsysbase.a(build_argv.o)
 .bss           0x02052c64        0x8 d:/devkitpro/devkitarm/bin/../lib/gcc/arm-eabi/4.5.1/../../../../arm-eabi/lib\libsysbase.a(syscall_support.o)
                0x02052c64                __syscalls
 .bss           0x02052c6c     0x1000 d:/devkitpro/devkitarm/bin/../lib/gcc/arm-eabi/4.5.1/../../../../arm-eabi/lib\libsysbase.a(handle_manager.o)
 .bss           0x02053c6c        0x0 d:/devkitpro/devkitarm/bin/../lib/gcc/arm-eabi/4.5.1\libgcc.a(_aeabi_uldivmod.o)
 .bss           0x02053c6c        0x0 d:/devkitpro/devkitarm/bin/../lib/gcc/arm-eabi/4.5.1\libgcc.a(bpabi.o)
 .bss           0x02053c6c        0x0 d:/devkitpro/devkitarm/bin/../lib/gcc/arm-eabi/4.5.1\libgcc.a(unwind-arm.o)
 .bss           0x02053c6c        0x0 d:/devkitpro/devkitarm/bin/../lib/gcc/arm-eabi/4.5.1\libgcc.a(libunwind.o)
 .bss           0x02053c6c        0x0 d:/devkitpro/devkitarm/bin/../lib/gcc/arm-eabi/4.5.1\libgcc.a(pr-support.o)
 .bss           0x02053c6c        0x0 d:/devkitpro/devkitarm/bin/../lib/gcc/arm-eabi/4.5.1\libgcc.a(_divdi3.o)
 .bss           0x02053c6c        0x0 d:/devkitpro/devkitarm/bin/../lib/gcc/arm-eabi/4.5.1\libgcc.a(_udivdi3.o)
 .bss           0x02053c6c        0x0 d:/devkitpro/devkitarm/bin/../lib/gcc/arm-eabi/4.5.1\libgcc.a(_clzsi2.o)
 .bss           0x02053c6c        0x0 d:/devkitpro/devkitarm/bin/../lib/gcc/arm-eabi/4.5.1/crtend.o
 .bss           0x02053c6c        0x0 d:/devkitpro/devkitarm/bin/../lib/gcc/arm-eabi/4.5.1/crtn.o
 *(COMMON)
 COMMON         0x02053c6c        0x4 main.o
                0x02053c6c                mapMountains
 COMMON         0x02053c70      0x800 d:/devkitPro/libnds/lib\libul.a(ulib.o)
                0x02053c70                ul_cos
                0x02054070                ul_sin
 COMMON         0x02054470      0x411 d:/devkitPro/libnds/lib\libul.a(drawing.o)
                0x02054470                ul_colorKeyValue32
                0x02054474                ul_colorKeyValue
                0x02054478                ulDualScreenSprites
                0x02054878                ul_autoDepth
                0x02054879                ul_dualScreenMode
                0x0205487a                ul_frameNumber
                0x0205487c                ul_currentDepth
                0x02054880                ul_colorKeyEnabled
 *fill*         0x02054881        0x3 00
 COMMON         0x02054884       0x44 d:/devkitPro/libnds/lib\libul.a(VirtualFile.o)
                0x02054884                VirtualFileSources
                0x020548c4                ul_virtualFileList
 COMMON         0x020548c8       0x1c d:/devkitPro/libnds/lib\libul.a(texVramManager.o)
                0x020548c8                ulTextureMax
                0x020548cc                ulTextureParams
                0x020548d0                ulTexRamBlocksNb
                0x020548d4                ulTextureNb
                0x020548d8                ulTexRamBlocksMax
                0x020548dc                ulTexRamBlocks
                0x020548e0                ulTextureActive
 COMMON         0x020548e4        0xc d:/devkitPro/libnds/lib\libul.a(texPalManager.o)
                0x020548e4                ulTexPalBlocksNb
                0x020548e8                ulTexPalBlocks
                0x020548ec                ulTexPalBlocksMax
 COMMON         0x020548f0        0x8 d:/devkitPro/libnds/lib\libul.a(ulShowSplashScreen1.o)
                0x020548f0                ul_splash1_fadeDir
                0x020548f4                ul_splash1_fade
 COMMON         0x020548f8      0xc00 d:/devkitPro/libnds/lib\libul.a(ulShowSplashScreen2.o)
                0x020548f8                ul_neoflashlogo_positions
 COMMON         0x020554f8      0x804 d:/devkitPro/libnds/lib\libul.a(libLoadGif.o)
                0x020554f8                temppalette
                0x020554fc                LineBuf
 COMMON         0x02055cfc        0x8 d:/devkitPro/libnds/lib\libul.a(gba-jpeg-decode.o)
                0x02055cfc                JPG_outEnd
                0x02055d00                JPG_outBegin
 COMMON         0x02055d04       0x5c d:/devkitPro/libnds/lib\libnds9.a(console.o)
                0x02055d04                currentCopy
 COMMON         0x02055d60       0x4c d:/devkitPro/libnds/lib\libnds9.a(videoGL.o)
                0x02055d60                glGlobalData
 COMMON         0x02055dac        0x1 d:/devkitPro/libnds/lib\libnds9.a(initSystem.o)
                0x02055dac                __dsimode
 *fill*         0x02055dad        0x3 00
 COMMON         0x02055db0      0xa40 d:/devkitPro/libnds/lib\libnds9.a(fifosystem.o)
                0x02055db0                fifo_datamsg_data
                0x02055df0                fifo_buffer
                0x020565f0                fifo_value32_func
                0x02056630                fifo_address_func
                0x02056670                fifo_value32_data
                0x020566b0                fifo_value32_queue
                0x020566f0                fifo_data_queue
                0x02056730                fifo_address_data
                0x02056770                fifo_datamsg_func
                0x020567b0                fifo_address_queue
 COMMON         0x020567f0      0x148 d:/devkitPro/libnds/lib\libnds9.a(background.o)
                0x020567f0                bgState
                0x02056930                bgIsTextLut
 COMMON         0x02056938      0x100 d:/devkitpro/devkitarm/bin/../lib/gcc/arm-eabi/4.5.1/../../../../arm-eabi/lib\libg.a(lib_a-gdtoa-gethex.o)
                0x02056938                __hexdig
 COMMON         0x02056a38        0x4 d:/devkitpro/devkitarm/bin/../lib/gcc/arm-eabi/4.5.1/../../../../arm-eabi/lib\libsysbase.a(times.o)
                0x02056a38                punixTime
                0x02056a3c                . = ALIGN (0x4)
                0x02056a3c                __bss_end = ABSOLUTE (.)
                0x02056a3c                __bss_end__ = __bss_end
                0x02056a3c                _end = __bss_end__
                0x02056a3c                __end__ = __bss_end__

.stab
 *(.stab)

.stabstr
 *(.stabstr)

.stab.excl
 *(.stab.excl)

.stab.exclstr
 *(.stab.exclstr)

.stab.index
 *(.stab.index)

.stab.indexstr
 *(.stab.indexstr)

.ARM.attributes
                0x00000000       0x2d load address 0x02052918
 .ARM.attributes
                0x00000000       0x21 d:/devkitpro/devkitarm/bin/../lib/gcc/arm-eabi/4.5.1/../../../../arm-eabi/lib/ds_arm9_crt0.o
 .ARM.attributes
                0x00000021       0x20 d:/devkitpro/devkitarm/bin/../lib/gcc/arm-eabi/4.5.1/crti.o
 .ARM.attributes
                0x00000041       0x30 d:/devkitpro/devkitarm/bin/../lib/gcc/arm-eabi/4.5.1/crtbegin.o
 .ARM.attributes
                0x00000071       0x14 mountains.png.o
 .ARM.attributes
                0x00000085       0x27 Map.o
 .ARM.attributes
                0x000000ac       0x27 main.o
 .ARM.attributes
                0x000000d3       0x2d d:/devkitPro/libnds/lib\libul.a(ulib.o)
 .ARM.attributes
                0x00000100       0x2d d:/devkitPro/libnds/lib\libul.a(drawing.o)
 .ARM.attributes
                0x0000012d       0x2d d:/devkitPro/libnds/lib\libul.a(map.o)
 .ARM.attributes
                0x0000015a       0x2d d:/devkitPro/libnds/lib\libul.a(text.o)
 .ARM.attributes
                0x00000187       0x2d d:/devkitPro/libnds/lib\libul.a(VirtualFile.o)
 .ARM.attributes
                0x000001b4       0x2d d:/devkitPro/libnds/lib\libul.a(texVramManager.o)
 .ARM.attributes
                0x000001e1       0x2d d:/devkitPro/libnds/lib\libul.a(texPalManager.o)
 .ARM.attributes
                0x0000020e       0x2d d:/devkitPro/libnds/lib\libul.a(keys.o)
 .ARM.attributes
                0x0000023b       0x2d d:/devkitPro/libnds/lib\libul.a(ulCreateImagePalette.o)
 .ARM.attributes
                0x00000268       0x2d d:/devkitPro/libnds/lib\libul.a(ulDrawGradientRect.o)
 .ARM.attributes
                0x00000295       0x2d d:/devkitPro/libnds/lib\libul.a(messagebox.o)
 .ARM.attributes
                0x000002c2       0x2d d:/devkitPro/libnds/lib\libul.a(textSize.o)
 .ARM.attributes
                0x000002ef       0x2d d:/devkitPro/libnds/lib\libul.a(ulLoadImageFilePNG.o)
 .ARM.attributes
                0x0000031c       0x2d d:/devkitPro/libnds/lib\libul.a(ulShowSplashScreen1.o)
 .ARM.attributes
                0x00000349       0x2d d:/devkitPro/libnds/lib\libul.a(ulShowSplashScreen2.o)
 .ARM.attributes
                0x00000376       0x2d d:/devkitPro/libnds/lib\libul.a(glWrapper.o)
 .ARM.attributes
                0x000003a3       0x2d d:/devkitPro/libnds/lib\libul.a(libLoadPng.o)
 .ARM.attributes
                0x000003d0       0x2d d:/devkitPro/libnds/lib\libul.a(ulDrawImage.o)
 .ARM.attributes
                0x000003fd       0x2d d:/devkitPro/libnds/lib\libul.a(ulDrawFillRect.o)
 .ARM.attributes
                0x0000042a       0x2d d:/devkitPro/libnds/lib\libul.a(ulDrawLine.o)
 .ARM.attributes
                0x00000457       0x2d d:/devkitPro/libnds/lib\libul.a(ulDrawRect.o)
 .ARM.attributes
                0x00000484       0x2d d:/devkitPro/libnds/lib\libul.a(ulSetImagePixel.o)
 .ARM.attributes
                0x000004b1       0x2d d:/devkitPro/libnds/lib\libul.a(ulGetImagePixel.o)
 .ARM.attributes
                0x000004de       0x2d d:/devkitPro/libnds/lib\libul.a(loading_utility.o)
 .ARM.attributes
                0x0000050b       0x2d d:/devkitPro/libnds/lib\libul.a(ulLoadImageFileJPG.o)
 .ARM.attributes
                0x00000538       0x2d d:/devkitPro/libnds/lib\libul.a(ulLoadImageFileGIF.o)
 .ARM.attributes
                0x00000565       0x2d d:/devkitPro/libnds/lib\libul.a(libLoadJpg.o)
 .ARM.attributes
                0x00000592       0x2d d:/devkitPro/libnds/lib\libul.a(libLoadGif.o)
 .ARM.attributes
                0x000005bf       0x2d d:/devkitPro/libnds/lib\libul.a(dgif_lib.o)
 .ARM.attributes
                0x000005ec       0x2d d:/devkitPro/libnds/lib\libul.a(gif_err.o)
 .ARM.attributes
                0x00000619       0x2d d:/devkitPro/libnds/lib\libul.a(gifalloc.o)
 .ARM.attributes
                0x00000646       0x2d d:/devkitPro/libnds/lib\libul.a(ulReadEntireFileToMemory.o)
 .ARM.attributes
                0x00000673       0x2d d:/devkitPro/libnds/lib\libul.a(gba-jpeg-decode.o)
 .ARM.attributes
                0x000006a0       0x2e d:/devkitPro/libnds/lib\libpng.a(png.o)
 .ARM.attributes
                0x000006ce       0x2e d:/devkitPro/libnds/lib\libpng.a(pngread.o)
 .ARM.attributes
                0x000006fc       0x2e d:/devkitPro/libnds/lib\libpng.a(pngrio.o)
 .ARM.attributes
                0x0000072a       0x2e d:/devkitPro/libnds/lib\libpng.a(pngrtran.o)
 .ARM.attributes
                0x00000758       0x2e d:/devkitPro/libnds/lib\libpng.a(pngmem.o)
 .ARM.attributes
                0x00000786       0x2e d:/devkitPro/libnds/lib\libpng.a(pngerror.o)
 .ARM.attributes
                0x000007b4       0x2e d:/devkitPro/libnds/lib\libpng.a(pngget.o)
 .ARM.attributes
                0x000007e2       0x2e d:/devkitPro/libnds/lib\libpng.a(pngrutil.o)
 .ARM.attributes
                0x00000810       0x2e d:/devkitPro/libnds/lib\libpng.a(pngtrans.o)
 .ARM.attributes
                0x0000083e       0x2e d:/devkitPro/libnds/lib\libpng.a(pngset.o)
 .ARM.attributes
                0x0000086c       0x2e d:/devkitPro/libnds/lib\libz.a(crc32.o)
 .ARM.attributes
                0x0000089a       0x2e d:/devkitPro/libnds/lib\libz.a(inflate.o)
 .ARM.attributes
                0x000008c8       0x2e d:/devkitPro/libnds/lib\libz.a(inftrees.o)
 .ARM.attributes
                0x000008f6       0x2e d:/devkitPro/libnds/lib\libz.a(inffast.o)
 .ARM.attributes
                0x00000924       0x2e d:/devkitPro/libnds/lib\libz.a(adler32.o)
 .ARM.attributes
                0x00000952       0x2e d:/devkitPro/libnds/lib\libz.a(zutil.o)
 .ARM.attributes
                0x00000980       0x27 d:/devkitPro/libnds/lib\libnds9.a(console.o)
 .ARM.attributes
                0x000009a7       0x27 d:/devkitPro/libnds/lib\libnds9.a(dynamicArray.o)
 .ARM.attributes
                0x000009ce       0x27 d:/devkitPro/libnds/lib\libnds9.a(keys.o)
 .ARM.attributes
                0x000009f5       0x27 d:/devkitPro/libnds/lib\libnds9.a(system.o)
 .ARM.attributes
                0x00000a1c       0x27 d:/devkitPro/libnds/lib\libnds9.a(touch.o)
 .ARM.attributes
                0x00000a43       0x27 d:/devkitPro/libnds/lib\libnds9.a(trig.o)
 .ARM.attributes
                0x00000a6a       0x27 d:/devkitPro/libnds/lib\libnds9.a(videoGL.o)
 .ARM.attributes
                0x00000a91       0x27 d:/devkitPro/libnds/lib\libnds9.a(initSystem.o)
 .ARM.attributes
                0x00000ab8       0x27 d:/devkitPro/libnds/lib\libnds9.a(fifosystem.o)
 .ARM.attributes
                0x00000adf       0x27 d:/devkitPro/libnds/lib\libnds9.a(interrupts.o)
 .ARM.attributes
                0x00000b06       0x27 d:/devkitPro/libnds/lib\libnds9.a(libnds_exit.o)
 .ARM.attributes
                0x00000b2d       0x21 d:/devkitPro/libnds/lib\libnds9.a(mpu_setup.o)
 .ARM.attributes
                0x00000b4e       0x1b d:/devkitPro/libnds/lib\libnds9.a(biosCalls.o)
 .ARM.attributes
                0x00000b69       0x1b d:/devkitPro/libnds/lib\libnds9.a(debugprint.o)
 .ARM.attributes
                0x00000b84       0x1b d:/devkitPro/libnds/lib\libnds9.a(interruptDispatcher.o)
 .ARM.attributes
                0x00000b9f       0x21 d:/devkitPro/libnds/lib\libnds9.a(swiSoftReset.o)
 .ARM.attributes
                0x00000bc0       0x14 d:/devkitPro/libnds/lib\libnds9.a(default_font.bin.o)
 .ARM.attributes
                0x00000bd4       0x27 d:/devkitPro/libnds/lib\libnds9.a(background.o)
 .ARM.attributes
                0x00000bfb       0x27 d:/devkitPro/libnds/lib\libnds9.a(video.o)
 .ARM.attributes
                0x00000c22       0x30 d:/devkitpro/devkitarm/bin/../lib/gcc/arm-eabi/4.5.1/../../../../arm-eabi/lib\libm.a(lib_a-s_cos.o)
 .ARM.attributes
                0x00000c52       0x30 d:/devkitpro/devkitarm/bin/../lib/gcc/arm-eabi/4.5.1/../../../../arm-eabi/lib\libm.a(lib_a-s_sin.o)
 .ARM.attributes
                0x00000c82       0x30 d:/devkitpro/devkitarm/bin/../lib/gcc/arm-eabi/4.5.1/../../../../arm-eabi/lib\libm.a(lib_a-w_pow.o)
 .ARM.attributes
                0x00000cb2       0x30 d:/devkitpro/devkitarm/bin/../lib/gcc/arm-eabi/4.5.1/../../../../arm-eabi/lib\libm.a(lib_a-e_pow.o)
 .ARM.attributes
                0x00000ce2       0x30 d:/devkitpro/devkitarm/bin/../lib/gcc/arm-eabi/4.5.1/../../../../arm-eabi/lib\libm.a(lib_a-e_rem_pio2.o)
 .ARM.attributes
                0x00000d12       0x30 d:/devkitpro/devkitarm/bin/../lib/gcc/arm-eabi/4.5.1/../../../../arm-eabi/lib\libm.a(lib_a-e_sqrt.o)
 .ARM.attributes
                0x00000d42       0x30 d:/devkitpro/devkitarm/bin/../lib/gcc/arm-eabi/4.5.1/../../../../arm-eabi/lib\libm.a(lib_a-k_cos.o)
 .ARM.attributes
                0x00000d72       0x30 d:/devkitpro/devkitarm/bin/../lib/gcc/arm-eabi/4.5.1/../../../../arm-eabi/lib\libm.a(lib_a-k_rem_pio2.o)
 .ARM.attributes
                0x00000da2       0x30 d:/devkitpro/devkitarm/bin/../lib/gcc/arm-eabi/4.5.1/../../../../arm-eabi/lib\libm.a(lib_a-k_sin.o)
 .ARM.attributes
                0x00000dd2       0x30 d:/devkitpro/devkitarm/bin/../lib/gcc/arm-eabi/4.5.1/../../../../arm-eabi/lib\libm.a(lib_a-s_fabs.o)
 .ARM.attributes
                0x00000e02       0x30 d:/devkitpro/devkitarm/bin/../lib/gcc/arm-eabi/4.5.1/../../../../arm-eabi/lib\libm.a(lib_a-s_finite.o)
 .ARM.attributes
                0x00000e32       0x30 d:/devkitpro/devkitarm/bin/../lib/gcc/arm-eabi/4.5.1/../../../../arm-eabi/lib\libm.a(lib_a-s_floor.o)
 .ARM.attributes
                0x00000e62       0x30 d:/devkitpro/devkitarm/bin/../lib/gcc/arm-eabi/4.5.1/../../../../arm-eabi/lib\libm.a(lib_a-s_fpclassify.o)
 .ARM.attributes
                0x00000e92       0x30 d:/devkitpro/devkitarm/bin/../lib/gcc/arm-eabi/4.5.1/../../../../arm-eabi/lib\libm.a(lib_a-s_lib_ver.o)
 .ARM.attributes
                0x00000ec2       0x30 d:/devkitpro/devkitarm/bin/../lib/gcc/arm-eabi/4.5.1/../../../../arm-eabi/lib\libm.a(lib_a-s_matherr.o)
 .ARM.attributes
                0x00000ef2       0x30 d:/devkitpro/devkitarm/bin/../lib/gcc/arm-eabi/4.5.1/../../../../arm-eabi/lib\libm.a(lib_a-s_nan.o)
 .ARM.attributes
                0x00000f22       0x30 d:/devkitpro/devkitarm/bin/../lib/gcc/arm-eabi/4.5.1/../../../../arm-eabi/lib\libm.a(lib_a-s_rint.o)
 .ARM.attributes
                0x00000f52       0x30 d:/devkitpro/devkitarm/bin/../lib/gcc/arm-eabi/4.5.1/../../../../arm-eabi/lib\libm.a(lib_a-s_scalbn.o)
 .ARM.attributes
                0x00000f82       0x30 d:/devkitpro/devkitarm/bin/../lib/gcc/arm-eabi/4.5.1/../../../../arm-eabi/lib\libm.a(lib_a-s_copysign.o)
 .ARM.attributes
                0x00000fb2       0x22 d:/devkitpro/devkitarm/bin/../lib/gcc/arm-eabi/4.5.1\libgcc.a(_udivsi3.o)
 .ARM.attributes
                0x00000fd4       0x22 d:/devkitpro/devkitarm/bin/../lib/gcc/arm-eabi/4.5.1\libgcc.a(_divsi3.o)
 .ARM.attributes
                0x00000ff6       0x22 d:/devkitpro/devkitarm/bin/../lib/gcc/arm-eabi/4.5.1\libgcc.a(_dvmd_tls.o)
 .ARM.attributes
                0x00001018       0x22 d:/devkitpro/devkitarm/bin/../lib/gcc/arm-eabi/4.5.1\libgcc.a(_arm_addsubdf3.o)
 .ARM.attributes
                0x0000103a       0x22 d:/devkitpro/devkitarm/bin/../lib/gcc/arm-eabi/4.5.1\libgcc.a(_arm_muldivdf3.o)
 .ARM.attributes
                0x0000105c       0x22 d:/devkitpro/devkitarm/bin/../lib/gcc/arm-eabi/4.5.1\libgcc.a(_arm_cmpdf2.o)
 .ARM.attributes
                0x0000107e       0x22 d:/devkitpro/devkitarm/bin/../lib/gcc/arm-eabi/4.5.1\libgcc.a(_arm_fixdfsi.o)
 .ARM.attributes
                0x000010a0       0x22 d:/devkitpro/devkitarm/bin/../lib/gcc/arm-eabi/4.5.1\libgcc.a(_arm_fixunsdfsi.o)
 .ARM.attributes
                0x000010c2       0x22 d:/devkitpro/devkitarm/bin/../lib/gcc/arm-eabi/4.5.1\libgcc.a(_arm_truncdfsf2.o)
 .ARM.attributes
                0x000010e4       0x22 d:/devkitpro/devkitarm/bin/../lib/gcc/arm-eabi/4.5.1\libgcc.a(_arm_addsubsf3.o)
 .ARM.attributes
                0x00001106       0x22 d:/devkitpro/devkitarm/bin/../lib/gcc/arm-eabi/4.5.1\libgcc.a(_arm_muldivsf3.o)
 .ARM.attributes
                0x00001128       0x22 d:/devkitpro/devkitarm/bin/../lib/gcc/arm-eabi/4.5.1\libgcc.a(_arm_cmpsf2.o)
 .ARM.attributes
                0x0000114a       0x22 d:/devkitpro/devkitarm/bin/../lib/gcc/arm-eabi/4.5.1\libgcc.a(_arm_fixsfsi.o)
 .ARM.attributes
                0x0000116c       0x22 d:/devkitpro/devkitarm/bin/../lib/gcc/arm-eabi/4.5.1\libgcc.a(_arm_fixunssfsi.o)
 .ARM.attributes
                0x0000118e       0x30 d:/devkitpro/devkitarm/bin/../lib/gcc/arm-eabi/4.5.1\libgcc.a(_muldi3.o)
 .ARM.attributes
                0x000011be       0x30 d:/devkitpro/devkitarm/bin/../lib/gcc/arm-eabi/4.5.1/../../../../arm-eabi/lib\libg.a(lib_a-abort.o)
 .ARM.attributes
                0x000011ee       0x30 d:/devkitpro/devkitarm/bin/../lib/gcc/arm-eabi/4.5.1/../../../../arm-eabi/lib\libg.a(lib_a-bsearch.o)
 .ARM.attributes
                0x0000121e       0x30 d:/devkitpro/devkitarm/bin/../lib/gcc/arm-eabi/4.5.1/../../../../arm-eabi/lib\libg.a(lib_a-calloc.o)
 .ARM.attributes
                0x0000124e       0x30 d:/devkitpro/devkitarm/bin/../lib/gcc/arm-eabi/4.5.1/../../../../arm-eabi/lib\libg.a(lib_a-callocr.o)
 .ARM.attributes
                0x0000127e       0x30 d:/devkitpro/devkitarm/bin/../lib/gcc/arm-eabi/4.5.1/../../../../arm-eabi/lib\libg.a(lib_a-errno.o)
 .ARM.attributes
                0x000012ae       0x30 d:/devkitpro/devkitarm/bin/../lib/gcc/arm-eabi/4.5.1/../../../../arm-eabi/lib\libg.a(lib_a-fclose.o)
 .ARM.attributes
                0x000012de       0x30 d:/devkitpro/devkitarm/bin/../lib/gcc/arm-eabi/4.5.1/../../../../arm-eabi/lib\libg.a(lib_a-fflush.o)
 .ARM.attributes
                0x0000130e       0x30 d:/devkitpro/devkitarm/bin/../lib/gcc/arm-eabi/4.5.1/../../../../arm-eabi/lib\libg.a(lib_a-findfp.o)
 .ARM.attributes
                0x0000133e       0x30 d:/devkitpro/devkitarm/bin/../lib/gcc/arm-eabi/4.5.1/../../../../arm-eabi/lib\libg.a(lib_a-fprintf.o)
 .ARM.attributes
                0x0000136e       0x30 d:/devkitpro/devkitarm/bin/../lib/gcc/arm-eabi/4.5.1/../../../../arm-eabi/lib\libg.a(lib_a-fread.o)
 .ARM.attributes
                0x0000139e       0x30 d:/devkitpro/devkitarm/bin/../lib/gcc/arm-eabi/4.5.1/../../../../arm-eabi/lib\libg.a(lib_a-freer.o)
 .ARM.attributes
                0x000013ce       0x30 d:/devkitpro/devkitarm/bin/../lib/gcc/arm-eabi/4.5.1/../../../../arm-eabi/lib\libg.a(lib_a-fwalk.o)
 .ARM.attributes
                0x000013fe       0x30 d:/devkitpro/devkitarm/bin/../lib/gcc/arm-eabi/4.5.1/../../../../arm-eabi/lib\libg.a(lib_a-impure.o)
 .ARM.attributes
                0x0000142e       0x30 d:/devkitpro/devkitarm/bin/../lib/gcc/arm-eabi/4.5.1/../../../../arm-eabi/lib\libg.a(lib_a-init.o)
 .ARM.attributes
                0x0000145e       0x30 d:/devkitpro/devkitarm/bin/../lib/gcc/arm-eabi/4.5.1/../../../../arm-eabi/lib\libg.a(lib_a-iprintf.o)
 .ARM.attributes
                0x0000148e       0x30 d:/devkitpro/devkitarm/bin/../lib/gcc/arm-eabi/4.5.1/../../../../arm-eabi/lib\libg.a(lib_a-malloc.o)
 .ARM.attributes
                0x000014be       0x30 d:/devkitpro/devkitarm/bin/../lib/gcc/arm-eabi/4.5.1/../../../../arm-eabi/lib\libg.a(lib_a-mallocr.o)
 .ARM.attributes
                0x000014ee       0x30 d:/devkitpro/devkitarm/bin/../lib/gcc/arm-eabi/4.5.1/../../../../arm-eabi/lib\libg.a(lib_a-memcmp.o)
 .ARM.attributes
                0x0000151e       0x30 d:/devkitpro/devkitarm/bin/../lib/gcc/arm-eabi/4.5.1/../../../../arm-eabi/lib\libg.a(lib_a-memcpy.o)
 .ARM.attributes
                0x0000154e       0x30 d:/devkitpro/devkitarm/bin/../lib/gcc/arm-eabi/4.5.1/../../../../arm-eabi/lib\libg.a(lib_a-memmove.o)
 .ARM.attributes
                0x0000157e       0x30 d:/devkitpro/devkitarm/bin/../lib/gcc/arm-eabi/4.5.1/../../../../arm-eabi/lib\libg.a(lib_a-memset.o)
 .ARM.attributes
                0x000015ae       0x30 d:/devkitpro/devkitarm/bin/../lib/gcc/arm-eabi/4.5.1/../../../../arm-eabi/lib\libg.a(lib_a-mlock.o)
 .ARM.attributes
                0x000015de       0x30 d:/devkitpro/devkitarm/bin/../lib/gcc/arm-eabi/4.5.1/../../../../arm-eabi/lib\libg.a(lib_a-rand.o)
 .ARM.attributes
                0x0000160e       0x30 d:/devkitpro/devkitarm/bin/../lib/gcc/arm-eabi/4.5.1/../../../../arm-eabi/lib\libg.a(lib_a-realloc.o)
 .ARM.attributes
                0x0000163e       0x30 d:/devkitpro/devkitarm/bin/../lib/gcc/arm-eabi/4.5.1/../../../../arm-eabi/lib\libg.a(lib_a-reallocr.o)
 .ARM.attributes
                0x0000166e       0x30 d:/devkitpro/devkitarm/bin/../lib/gcc/arm-eabi/4.5.1/../../../../arm-eabi/lib\libg.a(lib_a-refill.o)
 .ARM.attributes
                0x0000169e       0x20 d:/devkitpro/devkitarm/bin/../lib/gcc/arm-eabi/4.5.1/../../../../arm-eabi/lib\libg.a(lib_a-setjmp.o)
 .ARM.attributes
                0x000016be       0x30 d:/devkitpro/devkitarm/bin/../lib/gcc/arm-eabi/4.5.1/../../../../arm-eabi/lib\libg.a(lib_a-setvbuf.o)
 .ARM.attributes
                0x000016ee       0x30 d:/devkitpro/devkitarm/bin/../lib/gcc/arm-eabi/4.5.1/../../../../arm-eabi/lib\libg.a(lib_a-signal.o)
 .ARM.attributes
                0x0000171e       0x30 d:/devkitpro/devkitarm/bin/../lib/gcc/arm-eabi/4.5.1/../../../../arm-eabi/lib\libg.a(lib_a-siscanf.o)
 .ARM.attributes
                0x0000174e       0x30 d:/devkitpro/devkitarm/bin/../lib/gcc/arm-eabi/4.5.1/../../../../arm-eabi/lib\libg.a(lib_a-snprintf.o)
 .ARM.attributes
                0x0000177e       0x30 d:/devkitpro/devkitarm/bin/../lib/gcc/arm-eabi/4.5.1/../../../../arm-eabi/lib\libg.a(lib_a-sprintf.o)
 .ARM.attributes
                0x000017ae       0x30 d:/devkitpro/devkitarm/bin/../lib/gcc/arm-eabi/4.5.1/../../../../arm-eabi/lib\libg.a(lib_a-stdio.o)
 .ARM.attributes
                0x000017de       0x30 d:/devkitpro/devkitarm/bin/../lib/gcc/arm-eabi/4.5.1/../../../../arm-eabi/lib\libg.a(lib_a-strcmp.o)
 .ARM.attributes
                0x0000180e       0x30 d:/devkitpro/devkitarm/bin/../lib/gcc/arm-eabi/4.5.1/../../../../arm-eabi/lib\libg.a(lib_a-strlen.o)
 .ARM.attributes
                0x0000183e       0x30 d:/devkitpro/devkitarm/bin/../lib/gcc/arm-eabi/4.5.1/../../../../arm-eabi/lib\libg.a(lib_a-strtod.o)
 .ARM.attributes
                0x0000186e       0x30 d:/devkitpro/devkitarm/bin/../lib/gcc/arm-eabi/4.5.1/../../../../arm-eabi/lib\libg.a(lib_a-svfiscanf.o)
 .ARM.attributes
                0x0000189e       0x30 d:/devkitpro/devkitarm/bin/../lib/gcc/arm-eabi/4.5.1/../../../../arm-eabi/lib\libg.a(lib_a-svfprintf.o)
 .ARM.attributes
                0x000018ce       0x30 d:/devkitpro/devkitarm/bin/../lib/gcc/arm-eabi/4.5.1/../../../../arm-eabi/lib\libg.a(lib_a-ungetc.o)
 .ARM.attributes
                0x000018fe       0x30 d:/devkitpro/devkitarm/bin/../lib/gcc/arm-eabi/4.5.1/../../../../arm-eabi/lib\libg.a(lib_a-vfiprintf.o)
 .ARM.attributes
                0x0000192e       0x30 d:/devkitpro/devkitarm/bin/../lib/gcc/arm-eabi/4.5.1/../../../../arm-eabi/lib\libg.a(lib_a-vfprintf.o)
 .ARM.attributes
                0x0000195e       0x30 d:/devkitpro/devkitarm/bin/../lib/gcc/arm-eabi/4.5.1/../../../../arm-eabi/lib\libg.a(lib_a-wcrtomb.o)
 .ARM.attributes
                0x0000198e       0x30 d:/devkitpro/devkitarm/bin/../lib/gcc/arm-eabi/4.5.1/../../../../arm-eabi/lib\libg.a(lib_a-wcsrtombs.o)
 .ARM.attributes
                0x000019be       0x30 d:/devkitpro/devkitarm/bin/../lib/gcc/arm-eabi/4.5.1/../../../../arm-eabi/lib\libg.a(lib_a-wctomb_r.o)
 .ARM.attributes
                0x000019ee       0x30 d:/devkitpro/devkitarm/bin/../lib/gcc/arm-eabi/4.5.1/../../../../arm-eabi/lib\libg.a(lib_a-wsetup.o)
 .ARM.attributes
                0x00001a1e       0x30 d:/devkitpro/devkitarm/bin/../lib/gcc/arm-eabi/4.5.1/../../../../arm-eabi/lib\libg.a(lib_a-ctype_.o)
 .ARM.attributes
                0x00001a4e       0x30 d:/devkitpro/devkitarm/bin/../lib/gcc/arm-eabi/4.5.1/../../../../arm-eabi/lib\libg.a(lib_a-dtoa.o)
 .ARM.attributes
                0x00001a7e       0x30 d:/devkitpro/devkitarm/bin/../lib/gcc/arm-eabi/4.5.1/../../../../arm-eabi/lib\libg.a(lib_a-fputwc.o)
 .ARM.attributes
                0x00001aae       0x30 d:/devkitpro/devkitarm/bin/../lib/gcc/arm-eabi/4.5.1/../../../../arm-eabi/lib\libg.a(lib_a-fvwrite.o)
 .ARM.attributes
                0x00001ade       0x30 d:/devkitpro/devkitarm/bin/../lib/gcc/arm-eabi/4.5.1/../../../../arm-eabi/lib\libg.a(lib_a-gdtoa-gethex.o)
 .ARM.attributes
                0x00001b0e       0x30 d:/devkitpro/devkitarm/bin/../lib/gcc/arm-eabi/4.5.1/../../../../arm-eabi/lib\libg.a(lib_a-gdtoa-hexnan.o)
 .ARM.attributes
                0x00001b3e       0x30 d:/devkitpro/devkitarm/bin/../lib/gcc/arm-eabi/4.5.1/../../../../arm-eabi/lib\libg.a(lib_a-iswspace.o)
 .ARM.attributes
                0x00001b6e       0x30 d:/devkitpro/devkitarm/bin/../lib/gcc/arm-eabi/4.5.1/../../../../arm-eabi/lib\libg.a(lib_a-jp2uc.o)
 .ARM.attributes
                0x00001b9e       0x30 d:/devkitpro/devkitarm/bin/../lib/gcc/arm-eabi/4.5.1/../../../../arm-eabi/lib\libg.a(lib_a-locale.o)
 .ARM.attributes
                0x00001bce       0x30 d:/devkitpro/devkitarm/bin/../lib/gcc/arm-eabi/4.5.1/../../../../arm-eabi/lib\libg.a(lib_a-makebuf.o)
 .ARM.attributes
                0x00001bfe       0x30 d:/devkitpro/devkitarm/bin/../lib/gcc/arm-eabi/4.5.1/../../../../arm-eabi/lib\libg.a(lib_a-mbrtowc.o)
 .ARM.attributes
                0x00001c2e       0x30 d:/devkitpro/devkitarm/bin/../lib/gcc/arm-eabi/4.5.1/../../../../arm-eabi/lib\libg.a(lib_a-mbtowc_r.o)
 .ARM.attributes
                0x00001c5e       0x30 d:/devkitpro/devkitarm/bin/../lib/gcc/arm-eabi/4.5.1/../../../../arm-eabi/lib\libg.a(lib_a-memchr.o)
 .ARM.attributes
                0x00001c8e       0x30 d:/devkitpro/devkitarm/bin/../lib/gcc/arm-eabi/4.5.1/../../../../arm-eabi/lib\libg.a(lib_a-mprec.o)
 .ARM.attributes
                0x00001cbe       0x30 d:/devkitpro/devkitarm/bin/../lib/gcc/arm-eabi/4.5.1/../../../../arm-eabi/lib\libg.a(lib_a-sccl.o)
 .ARM.attributes
                0x00001cee       0x30 d:/devkitpro/devkitarm/bin/../lib/gcc/arm-eabi/4.5.1/../../../../arm-eabi/lib\libg.a(lib_a-sf_nan.o)
 .ARM.attributes
                0x00001d1e       0x30 d:/devkitpro/devkitarm/bin/../lib/gcc/arm-eabi/4.5.1/../../../../arm-eabi/lib\libg.a(lib_a-strcasecmp.o)
 .ARM.attributes
                0x00001d4e       0x30 d:/devkitpro/devkitarm/bin/../lib/gcc/arm-eabi/4.5.1/../../../../arm-eabi/lib\libg.a(lib_a-strcat.o)
 .ARM.attributes
                0x00001d7e       0x30 d:/devkitpro/devkitarm/bin/../lib/gcc/arm-eabi/4.5.1/../../../../arm-eabi/lib\libg.a(lib_a-strchr.o)
 .ARM.attributes
                0x00001dae       0x30 d:/devkitpro/devkitarm/bin/../lib/gcc/arm-eabi/4.5.1/../../../../arm-eabi/lib\libg.a(lib_a-strcpy.o)
 .ARM.attributes
                0x00001dde       0x30 d:/devkitpro/devkitarm/bin/../lib/gcc/arm-eabi/4.5.1/../../../../arm-eabi/lib\libg.a(lib_a-strlcpy.o)
 .ARM.attributes
                0x00001e0e       0x30 d:/devkitpro/devkitarm/bin/../lib/gcc/arm-eabi/4.5.1/../../../../arm-eabi/lib\libg.a(lib_a-strncasecmp.o)
 .ARM.attributes
                0x00001e3e       0x30 d:/devkitpro/devkitarm/bin/../lib/gcc/arm-eabi/4.5.1/../../../../arm-eabi/lib\libg.a(lib_a-strncmp.o)
 .ARM.attributes
                0x00001e6e       0x30 d:/devkitpro/devkitarm/bin/../lib/gcc/arm-eabi/4.5.1/../../../../arm-eabi/lib\libg.a(lib_a-strncpy.o)
 .ARM.attributes
                0x00001e9e       0x30 d:/devkitpro/devkitarm/bin/../lib/gcc/arm-eabi/4.5.1/../../../../arm-eabi/lib\libg.a(lib_a-strtol.o)
 .ARM.attributes
                0x00001ece       0x30 d:/devkitpro/devkitarm/bin/../lib/gcc/arm-eabi/4.5.1/../../../../arm-eabi/lib\libg.a(lib_a-strtoll_r.o)
 .ARM.attributes
                0x00001efe       0x30 d:/devkitpro/devkitarm/bin/../lib/gcc/arm-eabi/4.5.1/../../../../arm-eabi/lib\libg.a(lib_a-strtoul.o)
 .ARM.attributes
                0x00001f2e       0x30 d:/devkitpro/devkitarm/bin/../lib/gcc/arm-eabi/4.5.1/../../../../arm-eabi/lib\libg.a(lib_a-strtoull_r.o)
 .ARM.attributes
                0x00001f5e       0x30 d:/devkitpro/devkitarm/bin/../lib/gcc/arm-eabi/4.5.1/../../../../arm-eabi/lib\libg.a(lib_a-svfiprintf.o)
 .ARM.attributes
                0x00001f8e       0x30 d:/devkitpro/devkitarm/bin/../lib/gcc/arm-eabi/4.5.1/../../../../arm-eabi/lib\libg.a(lib_a-wbuf.o)
 .ARM.attributes
                0x00001fbe       0x30 d:/devkitpro/devkitarm/bin/../lib/gcc/arm-eabi/4.5.1/../../../../arm-eabi/lib\libg.a(lib_a-wcsnrtombs.o)
 .ARM.attributes
                0x00001fee       0x30 d:/devkitpro/devkitarm/bin/../lib/gcc/arm-eabi/4.5.1/../../../../arm-eabi/lib\libg.a(lib_a-getenv_r.o)
 .ARM.attributes
                0x0000201e       0x30 d:/devkitpro/devkitarm/bin/../lib/gcc/arm-eabi/4.5.1/../../../../arm-eabi/lib\libg.a(lib_a-environ.o)
 .ARM.attributes
                0x0000204e       0x30 d:/devkitpro/devkitarm/bin/../lib/gcc/arm-eabi/4.5.1/../../../../arm-eabi/lib\libg.a(lib_a-envlock.o)
 .ARM.attributes
                0x0000207e       0x30 d:/devkitpro/devkitarm/bin/../lib/gcc/arm-eabi/4.5.1/../../../../arm-eabi/lib\libsysbase.a(iosupport.o)
 .ARM.attributes
                0x000020ae       0x30 d:/devkitpro/devkitarm/bin/../lib/gcc/arm-eabi/4.5.1/../../../../arm-eabi/lib\libsysbase.a(close.o)
 .ARM.attributes
                0x000020de       0x30 d:/devkitpro/devkitarm/bin/../lib/gcc/arm-eabi/4.5.1/../../../../arm-eabi/lib\libsysbase.a(fstat.o)
 .ARM.attributes
                0x0000210e       0x30 d:/devkitpro/devkitarm/bin/../lib/gcc/arm-eabi/4.5.1/../../../../arm-eabi/lib\libsysbase.a(getpid.o)
 .ARM.attributes
                0x0000213e       0x30 d:/devkitpro/devkitarm/bin/../lib/gcc/arm-eabi/4.5.1/../../../../arm-eabi/lib\libsysbase.a(isatty.o)
 .ARM.attributes
                0x0000216e       0x30 d:/devkitpro/devkitarm/bin/../lib/gcc/arm-eabi/4.5.1/../../../../arm-eabi/lib\libsysbase.a(kill.o)
 .ARM.attributes
                0x0000219e       0x30 d:/devkitpro/devkitarm/bin/../lib/gcc/arm-eabi/4.5.1/../../../../arm-eabi/lib\libsysbase.a(lseek.o)
 .ARM.attributes
                0x000021ce       0x30 d:/devkitpro/devkitarm/bin/../lib/gcc/arm-eabi/4.5.1/../../../../arm-eabi/lib\libsysbase.a(read.o)
 .ARM.attributes
                0x000021fe       0x30 d:/devkitpro/devkitarm/bin/../lib/gcc/arm-eabi/4.5.1/../../../../arm-eabi/lib\libsysbase.a(sbrk.o)
 .ARM.attributes
                0x0000222e       0x30 d:/devkitpro/devkitarm/bin/../lib/gcc/arm-eabi/4.5.1/../../../../arm-eabi/lib\libsysbase.a(times.o)
 .ARM.attributes
                0x0000225e       0x30 d:/devkitpro/devkitarm/bin/../lib/gcc/arm-eabi/4.5.1/../../../../arm-eabi/lib\libsysbase.a(write.o)
 .ARM.attributes
                0x0000228e       0x30 d:/devkitpro/devkitarm/bin/../lib/gcc/arm-eabi/4.5.1/../../../../arm-eabi/lib\libsysbase.a(_exit.o)
 .ARM.attributes
                0x000022be       0x30 d:/devkitpro/devkitarm/bin/../lib/gcc/arm-eabi/4.5.1/../../../../arm-eabi/lib\libsysbase.a(malloc_vars.o)
 .ARM.attributes
                0x000022ee       0x30 d:/devkitpro/devkitarm/bin/../lib/gcc/arm-eabi/4.5.1/../../../../arm-eabi/lib\libsysbase.a(build_argv.o)
 .ARM.attributes
                0x0000231e       0x30 d:/devkitpro/devkitarm/bin/../lib/gcc/arm-eabi/4.5.1/../../../../arm-eabi/lib\libsysbase.a(syscall_support.o)
 .ARM.attributes
                0x0000234e       0x30 d:/devkitpro/devkitarm/bin/../lib/gcc/arm-eabi/4.5.1/../../../../arm-eabi/lib\libsysbase.a(handle_manager.o)
 .ARM.attributes
                0x0000237e       0x22 d:/devkitpro/devkitarm/bin/../lib/gcc/arm-eabi/4.5.1\libgcc.a(_aeabi_uldivmod.o)
 .ARM.attributes
                0x000023a0       0x30 d:/devkitpro/devkitarm/bin/../lib/gcc/arm-eabi/4.5.1\libgcc.a(bpabi.o)
 .ARM.attributes
                0x000023d0       0x30 d:/devkitpro/devkitarm/bin/../lib/gcc/arm-eabi/4.5.1\libgcc.a(unwind-arm.o)
 .ARM.attributes
                0x00002400       0x1c d:/devkitpro/devkitarm/bin/../lib/gcc/arm-eabi/4.5.1\libgcc.a(libunwind.o)
 .ARM.attributes
                0x0000241c       0x30 d:/devkitpro/devkitarm/bin/../lib/gcc/arm-eabi/4.5.1\libgcc.a(pr-support.o)
 .ARM.attributes
                0x0000244c       0x30 d:/devkitpro/devkitarm/bin/../lib/gcc/arm-eabi/4.5.1\libgcc.a(_divdi3.o)
 .ARM.attributes
                0x0000247c       0x30 d:/devkitpro/devkitarm/bin/../lib/gcc/arm-eabi/4.5.1\libgcc.a(_udivdi3.o)
 .ARM.attributes
                0x000024ac       0x22 d:/devkitpro/devkitarm/bin/../lib/gcc/arm-eabi/4.5.1\libgcc.a(_clzsi2.o)
 .ARM.attributes
                0x000024ce       0x30 d:/devkitpro/devkitarm/bin/../lib/gcc/arm-eabi/4.5.1/crtend.o
 .ARM.attributes
                0x000024fe       0x20 d:/devkitpro/devkitarm/bin/../lib/gcc/arm-eabi/4.5.1/crtn.o

.comment        0x00000000      0x252 load address 0x02052918
 *(.comment)
 .comment       0x00000000       0x22 d:/devkitpro/devkitarm/bin/../lib/gcc/arm-eabi/4.5.1/crtbegin.o
                                 0x23 (size before relaxing)
 .comment       0x00000000       0x23 Map.o
 .comment       0x00000000       0x23 main.o
 .comment       0x00000000       0x23 d:/devkitPro/libnds/lib\libul.a(ulib.o)
 .comment       0x00000000       0x23 d:/devkitPro/libnds/lib\libul.a(drawing.o)
 .comment       0x00000000       0x23 d:/devkitPro/libnds/lib\libul.a(map.o)
 .comment       0x00000000       0x23 d:/devkitPro/libnds/lib\libul.a(text.o)
 .comment       0x00000000       0x23 d:/devkitPro/libnds/lib\libul.a(VirtualFile.o)
 .comment       0x00000000       0x23 d:/devkitPro/libnds/lib\libul.a(texVramManager.o)
 .comment       0x00000000       0x23 d:/devkitPro/libnds/lib\libul.a(texPalManager.o)
 .comment       0x00000000       0x23 d:/devkitPro/libnds/lib\libul.a(keys.o)
 .comment       0x00000000       0x23 d:/devkitPro/libnds/lib\libul.a(ulCreateImagePalette.o)
 .comment       0x00000000       0x23 d:/devkitPro/libnds/lib\libul.a(ulDrawGradientRect.o)
 .comment       0x00000000       0x23 d:/devkitPro/libnds/lib\libul.a(messagebox.o)
 .comment       0x00000000       0x23 d:/devkitPro/libnds/lib\libul.a(textSize.o)
 .comment       0x00000000       0x23 d:/devkitPro/libnds/lib\libul.a(ulLoadImageFilePNG.o)
 .comment       0x00000000       0x23 d:/devkitPro/libnds/lib\libul.a(ulShowSplashScreen1.o)
 .comment       0x00000000       0x23 d:/devkitPro/libnds/lib\libul.a(ulShowSplashScreen2.o)
 .comment       0x00000000       0x23 d:/devkitPro/libnds/lib\libul.a(glWrapper.o)
 .comment       0x00000000       0x23 d:/devkitPro/libnds/lib\libul.a(libLoadPng.o)
 .comment       0x00000000       0x23 d:/devkitPro/libnds/lib\libul.a(ulDrawImage.o)
 .comment       0x00000000       0x23 d:/devkitPro/libnds/lib\libul.a(ulDrawFillRect.o)
 .comment       0x00000000       0x23 d:/devkitPro/libnds/lib\libul.a(ulDrawLine.o)
 .comment       0x00000000       0x23 d:/devkitPro/libnds/lib\libul.a(ulDrawRect.o)
 .comment       0x00000000       0x23 d:/devkitPro/libnds/lib\libul.a(ulSetImagePixel.o)
 .comment       0x00000000       0x23 d:/devkitPro/libnds/lib\libul.a(ulGetImagePixel.o)
 .comment       0x00000000       0x23 d:/devkitPro/libnds/lib\libul.a(loading_utility.o)
 .comment       0x00000000       0x23 d:/devkitPro/libnds/lib\libul.a(ulLoadImageFileJPG.o)
 .comment       0x00000000       0x23 d:/devkitPro/libnds/lib\libul.a(ulLoadImageFileGIF.o)
 .comment       0x00000000       0x23 d:/devkitPro/libnds/lib\libul.a(libLoadJpg.o)
 .comment       0x00000000       0x23 d:/devkitPro/libnds/lib\libul.a(libLoadGif.o)
 .comment       0x00000000       0x23 d:/devkitPro/libnds/lib\libul.a(dgif_lib.o)
 .comment       0x00000000       0x23 d:/devkitPro/libnds/lib\libul.a(gif_err.o)
 .comment       0x00000000       0x23 d:/devkitPro/libnds/lib\libul.a(gifalloc.o)
 .comment       0x00000000       0x23 d:/devkitPro/libnds/lib\libul.a(ulReadEntireFileToMemory.o)
 .comment       0x00000000       0x23 d:/devkitPro/libnds/lib\libul.a(gba-jpeg-decode.o)
 .comment       0x00000022       0x23 d:/devkitPro/libnds/lib\libpng.a(png.o)
 .comment       0x00000045       0x23 d:/devkitPro/libnds/lib\libpng.a(pngread.o)
 .comment       0x00000068       0x23 d:/devkitPro/libnds/lib\libpng.a(pngrio.o)
 .comment       0x0000008b       0x23 d:/devkitPro/libnds/lib\libpng.a(pngrtran.o)
 .comment       0x000000ae       0x23 d:/devkitPro/libnds/lib\libpng.a(pngmem.o)
 .comment       0x000000d1       0x23 d:/devkitPro/libnds/lib\libpng.a(pngerror.o)
 .comment       0x000000f4       0x23 d:/devkitPro/libnds/lib\libpng.a(pngget.o)
 .comment       0x00000117       0x23 d:/devkitPro/libnds/lib\libpng.a(pngrutil.o)
 .comment       0x0000013a       0x23 d:/devkitPro/libnds/lib\libpng.a(pngtrans.o)
 .comment       0x0000015d       0x23 d:/devkitPro/libnds/lib\libpng.a(pngset.o)
 .comment       0x00000180       0x23 d:/devkitPro/libnds/lib\libz.a(crc32.o)
 .comment       0x000001a3       0x23 d:/devkitPro/libnds/lib\libz.a(inflate.o)
 .comment       0x000001c6       0x23 d:/devkitPro/libnds/lib\libz.a(inftrees.o)
 .comment       0x000001e9       0x23 d:/devkitPro/libnds/lib\libz.a(inffast.o)
 .comment       0x0000020c       0x23 d:/devkitPro/libnds/lib\libz.a(adler32.o)
 .comment       0x0000022f       0x23 d:/devkitPro/libnds/lib\libz.a(zutil.o)
 .comment       0x00000000       0x23 d:/devkitPro/libnds/lib\libnds9.a(console.o)
 .comment       0x00000000       0x23 d:/devkitPro/libnds/lib\libnds9.a(dynamicArray.o)
 .comment       0x00000000       0x23 d:/devkitPro/libnds/lib\libnds9.a(keys.o)
 .comment       0x00000000       0x23 d:/devkitPro/libnds/lib\libnds9.a(system.o)
 .comment       0x00000000       0x23 d:/devkitPro/libnds/lib\libnds9.a(touch.o)
 .comment       0x00000000       0x23 d:/devkitPro/libnds/lib\libnds9.a(trig.o)
 .comment       0x00000000       0x23 d:/devkitPro/libnds/lib\libnds9.a(videoGL.o)
 .comment       0x00000000       0x23 d:/devkitPro/libnds/lib\libnds9.a(initSystem.o)
 .comment       0x00000000       0x23 d:/devkitPro/libnds/lib\libnds9.a(fifosystem.o)
 .comment       0x00000000       0x23 d:/devkitPro/libnds/lib\libnds9.a(interrupts.o)
 .comment       0x00000000       0x23 d:/devkitPro/libnds/lib\libnds9.a(libnds_exit.o)
 .comment       0x00000000       0x23 d:/devkitPro/libnds/lib\libnds9.a(background.o)
 .comment       0x00000000       0x23 d:/devkitPro/libnds/lib\libnds9.a(video.o)
 .comment       0x00000000       0x23 d:/devkitpro/devkitarm/bin/../lib/gcc/arm-eabi/4.5.1/../../../../arm-eabi/lib\libm.a(lib_a-s_cos.o)
 .comment       0x00000000       0x23 d:/devkitpro/devkitarm/bin/../lib/gcc/arm-eabi/4.5.1/../../../../arm-eabi/lib\libm.a(lib_a-s_sin.o)
 .comment       0x00000000       0x23 d:/devkitpro/devkitarm/bin/../lib/gcc/arm-eabi/4.5.1/../../../../arm-eabi/lib\libm.a(lib_a-w_pow.o)
 .comment       0x00000000       0x23 d:/devkitpro/devkitarm/bin/../lib/gcc/arm-eabi/4.5.1/../../../../arm-eabi/lib\libm.a(lib_a-e_pow.o)
 .comment       0x00000000       0x23 d:/devkitpro/devkitarm/bin/../lib/gcc/arm-eabi/4.5.1/../../../../arm-eabi/lib\libm.a(lib_a-e_rem_pio2.o)
 .comment       0x00000000       0x23 d:/devkitpro/devkitarm/bin/../lib/gcc/arm-eabi/4.5.1/../../../../arm-eabi/lib\libm.a(lib_a-e_sqrt.o)
 .comment       0x00000000       0x23 d:/devkitpro/devkitarm/bin/../lib/gcc/arm-eabi/4.5.1/../../../../arm-eabi/lib\libm.a(lib_a-k_cos.o)
 .comment       0x00000000       0x23 d:/devkitpro/devkitarm/bin/../lib/gcc/arm-eabi/4.5.1/../../../../arm-eabi/lib\libm.a(lib_a-k_rem_pio2.o)
 .comment       0x00000000       0x23 d:/devkitpro/devkitarm/bin/../lib/gcc/arm-eabi/4.5.1/../../../../arm-eabi/lib\libm.a(lib_a-k_sin.o)
 .comment       0x00000000       0x23 d:/devkitpro/devkitarm/bin/../lib/gcc/arm-eabi/4.5.1/../../../../arm-eabi/lib\libm.a(lib_a-s_fabs.o)
 .comment       0x00000000       0x23 d:/devkitpro/devkitarm/bin/../lib/gcc/arm-eabi/4.5.1/../../../../arm-eabi/lib\libm.a(lib_a-s_finite.o)
 .comment       0x00000000       0x23 d:/devkitpro/devkitarm/bin/../lib/gcc/arm-eabi/4.5.1/../../../../arm-eabi/lib\libm.a(lib_a-s_floor.o)
 .comment       0x00000000       0x23 d:/devkitpro/devkitarm/bin/../lib/gcc/arm-eabi/4.5.1/../../../../arm-eabi/lib\libm.a(lib_a-s_fpclassify.o)
 .comment       0x00000000       0x23 d:/devkitpro/devkitarm/bin/../lib/gcc/arm-eabi/4.5.1/../../../../arm-eabi/lib\libm.a(lib_a-s_lib_ver.o)
 .comment       0x00000000       0x23 d:/devkitpro/devkitarm/bin/../lib/gcc/arm-eabi/4.5.1/../../../../arm-eabi/lib\libm.a(lib_a-s_matherr.o)
 .comment       0x00000000       0x23 d:/devkitpro/devkitarm/bin/../lib/gcc/arm-eabi/4.5.1/../../../../arm-eabi/lib\libm.a(lib_a-s_nan.o)
 .comment       0x00000000       0x23 d:/devkitpro/devkitarm/bin/../lib/gcc/arm-eabi/4.5.1/../../../../arm-eabi/lib\libm.a(lib_a-s_rint.o)
 .comment       0x00000000       0x23 d:/devkitpro/devkitarm/bin/../lib/gcc/arm-eabi/4.5.1/../../../../arm-eabi/lib\libm.a(lib_a-s_scalbn.o)
 .comment       0x00000000       0x23 d:/devkitpro/devkitarm/bin/../lib/gcc/arm-eabi/4.5.1/../../../../arm-eabi/lib\libm.a(lib_a-s_copysign.o)
 .comment       0x00000000       0x23 d:/devkitpro/devkitarm/bin/../lib/gcc/arm-eabi/4.5.1\libgcc.a(_muldi3.o)
 .comment       0x00000000       0x23 d:/devkitpro/devkitarm/bin/../lib/gcc/arm-eabi/4.5.1/../../../../arm-eabi/lib\libg.a(lib_a-abort.o)
 .comment       0x00000000       0x23 d:/devkitpro/devkitarm/bin/../lib/gcc/arm-eabi/4.5.1/../../../../arm-eabi/lib\libg.a(lib_a-bsearch.o)
 .comment       0x00000000       0x23 d:/devkitpro/devkitarm/bin/../lib/gcc/arm-eabi/4.5.1/../../../../arm-eabi/lib\libg.a(lib_a-calloc.o)
 .comment       0x00000000       0x23 d:/devkitpro/devkitarm/bin/../lib/gcc/arm-eabi/4.5.1/../../../../arm-eabi/lib\libg.a(lib_a-callocr.o)
 .comment       0x00000000       0x23 d:/devkitpro/devkitarm/bin/../lib/gcc/arm-eabi/4.5.1/../../../../arm-eabi/lib\libg.a(lib_a-errno.o)
 .comment       0x00000000       0x23 d:/devkitpro/devkitarm/bin/../lib/gcc/arm-eabi/4.5.1/../../../../arm-eabi/lib\libg.a(lib_a-fclose.o)
 .comment       0x00000000       0x23 d:/devkitpro/devkitarm/bin/../lib/gcc/arm-eabi/4.5.1/../../../../arm-eabi/lib\libg.a(lib_a-fflush.o)
 .comment       0x00000000       0x23 d:/devkitpro/devkitarm/bin/../lib/gcc/arm-eabi/4.5.1/../../../../arm-eabi/lib\libg.a(lib_a-findfp.o)
 .comment       0x00000000       0x23 d:/devkitpro/devkitarm/bin/../lib/gcc/arm-eabi/4.5.1/../../../../arm-eabi/lib\libg.a(lib_a-fprintf.o)
 .comment       0x00000000       0x23 d:/devkitpro/devkitarm/bin/../lib/gcc/arm-eabi/4.5.1/../../../../arm-eabi/lib\libg.a(lib_a-fread.o)
 .comment       0x00000000       0x23 d:/devkitpro/devkitarm/bin/../lib/gcc/arm-eabi/4.5.1/../../../../arm-eabi/lib\libg.a(lib_a-freer.o)
 .comment       0x00000000       0x23 d:/devkitpro/devkitarm/bin/../lib/gcc/arm-eabi/4.5.1/../../../../arm-eabi/lib\libg.a(lib_a-fwalk.o)
 .comment       0x00000000       0x23 d:/devkitpro/devkitarm/bin/../lib/gcc/arm-eabi/4.5.1/../../../../arm-eabi/lib\libg.a(lib_a-impure.o)
 .comment       0x00000000       0x23 d:/devkitpro/devkitarm/bin/../lib/gcc/arm-eabi/4.5.1/../../../../arm-eabi/lib\libg.a(lib_a-init.o)
 .comment       0x00000000       0x23 d:/devkitpro/devkitarm/bin/../lib/gcc/arm-eabi/4.5.1/../../../../arm-eabi/lib\libg.a(lib_a-iprintf.o)
 .comment       0x00000000       0x23 d:/devkitpro/devkitarm/bin/../lib/gcc/arm-eabi/4.5.1/../../../../arm-eabi/lib\libg.a(lib_a-malloc.o)
 .comment       0x00000000       0x23 d:/devkitpro/devkitarm/bin/../lib/gcc/arm-eabi/4.5.1/../../../../arm-eabi/lib\libg.a(lib_a-mallocr.o)
 .comment       0x00000000       0x23 d:/devkitpro/devkitarm/bin/../lib/gcc/arm-eabi/4.5.1/../../../../arm-eabi/lib\libg.a(lib_a-memcmp.o)
 .comment       0x00000000       0x23 d:/devkitpro/devkitarm/bin/../lib/gcc/arm-eabi/4.5.1/../../../../arm-eabi/lib\libg.a(lib_a-memcpy.o)
 .comment       0x00000000       0x23 d:/devkitpro/devkitarm/bin/../lib/gcc/arm-eabi/4.5.1/../../../../arm-eabi/lib\libg.a(lib_a-memmove.o)
 .comment       0x00000000       0x23 d:/devkitpro/devkitarm/bin/../lib/gcc/arm-eabi/4.5.1/../../../../arm-eabi/lib\libg.a(lib_a-memset.o)
 .comment       0x00000000       0x23 d:/devkitpro/devkitarm/bin/../lib/gcc/arm-eabi/4.5.1/../../../../arm-eabi/lib\libg.a(lib_a-mlock.o)
 .comment       0x00000000       0x23 d:/devkitpro/devkitarm/bin/../lib/gcc/arm-eabi/4.5.1/../../../../arm-eabi/lib\libg.a(lib_a-rand.o)
 .comment       0x00000000       0x23 d:/devkitpro/devkitarm/bin/../lib/gcc/arm-eabi/4.5.1/../../../../arm-eabi/lib\libg.a(lib_a-realloc.o)
 .comment       0x00000000       0x23 d:/devkitpro/devkitarm/bin/../lib/gcc/arm-eabi/4.5.1/../../../../arm-eabi/lib\libg.a(lib_a-reallocr.o)
 .comment       0x00000000       0x23 d:/devkitpro/devkitarm/bin/../lib/gcc/arm-eabi/4.5.1/../../../../arm-eabi/lib\libg.a(lib_a-refill.o)
 .comment       0x00000000       0x23 d:/devkitpro/devkitarm/bin/../lib/gcc/arm-eabi/4.5.1/../../../../arm-eabi/lib\libg.a(lib_a-setvbuf.o)
 .comment       0x00000000       0x23 d:/devkitpro/devkitarm/bin/../lib/gcc/arm-eabi/4.5.1/../../../../arm-eabi/lib\libg.a(lib_a-signal.o)
 .comment       0x00000000       0x23 d:/devkitpro/devkitarm/bin/../lib/gcc/arm-eabi/4.5.1/../../../../arm-eabi/lib\libg.a(lib_a-siscanf.o)
 .comment       0x00000000       0x23 d:/devkitpro/devkitarm/bin/../lib/gcc/arm-eabi/4.5.1/../../../../arm-eabi/lib\libg.a(lib_a-snprintf.o)
 .comment       0x00000000       0x23 d:/devkitpro/devkitarm/bin/../lib/gcc/arm-eabi/4.5.1/../../../../arm-eabi/lib\libg.a(lib_a-sprintf.o)
 .comment       0x00000000       0x23 d:/devkitpro/devkitarm/bin/../lib/gcc/arm-eabi/4.5.1/../../../../arm-eabi/lib\libg.a(lib_a-stdio.o)
 .comment       0x00000000       0x23 d:/devkitpro/devkitarm/bin/../lib/gcc/arm-eabi/4.5.1/../../../../arm-eabi/lib\libg.a(lib_a-strcmp.o)
 .comment       0x00000000       0x23 d:/devkitpro/devkitarm/bin/../lib/gcc/arm-eabi/4.5.1/../../../../arm-eabi/lib\libg.a(lib_a-strlen.o)
 .comment       0x00000000       0x23 d:/devkitpro/devkitarm/bin/../lib/gcc/arm-eabi/4.5.1/../../../../arm-eabi/lib\libg.a(lib_a-strtod.o)
 .comment       0x00000000       0x23 d:/devkitpro/devkitarm/bin/../lib/gcc/arm-eabi/4.5.1/../../../../arm-eabi/lib\libg.a(lib_a-svfiscanf.o)
 .comment       0x00000000       0x23 d:/devkitpro/devkitarm/bin/../lib/gcc/arm-eabi/4.5.1/../../../../arm-eabi/lib\libg.a(lib_a-svfprintf.o)
 .comment       0x00000000       0x23 d:/devkitpro/devkitarm/bin/../lib/gcc/arm-eabi/4.5.1/../../../../arm-eabi/lib\libg.a(lib_a-ungetc.o)
 .comment       0x00000000       0x23 d:/devkitpro/devkitarm/bin/../lib/gcc/arm-eabi/4.5.1/../../../../arm-eabi/lib\libg.a(lib_a-vfiprintf.o)
 .comment       0x00000000       0x23 d:/devkitpro/devkitarm/bin/../lib/gcc/arm-eabi/4.5.1/../../../../arm-eabi/lib\libg.a(lib_a-vfprintf.o)
 .comment       0x00000000       0x23 d:/devkitpro/devkitarm/bin/../lib/gcc/arm-eabi/4.5.1/../../../../arm-eabi/lib\libg.a(lib_a-wcrtomb.o)
 .comment       0x00000000       0x23 d:/devkitpro/devkitarm/bin/../lib/gcc/arm-eabi/4.5.1/../../../../arm-eabi/lib\libg.a(lib_a-wcsrtombs.o)
 .comment       0x00000000       0x23 d:/devkitpro/devkitarm/bin/../lib/gcc/arm-eabi/4.5.1/../../../../arm-eabi/lib\libg.a(lib_a-wctomb_r.o)
 .comment       0x00000000       0x23 d:/devkitpro/devkitarm/bin/../lib/gcc/arm-eabi/4.5.1/../../../../arm-eabi/lib\libg.a(lib_a-wsetup.o)
 .comment       0x00000000       0x23 d:/devkitpro/devkitarm/bin/../lib/gcc/arm-eabi/4.5.1/../../../../arm-eabi/lib\libg.a(lib_a-ctype_.o)
 .comment       0x00000000       0x23 d:/devkitpro/devkitarm/bin/../lib/gcc/arm-eabi/4.5.1/../../../../arm-eabi/lib\libg.a(lib_a-dtoa.o)
 .comment       0x00000000       0x23 d:/devkitpro/devkitarm/bin/../lib/gcc/arm-eabi/4.5.1/../../../../arm-eabi/lib\libg.a(lib_a-fputwc.o)
 .comment       0x00000000       0x23 d:/devkitpro/devkitarm/bin/../lib/gcc/arm-eabi/4.5.1/../../../../arm-eabi/lib\libg.a(lib_a-fvwrite.o)
 .comment       0x00000000       0x23 d:/devkitpro/devkitarm/bin/../lib/gcc/arm-eabi/4.5.1/../../../../arm-eabi/lib\libg.a(lib_a-gdtoa-gethex.o)
 .comment       0x00000000       0x23 d:/devkitpro/devkitarm/bin/../lib/gcc/arm-eabi/4.5.1/../../../../arm-eabi/lib\libg.a(lib_a-gdtoa-hexnan.o)
 .comment       0x00000000       0x23 d:/devkitpro/devkitarm/bin/../lib/gcc/arm-eabi/4.5.1/../../../../arm-eabi/lib\libg.a(lib_a-iswspace.o)
 .comment       0x00000000       0x23 d:/devkitpro/devkitarm/bin/../lib/gcc/arm-eabi/4.5.1/../../../../arm-eabi/lib\libg.a(lib_a-jp2uc.o)
 .comment       0x00000000       0x23 d:/devkitpro/devkitarm/bin/../lib/gcc/arm-eabi/4.5.1/../../../../arm-eabi/lib\libg.a(lib_a-locale.o)
 .comment       0x00000000       0x23 d:/devkitpro/devkitarm/bin/../lib/gcc/arm-eabi/4.5.1/../../../../arm-eabi/lib\libg.a(lib_a-makebuf.o)
 .comment       0x00000000       0x23 d:/devkitpro/devkitarm/bin/../lib/gcc/arm-eabi/4.5.1/../../../../arm-eabi/lib\libg.a(lib_a-mbrtowc.o)
 .comment       0x00000000       0x23 d:/devkitpro/devkitarm/bin/../lib/gcc/arm-eabi/4.5.1/../../../../arm-eabi/lib\libg.a(lib_a-mbtowc_r.o)
 .comment       0x00000000       0x23 d:/devkitpro/devkitarm/bin/../lib/gcc/arm-eabi/4.5.1/../../../../arm-eabi/lib\libg.a(lib_a-memchr.o)
 .comment       0x00000000       0x23 d:/devkitpro/devkitarm/bin/../lib/gcc/arm-eabi/4.5.1/../../../../arm-eabi/lib\libg.a(lib_a-mprec.o)
 .comment       0x00000000       0x23 d:/devkitpro/devkitarm/bin/../lib/gcc/arm-eabi/4.5.1/../../../../arm-eabi/lib\libg.a(lib_a-sccl.o)
 .comment       0x00000000       0x23 d:/devkitpro/devkitarm/bin/../lib/gcc/arm-eabi/4.5.1/../../../../arm-eabi/lib\libg.a(lib_a-sf_nan.o)
 .comment       0x00000000       0x23 d:/devkitpro/devkitarm/bin/../lib/gcc/arm-eabi/4.5.1/../../../../arm-eabi/lib\libg.a(lib_a-strcasecmp.o)
 .comment       0x00000000       0x23 d:/devkitpro/devkitarm/bin/../lib/gcc/arm-eabi/4.5.1/../../../../arm-eabi/lib\libg.a(lib_a-strcat.o)
 .comment       0x00000000       0x23 d:/devkitpro/devkitarm/bin/../lib/gcc/arm-eabi/4.5.1/../../../../arm-eabi/lib\libg.a(lib_a-strchr.o)
 .comment       0x00000000       0x23 d:/devkitpro/devkitarm/bin/../lib/gcc/arm-eabi/4.5.1/../../../../arm-eabi/lib\libg.a(lib_a-strcpy.o)
 .comment       0x00000000       0x23 d:/devkitpro/devkitarm/bin/../lib/gcc/arm-eabi/4.5.1/../../../../arm-eabi/lib\libg.a(lib_a-strlcpy.o)
 .comment       0x00000000       0x23 d:/devkitpro/devkitarm/bin/../lib/gcc/arm-eabi/4.5.1/../../../../arm-eabi/lib\libg.a(lib_a-strncasecmp.o)
 .comment       0x00000000       0x23 d:/devkitpro/devkitarm/bin/../lib/gcc/arm-eabi/4.5.1/../../../../arm-eabi/lib\libg.a(lib_a-strncmp.o)
 .comment       0x00000000       0x23 d:/devkitpro/devkitarm/bin/../lib/gcc/arm-eabi/4.5.1/../../../../arm-eabi/lib\libg.a(lib_a-strncpy.o)
 .comment       0x00000000       0x23 d:/devkitpro/devkitarm/bin/../lib/gcc/arm-eabi/4.5.1/../../../../arm-eabi/lib\libg.a(lib_a-strtol.o)
 .comment       0x00000000       0x23 d:/devkitpro/devkitarm/bin/../lib/gcc/arm-eabi/4.5.1/../../../../arm-eabi/lib\libg.a(lib_a-strtoll_r.o)
 .comment       0x00000000       0x23 d:/devkitpro/devkitarm/bin/../lib/gcc/arm-eabi/4.5.1/../../../../arm-eabi/lib\libg.a(lib_a-strtoul.o)
 .comment       0x00000000       0x23 d:/devkitpro/devkitarm/bin/../lib/gcc/arm-eabi/4.5.1/../../../../arm-eabi/lib\libg.a(lib_a-strtoull_r.o)
 .comment       0x00000000       0x23 d:/devkitpro/devkitarm/bin/../lib/gcc/arm-eabi/4.5.1/../../../../arm-eabi/lib\libg.a(lib_a-svfiprintf.o)
 .comment       0x00000000       0x23 d:/devkitpro/devkitarm/bin/../lib/gcc/arm-eabi/4.5.1/../../../../arm-eabi/lib\libg.a(lib_a-wbuf.o)
 .comment       0x00000000       0x23 d:/devkitpro/devkitarm/bin/../lib/gcc/arm-eabi/4.5.1/../../../../arm-eabi/lib\libg.a(lib_a-wcsnrtombs.o)
 .comment       0x00000000       0x23 d:/devkitpro/devkitarm/bin/../lib/gcc/arm-eabi/4.5.1/../../../../arm-eabi/lib\libg.a(lib_a-getenv_r.o)
 .comment       0x00000000       0x23 d:/devkitpro/devkitarm/bin/../lib/gcc/arm-eabi/4.5.1/../../../../arm-eabi/lib\libg.a(lib_a-environ.o)
 .comment       0x00000000       0x23 d:/devkitpro/devkitarm/bin/../lib/gcc/arm-eabi/4.5.1/../../../../arm-eabi/lib\libg.a(lib_a-envlock.o)
 .comment       0x00000000       0x23 d:/devkitpro/devkitarm/bin/../lib/gcc/arm-eabi/4.5.1/../../../../arm-eabi/lib\libsysbase.a(iosupport.o)
 .comment       0x00000000       0x23 d:/devkitpro/devkitarm/bin/../lib/gcc/arm-eabi/4.5.1/../../../../arm-eabi/lib\libsysbase.a(close.o)
 .comment       0x00000000       0x23 d:/devkitpro/devkitarm/bin/../lib/gcc/arm-eabi/4.5.1/../../../../arm-eabi/lib\libsysbase.a(fstat.o)
 .comment       0x00000000       0x23 d:/devkitpro/devkitarm/bin/../lib/gcc/arm-eabi/4.5.1/../../../../arm-eabi/lib\libsysbase.a(getpid.o)
 .comment       0x00000000       0x23 d:/devkitpro/devkitarm/bin/../lib/gcc/arm-eabi/4.5.1/../../../../arm-eabi/lib\libsysbase.a(isatty.o)
 .comment       0x00000000       0x23 d:/devkitpro/devkitarm/bin/../lib/gcc/arm-eabi/4.5.1/../../../../arm-eabi/lib\libsysbase.a(kill.o)
 .comment       0x00000000       0x23 d:/devkitpro/devkitarm/bin/../lib/gcc/arm-eabi/4.5.1/../../../../arm-eabi/lib\libsysbase.a(lseek.o)
 .comment       0x00000000       0x23 d:/devkitpro/devkitarm/bin/../lib/gcc/arm-eabi/4.5.1/../../../../arm-eabi/lib\libsysbase.a(read.o)
 .comment       0x00000000       0x23 d:/devkitpro/devkitarm/bin/../lib/gcc/arm-eabi/4.5.1/../../../../arm-eabi/lib\libsysbase.a(sbrk.o)
 .comment       0x00000000       0x23 d:/devkitpro/devkitarm/bin/../lib/gcc/arm-eabi/4.5.1/../../../../arm-eabi/lib\libsysbase.a(times.o)
 .comment       0x00000000       0x23 d:/devkitpro/devkitarm/bin/../lib/gcc/arm-eabi/4.5.1/../../../../arm-eabi/lib\libsysbase.a(write.o)
 .comment       0x00000000       0x23 d:/devkitpro/devkitarm/bin/../lib/gcc/arm-eabi/4.5.1/../../../../arm-eabi/lib\libsysbase.a(_exit.o)
 .comment       0x00000000       0x23 d:/devkitpro/devkitarm/bin/../lib/gcc/arm-eabi/4.5.1/../../../../arm-eabi/lib\libsysbase.a(malloc_vars.o)
 .comment       0x00000000       0x23 d:/devkitpro/devkitarm/bin/../lib/gcc/arm-eabi/4.5.1/../../../../arm-eabi/lib\libsysbase.a(build_argv.o)
 .comment       0x00000000       0x23 d:/devkitpro/devkitarm/bin/../lib/gcc/arm-eabi/4.5.1/../../../../arm-eabi/lib\libsysbase.a(syscall_support.o)
 .comment       0x00000000       0x23 d:/devkitpro/devkitarm/bin/../lib/gcc/arm-eabi/4.5.1/../../../../arm-eabi/lib\libsysbase.a(handle_manager.o)
 .comment       0x00000000       0x23 d:/devkitpro/devkitarm/bin/../lib/gcc/arm-eabi/4.5.1\libgcc.a(bpabi.o)
 .comment       0x00000000       0x23 d:/devkitpro/devkitarm/bin/../lib/gcc/arm-eabi/4.5.1\libgcc.a(unwind-arm.o)
 .comment       0x00000000       0x23 d:/devkitpro/devkitarm/bin/../lib/gcc/arm-eabi/4.5.1\libgcc.a(pr-support.o)
 .comment       0x00000000       0x23 d:/devkitpro/devkitarm/bin/../lib/gcc/arm-eabi/4.5.1\libgcc.a(_divdi3.o)
 .comment       0x00000000       0x23 d:/devkitpro/devkitarm/bin/../lib/gcc/arm-eabi/4.5.1\libgcc.a(_udivdi3.o)
 .comment       0x00000000       0x23 d:/devkitpro/devkitarm/bin/../lib/gcc/arm-eabi/4.5.1/crtend.o

.debug
 *(.debug)

.line
 *(.line)

.debug_srcinfo
 *(.debug_srcinfo)

.debug_sfnames
 *(.debug_sfnames)

.debug_aranges  0x00000000      0x660 load address 0x02052918
 *(.debug_aranges)
 .debug_aranges
                0x00000000       0x20 main.o
 .debug_aranges
                0x00000020       0x20 d:/devkitPro/libnds/lib\libul.a(ulib.o)
 .debug_aranges
                0x00000040       0x20 d:/devkitPro/libnds/lib\libul.a(drawing.o)
 .debug_aranges
                0x00000060       0x20 d:/devkitPro/libnds/lib\libul.a(map.o)
 .debug_aranges
                0x00000080       0x20 d:/devkitPro/libnds/lib\libul.a(text.o)
 .debug_aranges
                0x000000a0       0x20 d:/devkitPro/libnds/lib\libul.a(VirtualFile.o)
 .debug_aranges
                0x000000c0       0x20 d:/devkitPro/libnds/lib\libul.a(texVramManager.o)
 .debug_aranges
                0x000000e0       0x20 d:/devkitPro/libnds/lib\libul.a(texPalManager.o)
 .debug_aranges
                0x00000100       0x20 d:/devkitPro/libnds/lib\libul.a(keys.o)
 .debug_aranges
                0x00000120       0x20 d:/devkitPro/libnds/lib\libul.a(ulCreateImagePalette.o)
 .debug_aranges
                0x00000140       0x20 d:/devkitPro/libnds/lib\libul.a(ulDrawGradientRect.o)
 .debug_aranges
                0x00000160       0x20 d:/devkitPro/libnds/lib\libul.a(messagebox.o)
 .debug_aranges
                0x00000180       0x20 d:/devkitPro/libnds/lib\libul.a(textSize.o)
 .debug_aranges
                0x000001a0       0x20 d:/devkitPro/libnds/lib\libul.a(ulLoadImageFilePNG.o)
 .debug_aranges
                0x000001c0       0x20 d:/devkitPro/libnds/lib\libul.a(ulShowSplashScreen1.o)
 .debug_aranges
                0x000001e0       0x20 d:/devkitPro/libnds/lib\libul.a(ulShowSplashScreen2.o)
 .debug_aranges
                0x00000200       0x20 d:/devkitPro/libnds/lib\libul.a(glWrapper.o)
 .debug_aranges
                0x00000220       0x20 d:/devkitPro/libnds/lib\libul.a(libLoadPng.o)
 .debug_aranges
                0x00000240       0x20 d:/devkitPro/libnds/lib\libul.a(ulDrawImage.o)
 .debug_aranges
                0x00000260       0x20 d:/devkitPro/libnds/lib\libul.a(ulDrawFillRect.o)
 .debug_aranges
                0x00000280       0x20 d:/devkitPro/libnds/lib\libul.a(ulDrawLine.o)
 .debug_aranges
                0x000002a0       0x20 d:/devkitPro/libnds/lib\libul.a(ulDrawRect.o)
 .debug_aranges
                0x000002c0       0x20 d:/devkitPro/libnds/lib\libul.a(ulSetImagePixel.o)
 .debug_aranges
                0x000002e0       0x20 d:/devkitPro/libnds/lib\libul.a(ulGetImagePixel.o)
 .debug_aranges
                0x00000300       0x20 d:/devkitPro/libnds/lib\libul.a(ulLoadImageFileJPG.o)
 .debug_aranges
                0x00000320       0x20 d:/devkitPro/libnds/lib\libul.a(ulLoadImageFileGIF.o)
 .debug_aranges
                0x00000340       0x20 d:/devkitPro/libnds/lib\libul.a(libLoadJpg.o)
 .debug_aranges
                0x00000360       0x20 d:/devkitPro/libnds/lib\libul.a(libLoadGif.o)
 .debug_aranges
                0x00000380       0x20 d:/devkitPro/libnds/lib\libul.a(dgif_lib.o)
 .debug_aranges
                0x000003a0       0x20 d:/devkitPro/libnds/lib\libul.a(gif_err.o)
 .debug_aranges
                0x000003c0       0x20 d:/devkitPro/libnds/lib\libul.a(gifalloc.o)
 .debug_aranges
                0x000003e0       0x20 d:/devkitPro/libnds/lib\libul.a(ulReadEntireFileToMemory.o)
 .debug_aranges
                0x00000400       0x20 d:/devkitPro/libnds/lib\libul.a(gba-jpeg-decode.o)
 .debug_aranges
                0x00000420       0x20 d:/devkitPro/libnds/lib\libnds9.a(console.o)
 .debug_aranges
                0x00000440       0x20 d:/devkitPro/libnds/lib\libnds9.a(dynamicArray.o)
 .debug_aranges
                0x00000460       0x20 d:/devkitPro/libnds/lib\libnds9.a(keys.o)
 .debug_aranges
                0x00000480       0x20 d:/devkitPro/libnds/lib\libnds9.a(system.o)
 .debug_aranges
                0x000004a0       0x20 d:/devkitPro/libnds/lib\libnds9.a(touch.o)
 .debug_aranges
                0x000004c0       0x20 d:/devkitPro/libnds/lib\libnds9.a(trig.o)
 .debug_aranges
                0x000004e0       0x20 d:/devkitPro/libnds/lib\libnds9.a(videoGL.o)
 .debug_aranges
                0x00000500       0x20 d:/devkitPro/libnds/lib\libnds9.a(initSystem.o)
 .debug_aranges
                0x00000520       0x20 d:/devkitPro/libnds/lib\libnds9.a(fifosystem.o)
 .debug_aranges
                0x00000540       0x20 d:/devkitPro/libnds/lib\libnds9.a(interrupts.o)
 .debug_aranges
                0x00000560       0x20 d:/devkitPro/libnds/lib\libnds9.a(libnds_exit.o)
 .debug_aranges
                0x00000580       0x20 d:/devkitPro/libnds/lib\libnds9.a(mpu_setup.o)
 .debug_aranges
                0x000005a0       0x20 d:/devkitPro/libnds/lib\libnds9.a(biosCalls.o)
 .debug_aranges
                0x000005c0       0x20 d:/devkitPro/libnds/lib\libnds9.a(debugprint.o)
 .debug_aranges
                0x000005e0       0x20 d:/devkitPro/libnds/lib\libnds9.a(interruptDispatcher.o)
 .debug_aranges
                0x00000600       0x20 d:/devkitPro/libnds/lib\libnds9.a(swiSoftReset.o)
 .debug_aranges
                0x00000620       0x20 d:/devkitPro/libnds/lib\libnds9.a(background.o)
 .debug_aranges
                0x00000640       0x20 d:/devkitPro/libnds/lib\libnds9.a(video.o)

.debug_pubnames
                0x00000000     0x1f4d load address 0x02052918
 *(.debug_pubnames)
 .debug_pubnames
                0x00000000       0x24 Map.o
 .debug_pubnames
                0x00000024       0x37 main.o
 .debug_pubnames
                0x0000005b       0x84 d:/devkitPro/libnds/lib\libul.a(ulib.o)
 .debug_pubnames
                0x000000df      0x33e d:/devkitPro/libnds/lib\libul.a(drawing.o)
 .debug_pubnames
                0x0000041d       0x40 d:/devkitPro/libnds/lib\libul.a(map.o)
 .debug_pubnames
                0x0000045d      0x119 d:/devkitPro/libnds/lib\libul.a(text.o)
 .debug_pubnames
                0x00000576      0x1c5 d:/devkitPro/libnds/lib\libul.a(VirtualFile.o)
 .debug_pubnames
                0x0000073b      0x259 d:/devkitPro/libnds/lib\libul.a(texVramManager.o)
 .debug_pubnames
                0x00000994      0x176 d:/devkitPro/libnds/lib\libul.a(texPalManager.o)
 .debug_pubnames
                0x00000b0a       0x2d d:/devkitPro/libnds/lib\libul.a(keys.o)
 .debug_pubnames
                0x00000b37       0x2b d:/devkitPro/libnds/lib\libul.a(ulCreateImagePalette.o)
 .debug_pubnames
                0x00000b62       0x29 d:/devkitPro/libnds/lib\libul.a(ulDrawGradientRect.o)
 .debug_pubnames
                0x00000b8b       0x35 d:/devkitPro/libnds/lib\libul.a(messagebox.o)
 .debug_pubnames
                0x00000bc0       0x3e d:/devkitPro/libnds/lib\libul.a(textSize.o)
 .debug_pubnames
                0x00000bfe       0x29 d:/devkitPro/libnds/lib\libul.a(ulLoadImageFilePNG.o)
 .debug_pubnames
                0x00000c27      0x1cb d:/devkitPro/libnds/lib\libul.a(ulShowSplashScreen1.o)
 .debug_pubnames
                0x00000df2       0x97 d:/devkitPro/libnds/lib\libul.a(ulShowSplashScreen2.o)
 .debug_pubnames
                0x00000e89       0x2d d:/devkitPro/libnds/lib\libul.a(glWrapper.o)
 .debug_pubnames
                0x00000eb6       0x25 d:/devkitPro/libnds/lib\libul.a(libLoadPng.o)
 .debug_pubnames
                0x00000edb       0x22 d:/devkitPro/libnds/lib\libul.a(ulDrawImage.o)
 .debug_pubnames
                0x00000efd       0x25 d:/devkitPro/libnds/lib\libul.a(ulDrawFillRect.o)
 .debug_pubnames
                0x00000f22       0x21 d:/devkitPro/libnds/lib\libul.a(ulDrawLine.o)
 .debug_pubnames
                0x00000f43       0x21 d:/devkitPro/libnds/lib\libul.a(ulDrawRect.o)
 .debug_pubnames
                0x00000f64       0x26 d:/devkitPro/libnds/lib\libul.a(ulSetImagePixel.o)
 .debug_pubnames
                0x00000f8a       0x26 d:/devkitPro/libnds/lib\libul.a(ulGetImagePixel.o)
 .debug_pubnames
                0x00000fb0       0x2e d:/devkitPro/libnds/lib\libul.a(loading_utility.o)
 .debug_pubnames
                0x00000fde       0x29 d:/devkitPro/libnds/lib\libul.a(ulLoadImageFileJPG.o)
 .debug_pubnames
                0x00001007       0x29 d:/devkitPro/libnds/lib\libul.a(ulLoadImageFileGIF.o)
 .debug_pubnames
                0x00001030       0x25 d:/devkitPro/libnds/lib\libul.a(libLoadJpg.o)
 .debug_pubnames
                0x00001055       0x9f d:/devkitPro/libnds/lib\libul.a(libLoadGif.o)
 .debug_pubnames
                0x000010f4       0xf8 d:/devkitPro/libnds/lib\libul.a(dgif_lib.o)
 .debug_pubnames
                0x000011ec       0x31 d:/devkitPro/libnds/lib\libul.a(gif_err.o)
 .debug_pubnames
                0x0000121d       0xe1 d:/devkitPro/libnds/lib\libul.a(gifalloc.o)
 .debug_pubnames
                0x000012fe       0x2f d:/devkitPro/libnds/lib\libul.a(ulReadEntireFileToMemory.o)
 .debug_pubnames
                0x0000132d      0x14b d:/devkitPro/libnds/lib\libul.a(gba-jpeg-decode.o)
 .debug_pubnames
                0x00001478      0x12a d:/devkitPro/libnds/lib\libnds9.a(console.o)
 .debug_pubnames
                0x000015a2       0x66 d:/devkitPro/libnds/lib\libnds9.a(dynamicArray.o)
 .debug_pubnames
                0x00001608       0x79 d:/devkitPro/libnds/lib\libnds9.a(keys.o)
 .debug_pubnames
                0x00001681       0x87 d:/devkitPro/libnds/lib\libnds9.a(system.o)
 .debug_pubnames
                0x00001708       0x30 d:/devkitPro/libnds/lib\libnds9.a(touch.o)
 .debug_pubnames
                0x00001738       0xa4 d:/devkitPro/libnds/lib\libnds9.a(trig.o)
 .debug_pubnames
                0x000017dc      0x2c2 d:/devkitPro/libnds/lib\libnds9.a(videoGL.o)
 .debug_pubnames
                0x00001a9e       0x2f d:/devkitPro/libnds/lib\libnds9.a(initSystem.o)
 .debug_pubnames
                0x00001acd      0x259 d:/devkitPro/libnds/lib\libnds9.a(fifosystem.o)
 .debug_pubnames
                0x00001d26       0x80 d:/devkitPro/libnds/lib\libnds9.a(interrupts.o)
 .debug_pubnames
                0x00001da6       0x38 d:/devkitPro/libnds/lib\libnds9.a(libnds_exit.o)
 .debug_pubnames
                0x00001dde       0xab d:/devkitPro/libnds/lib\libnds9.a(background.o)
 .debug_pubnames
                0x00001e89       0xc4 d:/devkitPro/libnds/lib\libnds9.a(video.o)

.debug_info     0x00000000    0x24408 load address 0x02052918
 *(.debug_info)
 .debug_info    0x00000000       0x5d Map.o
 .debug_info    0x0000005d      0xf2a main.o
 .debug_info    0x00000f87      0x908 d:/devkitPro/libnds/lib\libul.a(ulib.o)
 .debug_info    0x0000188f     0x2312 d:/devkitPro/libnds/lib\libul.a(drawing.o)
 .debug_info    0x00003ba1      0xc71 d:/devkitPro/libnds/lib\libul.a(map.o)
 .debug_info    0x00004812     0x1338 d:/devkitPro/libnds/lib\libul.a(text.o)
 .debug_info    0x00005b4a      0xeef d:/devkitPro/libnds/lib\libul.a(VirtualFile.o)
 .debug_info    0x00006a39      0xebb d:/devkitPro/libnds/lib\libul.a(texVramManager.o)
 .debug_info    0x000078f4      0xb0e d:/devkitPro/libnds/lib\libul.a(texPalManager.o)
 .debug_info    0x00008402      0xa76 d:/devkitPro/libnds/lib\libul.a(keys.o)
 .debug_info    0x00008e78      0x8d1 d:/devkitPro/libnds/lib\libul.a(ulCreateImagePalette.o)
 .debug_info    0x00009749      0x761 d:/devkitPro/libnds/lib\libul.a(ulDrawGradientRect.o)
 .debug_info    0x00009eaa      0xe8d d:/devkitPro/libnds/lib\libul.a(messagebox.o)
 .debug_info    0x0000ad37      0x9ac d:/devkitPro/libnds/lib\libul.a(textSize.o)
 .debug_info    0x0000b6e3      0x8eb d:/devkitPro/libnds/lib\libul.a(ulLoadImageFilePNG.o)
 .debug_info    0x0000bfce     0x169e d:/devkitPro/libnds/lib\libul.a(ulShowSplashScreen1.o)
 .debug_info    0x0000d66c      0xe89 d:/devkitPro/libnds/lib\libul.a(ulShowSplashScreen2.o)
 .debug_info    0x0000e4f5      0x795 d:/devkitPro/libnds/lib\libul.a(glWrapper.o)
 .debug_info    0x0000ec8a     0x240b d:/devkitPro/libnds/lib\libul.a(libLoadPng.o)
 .debug_info    0x00011095      0x9da d:/devkitPro/libnds/lib\libul.a(ulDrawImage.o)
 .debug_info    0x00011a6f      0x737 d:/devkitPro/libnds/lib\libul.a(ulDrawFillRect.o)
 .debug_info    0x000121a6      0x735 d:/devkitPro/libnds/lib\libul.a(ulDrawLine.o)
 .debug_info    0x000128db      0x737 d:/devkitPro/libnds/lib\libul.a(ulDrawRect.o)
 .debug_info    0x00013012      0x8c7 d:/devkitPro/libnds/lib\libul.a(ulSetImagePixel.o)
 .debug_info    0x000138d9      0x8bc d:/devkitPro/libnds/lib\libul.a(ulGetImagePixel.o)
 .debug_info    0x00014195       0x3f d:/devkitPro/libnds/lib\libul.a(loading_utility.o)
 .debug_info    0x000141d4      0x8eb d:/devkitPro/libnds/lib\libul.a(ulLoadImageFileJPG.o)
 .debug_info    0x00014abf      0x8eb d:/devkitPro/libnds/lib\libul.a(ulLoadImageFileGIF.o)
 .debug_info    0x000153aa      0xc62 d:/devkitPro/libnds/lib\libul.a(libLoadJpg.o)
 .debug_info    0x0001600c     0x12ff d:/devkitPro/libnds/lib\libul.a(libLoadGif.o)
 .debug_info    0x0001730b     0x1634 d:/devkitPro/libnds/lib\libul.a(dgif_lib.o)
 .debug_info    0x0001893f       0xbe d:/devkitPro/libnds/lib\libul.a(gif_err.o)
 .debug_info    0x000189fd      0x65c d:/devkitPro/libnds/lib\libul.a(gifalloc.o)
 .debug_info    0x00019059      0x917 d:/devkitPro/libnds/lib\libul.a(ulReadEntireFileToMemory.o)
 .debug_info    0x00019970     0x1e32 d:/devkitPro/libnds/lib\libul.a(gba-jpeg-decode.o)
 .debug_info    0x0001b7a2     0x20d1 d:/devkitPro/libnds/lib\libnds9.a(console.o)
 .debug_info    0x0001d873      0x1e7 d:/devkitPro/libnds/lib\libnds9.a(dynamicArray.o)
 .debug_info    0x0001da5a      0x3d0 d:/devkitPro/libnds/lib\libnds9.a(keys.o)
 .debug_info    0x0001de2a      0x6f4 d:/devkitPro/libnds/lib\libnds9.a(system.o)
 .debug_info    0x0001e51e      0x2c2 d:/devkitPro/libnds/lib\libnds9.a(touch.o)
 .debug_info    0x0001e7e0      0x4b6 d:/devkitPro/libnds/lib\libnds9.a(trig.o)
 .debug_info    0x0001ec96     0x1dc7 d:/devkitPro/libnds/lib\libnds9.a(videoGL.o)
 .debug_info    0x00020a5d      0xed0 d:/devkitPro/libnds/lib\libnds9.a(initSystem.o)
 .debug_info    0x0002192d     0x10ca d:/devkitPro/libnds/lib\libnds9.a(fifosystem.o)
 .debug_info    0x000229f7      0x466 d:/devkitPro/libnds/lib\libnds9.a(interrupts.o)
 .debug_info    0x00022e5d      0x2a6 d:/devkitPro/libnds/lib\libnds9.a(libnds_exit.o)
 .debug_info    0x00023103       0xca d:/devkitPro/libnds/lib\libnds9.a(mpu_setup.o)
 .debug_info    0x000231cd       0xc5 d:/devkitPro/libnds/lib\libnds9.a(biosCalls.o)
 .debug_info    0x00023292       0xc6 d:/devkitPro/libnds/lib\libnds9.a(debugprint.o)
 .debug_info    0x00023358       0xcf d:/devkitPro/libnds/lib\libnds9.a(interruptDispatcher.o)
 .debug_info    0x00023427       0xc8 d:/devkitPro/libnds/lib\libnds9.a(swiSoftReset.o)
 .debug_info    0x000234ef      0x8c8 d:/devkitPro/libnds/lib\libnds9.a(background.o)
 .debug_info    0x00023db7      0x651 d:/devkitPro/libnds/lib\libnds9.a(video.o)

.debug_abbrev   0x00000000     0x6036 load address 0x02052918
 *(.debug_abbrev)
 .debug_abbrev  0x00000000       0x47 Map.o
 .debug_abbrev  0x00000047      0x29d main.o
 .debug_abbrev  0x000002e4      0x1a9 d:/devkitPro/libnds/lib\libul.a(ulib.o)
 .debug_abbrev  0x0000048d      0x4ca d:/devkitPro/libnds/lib\libul.a(drawing.o)
 .debug_abbrev  0x00000957      0x20e d:/devkitPro/libnds/lib\libul.a(map.o)
 .debug_abbrev  0x00000b65      0x270 d:/devkitPro/libnds/lib\libul.a(text.o)
 .debug_abbrev  0x00000dd5      0x29d d:/devkitPro/libnds/lib\libul.a(VirtualFile.o)
 .debug_abbrev  0x00001072      0x30f d:/devkitPro/libnds/lib\libul.a(texVramManager.o)
 .debug_abbrev  0x00001381      0x245 d:/devkitPro/libnds/lib\libul.a(texPalManager.o)
 .debug_abbrev  0x000015c6      0x1cf d:/devkitPro/libnds/lib\libul.a(keys.o)
 .debug_abbrev  0x00001795      0x16c d:/devkitPro/libnds/lib\libul.a(ulCreateImagePalette.o)
 .debug_abbrev  0x00001901      0x13f d:/devkitPro/libnds/lib\libul.a(ulDrawGradientRect.o)
 .debug_abbrev  0x00001a40      0x244 d:/devkitPro/libnds/lib\libul.a(messagebox.o)
 .debug_abbrev  0x00001c84      0x1b5 d:/devkitPro/libnds/lib\libul.a(textSize.o)
 .debug_abbrev  0x00001e39      0x164 d:/devkitPro/libnds/lib\libul.a(ulLoadImageFilePNG.o)
 .debug_abbrev  0x00001f9d      0x3bd d:/devkitPro/libnds/lib\libul.a(ulShowSplashScreen1.o)
 .debug_abbrev  0x0000235a      0x2a9 d:/devkitPro/libnds/lib\libul.a(ulShowSplashScreen2.o)
 .debug_abbrev  0x00002603      0x171 d:/devkitPro/libnds/lib\libul.a(glWrapper.o)
 .debug_abbrev  0x00002774      0x289 d:/devkitPro/libnds/lib\libul.a(libLoadPng.o)
 .debug_abbrev  0x000029fd      0x1d7 d:/devkitPro/libnds/lib\libul.a(ulDrawImage.o)
 .debug_abbrev  0x00002bd4      0x13f d:/devkitPro/libnds/lib\libul.a(ulDrawFillRect.o)
 .debug_abbrev  0x00002d13      0x14e d:/devkitPro/libnds/lib\libul.a(ulDrawLine.o)
 .debug_abbrev  0x00002e61      0x13f d:/devkitPro/libnds/lib\libul.a(ulDrawRect.o)
 .debug_abbrev  0x00002fa0      0x176 d:/devkitPro/libnds/lib\libul.a(ulSetImagePixel.o)
 .debug_abbrev  0x00003116      0x178 d:/devkitPro/libnds/lib\libul.a(ulGetImagePixel.o)
 .debug_abbrev  0x0000328e       0x30 d:/devkitPro/libnds/lib\libul.a(loading_utility.o)
 .debug_abbrev  0x000032be      0x164 d:/devkitPro/libnds/lib\libul.a(ulLoadImageFileJPG.o)
 .debug_abbrev  0x00003422      0x164 d:/devkitPro/libnds/lib\libul.a(ulLoadImageFileGIF.o)
 .debug_abbrev  0x00003586      0x1bd d:/devkitPro/libnds/lib\libul.a(libLoadJpg.o)
 .debug_abbrev  0x00003743      0x294 d:/devkitPro/libnds/lib\libul.a(libLoadGif.o)
 .debug_abbrev  0x000039d7      0x2fa d:/devkitPro/libnds/lib\libul.a(dgif_lib.o)
 .debug_abbrev  0x00003cd1       0x74 d:/devkitPro/libnds/lib\libul.a(gif_err.o)
 .debug_abbrev  0x00003d45      0x206 d:/devkitPro/libnds/lib\libul.a(gifalloc.o)
 .debug_abbrev  0x00003f4b      0x193 d:/devkitPro/libnds/lib\libul.a(ulReadEntireFileToMemory.o)
 .debug_abbrev  0x000040de      0x348 d:/devkitPro/libnds/lib\libul.a(gba-jpeg-decode.o)
 .debug_abbrev  0x00004426      0x455 d:/devkitPro/libnds/lib\libnds9.a(console.o)
 .debug_abbrev  0x0000487b       0xf6 d:/devkitPro/libnds/lib\libnds9.a(dynamicArray.o)
 .debug_abbrev  0x00004971      0x176 d:/devkitPro/libnds/lib\libnds9.a(keys.o)
 .debug_abbrev  0x00004ae7      0x19a d:/devkitPro/libnds/lib\libnds9.a(system.o)
 .debug_abbrev  0x00004c81      0x123 d:/devkitPro/libnds/lib\libnds9.a(touch.o)
 .debug_abbrev  0x00004da4      0x1c2 d:/devkitPro/libnds/lib\libnds9.a(trig.o)
 .debug_abbrev  0x00004f66      0x390 d:/devkitPro/libnds/lib\libnds9.a(videoGL.o)
 .debug_abbrev  0x000052f6      0x242 d:/devkitPro/libnds/lib\libnds9.a(initSystem.o)
 .debug_abbrev  0x00005538      0x3af d:/devkitPro/libnds/lib\libnds9.a(fifosystem.o)
 .debug_abbrev  0x000058e7      0x1d5 d:/devkitPro/libnds/lib\libnds9.a(interrupts.o)
 .debug_abbrev  0x00005abc      0x131 d:/devkitPro/libnds/lib\libnds9.a(libnds_exit.o)
 .debug_abbrev  0x00005bed       0x14 d:/devkitPro/libnds/lib\libnds9.a(mpu_setup.o)
 .debug_abbrev  0x00005c01       0x14 d:/devkitPro/libnds/lib\libnds9.a(biosCalls.o)
 .debug_abbrev  0x00005c15       0x14 d:/devkitPro/libnds/lib\libnds9.a(debugprint.o)
 .debug_abbrev  0x00005c29       0x14 d:/devkitPro/libnds/lib\libnds9.a(interruptDispatcher.o)
 .debug_abbrev  0x00005c3d       0x14 d:/devkitPro/libnds/lib\libnds9.a(swiSoftReset.o)
 .debug_abbrev  0x00005c51      0x22c d:/devkitPro/libnds/lib\libnds9.a(background.o)
 .debug_abbrev  0x00005e7d      0x1b9 d:/devkitPro/libnds/lib\libnds9.a(video.o)

.debug_line     0x00000000     0x90ce load address 0x02052918
 *(.debug_line)
 .debug_line    0x00000000       0x56 Map.o
 .debug_line    0x00000056      0x2c6 main.o
 .debug_line    0x0000031c      0x1c8 d:/devkitPro/libnds/lib\libul.a(ulib.o)
 .debug_line    0x000004e4      0x81c d:/devkitPro/libnds/lib\libul.a(drawing.o)
 .debug_line    0x00000d00      0x3a9 d:/devkitPro/libnds/lib\libul.a(map.o)
 .debug_line    0x000010a9      0x3dd d:/devkitPro/libnds/lib\libul.a(text.o)
 .debug_line    0x00001486      0x2f3 d:/devkitPro/libnds/lib\libul.a(VirtualFile.o)
 .debug_line    0x00001779      0x385 d:/devkitPro/libnds/lib\libul.a(texVramManager.o)
 .debug_line    0x00001afe      0x29c d:/devkitPro/libnds/lib\libul.a(texPalManager.o)
 .debug_line    0x00001d9a      0x1c5 d:/devkitPro/libnds/lib\libul.a(keys.o)
 .debug_line    0x00001f5f      0x1e4 d:/devkitPro/libnds/lib\libul.a(ulCreateImagePalette.o)
 .debug_line    0x00002143      0x1d9 d:/devkitPro/libnds/lib\libul.a(ulDrawGradientRect.o)
 .debug_line    0x0000231c      0x2ba d:/devkitPro/libnds/lib\libul.a(messagebox.o)
 .debug_line    0x000025d6      0x1cb d:/devkitPro/libnds/lib\libul.a(textSize.o)
 .debug_line    0x000027a1      0x1b0 d:/devkitPro/libnds/lib\libul.a(ulLoadImageFilePNG.o)
 .debug_line    0x00002951      0x4a5 d:/devkitPro/libnds/lib\libul.a(ulShowSplashScreen1.o)
 .debug_line    0x00002df6      0x367 d:/devkitPro/libnds/lib\libul.a(ulShowSplashScreen2.o)
 .debug_line    0x0000315d      0x190 d:/devkitPro/libnds/lib\libul.a(glWrapper.o)
 .debug_line    0x000032ed      0x442 d:/devkitPro/libnds/lib\libul.a(libLoadPng.o)
 .debug_line    0x0000372f      0x2c1 d:/devkitPro/libnds/lib\libul.a(ulDrawImage.o)
 .debug_line    0x000039f0      0x1cf d:/devkitPro/libnds/lib\libul.a(ulDrawFillRect.o)
 .debug_line    0x00003bbf      0x1c1 d:/devkitPro/libnds/lib\libul.a(ulDrawLine.o)
 .debug_line    0x00003d80      0x1d5 d:/devkitPro/libnds/lib\libul.a(ulDrawRect.o)
 .debug_line    0x00003f55      0x1b0 d:/devkitPro/libnds/lib\libul.a(ulSetImagePixel.o)
 .debug_line    0x00004105      0x1ac d:/devkitPro/libnds/lib\libul.a(ulGetImagePixel.o)
 .debug_line    0x000042b1       0x3b d:/devkitPro/libnds/lib\libul.a(loading_utility.o)
 .debug_line    0x000042ec      0x1b0 d:/devkitPro/libnds/lib\libul.a(ulLoadImageFileJPG.o)
 .debug_line    0x0000449c      0x1b0 d:/devkitPro/libnds/lib\libul.a(ulLoadImageFileGIF.o)
 .debug_line    0x0000464c      0x1bf d:/devkitPro/libnds/lib\libul.a(libLoadJpg.o)
 .debug_line    0x0000480b      0x30f d:/devkitPro/libnds/lib\libul.a(libLoadGif.o)
 .debug_line    0x00004b1a      0x54d d:/devkitPro/libnds/lib\libul.a(dgif_lib.o)
 .debug_line    0x00005067       0x42 d:/devkitPro/libnds/lib\libul.a(gif_err.o)
 .debug_line    0x000050a9      0x1cf d:/devkitPro/libnds/lib\libul.a(gifalloc.o)
 .debug_line    0x00005278      0x1ff d:/devkitPro/libnds/lib\libul.a(ulReadEntireFileToMemory.o)
 .debug_line    0x00005477      0xac8 d:/devkitPro/libnds/lib\libul.a(gba-jpeg-decode.o)
 .debug_line    0x00005f3f      0x796 d:/devkitPro/libnds/lib\libnds9.a(console.o)
 .debug_line    0x000066d5      0x178 d:/devkitPro/libnds/lib\libnds9.a(dynamicArray.o)
 .debug_line    0x0000684d      0x254 d:/devkitPro/libnds/lib\libnds9.a(keys.o)
 .debug_line    0x00006aa1      0x26c d:/devkitPro/libnds/lib\libnds9.a(system.o)
 .debug_line    0x00006d0d      0x22d d:/devkitPro/libnds/lib\libnds9.a(touch.o)
 .debug_line    0x00006f3a      0x224 d:/devkitPro/libnds/lib\libnds9.a(trig.o)
 .debug_line    0x0000715e      0x93f d:/devkitPro/libnds/lib\libnds9.a(videoGL.o)
 .debug_line    0x00007a9d      0x36c d:/devkitPro/libnds/lib\libnds9.a(initSystem.o)
 .debug_line    0x00007e09      0x6c8 d:/devkitPro/libnds/lib\libnds9.a(fifosystem.o)
 .debug_line    0x000084d1      0x1d0 d:/devkitPro/libnds/lib\libnds9.a(interrupts.o)
 .debug_line    0x000086a1      0x1d8 d:/devkitPro/libnds/lib\libnds9.a(libnds_exit.o)
 .debug_line    0x00008879       0xe3 d:/devkitPro/libnds/lib\libnds9.a(mpu_setup.o)
 .debug_line    0x0000895c       0xc5 d:/devkitPro/libnds/lib\libnds9.a(biosCalls.o)
 .debug_line    0x00008a21       0x9e d:/devkitPro/libnds/lib\libnds9.a(debugprint.o)
 .debug_line    0x00008abf       0xc4 d:/devkitPro/libnds/lib\libnds9.a(interruptDispatcher.o)
 .debug_line    0x00008b83       0x93 d:/devkitPro/libnds/lib\libnds9.a(swiSoftReset.o)
 .debug_line    0x00008c16      0x2b2 d:/devkitPro/libnds/lib\libnds9.a(background.o)
 .debug_line    0x00008ec8      0x206 d:/devkitPro/libnds/lib\libnds9.a(video.o)

.debug_frame    0x00000000     0x21d8 load address 0x02052918
 *(.debug_frame)
 .debug_frame   0x00000000       0x50 main.o
 .debug_frame   0x00000050       0x70 d:/devkitPro/libnds/lib\libul.a(ulib.o)
 .debug_frame   0x000000c0      0x220 d:/devkitPro/libnds/lib\libul.a(drawing.o)
 .debug_frame   0x000002e0       0x6c d:/devkitPro/libnds/lib\libul.a(map.o)
 .debug_frame   0x0000034c      0x160 d:/devkitPro/libnds/lib\libul.a(text.o)
 .debug_frame   0x000004ac      0x1b0 d:/devkitPro/libnds/lib\libul.a(VirtualFile.o)
 .debug_frame   0x0000065c      0x1a0 d:/devkitPro/libnds/lib\libul.a(texVramManager.o)
 .debug_frame   0x000007fc      0x10c d:/devkitPro/libnds/lib\libul.a(texPalManager.o)
 .debug_frame   0x00000908       0x30 d:/devkitPro/libnds/lib\libul.a(keys.o)
 .debug_frame   0x00000938       0x30 d:/devkitPro/libnds/lib\libul.a(ulCreateImagePalette.o)
 .debug_frame   0x00000968       0x38 d:/devkitPro/libnds/lib\libul.a(ulDrawGradientRect.o)
 .debug_frame   0x000009a0       0x68 d:/devkitPro/libnds/lib\libul.a(messagebox.o)
 .debug_frame   0x00000a08       0x44 d:/devkitPro/libnds/lib\libul.a(textSize.o)
 .debug_frame   0x00000a4c       0x2c d:/devkitPro/libnds/lib\libul.a(ulLoadImageFilePNG.o)
 .debug_frame   0x00000a78      0x124 d:/devkitPro/libnds/lib\libul.a(ulShowSplashScreen1.o)
 .debug_frame   0x00000b9c       0x68 d:/devkitPro/libnds/lib\libul.a(ulShowSplashScreen2.o)
 .debug_frame   0x00000c04       0x28 d:/devkitPro/libnds/lib\libul.a(glWrapper.o)
 .debug_frame   0x00000c2c       0x68 d:/devkitPro/libnds/lib\libul.a(libLoadPng.o)
 .debug_frame   0x00000c94       0x3c d:/devkitPro/libnds/lib\libul.a(ulDrawImage.o)
 .debug_frame   0x00000cd0       0x30 d:/devkitPro/libnds/lib\libul.a(ulDrawFillRect.o)
 .debug_frame   0x00000d00       0x30 d:/devkitPro/libnds/lib\libul.a(ulDrawLine.o)
 .debug_frame   0x00000d30       0x34 d:/devkitPro/libnds/lib\libul.a(ulDrawRect.o)
 .debug_frame   0x00000d64       0x2c d:/devkitPro/libnds/lib\libul.a(ulSetImagePixel.o)
 .debug_frame   0x00000d90       0x28 d:/devkitPro/libnds/lib\libul.a(ulGetImagePixel.o)
 .debug_frame   0x00000db8       0x2c d:/devkitPro/libnds/lib\libul.a(ulLoadImageFileJPG.o)
 .debug_frame   0x00000de4       0x2c d:/devkitPro/libnds/lib\libul.a(ulLoadImageFileGIF.o)
 .debug_frame   0x00000e10       0x38 d:/devkitPro/libnds/lib\libul.a(libLoadJpg.o)
 .debug_frame   0x00000e48       0xa4 d:/devkitPro/libnds/lib\libul.a(libLoadGif.o)
 .debug_frame   0x00000eec      0x208 d:/devkitPro/libnds/lib\libul.a(dgif_lib.o)
 .debug_frame   0x000010f4       0x20 d:/devkitPro/libnds/lib\libul.a(gif_err.o)
 .debug_frame   0x00001114      0x140 d:/devkitPro/libnds/lib\libul.a(gifalloc.o)
 .debug_frame   0x00001254       0x34 d:/devkitPro/libnds/lib\libul.a(ulReadEntireFileToMemory.o)
 .debug_frame   0x00001288      0x1cc d:/devkitPro/libnds/lib\libul.a(gba-jpeg-decode.o)
 .debug_frame   0x00001454      0x1a4 d:/devkitPro/libnds/lib\libnds9.a(console.o)
 .debug_frame   0x000015f8       0x78 d:/devkitPro/libnds/lib\libnds9.a(dynamicArray.o)
 .debug_frame   0x00001670       0x8c d:/devkitPro/libnds/lib\libnds9.a(keys.o)
 .debug_frame   0x000016fc       0xbc d:/devkitPro/libnds/lib\libnds9.a(system.o)
 .debug_frame   0x000017b8       0x44 d:/devkitPro/libnds/lib\libnds9.a(touch.o)
 .debug_frame   0x000017fc       0xf4 d:/devkitPro/libnds/lib\libnds9.a(trig.o)
 .debug_frame   0x000018f0      0x3b4 d:/devkitPro/libnds/lib\libnds9.a(videoGL.o)
 .debug_frame   0x00001ca4       0x28 d:/devkitPro/libnds/lib\libnds9.a(initSystem.o)
 .debug_frame   0x00001ccc      0x2b4 d:/devkitPro/libnds/lib\libnds9.a(fifosystem.o)
 .debug_frame   0x00001f80       0xb4 d:/devkitPro/libnds/lib\libnds9.a(interrupts.o)
 .debug_frame   0x00002034       0x38 d:/devkitPro/libnds/lib\libnds9.a(libnds_exit.o)
 .debug_frame   0x0000206c       0xb0 d:/devkitPro/libnds/lib\libnds9.a(background.o)
 .debug_frame   0x0000211c       0xbc d:/devkitPro/libnds/lib\libnds9.a(video.o)

.debug_str      0x00000000     0x6b08 load address 0x02052918
 *(.debug_str)
 .debug_str     0x00000000       0x63 Map.o
                                 0x70 (size before relaxing)
 .debug_str     0x00000063      0x8db main.o
                                0x9ac (size before relaxing)
 .debug_str     0x0000093e      0x185 d:/devkitPro/libnds/lib\libul.a(ulib.o)
                                0x701 (size before relaxing)
 .debug_str     0x00000ac3      0xeda d:/devkitPro/libnds/lib\libul.a(drawing.o)
                               0x1595 (size before relaxing)
 .debug_str     0x0000199d       0xa1 d:/devkitPro/libnds/lib\libul.a(map.o)
                                0x634 (size before relaxing)
 .debug_str     0x00001a3e      0x27d d:/devkitPro/libnds/lib\libul.a(text.o)
                                0x949 (size before relaxing)
 .debug_str     0x00001cbb      0x1ca d:/devkitPro/libnds/lib\libul.a(VirtualFile.o)
                                0x720 (size before relaxing)
 .debug_str     0x00001e85      0x30e d:/devkitPro/libnds/lib\libul.a(texVramManager.o)
                                0x8e1 (size before relaxing)
 .debug_str     0x00002193      0x151 d:/devkitPro/libnds/lib\libul.a(texPalManager.o)
                                0x784 (size before relaxing)
 .debug_str     0x000022e4       0x2f d:/devkitPro/libnds/lib\libul.a(keys.o)
                                0x687 (size before relaxing)
 .debug_str     0x00002313       0x32 d:/devkitPro/libnds/lib\libul.a(ulCreateImagePalette.o)
                                0x5ce (size before relaxing)
 .debug_str     0x00002345       0x4a d:/devkitPro/libnds/lib\libul.a(ulDrawGradientRect.o)
                                0x4b0 (size before relaxing)
 .debug_str     0x0000238f      0x135 d:/devkitPro/libnds/lib\libul.a(messagebox.o)
                                0x81e (size before relaxing)
 .debug_str     0x000024c4       0x41 d:/devkitPro/libnds/lib\libul.a(textSize.o)
                                0x571 (size before relaxing)
 .debug_str     0x00002505       0x75 d:/devkitPro/libnds/lib\libul.a(ulLoadImageFilePNG.o)
                                0x54f (size before relaxing)
 .debug_str     0x0000257a      0x254 d:/devkitPro/libnds/lib\libul.a(ulShowSplashScreen1.o)
                                0xf76 (size before relaxing)
 .debug_str     0x000027ce       0xaa d:/devkitPro/libnds/lib\libul.a(ulShowSplashScreen2.o)
                                0x942 (size before relaxing)
 .debug_str     0x00002878       0x92 d:/devkitPro/libnds/lib\libul.a(glWrapper.o)
                                0x603 (size before relaxing)
 .debug_str     0x0000290a      0xd03 d:/devkitPro/libnds/lib\libul.a(libLoadPng.o)
                               0x14e8 (size before relaxing)
 .debug_str     0x0000360d       0x38 d:/devkitPro/libnds/lib\libul.a(ulDrawImage.o)
                                0x57c (size before relaxing)
 .debug_str     0x00003645       0x26 d:/devkitPro/libnds/lib\libul.a(ulDrawFillRect.o)
                                0x492 (size before relaxing)
 .debug_str     0x0000366b       0x1e d:/devkitPro/libnds/lib\libul.a(ulDrawLine.o)
                                0x48a (size before relaxing)
 .debug_str     0x00003689       0x1e d:/devkitPro/libnds/lib\libul.a(ulDrawRect.o)
                                0x48a (size before relaxing)
 .debug_str     0x000036a7       0x3a d:/devkitPro/libnds/lib\libul.a(ulSetImagePixel.o)
                                0x569 (size before relaxing)
 .debug_str     0x000036e1       0x28 d:/devkitPro/libnds/lib\libul.a(ulGetImagePixel.o)
                                0x55e (size before relaxing)
 .debug_str     0x00003709       0x1b d:/devkitPro/libnds/lib\libul.a(loading_utility.o)
                                 0x5c (size before relaxing)
 .debug_str     0x00003724       0x31 d:/devkitPro/libnds/lib\libul.a(ulLoadImageFileJPG.o)
                                0x54f (size before relaxing)
 .debug_str     0x00003755       0x31 d:/devkitPro/libnds/lib\libul.a(ulLoadImageFileGIF.o)
                                0x54f (size before relaxing)
 .debug_str     0x00003786      0x359 d:/devkitPro/libnds/lib\libul.a(libLoadJpg.o)
                                0x875 (size before relaxing)
 .debug_str     0x00003adf      0x24c d:/devkitPro/libnds/lib\libul.a(libLoadGif.o)
                                0xa46 (size before relaxing)
 .debug_str     0x00003d2b      0x5af d:/devkitPro/libnds/lib\libul.a(dgif_lib.o)
                                0x904 (size before relaxing)
 .debug_str     0x000042da       0x1b d:/devkitPro/libnds/lib\libul.a(gif_err.o)
                                 0xd7 (size before relaxing)
 .debug_str     0x000042f5      0x10f d:/devkitPro/libnds/lib\libul.a(gifalloc.o)
                                0x35e (size before relaxing)
 .debug_str     0x00004404       0x4a d:/devkitPro/libnds/lib\libul.a(ulReadEntireFileToMemory.o)
                                0x4da (size before relaxing)
 .debug_str     0x0000444e      0x3dc d:/devkitPro/libnds/lib\libul.a(gba-jpeg-decode.o)
                                0xc4d (size before relaxing)
 .debug_str     0x0000482a      0x847 d:/devkitPro/libnds/lib\libnds9.a(console.o)
                               0x103c (size before relaxing)
 .debug_str     0x00005071       0xaa d:/devkitPro/libnds/lib\libnds9.a(dynamicArray.o)
                                0x18f (size before relaxing)
 .debug_str     0x0000511b      0x16e d:/devkitPro/libnds/lib\libnds9.a(keys.o)
                                0x2dc (size before relaxing)
 .debug_str     0x00005289      0x348 d:/devkitPro/libnds/lib\libnds9.a(system.o)
                                0x510 (size before relaxing)
 .debug_str     0x000055d1       0x72 d:/devkitPro/libnds/lib\libnds9.a(touch.o)
                                0x1f8 (size before relaxing)
 .debug_str     0x00005643       0xdf d:/devkitPro/libnds/lib\libnds9.a(trig.o)
                                0x1d7 (size before relaxing)
 .debug_str     0x00005722      0xa11 d:/devkitPro/libnds/lib\libnds9.a(videoGL.o)
                               0x130f (size before relaxing)
 .debug_str     0x00006133       0xc2 d:/devkitPro/libnds/lib\libnds9.a(initSystem.o)
                                0x95d (size before relaxing)
 .debug_str     0x000061f5      0x524 d:/devkitPro/libnds/lib\libnds9.a(fifosystem.o)
                                0x74c (size before relaxing)
 .debug_str     0x00006719      0x128 d:/devkitPro/libnds/lib\libnds9.a(interrupts.o)
                                0x34a (size before relaxing)
 .debug_str     0x00006841       0x88 d:/devkitPro/libnds/lib\libnds9.a(libnds_exit.o)
                                0x298 (size before relaxing)
 .debug_str     0x000068c9      0x123 d:/devkitPro/libnds/lib\libnds9.a(background.o)
                                0x67a (size before relaxing)
 .debug_str     0x000069ec      0x11c d:/devkitPro/libnds/lib\libnds9.a(video.o)
                                0xb12 (size before relaxing)

.debug_loc      0x00000000     0xd5ae load address 0x02052918
 *(.debug_loc)
 .debug_loc     0x00000000       0x5a main.o
 .debug_loc     0x0000005a       0xa4 d:/devkitPro/libnds/lib\libul.a(ulib.o)
 .debug_loc     0x000000fe      0xa4b d:/devkitPro/libnds/lib\libul.a(drawing.o)
 .debug_loc     0x00000b49      0x480 d:/devkitPro/libnds/lib\libul.a(map.o)
 .debug_loc     0x00000fc9      0x7ed d:/devkitPro/libnds/lib\libul.a(text.o)
 .debug_loc     0x000017b6      0x776 d:/devkitPro/libnds/lib\libul.a(VirtualFile.o)
 .debug_loc     0x00001f2c      0x81d d:/devkitPro/libnds/lib\libul.a(texVramManager.o)
 .debug_loc     0x00002749      0x413 d:/devkitPro/libnds/lib\libul.a(texPalManager.o)
 .debug_loc     0x00002b5c       0x99 d:/devkitPro/libnds/lib\libul.a(keys.o)
 .debug_loc     0x00002bf5       0xdd d:/devkitPro/libnds/lib\libul.a(ulCreateImagePalette.o)
 .debug_loc     0x00002cd2       0x78 d:/devkitPro/libnds/lib\libul.a(ulDrawGradientRect.o)
 .debug_loc     0x00002d4a      0x559 d:/devkitPro/libnds/lib\libul.a(messagebox.o)
 .debug_loc     0x000032a3      0x1d4 d:/devkitPro/libnds/lib\libul.a(textSize.o)
 .debug_loc     0x00003477       0xd5 d:/devkitPro/libnds/lib\libul.a(ulLoadImageFilePNG.o)
 .debug_loc     0x0000354c      0x86e d:/devkitPro/libnds/lib\libul.a(ulShowSplashScreen1.o)
 .debug_loc     0x00003dba      0x2d1 d:/devkitPro/libnds/lib\libul.a(ulShowSplashScreen2.o)
 .debug_loc     0x0000408b       0x76 d:/devkitPro/libnds/lib\libul.a(glWrapper.o)
 .debug_loc     0x00004101      0x9ca d:/devkitPro/libnds/lib\libul.a(libLoadPng.o)
 .debug_loc     0x00004acb      0x133 d:/devkitPro/libnds/lib\libul.a(ulDrawImage.o)
 .debug_loc     0x00004bfe       0x6c d:/devkitPro/libnds/lib\libul.a(ulDrawFillRect.o)
 .debug_loc     0x00004c6a       0x59 d:/devkitPro/libnds/lib\libul.a(ulDrawLine.o)
 .debug_loc     0x00004cc3       0x6c d:/devkitPro/libnds/lib\libul.a(ulDrawRect.o)
 .debug_loc     0x00004d2f       0xae d:/devkitPro/libnds/lib\libul.a(ulSetImagePixel.o)
 .debug_loc     0x00004ddd       0xa6 d:/devkitPro/libnds/lib\libul.a(ulGetImagePixel.o)
 .debug_loc     0x00004e83       0xd5 d:/devkitPro/libnds/lib\libul.a(ulLoadImageFileJPG.o)
 .debug_loc     0x00004f58       0xd5 d:/devkitPro/libnds/lib\libul.a(ulLoadImageFileGIF.o)
 .debug_loc     0x0000502d      0x17e d:/devkitPro/libnds/lib\libul.a(libLoadJpg.o)
 .debug_loc     0x000051ab      0x72a d:/devkitPro/libnds/lib\libul.a(libLoadGif.o)
 .debug_loc     0x000058d5      0xd7b d:/devkitPro/libnds/lib\libul.a(dgif_lib.o)
 .debug_loc     0x00006650      0x4ea d:/devkitPro/libnds/lib\libul.a(gifalloc.o)
 .debug_loc     0x00006b3a      0x14e d:/devkitPro/libnds/lib\libul.a(ulReadEntireFileToMemory.o)
 .debug_loc     0x00006c88     0x1b73 d:/devkitPro/libnds/lib\libul.a(gba-jpeg-decode.o)
 .debug_loc     0x000087fb      0xf0a d:/devkitPro/libnds/lib\libnds9.a(console.o)
 .debug_loc     0x00009705      0x196 d:/devkitPro/libnds/lib\libnds9.a(dynamicArray.o)
 .debug_loc     0x0000989b       0x20 d:/devkitPro/libnds/lib\libnds9.a(keys.o)
 .debug_loc     0x000098bb      0x1ba d:/devkitPro/libnds/lib\libnds9.a(system.o)
 .debug_loc     0x00009a75       0x40 d:/devkitPro/libnds/lib\libnds9.a(touch.o)
 .debug_loc     0x00009ab5      0x5b9 d:/devkitPro/libnds/lib\libnds9.a(trig.o)
 .debug_loc     0x0000a06e     0x1c39 d:/devkitPro/libnds/lib\libnds9.a(videoGL.o)
 .debug_loc     0x0000bca7       0x64 d:/devkitPro/libnds/lib\libnds9.a(initSystem.o)
 .debug_loc     0x0000bd0b     0x1131 d:/devkitPro/libnds/lib\libnds9.a(fifosystem.o)
 .debug_loc     0x0000ce3c      0x17b d:/devkitPro/libnds/lib\libnds9.a(interrupts.o)
 .debug_loc     0x0000cfb7       0x5c d:/devkitPro/libnds/lib\libnds9.a(libnds_exit.o)
 .debug_loc     0x0000d013      0x38a d:/devkitPro/libnds/lib\libnds9.a(background.o)
 .debug_loc     0x0000d39d      0x211 d:/devkitPro/libnds/lib\libnds9.a(video.o)

.debug_macinfo
 *(.debug_macinfo)

.debug_weaknames
 *(.debug_weaknames)

.debug_funcnames
 *(.debug_funcnames)

.debug_typenames
 *(.debug_typenames)

.debug_varnames
 *(.debug_varnames)

.stack          0x00080000        0x0 load address 0x02052918
                0x00080000                _stack = .
 *(.stack)
LOAD d:/devkitpro/devkitarm/bin/../lib/gcc/arm-eabi/4.5.1/../../../../arm-eabi/lib/ds_arm9_crt0.o
LOAD d:/devkitpro/devkitarm/bin/../lib/gcc/arm-eabi/4.5.1/crti.o
LOAD d:/devkitpro/devkitarm/bin/../lib/gcc/arm-eabi/4.5.1/crtbegin.o
LOAD mountains.png.o
LOAD Map.o
LOAD main.o
LOAD d:/devkitPro/libnds/lib\libul.a
LOAD d:/devkitPro/libnds/lib\libpng.a
LOAD d:/devkitPro/libnds/lib\libz.a
LOAD d:/devkitPro/libnds/lib\libfat.a
LOAD d:/devkitPro/libnds/lib\libnds9.a
LOAD d:/devkitpro/devkitarm/bin/../lib/gcc/arm-eabi/4.5.1/../../../../arm-eabi/lib\libm.a
START GROUP
LOAD d:/devkitpro/devkitarm/bin/../lib/gcc/arm-eabi/4.5.1\libgcc.a
LOAD d:/devkitpro/devkitarm/bin/../lib/gcc/arm-eabi/4.5.1/../../../../arm-eabi/lib\libg.a
LOAD d:/devkitpro/devkitarm/bin/../lib/gcc/arm-eabi/4.5.1/../../../../arm-eabi/lib\libc.a
LOAD d:/devkitpro/devkitarm/bin/../lib/gcc/arm-eabi/4.5.1/../../../../arm-eabi/lib\libsysbase.a
END GROUP
LOAD d:/devkitpro/devkitarm/bin/../lib/gcc/arm-eabi/4.5.1/crtend.o
LOAD d:/devkitpro/devkitarm/bin/../lib/gcc/arm-eabi/4.5.1/crtn.o
OUTPUT(d:/devkitPro/uLibrary/Examples/Example04/Example04.elf elf32-littlearm)

.debug_pubtypes
                0x00000000     0x4ddb load address 0x02052918
 .debug_pubtypes
                0x00000000      0x22b main.o
 .debug_pubtypes
                0x0000022b      0x192 d:/devkitPro/libnds/lib\libul.a(ulib.o)
 .debug_pubtypes
                0x000003bd      0x335 d:/devkitPro/libnds/lib\libul.a(drawing.o)
 .debug_pubtypes
                0x000006f2      0x19b d:/devkitPro/libnds/lib\libul.a(map.o)
 .debug_pubtypes
                0x0000088d      0x21f d:/devkitPro/libnds/lib\libul.a(text.o)
 .debug_pubtypes
                0x00000aac      0x1ab d:/devkitPro/libnds/lib\libul.a(VirtualFile.o)
 .debug_pubtypes
                0x00000c57      0x1d0 d:/devkitPro/libnds/lib\libul.a(texVramManager.o)
 .debug_pubtypes
                0x00000e27      0x19e d:/devkitPro/libnds/lib\libul.a(texPalManager.o)
 .debug_pubtypes
                0x00000fc5      0x1c9 d:/devkitPro/libnds/lib\libul.a(keys.o)
 .debug_pubtypes
                0x0000118e      0x1b3 d:/devkitPro/libnds/lib\libul.a(ulCreateImagePalette.o)
 .debug_pubtypes
                0x00001341      0x17d d:/devkitPro/libnds/lib\libul.a(ulDrawGradientRect.o)
 .debug_pubtypes
                0x000014be      0x1d6 d:/devkitPro/libnds/lib\libul.a(messagebox.o)
 .debug_pubtypes
                0x00001694      0x180 d:/devkitPro/libnds/lib\libul.a(textSize.o)
 .debug_pubtypes
                0x00001814      0x197 d:/devkitPro/libnds/lib\libul.a(ulLoadImageFilePNG.o)
 .debug_pubtypes
                0x000019ab      0x23b d:/devkitPro/libnds/lib\libul.a(ulShowSplashScreen1.o)
 .debug_pubtypes
                0x00001be6      0x205 d:/devkitPro/libnds/lib\libul.a(ulShowSplashScreen2.o)
 .debug_pubtypes
                0x00001deb      0x19c d:/devkitPro/libnds/lib\libul.a(glWrapper.o)
 .debug_pubtypes
                0x00001f87      0x67d d:/devkitPro/libnds/lib\libul.a(libLoadPng.o)
 .debug_pubtypes
                0x00002604      0x186 d:/devkitPro/libnds/lib\libul.a(ulDrawImage.o)
 .debug_pubtypes
                0x0000278a      0x17d d:/devkitPro/libnds/lib\libul.a(ulDrawFillRect.o)
 .debug_pubtypes
                0x00002907      0x17d d:/devkitPro/libnds/lib\libul.a(ulDrawLine.o)
 .debug_pubtypes
                0x00002a84      0x17d d:/devkitPro/libnds/lib\libul.a(ulDrawRect.o)
 .debug_pubtypes
                0x00002c01      0x189 d:/devkitPro/libnds/lib\libul.a(ulSetImagePixel.o)
 .debug_pubtypes
                0x00002d8a      0x189 d:/devkitPro/libnds/lib\libul.a(ulGetImagePixel.o)
 .debug_pubtypes
                0x00002f13      0x197 d:/devkitPro/libnds/lib\libul.a(ulLoadImageFileJPG.o)
 .debug_pubtypes
                0x000030aa      0x197 d:/devkitPro/libnds/lib\libul.a(ulLoadImageFileGIF.o)
 .debug_pubtypes
                0x00003241      0x2a9 d:/devkitPro/libnds/lib\libul.a(libLoadJpg.o)
 .debug_pubtypes
                0x000034ea      0x2cb d:/devkitPro/libnds/lib\libul.a(libLoadGif.o)
 .debug_pubtypes
                0x000037b5      0x23d d:/devkitPro/libnds/lib\libul.a(dgif_lib.o)
 .debug_pubtypes
                0x000039f2       0x12 d:/devkitPro/libnds/lib\libul.a(gif_err.o)
 .debug_pubtypes
                0x00003a04       0xfa d:/devkitPro/libnds/lib\libul.a(gifalloc.o)
 .debug_pubtypes
                0x00003afe      0x194 d:/devkitPro/libnds/lib\libul.a(ulReadEntireFileToMemory.o)
 .debug_pubtypes
                0x00003c92      0x2a1 d:/devkitPro/libnds/lib\libul.a(gba-jpeg-decode.o)
 .debug_pubtypes
                0x00003f33      0x33b d:/devkitPro/libnds/lib\libnds9.a(console.o)
 .debug_pubtypes
                0x0000426e       0x3d d:/devkitPro/libnds/lib\libnds9.a(dynamicArray.o)
 .debug_pubtypes
                0x000042ab       0xdd d:/devkitPro/libnds/lib\libnds9.a(keys.o)
 .debug_pubtypes
                0x00004388      0x109 d:/devkitPro/libnds/lib\libnds9.a(system.o)
 .debug_pubtypes
                0x00004491       0xc4 d:/devkitPro/libnds/lib\libnds9.a(touch.o)
 .debug_pubtypes
                0x00004555       0x58 d:/devkitPro/libnds/lib\libnds9.a(trig.o)
 .debug_pubtypes
                0x000045ad      0x20c d:/devkitPro/libnds/lib\libnds9.a(videoGL.o)
 .debug_pubtypes
                0x000047b9      0x1e5 d:/devkitPro/libnds/lib\libnds9.a(initSystem.o)
 .debug_pubtypes
                0x0000499e      0x126 d:/devkitPro/libnds/lib\libnds9.a(fifosystem.o)
 .debug_pubtypes
                0x00004ac4       0xaa d:/devkitPro/libnds/lib\libnds9.a(interrupts.o)
 .debug_pubtypes
                0x00004b6e       0x8b d:/devkitPro/libnds/lib\libnds9.a(libnds_exit.o)
 .debug_pubtypes
                0x00004bf9       0xfe d:/devkitPro/libnds/lib\libnds9.a(background.o)
 .debug_pubtypes
                0x00004cf7       0xe4 d:/devkitPro/libnds/lib\libnds9.a(video.o)

.debug_ranges   0x00000000     0x2050 load address 0x02052918
 .debug_ranges  0x00000000       0x98 main.o
 .debug_ranges  0x00000098      0x4d8 d:/devkitPro/libnds/lib\libul.a(drawing.o)
 .debug_ranges  0x00000570       0xf0 d:/devkitPro/libnds/lib\libul.a(map.o)
 .debug_ranges  0x00000660       0x40 d:/devkitPro/libnds/lib\libul.a(text.o)
 .debug_ranges  0x000006a0      0x100 d:/devkitPro/libnds/lib\libul.a(texVramManager.o)
 .debug_ranges  0x000007a0       0x38 d:/devkitPro/libnds/lib\libul.a(texPalManager.o)
 .debug_ranges  0x000007d8       0x78 d:/devkitPro/libnds/lib\libul.a(messagebox.o)
 .debug_ranges  0x00000850      0x150 d:/devkitPro/libnds/lib\libul.a(ulShowSplashScreen1.o)
 .debug_ranges  0x000009a0       0x90 d:/devkitPro/libnds/lib\libul.a(ulShowSplashScreen2.o)
 .debug_ranges  0x00000a30       0x30 d:/devkitPro/libnds/lib\libul.a(glWrapper.o)
 .debug_ranges  0x00000a60       0x30 d:/devkitPro/libnds/lib\libul.a(libLoadPng.o)
 .debug_ranges  0x00000a90       0xf8 d:/devkitPro/libnds/lib\libul.a(ulDrawImage.o)
 .debug_ranges  0x00000b88       0x60 d:/devkitPro/libnds/lib\libul.a(libLoadGif.o)
 .debug_ranges  0x00000be8       0x58 d:/devkitPro/libnds/lib\libul.a(dgif_lib.o)
 .debug_ranges  0x00000c40      0x4b8 d:/devkitPro/libnds/lib\libul.a(gba-jpeg-decode.o)
 .debug_ranges  0x000010f8      0x380 d:/devkitPro/libnds/lib\libnds9.a(console.o)
 .debug_ranges  0x00001478       0x18 d:/devkitPro/libnds/lib\libnds9.a(touch.o)
 .debug_ranges  0x00001490       0x80 d:/devkitPro/libnds/lib\libnds9.a(trig.o)
 .debug_ranges  0x00001510      0x730 d:/devkitPro/libnds/lib\libnds9.a(videoGL.o)
 .debug_ranges  0x00001c40      0x378 d:/devkitPro/libnds/lib\libnds9.a(fifosystem.o)
 .debug_ranges  0x00001fb8       0x30 d:/devkitPro/libnds/lib\libnds9.a(interrupts.o)
 .debug_ranges  0x00001fe8       0x38 d:/devkitPro/libnds/lib\libnds9.a(background.o)
 .debug_ranges  0x00002020       0x30 d:/devkitPro/libnds/lib\libnds9.a(video.o)
