Archive member included because of file (symbol)

d:/devkitPro/libnds/lib\libul.a(ulib.o)
                              main.o (ulInit)
d:/devkitPro/libnds/lib\libul.a(drawing.o)
                              main.o (ulInitGfx)
d:/devkitPro/libnds/lib\libul.a(text.o)
                              main.o (ulDrawString)
d:/devkitPro/libnds/lib\libul.a(VirtualFile.o)
                              d:/devkitPro/libnds/lib\libul.a(text.o) (VirtualFileSources)
d:/devkitPro/libnds/lib\libul.a(vfsLibFat.o)
                              main.o (ulInitLibFat)
d:/devkitPro/libnds/lib\libul.a(vfsGBFS.o)
                              main.o (ulInitGBFS)
d:/devkitPro/libnds/lib\libul.a(texVramManager.o)
                              d:/devkitPro/libnds/lib\libul.a(ulib.o) (ulTexVramInit)
d:/devkitPro/libnds/lib\libul.a(texPalManager.o)
                              d:/devkitPro/libnds/lib\libul.a(ulib.o) (ulTexPalInit)
d:/devkitPro/libnds/lib\libul.a(keys.o)
                              main.o (ulReadKeys)
d:/devkitPro/libnds/lib\libul.a(ulDrawImage.o)
                              main.o (ulDrawImage)
d:/devkitPro/libnds/lib\libul.a(ulCreateImagePalette.o)
                              d:/devkitPro/libnds/lib\libul.a(drawing.o) (ulCreateImagePalette)
d:/devkitPro/libnds/lib\libul.a(ulDrawGradientRect.o)
                              main.o (ulDrawGradientRect)
d:/devkitPro/libnds/lib\libul.a(messagebox.o)
                              main.o (ulMessageBoxEx)
d:/devkitPro/libnds/lib\libul.a(textSize.o)
                              d:/devkitPro/libnds/lib\libul.a(messagebox.o) (ulGetStringWidth)
d:/devkitPro/libnds/lib\libul.a(loading_utility.o)
                              main.o (ul_loadUtilActiveSource)
d:/devkitPro/libnds/lib\libul.a(ulLoadImageFilePNG.o)
                              main.o (ulLoadImageFilePNG)
d:/devkitPro/libnds/lib\libul.a(ulLoadImageFileJPG.o)
                              main.o (ulLoadImageFileJPG)
d:/devkitPro/libnds/lib\libul.a(ulShowSplashScreen1.o)
                              main.o (ulShowSplashScreen1)
d:/devkitPro/libnds/lib\libul.a(ulShowSplashScreen2.o)
                              main.o (ulShowSplashScreen2)
d:/devkitPro/libnds/lib\libul.a(glWrapper.o)
                              d:/devkitPro/libnds/lib\libul.a(texVramManager.o) (ulChangeVramAllocation)
d:/devkitPro/libnds/lib\libul.a(libLoadPng.o)
                              d:/devkitPro/libnds/lib\libul.a(ulLoadImageFilePNG.o) (ulLoadImagePNG)
d:/devkitPro/libnds/lib\libul.a(libLoadJpg.o)
                              d:/devkitPro/libnds/lib\libul.a(ulLoadImageFileJPG.o) (ulLoadImageJPG)
d:/devkitPro/libnds/lib\libul.a(ulDrawFillRect.o)
                              d:/devkitPro/libnds/lib\libul.a(ulShowSplashScreen1.o) (ulDrawFillRect)
d:/devkitPro/libnds/lib\libul.a(ulDrawLine.o)
                              d:/devkitPro/libnds/lib\libul.a(messagebox.o) (ulDrawLine)
d:/devkitPro/libnds/lib\libul.a(ulDrawRect.o)
                              d:/devkitPro/libnds/lib\libul.a(messagebox.o) (ulDrawRect)
d:/devkitPro/libnds/lib\libul.a(ulSetImagePixel.o)
                              d:/devkitPro/libnds/lib\libul.a(ulShowSplashScreen1.o) (ulSetImagePixel)
d:/devkitPro/libnds/lib\libul.a(ulGetImagePixel.o)
                              d:/devkitPro/libnds/lib\libul.a(ulShowSplashScreen1.o) (ulGetImagePixel)
d:/devkitPro/libnds/lib\libul.a(ulLoadImageFileGIF.o)
                              d:/devkitPro/libnds/lib\libul.a(ulShowSplashScreen1.o) (ulLoadImageFileGIF)
d:/devkitPro/libnds/lib\libul.a(ulReadEntireFileToMemory.o)
                              d:/devkitPro/libnds/lib\libul.a(libLoadJpg.o) (ulReadEntireFileToMemory)
d:/devkitPro/libnds/lib\libul.a(gba-jpeg-decode.o)
                              d:/devkitPro/libnds/lib\libul.a(libLoadJpg.o) (JPEG_Decoder_ReadImage)
d:/devkitPro/libnds/lib\libul.a(libLoadGif.o)
                              d:/devkitPro/libnds/lib\libul.a(ulLoadImageFileGIF.o) (ulLoadImageGIF)
d:/devkitPro/libnds/lib\libul.a(dgif_lib.o)
                              d:/devkitPro/libnds/lib\libul.a(libLoadGif.o) (DGifOpen)
d:/devkitPro/libnds/lib\libul.a(gif_err.o)
                              d:/devkitPro/libnds/lib\libul.a(dgif_lib.o) (_GifError)
d:/devkitPro/libnds/lib\libul.a(gifalloc.o)
                              d:/devkitPro/libnds/lib\libul.a(dgif_lib.o) (MakeMapObject)
d:/devkitPro/libnds/lib\libpng.a(png.o)
                              d:/devkitPro/libnds/lib\libul.a(libLoadPng.o) (png_get_io_ptr)
d:/devkitPro/libnds/lib\libpng.a(pngread.o)
                              d:/devkitPro/libnds/lib\libul.a(libLoadPng.o) (png_destroy_read_struct)
d:/devkitPro/libnds/lib\libpng.a(pngrio.o)
                              d:/devkitPro/libnds/lib\libul.a(libLoadPng.o) (png_set_read_fn)
d:/devkitPro/libnds/lib\libpng.a(pngrtran.o)
                              d:/devkitPro/libnds/lib\libpng.a(pngread.o) (png_set_strip_16)
d:/devkitPro/libnds/lib\libpng.a(pngmem.o)
                              d:/devkitPro/libnds/lib\libpng.a(pngread.o) (png_set_mem_fn)
d:/devkitPro/libnds/lib\libpng.a(pngerror.o)
                              d:/devkitPro/libnds/lib\libpng.a(pngread.o) (png_set_error_fn)
d:/devkitPro/libnds/lib\libpng.a(pngget.o)
                              d:/devkitPro/libnds/lib\libpng.a(pngread.o) (png_get_valid)
d:/devkitPro/libnds/lib\libpng.a(pngrutil.o)
                              d:/devkitPro/libnds/lib\libpng.a(pngread.o) (png_read_filter_row)
d:/devkitPro/libnds/lib\libpng.a(pngtrans.o)
                              d:/devkitPro/libnds/lib\libpng.a(pngread.o) (png_set_bgr)
d:/devkitPro/libnds/lib\libpng.a(pngset.o)
                              d:/devkitPro/libnds/lib\libpng.a(pngrutil.o) (png_set_cHRM)
d:/devkitPro/libnds/lib\libz.a(crc32.o)
                              d:/devkitPro/libnds/lib\libpng.a(png.o) (crc32)
d:/devkitPro/libnds/lib\libz.a(inflate.o)
                              d:/devkitPro/libnds/lib\libpng.a(png.o) (inflateReset)
d:/devkitPro/libnds/lib\libz.a(inftrees.o)
                              d:/devkitPro/libnds/lib\libz.a(inflate.o) (inflate_table)
d:/devkitPro/libnds/lib\libz.a(inffast.o)
                              d:/devkitPro/libnds/lib\libz.a(inflate.o) (inflate_fast)
d:/devkitPro/libnds/lib\libz.a(adler32.o)
                              d:/devkitPro/libnds/lib\libz.a(inflate.o) (adler32)
d:/devkitPro/libnds/lib\libz.a(zutil.o)
                              d:/devkitPro/libnds/lib\libz.a(inflate.o) (zcfree)
d:/devkitPro/libnds/lib\libfat.a(libfat.o)
                              d:/devkitPro/libnds/lib\libul.a(vfsLibFat.o) (fatInitDefault)
d:/devkitPro/libnds/lib\libfat.a(partition.o)
                              d:/devkitPro/libnds/lib\libfat.a(libfat.o) (_FAT_partition_constructor)
d:/devkitPro/libnds/lib\libfat.a(cache.o)
                              d:/devkitPro/libnds/lib\libfat.a(partition.o) (_FAT_cache_constructor)
d:/devkitPro/libnds/lib\libfat.a(directory.o)
                              d:/devkitPro/libnds/lib\libfat.a(libfat.o) (_FAT_directory_getVolumeLabel)
d:/devkitPro/libnds/lib\libfat.a(disc.o)
                              d:/devkitPro/libnds/lib\libfat.a(libfat.o) (_FAT_disc_interfaces)
d:/devkitPro/libnds/lib\libfat.a(fatdir.o)
                              d:/devkitPro/libnds/lib\libfat.a(libfat.o) (_FAT_stat_r)
d:/devkitPro/libnds/lib\libfat.a(fatfile.o)
                              d:/devkitPro/libnds/lib\libfat.a(libfat.o) (_FAT_open_r)
d:/devkitPro/libnds/lib\libfat.a(file_allocation_table.o)
                              d:/devkitPro/libnds/lib\libfat.a(directory.o) (_FAT_fat_nextCluster)
d:/devkitPro/libnds/lib\libfat.a(filetime.o)
                              d:/devkitPro/libnds/lib\libfat.a(fatdir.o) (_FAT_filetime_getTimeFromRTC)
d:/devkitPro/libnds/lib\libfat.a(lock.o)
                              d:/devkitPro/libnds/lib\libfat.a(partition.o) (_FAT_lock_init)
d:/devkitPro/libnds/lib\libnds9.a(console.o)
                              main.o (consoleDemoInit)
d:/devkitPro/libnds/lib\libnds9.a(dynamicArray.o)
                              d:/devkitPro/libnds/lib\libul.a(texVramManager.o) (DynamicArraySet)
d:/devkitPro/libnds/lib\libnds9.a(keys.o)
                              d:/devkitPro/libnds/lib\libul.a(keys.o) (keysCurrent)
d:/devkitPro/libnds/lib\libnds9.a(system.o)
                              d:/devkitPro/libnds/lib\libul.a(ulib.o) (powerOn)
d:/devkitPro/libnds/lib\libnds9.a(touch.o)
                              d:/devkitPro/libnds/lib\libul.a(keys.o) (touchRead)
d:/devkitPro/libnds/lib\libnds9.a(trig.o)
                              d:/devkitPro/libnds/lib\libul.a(ulDrawImage.o) (sinLerp)
d:/devkitPro/libnds/lib\libnds9.a(videoGL.o)
                              d:/devkitPro/libnds/lib\libul.a(texVramManager.o) (glGlobalData)
d:/devkitPro/libnds/lib\libnds9.a(dldi.o)
                              d:/devkitPro/libnds/lib\libfat.a(disc.o) (dldiGetInternal)
d:/devkitPro/libnds/lib\libnds9.a(dsi_sd.o)
                              d:/devkitPro/libnds/lib\libfat.a(disc.o) (__io_dsisd)
d:/devkitPro/libnds/lib\libnds9.a(initSystem.o)
                              d:/devkitpro/devkitarm/bin/../lib/gcc/arm-eabi/4.5.1/../../../../arm-eabi/lib/ds_arm9_crt0.o (initSystem)
d:/devkitPro/libnds/lib\libnds9.a(fifosystem.o)
                              d:/devkitPro/libnds/lib\libnds9.a(system.o) (fifoSendValue32)
d:/devkitPro/libnds/lib\libnds9.a(gbfs.o)
                              d:/devkitPro/libnds/lib\libul.a(vfsGBFS.o) (gbfs_search_range)
d:/devkitPro/libnds/lib\libnds9.a(interrupts.o)
                              d:/devkitPro/libnds/lib\libnds9.a(fifosystem.o) (irqSet)
d:/devkitPro/libnds/lib\libnds9.a(libnds_exit.o)
                              d:/devkitpro/devkitarm/bin/../lib/gcc/arm-eabi/4.5.1/../../../../arm-eabi/lib/ds_arm9_crt0.o (__libnds_exit)
d:/devkitPro/libnds/lib\libnds9.a(dcache.o)
                              d:/devkitPro/libnds/lib\libnds9.a(dsi_sd.o) (DC_FlushRange)
d:/devkitPro/libnds/lib\libnds9.a(dldi_stub.o)
                              d:/devkitPro/libnds/lib\libnds9.a(dldi.o) (_io_dldi_stub)
d:/devkitPro/libnds/lib\libnds9.a(mpu_setup.o)
                              d:/devkitpro/devkitarm/bin/../lib/gcc/arm-eabi/4.5.1/../../../../arm-eabi/lib/ds_arm9_crt0.o (__libnds_mpu_setup)
d:/devkitPro/libnds/lib\libnds9.a(biosCalls.o)
                              d:/devkitPro/libnds/lib\libnds9.a(system.o) (swiDelay)
d:/devkitPro/libnds/lib\libnds9.a(debugprint.o)
                              d:/devkitPro/libnds/lib\libnds9.a(console.o) (nocashWrite)
d:/devkitPro/libnds/lib\libnds9.a(interruptDispatcher.o)
                              d:/devkitPro/libnds/lib\libnds9.a(interrupts.o) (IntrMain)
d:/devkitPro/libnds/lib\libnds9.a(swiSoftReset.o)
                              d:/devkitPro/libnds/lib\libnds9.a(fifosystem.o) (swiSoftReset)
d:/devkitPro/libnds/lib\libnds9.a(default_font.bin.o)
                              d:/devkitPro/libnds/lib\libnds9.a(console.o) (default_font_bin)
d:/devkitPro/libnds/lib\libnds9.a(background.o)
                              d:/devkitPro/libnds/lib\libnds9.a(console.o) (bgState)
d:/devkitPro/libnds/lib\libnds9.a(video.o)
                              d:/devkitPro/libnds/lib\libnds9.a(videoGL.o) (vramSetPrimaryBanks)
d:/devkitpro/devkitarm/bin/../lib/gcc/arm-eabi/4.5.1/../../../../arm-eabi/lib\libm.a(lib_a-s_cos.o)
                              d:/devkitPro/libnds/lib\libul.a(ulib.o) (cos)
d:/devkitpro/devkitarm/bin/../lib/gcc/arm-eabi/4.5.1/../../../../arm-eabi/lib\libm.a(lib_a-s_sin.o)
                              d:/devkitPro/libnds/lib\libul.a(ulib.o) (sin)
d:/devkitpro/devkitarm/bin/../lib/gcc/arm-eabi/4.5.1/../../../../arm-eabi/lib\libm.a(lib_a-w_pow.o)
                              d:/devkitPro/libnds/lib\libpng.a(pngrtran.o) (pow)
d:/devkitpro/devkitarm/bin/../lib/gcc/arm-eabi/4.5.1/../../../../arm-eabi/lib\libm.a(lib_a-e_pow.o)
                              d:/devkitpro/devkitarm/bin/../lib/gcc/arm-eabi/4.5.1/../../../../arm-eabi/lib\libm.a(lib_a-w_pow.o) (__ieee754_pow)
d:/devkitpro/devkitarm/bin/../lib/gcc/arm-eabi/4.5.1/../../../../arm-eabi/lib\libm.a(lib_a-e_rem_pio2.o)
                              d:/devkitpro/devkitarm/bin/../lib/gcc/arm-eabi/4.5.1/../../../../arm-eabi/lib\libm.a(lib_a-s_cos.o) (__ieee754_rem_pio2)
d:/devkitpro/devkitarm/bin/../lib/gcc/arm-eabi/4.5.1/../../../../arm-eabi/lib\libm.a(lib_a-e_sqrt.o)
                              d:/devkitpro/devkitarm/bin/../lib/gcc/arm-eabi/4.5.1/../../../../arm-eabi/lib\libm.a(lib_a-e_pow.o) (__ieee754_sqrt)
d:/devkitpro/devkitarm/bin/../lib/gcc/arm-eabi/4.5.1/../../../../arm-eabi/lib\libm.a(lib_a-k_cos.o)
                              d:/devkitpro/devkitarm/bin/../lib/gcc/arm-eabi/4.5.1/../../../../arm-eabi/lib\libm.a(lib_a-s_cos.o) (__kernel_cos)
d:/devkitpro/devkitarm/bin/../lib/gcc/arm-eabi/4.5.1/../../../../arm-eabi/lib\libm.a(lib_a-k_rem_pio2.o)
                              d:/devkitpro/devkitarm/bin/../lib/gcc/arm-eabi/4.5.1/../../../../arm-eabi/lib\libm.a(lib_a-e_rem_pio2.o) (__kernel_rem_pio2)
d:/devkitpro/devkitarm/bin/../lib/gcc/arm-eabi/4.5.1/../../../../arm-eabi/lib\libm.a(lib_a-k_sin.o)
                              d:/devkitpro/devkitarm/bin/../lib/gcc/arm-eabi/4.5.1/../../../../arm-eabi/lib\libm.a(lib_a-s_cos.o) (__kernel_sin)
d:/devkitpro/devkitarm/bin/../lib/gcc/arm-eabi/4.5.1/../../../../arm-eabi/lib\libm.a(lib_a-s_fabs.o)
                              d:/devkitpro/devkitarm/bin/../lib/gcc/arm-eabi/4.5.1/../../../../arm-eabi/lib\libm.a(lib_a-e_pow.o) (fabs)
d:/devkitpro/devkitarm/bin/../lib/gcc/arm-eabi/4.5.1/../../../../arm-eabi/lib\libm.a(lib_a-s_finite.o)
                              d:/devkitpro/devkitarm/bin/../lib/gcc/arm-eabi/4.5.1/../../../../arm-eabi/lib\libm.a(lib_a-w_pow.o) (finite)
d:/devkitpro/devkitarm/bin/../lib/gcc/arm-eabi/4.5.1/../../../../arm-eabi/lib\libm.a(lib_a-s_floor.o)
                              d:/devkitpro/devkitarm/bin/../lib/gcc/arm-eabi/4.5.1/../../../../arm-eabi/lib\libm.a(lib_a-k_rem_pio2.o) (floor)
d:/devkitpro/devkitarm/bin/../lib/gcc/arm-eabi/4.5.1/../../../../arm-eabi/lib\libm.a(lib_a-s_fpclassify.o)
                              d:/devkitpro/devkitarm/bin/../lib/gcc/arm-eabi/4.5.1/../../../../arm-eabi/lib\libm.a(lib_a-w_pow.o) (__fpclassifyd)
d:/devkitpro/devkitarm/bin/../lib/gcc/arm-eabi/4.5.1/../../../../arm-eabi/lib\libm.a(lib_a-s_lib_ver.o)
                              d:/devkitpro/devkitarm/bin/../lib/gcc/arm-eabi/4.5.1/../../../../arm-eabi/lib\libm.a(lib_a-w_pow.o) (__fdlib_version)
d:/devkitpro/devkitarm/bin/../lib/gcc/arm-eabi/4.5.1/../../../../arm-eabi/lib\libm.a(lib_a-s_matherr.o)
                              d:/devkitpro/devkitarm/bin/../lib/gcc/arm-eabi/4.5.1/../../../../arm-eabi/lib\libm.a(lib_a-w_pow.o) (matherr)
d:/devkitpro/devkitarm/bin/../lib/gcc/arm-eabi/4.5.1/../../../../arm-eabi/lib\libm.a(lib_a-s_nan.o)
                              d:/devkitpro/devkitarm/bin/../lib/gcc/arm-eabi/4.5.1/../../../../arm-eabi/lib\libm.a(lib_a-e_pow.o) (nan)
d:/devkitpro/devkitarm/bin/../lib/gcc/arm-eabi/4.5.1/../../../../arm-eabi/lib\libm.a(lib_a-s_rint.o)
                              d:/devkitpro/devkitarm/bin/../lib/gcc/arm-eabi/4.5.1/../../../../arm-eabi/lib\libm.a(lib_a-w_pow.o) (rint)
d:/devkitpro/devkitarm/bin/../lib/gcc/arm-eabi/4.5.1/../../../../arm-eabi/lib\libm.a(lib_a-s_scalbn.o)
                              d:/devkitpro/devkitarm/bin/../lib/gcc/arm-eabi/4.5.1/../../../../arm-eabi/lib\libm.a(lib_a-e_pow.o) (scalbn)
d:/devkitpro/devkitarm/bin/../lib/gcc/arm-eabi/4.5.1/../../../../arm-eabi/lib\libm.a(lib_a-s_copysign.o)
                              d:/devkitpro/devkitarm/bin/../lib/gcc/arm-eabi/4.5.1/../../../../arm-eabi/lib\libm.a(lib_a-s_scalbn.o) (copysign)
d:/devkitpro/devkitarm/bin/../lib/gcc/arm-eabi/4.5.1\libgcc.a(_udivsi3.o)
                              d:/devkitPro/libnds/lib\libul.a(libLoadPng.o) (__aeabi_uidiv)
d:/devkitpro/devkitarm/bin/../lib/gcc/arm-eabi/4.5.1\libgcc.a(_divsi3.o)
                              d:/devkitPro/libnds/lib\libul.a(ulDrawImage.o) (__aeabi_idiv)
d:/devkitpro/devkitarm/bin/../lib/gcc/arm-eabi/4.5.1\libgcc.a(_dvmd_tls.o)
                              d:/devkitpro/devkitarm/bin/../lib/gcc/arm-eabi/4.5.1\libgcc.a(_udivsi3.o) (__aeabi_idiv0)
d:/devkitpro/devkitarm/bin/../lib/gcc/arm-eabi/4.5.1\libgcc.a(_arm_addsubdf3.o)
                              d:/devkitPro/libnds/lib\libpng.a(pngrtran.o) (__aeabi_dsub)
d:/devkitpro/devkitarm/bin/../lib/gcc/arm-eabi/4.5.1\libgcc.a(_arm_muldivdf3.o)
                              d:/devkitPro/libnds/lib\libul.a(ulib.o) (__aeabi_dmul)
d:/devkitpro/devkitarm/bin/../lib/gcc/arm-eabi/4.5.1\libgcc.a(_arm_cmpdf2.o)
                              d:/devkitpro/devkitarm/bin/../lib/gcc/arm-eabi/4.5.1/../../../../arm-eabi/lib\libm.a(lib_a-w_pow.o) (__aeabi_dcmpeq)
d:/devkitpro/devkitarm/bin/../lib/gcc/arm-eabi/4.5.1\libgcc.a(_arm_fixdfsi.o)
                              d:/devkitPro/libnds/lib\libul.a(ulib.o) (__aeabi_d2iz)
d:/devkitpro/devkitarm/bin/../lib/gcc/arm-eabi/4.5.1\libgcc.a(_arm_fixunsdfsi.o)
                              d:/devkitPro/libnds/lib\libpng.a(pngrtran.o) (__aeabi_d2uiz)
d:/devkitpro/devkitarm/bin/../lib/gcc/arm-eabi/4.5.1\libgcc.a(_arm_truncdfsf2.o)
                              d:/devkitPro/libnds/lib\libpng.a(pngrtran.o) (__aeabi_d2f)
d:/devkitpro/devkitarm/bin/../lib/gcc/arm-eabi/4.5.1\libgcc.a(_arm_addsubsf3.o)
                              d:/devkitPro/libnds/lib\libul.a(ulShowSplashScreen2.o) (__aeabi_fsub)
d:/devkitpro/devkitarm/bin/../lib/gcc/arm-eabi/4.5.1\libgcc.a(_arm_muldivsf3.o)
                              d:/devkitPro/libnds/lib\libul.a(ulib.o) (__aeabi_fmul)
d:/devkitpro/devkitarm/bin/../lib/gcc/arm-eabi/4.5.1\libgcc.a(_arm_cmpsf2.o)
                              d:/devkitPro/libnds/lib\libpng.a(pngrtran.o) (__aeabi_fcmpeq)
d:/devkitpro/devkitarm/bin/../lib/gcc/arm-eabi/4.5.1\libgcc.a(_arm_fixsfsi.o)
                              d:/devkitPro/libnds/lib\libul.a(ulShowSplashScreen2.o) (__aeabi_f2iz)
d:/devkitpro/devkitarm/bin/../lib/gcc/arm-eabi/4.5.1\libgcc.a(_arm_fixunssfsi.o)
                              d:/devkitPro/libnds/lib\libul.a(ulShowSplashScreen2.o) (__aeabi_f2uiz)
d:/devkitpro/devkitarm/bin/../lib/gcc/arm-eabi/4.5.1\libgcc.a(_muldi3.o)
                              d:/devkitPro/libnds/lib\libnds9.a(videoGL.o) (__aeabi_lmul)
d:/devkitpro/devkitarm/bin/../lib/gcc/arm-eabi/4.5.1/../../../../arm-eabi/lib\libg.a(lib_a-abort.o)
                              d:/devkitPro/libnds/lib\libpng.a(pngread.o) (abort)
d:/devkitpro/devkitarm/bin/../lib/gcc/arm-eabi/4.5.1/../../../../arm-eabi/lib\libg.a(lib_a-bsearch.o)
                              d:/devkitPro/libnds/lib\libnds9.a(trig.o) (bsearch)
d:/devkitpro/devkitarm/bin/../lib/gcc/arm-eabi/4.5.1/../../../../arm-eabi/lib\libg.a(lib_a-calloc.o)
                              d:/devkitPro/libnds/lib\libul.a(gifalloc.o) (calloc)
d:/devkitpro/devkitarm/bin/../lib/gcc/arm-eabi/4.5.1/../../../../arm-eabi/lib\libg.a(lib_a-callocr.o)
                              d:/devkitpro/devkitarm/bin/../lib/gcc/arm-eabi/4.5.1/../../../../arm-eabi/lib\libg.a(lib_a-calloc.o) (_calloc_r)
d:/devkitpro/devkitarm/bin/../lib/gcc/arm-eabi/4.5.1/../../../../arm-eabi/lib\libg.a(lib_a-errno.o)
                              d:/devkitpro/devkitarm/bin/../lib/gcc/arm-eabi/4.5.1/../../../../arm-eabi/lib\libm.a(lib_a-w_pow.o) (__errno)
d:/devkitpro/devkitarm/bin/../lib/gcc/arm-eabi/4.5.1/../../../../arm-eabi/lib\libg.a(lib_a-fclose.o)
                              d:/devkitPro/libnds/lib\libul.a(vfsLibFat.o) (fclose)
d:/devkitpro/devkitarm/bin/../lib/gcc/arm-eabi/4.5.1/../../../../arm-eabi/lib\libg.a(lib_a-fflush.o)
                              d:/devkitpro/devkitarm/bin/../lib/gcc/arm-eabi/4.5.1/../../../../arm-eabi/lib\libg.a(lib_a-fclose.o) (_fflush_r)
d:/devkitpro/devkitarm/bin/../lib/gcc/arm-eabi/4.5.1/../../../../arm-eabi/lib\libg.a(lib_a-fgetc.o)
                              d:/devkitPro/libnds/lib\libul.a(vfsLibFat.o) (fgetc)
d:/devkitpro/devkitarm/bin/../lib/gcc/arm-eabi/4.5.1/../../../../arm-eabi/lib\libg.a(lib_a-fgets.o)
                              d:/devkitPro/libnds/lib\libul.a(vfsLibFat.o) (fgets)
d:/devkitpro/devkitarm/bin/../lib/gcc/arm-eabi/4.5.1/../../../../arm-eabi/lib\libg.a(lib_a-findfp.o)
                              d:/devkitpro/devkitarm/bin/../lib/gcc/arm-eabi/4.5.1/../../../../arm-eabi/lib\libg.a(lib_a-fclose.o) (__sinit)
d:/devkitpro/devkitarm/bin/../lib/gcc/arm-eabi/4.5.1/../../../../arm-eabi/lib\libg.a(lib_a-fopen.o)
                              d:/devkitPro/libnds/lib\libul.a(vfsLibFat.o) (fopen)
d:/devkitpro/devkitarm/bin/../lib/gcc/arm-eabi/4.5.1/../../../../arm-eabi/lib\libg.a(lib_a-fprintf.o)
                              d:/devkitPro/libnds/lib\libpng.a(pngerror.o) (fprintf)
d:/devkitpro/devkitarm/bin/../lib/gcc/arm-eabi/4.5.1/../../../../arm-eabi/lib\libg.a(lib_a-fputc.o)
                              d:/devkitPro/libnds/lib\libul.a(vfsLibFat.o) (fputc)
d:/devkitpro/devkitarm/bin/../lib/gcc/arm-eabi/4.5.1/../../../../arm-eabi/lib\libg.a(lib_a-fputs.o)
                              d:/devkitPro/libnds/lib\libul.a(vfsLibFat.o) (fputs)
d:/devkitpro/devkitarm/bin/../lib/gcc/arm-eabi/4.5.1/../../../../arm-eabi/lib\libg.a(lib_a-fread.o)
                              d:/devkitPro/libnds/lib\libul.a(vfsLibFat.o) (fread)
d:/devkitpro/devkitarm/bin/../lib/gcc/arm-eabi/4.5.1/../../../../arm-eabi/lib\libg.a(lib_a-freer.o)
                              d:/devkitpro/devkitarm/bin/../lib/gcc/arm-eabi/4.5.1/../../../../arm-eabi/lib\libg.a(lib_a-fclose.o) (_free_r)
d:/devkitpro/devkitarm/bin/../lib/gcc/arm-eabi/4.5.1/../../../../arm-eabi/lib\libg.a(lib_a-fseek.o)
                              d:/devkitpro/devkitarm/bin/../lib/gcc/arm-eabi/4.5.1/../../../../arm-eabi/lib\libg.a(lib_a-fopen.o) (_fseek_r)
d:/devkitpro/devkitarm/bin/../lib/gcc/arm-eabi/4.5.1/../../../../arm-eabi/lib\libg.a(lib_a-ftell.o)
                              d:/devkitPro/libnds/lib\libul.a(vfsLibFat.o) (ftell)
d:/devkitpro/devkitarm/bin/../lib/gcc/arm-eabi/4.5.1/../../../../arm-eabi/lib\libg.a(lib_a-fvwrite.o)
                              d:/devkitpro/devkitarm/bin/../lib/gcc/arm-eabi/4.5.1/../../../../arm-eabi/lib\libg.a(lib_a-fputs.o) (__sfvwrite_r)
d:/devkitpro/devkitarm/bin/../lib/gcc/arm-eabi/4.5.1/../../../../arm-eabi/lib\libg.a(lib_a-fwalk.o)
                              d:/devkitpro/devkitarm/bin/../lib/gcc/arm-eabi/4.5.1/../../../../arm-eabi/lib\libg.a(lib_a-findfp.o) (_fwalk)
d:/devkitpro/devkitarm/bin/../lib/gcc/arm-eabi/4.5.1/../../../../arm-eabi/lib\libg.a(lib_a-fwrite.o)
                              d:/devkitPro/libnds/lib\libul.a(vfsLibFat.o) (fwrite)
d:/devkitpro/devkitarm/bin/../lib/gcc/arm-eabi/4.5.1/../../../../arm-eabi/lib\libg.a(lib_a-impure.o)
                              d:/devkitPro/libnds/lib\libpng.a(pngerror.o) (_impure_ptr)
d:/devkitpro/devkitarm/bin/../lib/gcc/arm-eabi/4.5.1/../../../../arm-eabi/lib\libg.a(lib_a-init.o)
                              d:/devkitpro/devkitarm/bin/../lib/gcc/arm-eabi/4.5.1/../../../../arm-eabi/lib/ds_arm9_crt0.o (__libc_init_array)
d:/devkitpro/devkitarm/bin/../lib/gcc/arm-eabi/4.5.1/../../../../arm-eabi/lib\libg.a(lib_a-iprintf.o)
                              main.o (iprintf)
d:/devkitpro/devkitarm/bin/../lib/gcc/arm-eabi/4.5.1/../../../../arm-eabi/lib\libg.a(lib_a-lcltime_r.o)
                              d:/devkitPro/libnds/lib\libfat.a(filetime.o) (localtime_r)
d:/devkitpro/devkitarm/bin/../lib/gcc/arm-eabi/4.5.1/../../../../arm-eabi/lib\libg.a(lib_a-locale.o)
                              d:/devkitPro/libnds/lib\libfat.a(directory.o) (__mb_cur_max)
d:/devkitpro/devkitarm/bin/../lib/gcc/arm-eabi/4.5.1/../../../../arm-eabi/lib\libg.a(lib_a-makebuf.o)
                              d:/devkitpro/devkitarm/bin/../lib/gcc/arm-eabi/4.5.1/../../../../arm-eabi/lib\libg.a(lib_a-fseek.o) (__smakebuf_r)
d:/devkitpro/devkitarm/bin/../lib/gcc/arm-eabi/4.5.1/../../../../arm-eabi/lib\libg.a(lib_a-malloc.o)
                              d:/devkitPro/libnds/lib\libul.a(drawing.o) (malloc)
d:/devkitpro/devkitarm/bin/../lib/gcc/arm-eabi/4.5.1/../../../../arm-eabi/lib\libg.a(lib_a-mallocr.o)
                              d:/devkitpro/devkitarm/bin/../lib/gcc/arm-eabi/4.5.1/../../../../arm-eabi/lib\libg.a(lib_a-callocr.o) (_malloc_r)
d:/devkitpro/devkitarm/bin/../lib/gcc/arm-eabi/4.5.1/../../../../arm-eabi/lib\libg.a(lib_a-mbrtowc.o)
                              d:/devkitPro/libnds/lib\libfat.a(directory.o) (mbrtowc)
d:/devkitpro/devkitarm/bin/../lib/gcc/arm-eabi/4.5.1/../../../../arm-eabi/lib\libg.a(lib_a-mbsrtowcs.o)
                              d:/devkitPro/libnds/lib\libfat.a(directory.o) (mbsrtowcs)
d:/devkitpro/devkitarm/bin/../lib/gcc/arm-eabi/4.5.1/../../../../arm-eabi/lib\libg.a(lib_a-mbtowc_r.o)
                              d:/devkitpro/devkitarm/bin/../lib/gcc/arm-eabi/4.5.1/../../../../arm-eabi/lib\libg.a(lib_a-locale.o) (__utf8_mbtowc)
d:/devkitpro/devkitarm/bin/../lib/gcc/arm-eabi/4.5.1/../../../../arm-eabi/lib\libg.a(lib_a-memchr.o)
                              d:/devkitpro/devkitarm/bin/../lib/gcc/arm-eabi/4.5.1/../../../../arm-eabi/lib\libg.a(lib_a-fgets.o) (memchr)
d:/devkitpro/devkitarm/bin/../lib/gcc/arm-eabi/4.5.1/../../../../arm-eabi/lib\libg.a(lib_a-memcmp.o)
                              d:/devkitPro/libnds/lib\libul.a(gifalloc.o) (memcmp)
d:/devkitpro/devkitarm/bin/../lib/gcc/arm-eabi/4.5.1/../../../../arm-eabi/lib\libg.a(lib_a-memcpy.o)
                              main.o (memcpy)
d:/devkitpro/devkitarm/bin/../lib/gcc/arm-eabi/4.5.1/../../../../arm-eabi/lib\libg.a(lib_a-memmove.o)
                              d:/devkitPro/libnds/lib\libul.a(texVramManager.o) (memmove)
d:/devkitpro/devkitarm/bin/../lib/gcc/arm-eabi/4.5.1/../../../../arm-eabi/lib\libg.a(lib_a-memset.o)
                              d:/devkitPro/libnds/lib\libul.a(drawing.o) (memset)
d:/devkitpro/devkitarm/bin/../lib/gcc/arm-eabi/4.5.1/../../../../arm-eabi/lib\libg.a(lib_a-mktime.o)
                              d:/devkitPro/libnds/lib\libfat.a(filetime.o) (mktime)
d:/devkitpro/devkitarm/bin/../lib/gcc/arm-eabi/4.5.1/../../../../arm-eabi/lib\libg.a(lib_a-mktm_r.o)
                              d:/devkitpro/devkitarm/bin/../lib/gcc/arm-eabi/4.5.1/../../../../arm-eabi/lib\libg.a(lib_a-mktime.o) (__tzcalc_limits)
d:/devkitpro/devkitarm/bin/../lib/gcc/arm-eabi/4.5.1/../../../../arm-eabi/lib\libg.a(lib_a-mlock.o)
                              d:/devkitpro/devkitarm/bin/../lib/gcc/arm-eabi/4.5.1/../../../../arm-eabi/lib\libg.a(lib_a-freer.o) (__malloc_lock)
d:/devkitpro/devkitarm/bin/../lib/gcc/arm-eabi/4.5.1/../../../../arm-eabi/lib\libg.a(lib_a-putc.o)
                              d:/devkitpro/devkitarm/bin/../lib/gcc/arm-eabi/4.5.1/../../../../arm-eabi/lib\libg.a(lib_a-fputc.o) (_putc_r)
d:/devkitpro/devkitarm/bin/../lib/gcc/arm-eabi/4.5.1/../../../../arm-eabi/lib\libg.a(lib_a-rand.o)
                              d:/devkitPro/libnds/lib\libul.a(ulShowSplashScreen2.o) (rand)
d:/devkitpro/devkitarm/bin/../lib/gcc/arm-eabi/4.5.1/../../../../arm-eabi/lib\libg.a(lib_a-realloc.o)
                              d:/devkitPro/libnds/lib\libul.a(texVramManager.o) (realloc)
d:/devkitpro/devkitarm/bin/../lib/gcc/arm-eabi/4.5.1/../../../../arm-eabi/lib\libg.a(lib_a-reallocr.o)
                              d:/devkitpro/devkitarm/bin/../lib/gcc/arm-eabi/4.5.1/../../../../arm-eabi/lib\libg.a(lib_a-fvwrite.o) (_realloc_r)
d:/devkitpro/devkitarm/bin/../lib/gcc/arm-eabi/4.5.1/../../../../arm-eabi/lib\libg.a(lib_a-refill.o)
                              d:/devkitpro/devkitarm/bin/../lib/gcc/arm-eabi/4.5.1/../../../../arm-eabi/lib\libg.a(lib_a-fgets.o) (__srefill_r)
d:/devkitpro/devkitarm/bin/../lib/gcc/arm-eabi/4.5.1/../../../../arm-eabi/lib\libg.a(lib_a-rget.o)
                              d:/devkitpro/devkitarm/bin/../lib/gcc/arm-eabi/4.5.1/../../../../arm-eabi/lib\libg.a(lib_a-fgetc.o) (__srget_r)
d:/devkitpro/devkitarm/bin/../lib/gcc/arm-eabi/4.5.1/../../../../arm-eabi/lib\libg.a(lib_a-setjmp.o)
                              d:/devkitPro/libnds/lib\libul.a(libLoadPng.o) (setjmp)
d:/devkitpro/devkitarm/bin/../lib/gcc/arm-eabi/4.5.1/../../../../arm-eabi/lib\libg.a(lib_a-setvbuf.o)
                              d:/devkitPro/libnds/lib\libnds9.a(console.o) (setvbuf)
d:/devkitpro/devkitarm/bin/../lib/gcc/arm-eabi/4.5.1/../../../../arm-eabi/lib\libg.a(lib_a-signal.o)
                              d:/devkitpro/devkitarm/bin/../lib/gcc/arm-eabi/4.5.1/../../../../arm-eabi/lib\libg.a(lib_a-abort.o) (raise)
d:/devkitpro/devkitarm/bin/../lib/gcc/arm-eabi/4.5.1/../../../../arm-eabi/lib\libg.a(lib_a-siscanf.o)
                              d:/devkitPro/libnds/lib\libnds9.a(console.o) (siscanf)
d:/devkitpro/devkitarm/bin/../lib/gcc/arm-eabi/4.5.1/../../../../arm-eabi/lib\libg.a(lib_a-snprintf.o)
                              d:/devkitPro/libnds/lib\libpng.a(png.o) (snprintf)
d:/devkitpro/devkitarm/bin/../lib/gcc/arm-eabi/4.5.1/../../../../arm-eabi/lib\libg.a(lib_a-sprintf.o)
                              main.o (sprintf)
d:/devkitpro/devkitarm/bin/../lib/gcc/arm-eabi/4.5.1/../../../../arm-eabi/lib\libg.a(lib_a-stdio.o)
                              d:/devkitpro/devkitarm/bin/../lib/gcc/arm-eabi/4.5.1/../../../../arm-eabi/lib\libg.a(lib_a-findfp.o) (__sread)
d:/devkitpro/devkitarm/bin/../lib/gcc/arm-eabi/4.5.1/../../../../arm-eabi/lib\libg.a(lib_a-strcasecmp.o)
                              d:/devkitpro/devkitarm/bin/../lib/gcc/arm-eabi/4.5.1/../../../../arm-eabi/lib\libg.a(lib_a-locale.o) (strcasecmp)
d:/devkitpro/devkitarm/bin/../lib/gcc/arm-eabi/4.5.1/../../../../arm-eabi/lib\libg.a(lib_a-strcat.o)
                              d:/devkitpro/devkitarm/bin/../lib/gcc/arm-eabi/4.5.1/../../../../arm-eabi/lib\libg.a(lib_a-locale.o) (strcat)
d:/devkitpro/devkitarm/bin/../lib/gcc/arm-eabi/4.5.1/../../../../arm-eabi/lib\libg.a(lib_a-strchr.o)
                              d:/devkitPro/libnds/lib\libfat.a(directory.o) (strchr)
d:/devkitpro/devkitarm/bin/../lib/gcc/arm-eabi/4.5.1/../../../../arm-eabi/lib\libg.a(lib_a-strcmp.o)
                              d:/devkitPro/libnds/lib\libul.a(text.o) (strcmp)
d:/devkitpro/devkitarm/bin/../lib/gcc/arm-eabi/4.5.1/../../../../arm-eabi/lib\libg.a(lib_a-strcpy.o)
                              d:/devkitPro/libnds/lib\libfat.a(libfat.o) (strcpy)
d:/devkitpro/devkitarm/bin/../lib/gcc/arm-eabi/4.5.1/../../../../arm-eabi/lib\libg.a(lib_a-strlcpy.o)
                              d:/devkitpro/devkitarm/bin/../lib/gcc/arm-eabi/4.5.1/../../../../arm-eabi/lib\libg.a(lib_a-locale.o) (strlcpy)
d:/devkitpro/devkitarm/bin/../lib/gcc/arm-eabi/4.5.1/../../../../arm-eabi/lib\libg.a(lib_a-strlen.o)
                              d:/devkitPro/libnds/lib\libul.a(VirtualFile.o) (strlen)
d:/devkitpro/devkitarm/bin/../lib/gcc/arm-eabi/4.5.1/../../../../arm-eabi/lib\libg.a(lib_a-strncasecmp.o)
                              d:/devkitPro/libnds/lib\libfat.a(libfat.o) (strncasecmp)
d:/devkitpro/devkitarm/bin/../lib/gcc/arm-eabi/4.5.1/../../../../arm-eabi/lib\libg.a(lib_a-strncmp.o)
                              d:/devkitPro/libnds/lib\libfat.a(libfat.o) (strncmp)
d:/devkitpro/devkitarm/bin/../lib/gcc/arm-eabi/4.5.1/../../../../arm-eabi/lib\libg.a(lib_a-strncpy.o)
                              d:/devkitPro/libnds/lib\libfat.a(libfat.o) (strncpy)
d:/devkitpro/devkitarm/bin/../lib/gcc/arm-eabi/4.5.1/../../../../arm-eabi/lib\libg.a(lib_a-strnlen.o)
                              d:/devkitPro/libnds/lib\libfat.a(directory.o) (strnlen)
d:/devkitpro/devkitarm/bin/../lib/gcc/arm-eabi/4.5.1/../../../../arm-eabi/lib\libg.a(lib_a-strpbrk.o)
                              d:/devkitPro/libnds/lib\libfat.a(directory.o) (strpbrk)
d:/devkitpro/devkitarm/bin/../lib/gcc/arm-eabi/4.5.1/../../../../arm-eabi/lib\libg.a(lib_a-strrchr.o)
                              d:/devkitPro/libnds/lib\libfat.a(libfat.o) (strrchr)
d:/devkitpro/devkitarm/bin/../lib/gcc/arm-eabi/4.5.1/../../../../arm-eabi/lib\libg.a(lib_a-strtod.o)
                              d:/devkitPro/libnds/lib\libpng.a(pngrutil.o) (strtod)
d:/devkitpro/devkitarm/bin/../lib/gcc/arm-eabi/4.5.1/../../../../arm-eabi/lib\libg.a(lib_a-strtol.o)
                              d:/devkitpro/devkitarm/bin/../lib/gcc/arm-eabi/4.5.1/../../../../arm-eabi/lib\libg.a(lib_a-locale.o) (_strtol_r)
d:/devkitpro/devkitarm/bin/../lib/gcc/arm-eabi/4.5.1/../../../../arm-eabi/lib\libg.a(lib_a-svfiscanf.o)
                              d:/devkitpro/devkitarm/bin/../lib/gcc/arm-eabi/4.5.1/../../../../arm-eabi/lib\libg.a(lib_a-siscanf.o) (__ssvfiscanf_r)
d:/devkitpro/devkitarm/bin/../lib/gcc/arm-eabi/4.5.1/../../../../arm-eabi/lib\libg.a(lib_a-svfprintf.o)
                              d:/devkitpro/devkitarm/bin/../lib/gcc/arm-eabi/4.5.1/../../../../arm-eabi/lib\libg.a(lib_a-snprintf.o) (_svfprintf_r)
d:/devkitpro/devkitarm/bin/../lib/gcc/arm-eabi/4.5.1/../../../../arm-eabi/lib\libg.a(lib_a-sysclose.o)
                              d:/devkitPro/libnds/lib\libnds9.a(dldi.o) (close)
d:/devkitpro/devkitarm/bin/../lib/gcc/arm-eabi/4.5.1/../../../../arm-eabi/lib\libg.a(lib_a-syslseek.o)
                              d:/devkitPro/libnds/lib\libnds9.a(dldi.o) (lseek)
d:/devkitpro/devkitarm/bin/../lib/gcc/arm-eabi/4.5.1/../../../../arm-eabi/lib\libg.a(lib_a-sysopen.o)
                              d:/devkitPro/libnds/lib\libnds9.a(dldi.o) (open)
d:/devkitpro/devkitarm/bin/../lib/gcc/arm-eabi/4.5.1/../../../../arm-eabi/lib\libg.a(lib_a-sysread.o)
                              d:/devkitPro/libnds/lib\libnds9.a(dldi.o) (read)
d:/devkitpro/devkitarm/bin/../lib/gcc/arm-eabi/4.5.1/../../../../arm-eabi/lib\libg.a(lib_a-time.o)
                              d:/devkitPro/libnds/lib\libfat.a(filetime.o) (time)
d:/devkitpro/devkitarm/bin/../lib/gcc/arm-eabi/4.5.1/../../../../arm-eabi/lib\libg.a(lib_a-towlower.o)
                              d:/devkitPro/libnds/lib\libfat.a(directory.o) (towlower)
d:/devkitpro/devkitarm/bin/../lib/gcc/arm-eabi/4.5.1/../../../../arm-eabi/lib\libg.a(lib_a-towupper.o)
                              d:/devkitPro/libnds/lib\libfat.a(directory.o) (towupper)
d:/devkitpro/devkitarm/bin/../lib/gcc/arm-eabi/4.5.1/../../../../arm-eabi/lib\libg.a(lib_a-tzlock.o)
                              d:/devkitpro/devkitarm/bin/../lib/gcc/arm-eabi/4.5.1/../../../../arm-eabi/lib\libg.a(lib_a-mktm_r.o) (__tz_lock)
d:/devkitpro/devkitarm/bin/../lib/gcc/arm-eabi/4.5.1/../../../../arm-eabi/lib\libg.a(lib_a-tzvars.o)
                              d:/devkitpro/devkitarm/bin/../lib/gcc/arm-eabi/4.5.1/../../../../arm-eabi/lib\libg.a(lib_a-mktime.o) (_daylight)
d:/devkitpro/devkitarm/bin/../lib/gcc/arm-eabi/4.5.1/../../../../arm-eabi/lib\libg.a(lib_a-ungetc.o)
                              d:/devkitpro/devkitarm/bin/../lib/gcc/arm-eabi/4.5.1/../../../../arm-eabi/lib\libg.a(lib_a-svfiscanf.o) (__submore)
d:/devkitpro/devkitarm/bin/../lib/gcc/arm-eabi/4.5.1/../../../../arm-eabi/lib\libg.a(lib_a-vfiprintf.o)
                              d:/devkitpro/devkitarm/bin/../lib/gcc/arm-eabi/4.5.1/../../../../arm-eabi/lib\libg.a(lib_a-iprintf.o) (_vfiprintf_r)
d:/devkitpro/devkitarm/bin/../lib/gcc/arm-eabi/4.5.1/../../../../arm-eabi/lib\libg.a(lib_a-vfprintf.o)
                              d:/devkitpro/devkitarm/bin/../lib/gcc/arm-eabi/4.5.1/../../../../arm-eabi/lib\libg.a(lib_a-fprintf.o) (_vfprintf_r)
d:/devkitpro/devkitarm/bin/../lib/gcc/arm-eabi/4.5.1/../../../../arm-eabi/lib\libg.a(lib_a-wbuf.o)
                              d:/devkitpro/devkitarm/bin/../lib/gcc/arm-eabi/4.5.1/../../../../arm-eabi/lib\libg.a(lib_a-putc.o) (__swbuf_r)
d:/devkitpro/devkitarm/bin/../lib/gcc/arm-eabi/4.5.1/../../../../arm-eabi/lib\libg.a(lib_a-wcrtomb.o)
                              d:/devkitpro/devkitarm/bin/../lib/gcc/arm-eabi/4.5.1/../../../../arm-eabi/lib\libg.a(lib_a-svfprintf.o) (_wcrtomb_r)
d:/devkitpro/devkitarm/bin/../lib/gcc/arm-eabi/4.5.1/../../../../arm-eabi/lib\libg.a(lib_a-wcsrtombs.o)
                              d:/devkitpro/devkitarm/bin/../lib/gcc/arm-eabi/4.5.1/../../../../arm-eabi/lib\libg.a(lib_a-svfprintf.o) (_wcsrtombs_r)
d:/devkitpro/devkitarm/bin/../lib/gcc/arm-eabi/4.5.1/../../../../arm-eabi/lib\libg.a(lib_a-wctob.o)
                              d:/devkitPro/libnds/lib\libfat.a(directory.o) (wctob)
d:/devkitpro/devkitarm/bin/../lib/gcc/arm-eabi/4.5.1/../../../../arm-eabi/lib\libg.a(lib_a-wctomb_r.o)
                              d:/devkitpro/devkitarm/bin/../lib/gcc/arm-eabi/4.5.1/../../../../arm-eabi/lib\libg.a(lib_a-locale.o) (__utf8_wctomb)
d:/devkitpro/devkitarm/bin/../lib/gcc/arm-eabi/4.5.1/../../../../arm-eabi/lib\libg.a(lib_a-wsetup.o)
                              d:/devkitpro/devkitarm/bin/../lib/gcc/arm-eabi/4.5.1/../../../../arm-eabi/lib\libg.a(lib_a-fvwrite.o) (__swsetup_r)
d:/devkitpro/devkitarm/bin/../lib/gcc/arm-eabi/4.5.1/../../../../arm-eabi/lib\libg.a(lib_a-ctype_.o)
                              d:/devkitpro/devkitarm/bin/../lib/gcc/arm-eabi/4.5.1/../../../../arm-eabi/lib\libg.a(lib_a-locale.o) (__set_ctype)
d:/devkitpro/devkitarm/bin/../lib/gcc/arm-eabi/4.5.1/../../../../arm-eabi/lib\libg.a(lib_a-div.o)
                              d:/devkitpro/devkitarm/bin/../lib/gcc/arm-eabi/4.5.1/../../../../arm-eabi/lib\libg.a(lib_a-mktime.o) (div)
d:/devkitpro/devkitarm/bin/../lib/gcc/arm-eabi/4.5.1/../../../../arm-eabi/lib\libg.a(lib_a-dtoa.o)
                              d:/devkitpro/devkitarm/bin/../lib/gcc/arm-eabi/4.5.1/../../../../arm-eabi/lib\libg.a(lib_a-svfprintf.o) (_dtoa_r)
d:/devkitpro/devkitarm/bin/../lib/gcc/arm-eabi/4.5.1/../../../../arm-eabi/lib\libg.a(lib_a-flags.o)
                              d:/devkitpro/devkitarm/bin/../lib/gcc/arm-eabi/4.5.1/../../../../arm-eabi/lib\libg.a(lib_a-fopen.o) (__sflags)
d:/devkitpro/devkitarm/bin/../lib/gcc/arm-eabi/4.5.1/../../../../arm-eabi/lib\libg.a(lib_a-fputwc.o)
                              d:/devkitpro/devkitarm/bin/../lib/gcc/arm-eabi/4.5.1/../../../../arm-eabi/lib\libg.a(lib_a-vfiprintf.o) (_fputwc_r)
d:/devkitpro/devkitarm/bin/../lib/gcc/arm-eabi/4.5.1/../../../../arm-eabi/lib\libg.a(lib_a-gdtoa-gethex.o)
                              d:/devkitpro/devkitarm/bin/../lib/gcc/arm-eabi/4.5.1/../../../../arm-eabi/lib\libg.a(lib_a-strtod.o) (__gethex)
d:/devkitpro/devkitarm/bin/../lib/gcc/arm-eabi/4.5.1/../../../../arm-eabi/lib\libg.a(lib_a-gdtoa-hexnan.o)
                              d:/devkitpro/devkitarm/bin/../lib/gcc/arm-eabi/4.5.1/../../../../arm-eabi/lib\libg.a(lib_a-strtod.o) (__hexnan)
d:/devkitpro/devkitarm/bin/../lib/gcc/arm-eabi/4.5.1/../../../../arm-eabi/lib\libg.a(lib_a-getenv_r.o)
                              d:/devkitpro/devkitarm/bin/../lib/gcc/arm-eabi/4.5.1/../../../../arm-eabi/lib\libg.a(lib_a-locale.o) (_getenv_r)
d:/devkitpro/devkitarm/bin/../lib/gcc/arm-eabi/4.5.1/../../../../arm-eabi/lib\libg.a(lib_a-gettzinfo.o)
                              d:/devkitpro/devkitarm/bin/../lib/gcc/arm-eabi/4.5.1/../../../../arm-eabi/lib\libg.a(lib_a-mktime.o) (__gettzinfo)
d:/devkitpro/devkitarm/bin/../lib/gcc/arm-eabi/4.5.1/../../../../arm-eabi/lib\libg.a(lib_a-iswspace.o)
                              d:/devkitpro/devkitarm/bin/../lib/gcc/arm-eabi/4.5.1/../../../../arm-eabi/lib\libg.a(lib_a-svfiscanf.o) (iswspace)
d:/devkitpro/devkitarm/bin/../lib/gcc/arm-eabi/4.5.1/../../../../arm-eabi/lib\libg.a(lib_a-jp2uc.o)
                              d:/devkitpro/devkitarm/bin/../lib/gcc/arm-eabi/4.5.1/../../../../arm-eabi/lib\libg.a(lib_a-towlower.o) (_jp2uc)
d:/devkitpro/devkitarm/bin/../lib/gcc/arm-eabi/4.5.1/../../../../arm-eabi/lib\libg.a(lib_a-mbsnrtowcs.o)
                              d:/devkitpro/devkitarm/bin/../lib/gcc/arm-eabi/4.5.1/../../../../arm-eabi/lib\libg.a(lib_a-mbsrtowcs.o) (_mbsnrtowcs_r)
d:/devkitpro/devkitarm/bin/../lib/gcc/arm-eabi/4.5.1/../../../../arm-eabi/lib\libg.a(lib_a-mprec.o)
                              d:/devkitpro/devkitarm/bin/../lib/gcc/arm-eabi/4.5.1/../../../../arm-eabi/lib\libg.a(lib_a-strtod.o) (_Balloc)
d:/devkitpro/devkitarm/bin/../lib/gcc/arm-eabi/4.5.1/../../../../arm-eabi/lib\libg.a(lib_a-sccl.o)
                              d:/devkitpro/devkitarm/bin/../lib/gcc/arm-eabi/4.5.1/../../../../arm-eabi/lib\libg.a(lib_a-svfiscanf.o) (__sccl)
d:/devkitpro/devkitarm/bin/../lib/gcc/arm-eabi/4.5.1/../../../../arm-eabi/lib\libg.a(lib_a-sf_nan.o)
                              d:/devkitpro/devkitarm/bin/../lib/gcc/arm-eabi/4.5.1/../../../../arm-eabi/lib\libg.a(lib_a-strtod.o) (nanf)
d:/devkitpro/devkitarm/bin/../lib/gcc/arm-eabi/4.5.1/../../../../arm-eabi/lib\libg.a(lib_a-strtoll_r.o)
                              d:/devkitpro/devkitarm/bin/../lib/gcc/arm-eabi/4.5.1/../../../../arm-eabi/lib\libg.a(lib_a-svfiscanf.o) (_strtoll_r)
d:/devkitpro/devkitarm/bin/../lib/gcc/arm-eabi/4.5.1/../../../../arm-eabi/lib\libg.a(lib_a-strtoul.o)
                              d:/devkitpro/devkitarm/bin/../lib/gcc/arm-eabi/4.5.1/../../../../arm-eabi/lib\libg.a(lib_a-svfiscanf.o) (_strtoul_r)
d:/devkitpro/devkitarm/bin/../lib/gcc/arm-eabi/4.5.1/../../../../arm-eabi/lib\libg.a(lib_a-strtoull_r.o)
                              d:/devkitpro/devkitarm/bin/../lib/gcc/arm-eabi/4.5.1/../../../../arm-eabi/lib\libg.a(lib_a-svfiscanf.o) (_strtoull_r)
d:/devkitpro/devkitarm/bin/../lib/gcc/arm-eabi/4.5.1/../../../../arm-eabi/lib\libg.a(lib_a-svfiprintf.o)
                              d:/devkitpro/devkitarm/bin/../lib/gcc/arm-eabi/4.5.1/../../../../arm-eabi/lib\libg.a(lib_a-svfprintf.o) (__ssprint_r)
d:/devkitpro/devkitarm/bin/../lib/gcc/arm-eabi/4.5.1/../../../../arm-eabi/lib\libg.a(lib_a-wcsnrtombs.o)
                              d:/devkitpro/devkitarm/bin/../lib/gcc/arm-eabi/4.5.1/../../../../arm-eabi/lib\libg.a(lib_a-wcsrtombs.o) (_wcsnrtombs_r)
d:/devkitpro/devkitarm/bin/../lib/gcc/arm-eabi/4.5.1/../../../../arm-eabi/lib\libg.a(lib_a-environ.o)
                              d:/devkitpro/devkitarm/bin/../lib/gcc/arm-eabi/4.5.1/../../../../arm-eabi/lib\libg.a(lib_a-getenv_r.o) (environ)
d:/devkitpro/devkitarm/bin/../lib/gcc/arm-eabi/4.5.1/../../../../arm-eabi/lib\libg.a(lib_a-envlock.o)
                              d:/devkitpro/devkitarm/bin/../lib/gcc/arm-eabi/4.5.1/../../../../arm-eabi/lib\libg.a(lib_a-getenv_r.o) (__env_lock)
d:/devkitpro/devkitarm/bin/../lib/gcc/arm-eabi/4.5.1/../../../../arm-eabi/lib\libsysbase.a(iosupport.o)
                              d:/devkitPro/libnds/lib\libfat.a(libfat.o) (FindDevice)
d:/devkitpro/devkitarm/bin/../lib/gcc/arm-eabi/4.5.1/../../../../arm-eabi/lib\libsysbase.a(close.o)
                              d:/devkitpro/devkitarm/bin/../lib/gcc/arm-eabi/4.5.1/../../../../arm-eabi/lib\libg.a(lib_a-stdio.o) (_close_r)
d:/devkitpro/devkitarm/bin/../lib/gcc/arm-eabi/4.5.1/../../../../arm-eabi/lib\libsysbase.a(fstat.o)
                              d:/devkitpro/devkitarm/bin/../lib/gcc/arm-eabi/4.5.1/../../../../arm-eabi/lib\libg.a(lib_a-fseek.o) (_fstat_r)
d:/devkitpro/devkitarm/bin/../lib/gcc/arm-eabi/4.5.1/../../../../arm-eabi/lib\libsysbase.a(getpid.o)
                              d:/devkitpro/devkitarm/bin/../lib/gcc/arm-eabi/4.5.1/../../../../arm-eabi/lib\libg.a(lib_a-signal.o) (_getpid_r)
d:/devkitpro/devkitarm/bin/../lib/gcc/arm-eabi/4.5.1/../../../../arm-eabi/lib\libsysbase.a(isatty.o)
                              d:/devkitpro/devkitarm/bin/../lib/gcc/arm-eabi/4.5.1/../../../../arm-eabi/lib\libg.a(lib_a-makebuf.o) (_isatty_r)
d:/devkitpro/devkitarm/bin/../lib/gcc/arm-eabi/4.5.1/../../../../arm-eabi/lib\libsysbase.a(kill.o)
                              d:/devkitpro/devkitarm/bin/../lib/gcc/arm-eabi/4.5.1/../../../../arm-eabi/lib\libg.a(lib_a-signal.o) (_kill_r)
d:/devkitpro/devkitarm/bin/../lib/gcc/arm-eabi/4.5.1/../../../../arm-eabi/lib\libsysbase.a(lseek.o)
                              d:/devkitpro/devkitarm/bin/../lib/gcc/arm-eabi/4.5.1/../../../../arm-eabi/lib\libg.a(lib_a-stdio.o) (_lseek_r)
d:/devkitpro/devkitarm/bin/../lib/gcc/arm-eabi/4.5.1/../../../../arm-eabi/lib\libsysbase.a(open.o)
                              d:/devkitpro/devkitarm/bin/../lib/gcc/arm-eabi/4.5.1/../../../../arm-eabi/lib\libg.a(lib_a-fopen.o) (_open_r)
d:/devkitpro/devkitarm/bin/../lib/gcc/arm-eabi/4.5.1/../../../../arm-eabi/lib\libsysbase.a(read.o)
                              d:/devkitpro/devkitarm/bin/../lib/gcc/arm-eabi/4.5.1/../../../../arm-eabi/lib\libg.a(lib_a-stdio.o) (_read_r)
d:/devkitpro/devkitarm/bin/../lib/gcc/arm-eabi/4.5.1/../../../../arm-eabi/lib\libsysbase.a(sbrk.o)
                              d:/devkitpro/devkitarm/bin/../lib/gcc/arm-eabi/4.5.1/../../../../arm-eabi/lib\libg.a(lib_a-freer.o) (_sbrk_r)
d:/devkitpro/devkitarm/bin/../lib/gcc/arm-eabi/4.5.1/../../../../arm-eabi/lib\libsysbase.a(times.o)
                              d:/devkitpro/devkitarm/bin/../lib/gcc/arm-eabi/4.5.1/../../../../arm-eabi/lib\libg.a(lib_a-time.o) (_gettimeofday_r)
d:/devkitpro/devkitarm/bin/../lib/gcc/arm-eabi/4.5.1/../../../../arm-eabi/lib\libsysbase.a(write.o)
                              d:/devkitpro/devkitarm/bin/../lib/gcc/arm-eabi/4.5.1/../../../../arm-eabi/lib\libg.a(lib_a-stdio.o) (_write_r)
d:/devkitpro/devkitarm/bin/../lib/gcc/arm-eabi/4.5.1/../../../../arm-eabi/lib\libsysbase.a(_exit.o)
                              d:/devkitpro/devkitarm/bin/../lib/gcc/arm-eabi/4.5.1/../../../../arm-eabi/lib\libg.a(lib_a-abort.o) (_exit)
d:/devkitpro/devkitarm/bin/../lib/gcc/arm-eabi/4.5.1/../../../../arm-eabi/lib\libsysbase.a(malloc_vars.o)
                              d:/devkitpro/devkitarm/bin/../lib/gcc/arm-eabi/4.5.1/../../../../arm-eabi/lib/ds_arm9_crt0.o (fake_heap_end)
d:/devkitpro/devkitarm/bin/../lib/gcc/arm-eabi/4.5.1/../../../../arm-eabi/lib\libsysbase.a(chdir.o)
                              d:/devkitPro/libnds/lib\libfat.a(libfat.o) (chdir)
d:/devkitpro/devkitarm/bin/../lib/gcc/arm-eabi/4.5.1/../../../../arm-eabi/lib\libsysbase.a(build_argv.o)
                              d:/devkitpro/devkitarm/bin/../lib/gcc/arm-eabi/4.5.1/../../../../arm-eabi/lib/ds_arm9_crt0.o (build_argv)
d:/devkitpro/devkitarm/bin/../lib/gcc/arm-eabi/4.5.1/../../../../arm-eabi/lib\libsysbase.a(syscall_support.o)
                              d:/devkitPro/libnds/lib\libnds9.a(initSystem.o) (__syscalls)
d:/devkitpro/devkitarm/bin/../lib/gcc/arm-eabi/4.5.1/../../../../arm-eabi/lib\libsysbase.a(handle_manager.o)
                              d:/devkitpro/devkitarm/bin/../lib/gcc/arm-eabi/4.5.1/../../../../arm-eabi/lib\libsysbase.a(close.o) (__release_handle)
d:/devkitpro/devkitarm/bin/../lib/gcc/arm-eabi/4.5.1\libgcc.a(_aeabi_uldivmod.o)
                              d:/devkitpro/devkitarm/bin/../lib/gcc/arm-eabi/4.5.1/../../../../arm-eabi/lib\libg.a(lib_a-svfprintf.o) (__aeabi_uldivmod)
d:/devkitpro/devkitarm/bin/../lib/gcc/arm-eabi/4.5.1\libgcc.a(bpabi.o)
                              d:/devkitpro/devkitarm/bin/../lib/gcc/arm-eabi/4.5.1\libgcc.a(_aeabi_uldivmod.o) (__gnu_uldivmod_helper)
d:/devkitpro/devkitarm/bin/../lib/gcc/arm-eabi/4.5.1\libgcc.a(unwind-arm.o)
                              d:/devkitpro/devkitarm/bin/../lib/gcc/arm-eabi/4.5.1\libgcc.a(bpabi.o) (__aeabi_unwind_cpp_pr0)
d:/devkitpro/devkitarm/bin/../lib/gcc/arm-eabi/4.5.1\libgcc.a(libunwind.o)
                              d:/devkitpro/devkitarm/bin/../lib/gcc/arm-eabi/4.5.1\libgcc.a(unwind-arm.o) (restore_core_regs)
d:/devkitpro/devkitarm/bin/../lib/gcc/arm-eabi/4.5.1\libgcc.a(pr-support.o)
                              d:/devkitpro/devkitarm/bin/../lib/gcc/arm-eabi/4.5.1\libgcc.a(unwind-arm.o) (__gnu_unwind_execute)
d:/devkitpro/devkitarm/bin/../lib/gcc/arm-eabi/4.5.1\libgcc.a(_divdi3.o)
                              d:/devkitpro/devkitarm/bin/../lib/gcc/arm-eabi/4.5.1\libgcc.a(bpabi.o) (__divdi3)
d:/devkitpro/devkitarm/bin/../lib/gcc/arm-eabi/4.5.1\libgcc.a(_udivdi3.o)
                              d:/devkitpro/devkitarm/bin/../lib/gcc/arm-eabi/4.5.1\libgcc.a(bpabi.o) (__udivdi3)
d:/devkitpro/devkitarm/bin/../lib/gcc/arm-eabi/4.5.1\libgcc.a(_clzsi2.o)
                              d:/devkitpro/devkitarm/bin/../lib/gcc/arm-eabi/4.5.1\libgcc.a(_divdi3.o) (__clzsi2)

Allocating common symbols
Common symbol       size              file

currentCopy         0x5c              d:/devkitPro/libnds/lib\libnds9.a(console.o)
ul_colorKeyValue32  0x4               d:/devkitPro/libnds/lib\libul.a(drawing.o)
fifo_datamsg_data   0x40              d:/devkitPro/libnds/lib\libnds9.a(fifosystem.o)
ulTextureMax        0x4               d:/devkitPro/libnds/lib\libul.a(texVramManager.o)
__dsimode           0x1               d:/devkitPro/libnds/lib\libnds9.a(initSystem.o)
ulTextureParams     0x4               d:/devkitPro/libnds/lib\libul.a(texVramManager.o)
bgState             0x140             d:/devkitPro/libnds/lib\libnds9.a(background.o)
ul_cos              0x400             d:/devkitPro/libnds/lib\libul.a(ulib.o)
fifo_buffer         0x800             d:/devkitPro/libnds/lib\libnds9.a(fifosystem.o)
ulTexRamBlocksNb    0x4               d:/devkitPro/libnds/lib\libul.a(texVramManager.o)
bgIsTextLut         0x8               d:/devkitPro/libnds/lib\libnds9.a(background.o)
fifo_value32_func   0x40              d:/devkitPro/libnds/lib\libnds9.a(fifosystem.o)
fifo_address_func   0x40              d:/devkitPro/libnds/lib\libnds9.a(fifosystem.o)
temppalette         0x4               d:/devkitPro/libnds/lib\libul.a(libLoadGif.o)
ulTexPalBlocksNb    0x4               d:/devkitPro/libnds/lib\libul.a(texPalManager.o)
__hexdig            0x100             d:/devkitpro/devkitarm/bin/../lib/gcc/arm-eabi/4.5.1/../../../../arm-eabi/lib\libg.a(lib_a-gdtoa-gethex.o)
ul_colorKeyValue    0x2               d:/devkitPro/libnds/lib\libul.a(drawing.o)
ul_splash1_fadeDir  0x4               d:/devkitPro/libnds/lib\libul.a(ulShowSplashScreen1.o)
VirtualFileSources  0x40              d:/devkitPro/libnds/lib\libul.a(VirtualFile.o)
ulDualScreenSprites
                    0x400             d:/devkitPro/libnds/lib\libul.a(drawing.o)
ul_data_gbfs        0x4               d:/devkitPro/libnds/lib\libul.a(vfsGBFS.o)
ulTextureNb         0x4               d:/devkitPro/libnds/lib\libul.a(texVramManager.o)
ul_splash1_fade     0x4               d:/devkitPro/libnds/lib\libul.a(ulShowSplashScreen1.o)
LineBuf             0x800             d:/devkitPro/libnds/lib\libul.a(libLoadGif.o)
JPG_outEnd          0x4               d:/devkitPro/libnds/lib\libul.a(gba-jpeg-decode.o)
fifo_value32_data   0x40              d:/devkitPro/libnds/lib\libnds9.a(fifosystem.o)
ulTexRamBlocksMax   0x4               d:/devkitPro/libnds/lib\libul.a(texVramManager.o)
ulTexPalBlocks      0x4               d:/devkitPro/libnds/lib\libul.a(texPalManager.o)
ul_virtualFileList  0x4               d:/devkitPro/libnds/lib\libul.a(VirtualFile.o)
fifo_value32_queue  0x40              d:/devkitPro/libnds/lib\libnds9.a(fifosystem.o)
fifo_data_queue     0x40              d:/devkitPro/libnds/lib\libnds9.a(fifosystem.o)
ulTexRamBlocks      0x4               d:/devkitPro/libnds/lib\libul.a(texVramManager.o)
ul_autoDepth        0x1               d:/devkitPro/libnds/lib\libul.a(drawing.o)
ul_dualScreenMode   0x1               d:/devkitPro/libnds/lib\libul.a(drawing.o)
ul_neoflashlogo_positions
                    0xc00             d:/devkitPro/libnds/lib\libul.a(ulShowSplashScreen2.o)
ulTexPalBlocksMax   0x4               d:/devkitPro/libnds/lib\libul.a(texPalManager.o)
ul_frameNumber      0x1               d:/devkitPro/libnds/lib\libul.a(drawing.o)
punixTime           0x4               d:/devkitpro/devkitarm/bin/../lib/gcc/arm-eabi/4.5.1/../../../../arm-eabi/lib\libsysbase.a(times.o)
fifo_address_data   0x40              d:/devkitPro/libnds/lib\libnds9.a(fifosystem.o)
ul_sin              0x400             d:/devkitPro/libnds/lib\libul.a(ulib.o)
ul_currentDepth     0x4               d:/devkitPro/libnds/lib\libul.a(drawing.o)
glGlobalData        0x4c              d:/devkitPro/libnds/lib\libnds9.a(videoGL.o)
ulTextureActive     0x4               d:/devkitPro/libnds/lib\libul.a(texVramManager.o)
ul_colorKeyEnabled  0x1               d:/devkitPro/libnds/lib\libul.a(drawing.o)
JPG_outBegin        0x4               d:/devkitPro/libnds/lib\libul.a(gba-jpeg-decode.o)
fifo_datamsg_func   0x40              d:/devkitPro/libnds/lib\libnds9.a(fifosystem.o)
fifo_address_queue  0x40              d:/devkitPro/libnds/lib\libnds9.a(fifosystem.o)

Memory Configuration

Name             Origin             Length             Attributes
rom              0x08000000         0x02000000
ewram            0x02000000         0x003ff000
dtcm             0x0b000000         0x00004000
vectors          0x01000000         0x00000100
itcm             0x01000100         0x00007f00
*default*        0x00000000         0xffffffff

Linker script and memory map

                0x01000000                __vectors_start = 0x1000000
                0x01000100                __itcm_start = 0x1000100
                0x023ff000                __ewram_end = 0x23ff000
                0x023ff000                __eheap_end = 0x23ff000
                0x0b000000                __dtcm_start = 0xb000000
                0x0b004000                __dtcm_top = 0xb004000
                0x0b003ff8                __irq_flags = (__dtcm_top - 0x8)
                0x0b003ffc                __irq_vector = (__dtcm_top - 0x4)
                0x0b003f00                __sp_svc = (__dtcm_top - 0x100)
                0x0b003e00                __sp_irq = (__sp_svc - 0x100)
                0x0b003d00                __sp_usr = (__sp_irq - 0x100)

.init           0x02000000      0x248
                0x02000000                __text_start = .
 *(.init)
 .init          0x02000000      0x230 d:/devkitpro/devkitarm/bin/../lib/gcc/arm-eabi/4.5.1/../../../../arm-eabi/lib/ds_arm9_crt0.o
                0x02000000                _start
 .init          0x02000230        0xc d:/devkitpro/devkitarm/bin/../lib/gcc/arm-eabi/4.5.1/crti.o
                0x02000230                _init
 .init          0x0200023c        0xc d:/devkitpro/devkitarm/bin/../lib/gcc/arm-eabi/4.5.1/crtn.o
                0x02000248                . = ALIGN (0x4)

.plt
 *(.plt)

.text           0x02000280    0x4a0f0
 *(EXCLUDE_FILE(*.itcm*) .text)
 .text          0x02000280        0x0 d:/devkitpro/devkitarm/bin/../lib/gcc/arm-eabi/4.5.1/../../../../arm-eabi/lib/ds_arm9_crt0.o
 .text          0x02000280        0x0 d:/devkitpro/devkitarm/bin/../lib/gcc/arm-eabi/4.5.1/crti.o
 .text          0x02000280       0x94 d:/devkitpro/devkitarm/bin/../lib/gcc/arm-eabi/4.5.1/crtbegin.o
 .text          0x02000314        0x0 roll.png.o
 .text          0x02000314      0x648 main.o
                0x02000314                drawShadowedText
                0x02000360                main
 .text          0x0200095c      0x15c d:/devkitPro/libnds/lib\libul.a(ulib.o)
                0x0200095c                _initSinTables
                0x02000a48                ulInit
                0x02000a80                ulTerminate
                0x02000a84                ulGetPowerOf2Count
 .text          0x02000ab8     0x148c d:/devkitPro/libnds/lib\libul.a(drawing.o)
                0x02000ab8                ulInitGfx
                0x02000b2c                ulInitDualScreenMode
                0x02000c60                ulStopDualScreenMode
                0x02000c74                ulSetRegCapture
                0x02000cd8                ulEndDrawing
                0x02000d08                ulSetScreenWindow
                0x02000fa8                ulSetScreenClipping
                0x0200124c                ulResetScreenClipping
                0x020014b0                ulEndFrame
                0x020015dc                ulSyncFrame
                0x02001618                ulResetScreenView
                0x0200185c                ulStartDrawing2D
                0x02001910                ulMoveScreenView
                0x02001928                ulScaleScreenView
                0x02001940                ulRotateScreenView
                0x020019a0                ulSetAlpha
                0x020019c0                ulRealizeImage
                0x02001b24                ulSetTexture
                0x02001b94                ulResetImageProperties
                0x02001be4                ulDeleteImage
                0x02001c64                ulCreateImage
                0x02001ed0                ulSetScreenBackgroundColor
                0x02001edc                ulSetTransparentColor
 .text          0x02001f44      0xa58 d:/devkitPro/libnds/lib\libul.a(text.o)
                0x02001f44                ulDrawChar1BitToImage
                0x02002098                ulCreateFont
                0x020023a0                ulLoadFont
                0x02002548                ulDeleteFont
                0x02002574                ulDrawTile
                0x0200266c                ulDrawChar
                0x02002718                ulDrawString
                0x020027ec                ulDrawTextBox
                0x02002954                ulSetTextColor
                0x02002964                ulInitText
 .text          0x0200299c      0x5fc d:/devkitPro/libnds/lib\libul.a(VirtualFile.o)
                0x0200299c                vfsMemClose
                0x020029a4                vfsMemGetc
                0x020029e8                vfsMemPutc
                0x02002a34                vfsMemGets
                0x02002be0                vfsMemSeek
                0x02002c54                vfsMemEof
                0x02002c6c                vfsMemPuts
                0x02002ca8                vfsMemRead
                0x02002cfc                vfsMemWrite
                0x02002d58                VirtualFileRegisterSource
                0x02002d88                VirtualFileOpen
                0x02002e24                VirtualFileClose
                0x02002e5c                ulSetVirtualFilenameList
                0x02002e78                ulFindFileInVirtualFilenameList
                0x02002f08                vfsMemOpen
                0x02002f48                VirtualFileInit
 .text          0x02002f98       0xf4 d:/devkitPro/libnds/lib\libul.a(vfsLibFat.o)
                0x02002f98                vfsFatEof
                0x02002fb0                vfsFatSeek
                0x02002fe4                vfsFatPuts
                0x02002fec                vfsFatGets
                0x02002ff4                vfsFatPutc
                0x02002ffc                vfsFatGetc
                0x02003004                vfsFatRead
                0x0200300c                vfsFatWrite
                0x02003014                vfsFatClose
                0x02003028                vfsFatOpen
                0x0200306c                ulInitLibFat
 .text          0x0200308c      0x12c d:/devkitPro/libnds/lib\libul.a(vfsGBFS.o)
                0x0200308c                vfsGBFSWrite
                0x02003094                vfsGBFSPutc
                0x0200309c                vfsGBFSPuts
                0x020030a0                vfsGBFSEof
                0x020030a4                vfsGBFSSeek
                0x020030a8                vfsGBFSGets
                0x020030ac                vfsGBFSGetc
                0x020030b0                vfsGBFSRead
                0x020030b4                vfsGBFSClose
                0x020030b8                vfsGBFSOpen
                0x02003114                ulInitGBFS
 .text          0x020031b8      0x8c0 d:/devkitPro/libnds/lib\libul.a(texVramManager.o)
                0x020031b8                ulTexVramInit
                0x02003218                ulTexVramAllocBlock
                0x02003380                ulTexVramFreeBlock
                0x020034d0                ulTexImage2D
                0x020036d4                ulInitTextures
                0x02003728                ulGetNextAvailableTexture
                0x0200380c                ulGenTextures
                0x02003864                ulFreeTextures
                0x020038c8                ulTexParameter
                0x02003900                ulBindTexture
                0x02003928                ulBindTextureToGl
                0x02003964                ulSetTexVramParameters
                0x02003a04                ulGetTexVramAvailMemory
                0x02003a30                ulGetTexVramTotalMemory
                0x02003a40                ulGetTexVramUsedMemory
 .text          0x02003a78      0x584 d:/devkitPro/libnds/lib\libul.a(texPalManager.o)
                0x02003a78                ulTexPalInit
                0x02003ad8                ulTexPalAllocBlock
                0x02003ce8                ulTexPalFreeBlock
                0x02003e38                uluTexUnloadPal
                0x02003e40                ulTexLoadPal
                0x02003e8c                uluTexLoadPal
                0x02003ee8                ulSetTexPalVramParameters
                0x02003f88                ulGetTexPalAvailMemory
                0x02003fb4                ulGetTexPalTotalMemory
                0x02003fc4                ulGetTexPalUsedMemory
 .text          0x02003ffc      0x190 d:/devkitPro/libnds/lib\libul.a(keys.o)
                0x02003ffc                ulReadKeys
 .text          0x0200418c      0x348 d:/devkitPro/libnds/lib\libul.a(ulDrawImage.o)
                0x0200418c                ulDrawImage
 .text          0x020044d4       0xe8 d:/devkitPro/libnds/lib\libul.a(ulCreateImagePalette.o)
                0x020044d4                ulCreateImagePalette
 .text          0x020045bc       0xbc d:/devkitPro/libnds/lib\libul.a(ulDrawGradientRect.o)
                0x020045bc                ulDrawGradientRect
 .text          0x02004678      0x5f0 d:/devkitPro/libnds/lib\libul.a(messagebox.o)
                0x02004678                _drawButton
                0x020047a4                ulMessageBoxEx
 .text          0x02004c68      0x124 d:/devkitPro/libnds/lib\libul.a(textSize.o)
                0x02004c68                ulGetStringWidth
                0x02004c9c                ulGetTextBoxHeight
 .text          0x02004d8c        0x0 d:/devkitPro/libnds/lib\libul.a(loading_utility.o)
 .text          0x02004d8c       0x68 d:/devkitPro/libnds/lib\libul.a(ulLoadImageFilePNG.o)
                0x02004d8c                ulLoadImageFilePNG
 .text          0x02004df4       0x68 d:/devkitPro/libnds/lib\libul.a(ulLoadImageFileJPG.o)
                0x02004df4                ulLoadImageFileJPG
 .text          0x02004e5c      0xb54 d:/devkitPro/libnds/lib\libul.a(ulShowSplashScreen1.o)
                0x02004e5c                ul_splash1_applyMask
                0x02004efc                ul_splash1_createCircle
                0x02004fb8                ul_splash1_createMaskedImage
                0x020050c8                ul_splash1_handleFade
                0x0200512c                ul_splash1_drawFade
                0x02005190                ul_splash1_fadeTerminated
                0x020051c8                ul_splash1_drawBackText
                0x02005254                ul_splash1_fillSecondScreen
                0x02005398                ulShowSplashScreen1
 .text          0x020059b0      0x65c d:/devkitPro/libnds/lib\libul.a(ulShowSplashScreen2.o)
                0x020059b0                ul_neoflashlogo_LogoDrawTiles
                0x02005af8                ulShowSplashScreen2
 .text          0x0200600c       0x7c d:/devkitPro/libnds/lib\libul.a(glWrapper.o)
                0x0200600c                ulChangeVramAllocation
 .text          0x02006088      0x97c d:/devkitPro/libnds/lib\libul.a(libLoadPng.o)
                0x0200616c                ulLoadImagePNG
 .text          0x02006a04       0xf8 d:/devkitPro/libnds/lib\libul.a(libLoadJpg.o)
                0x02006a04                ulLoadImageJPG
 .text          0x02006afc       0x94 d:/devkitPro/libnds/lib\libul.a(ulDrawFillRect.o)
                0x02006afc                ulDrawFillRect
 .text          0x02006b90       0x78 d:/devkitPro/libnds/lib\libul.a(ulDrawLine.o)
                0x02006b90                ulDrawLine
 .text          0x02006c08      0x128 d:/devkitPro/libnds/lib\libul.a(ulDrawRect.o)
                0x02006c08                ulDrawRect
 .text          0x02006d30       0xb8 d:/devkitPro/libnds/lib\libul.a(ulSetImagePixel.o)
                0x02006d30                ulSetImagePixel
 .text          0x02006de8       0xa8 d:/devkitPro/libnds/lib\libul.a(ulGetImagePixel.o)
                0x02006de8                ulGetImagePixel
 .text          0x02006e90       0x68 d:/devkitPro/libnds/lib\libul.a(ulLoadImageFileGIF.o)
                0x02006e90                ulLoadImageFileGIF
 .text          0x02006ef8       0xc0 d:/devkitPro/libnds/lib\libul.a(ulReadEntireFileToMemory.o)
                0x02006ef8                ulReadEntireFileToMemory
 .text          0x02006fb8     0x198c d:/devkitPro/libnds/lib\libul.a(gba-jpeg-decode.o)
                0x02007a18                JPEG_IDCT
                0x02007a40                JPEG_HuffmanTable_Read
                0x02007c58                JPEG_HuffmanTable_Skip
                0x02007c88                JPEG_Decoder_ReadImage
                0x02008444                JPEG_FrameHeader_Read
                0x020084fc                JPEG_ScanHeader_Read
                0x02008598                JPEG_Decoder_ReadHeaders
                0x020088a0                JPEG_DecompressImage
                0x02008904                JPEG_Match
 .text          0x02008944      0x65c d:/devkitPro/libnds/lib\libul.a(libLoadGif.o)
                0x02008944                fnGifReadFunc
                0x02008978                fnCopyLine
                0x02008aa8                DGifGetLineByte
                0x02008af0                ulLoadImageGIF
 .text          0x02008fa0     0x1198 d:/devkitPro/libnds/lib\libul.a(dgif_lib.o)
                0x02009500                DGifGetScreenDesc
                0x020096bc                DGifOpen
                0x020097e4                DGifGetRecordType
                0x020098a4                DGifGetImageDesc
                0x02009c08                DGifGetExtensionNext
                0x02009cd4                DGifGetExtension
                0x02009d64                DGifCloseFile
                0x02009e28                DGifGetCodeNext
                0x02009efc                DGifGetCode
                0x02009f40                DGifGetPixel
                0x02009fec                DGifGetLine
                0x0200a084                DGifGetLZCodes
 .text          0x0200a138       0x18 d:/devkitPro/libnds/lib\libul.a(gif_err.o)
                0x0200a138                GifLastError
 .text          0x0200a150      0x610 d:/devkitPro/libnds/lib\libul.a(gifalloc.o)
                0x0200a150                BitSize
                0x0200a174                MakeMapObject
                0x0200a1e4                FreeMapObject
                0x0200a204                UnionColorMap
                0x0200a3dc                ApplyTranslation
                0x0200a414                MakeExtension
                0x0200a41c                AddExtensionBlock
                0x0200a4c8                FreeExtension
                0x0200a51c                FreeLastSavedImage
                0x0200a588                MakeSavedImage
                0x0200a6d8                FreeSavedImages
 .text          0x0200a760      0xa58 d:/devkitPro/libnds/lib\libpng.a(png.o)
                0x0200a760                png_data_freer
                0x0200a798                png_get_io_ptr
                0x0200a7a4                png_init_io
                0x0200a7b0                png_get_copyright
                0x0200a7bc                png_get_libpng_ver
                0x0200a7c8                png_get_header_ver
                0x0200a7d4                png_get_header_version
                0x0200a7e0                png_access_version_number
                0x0200a7ec                png_mmx_support
                0x0200a7f4                png_64bit_product
                0x0200a840                png_check_cHRM_fixed
                0x0200a93c                png_reset_zstream
                0x0200a960                png_handle_as_unknown
                0x0200a9c8                png_sig_cmp
                0x0200aa3c                png_check_sig
                0x0200aa64                png_zalloc
                0x0200aab8                png_convert_to_rfc1123
                0x0200ab7c                png_zfree
                0x0200ab94                png_free_data
                0x0200afc8                png_info_init_3
                0x0200b008                png_info_destroy
                0x0200b064                png_info_init
                0x0200b08c                png_destroy_info_struct
                0x0200b0d8                png_create_info_struct
                0x0200b120                png_calculate_crc
                0x0200b164                png_reset_crc
                0x0200b188                png_set_sig_bytes
 .text          0x0200b1b8     0x1a04 d:/devkitPro/libnds/lib\libpng.a(pngread.o)
                0x0200b1b8                png_set_read_status_fn
                0x0200b1c4                png_read_destroy
                0x0200b410                png_destroy_read_struct
                0x0200b4f0                png_read_end
                0x0200b998                png_start_read_image
                0x0200b9c0                png_read_row
                0x0200be18                png_read_image
                0x0200be7c                png_read_rows
                0x0200bf48                png_read_update_info
                0x0200bf80                png_read_info
                0x0200c4f0                png_read_png
                0x0200c6c0                png_read_init_3
                0x0200c814                png_read_init_2
                0x0200c8dc                png_read_init
                0x0200c8f0                png_create_read_struct_2
                0x0200cb94                png_create_read_struct
 .text          0x0200cbbc       0xa0 d:/devkitPro/libnds/lib\libpng.a(pngrio.o)
                0x0200cbbc                png_set_read_fn
                0x0200cbf0                png_default_read_data
                0x0200cc2c                png_read_data
 .text          0x0200cc5c     0x5814 d:/devkitPro/libnds/lib\libpng.a(pngrtran.o)
                0x0200cc5c                png_set_crc_action
                0x0200cd04                png_set_strip_16
                0x0200cd18                png_set_strip_alpha
                0x0200cd2c                png_set_gamma
                0x0200cde8                png_set_expand
                0x0200ce10                png_set_palette_to_rgb
                0x0200ce38                png_set_expand_gray_1_2_4_to_8
                0x0200ce5c                png_set_gray_1_2_4_to_8
                0x0200ce74                png_set_tRNS_to_alpha
                0x0200ce94                png_set_gray_to_rgb
                0x0200ceb0                png_set_rgb_to_gray_fixed
                0x0200cfb0                png_set_rgb_to_gray
                0x0200d04c                png_set_read_user_transform_fn
                0x0200d064                png_read_transform_info
                0x0200d2bc                png_do_unpack
                0x0200d40c                png_do_unshift
                0x0200d624                png_do_chop
                0x0200d67c                png_do_read_swap_alpha
                0x0200d7bc                png_do_read_invert_alpha
                0x0200d8bc                png_do_read_filler
                0x0200dbb4                png_do_gray_to_rgb
                0x0200dda8                png_do_rgb_to_gray
                0x0200e444                png_build_grayscale_palette
                0x0200e4f8                png_do_gamma
                0x0200e944                png_do_expand_palette
                0x0200ebe4                png_do_expand
                0x0200f060                png_do_dither
                0x0200f1d4                png_do_read_intrapixel
                0x0200f2e8                png_build_gamma_table
                0x0200fa04                png_init_read_transformations
                0x0201073c                png_do_background
                0x02011770                png_set_background
                0x020117d8                png_do_read_transformations
                0x02011c44                png_set_dither
 .text          0x02012470      0x270 d:/devkitPro/libnds/lib\libpng.a(pngmem.o)
                0x02012470                png_set_mem_fn
                0x02012484                png_get_mem_ptr
                0x02012490                png_memset_check
                0x020124b4                png_memcpy_check
                0x020124d8                png_free_default
                0x020124fc                png_free
                0x02012540                png_destroy_struct_2
                0x02012584                png_destroy_struct
                0x02012590                png_malloc_default
                0x020125b8                png_malloc
                0x0201261c                png_malloc_warn
                0x02012650                png_create_struct_2
                0x020126d4                png_create_struct
 .text          0x020126e0      0x128 d:/devkitPro/libnds/lib\libpng.a(pngerror.o)
                0x020126e0                png_set_error_fn
                0x020126f4                png_get_error_ptr
                0x02012700                png_set_strip_error_numbers
                0x02012718                png_err
 .text          0x02012808      0xb28 d:/devkitPro/libnds/lib\libpng.a(pngget.o)
                0x02012808                png_get_valid
                0x02012824                png_get_rowbytes
                0x0201283c                png_get_rows
                0x02012854                png_get_image_width
                0x0201286c                png_get_image_height
                0x02012884                png_get_bit_depth
                0x0201289c                png_get_color_type
                0x020128b4                png_get_filter_type
                0x020128cc                png_get_interlace_type
                0x020128e4                png_get_compression_type
                0x020128fc                png_get_x_pixels_per_meter
                0x0201292c                png_get_y_pixels_per_meter
                0x0201295c                png_get_pixels_per_meter
                0x02012998                png_get_pixel_aspect_ratio
                0x020129f8                png_get_x_offset_microns
                0x02012a28                png_get_y_offset_microns
                0x02012a58                png_get_x_offset_pixels
                0x02012a88                png_get_y_offset_pixels
                0x02012ab8                png_get_channels
                0x02012ad0                png_get_signature
                0x02012ae8                png_get_bKGD
                0x02012b20                png_get_cHRM
                0x02012c1c                png_get_cHRM_fixed
                0x02012cc0                png_get_gAMA
                0x02012d0c                png_get_gAMA_fixed
                0x02012d44                png_get_sRGB
                0x02012d7c                png_get_iCCP
                0x02012df0                png_get_sPLT
                0x02012e18                png_get_hIST
                0x02012e50                png_get_oFFs
                0x02012eb8                png_get_pCAL
                0x02012f64                png_get_sCAL
                0x02012fc0                png_get_pHYs
                0x02013020                png_get_PLTE
                0x02013068                png_get_sBIT
                0x020130a0                png_get_text
                0x020130f0                png_get_tIME
                0x02013128                png_get_tRNS
                0x020131bc                png_get_unknown_chunks
                0x020131e4                png_get_rgb_to_gray_status
                0x020131f0                png_get_user_chunk_ptr
                0x020131fc                png_get_asm_flags
                0x02013204                png_get_asm_flagmask
                0x0201320c                png_get_mmx_flagmask
                0x0201321c                png_get_mmx_bitdepth_threshold
                0x02013224                png_get_mmx_rowbytes_threshold
                0x0201322c                png_get_user_width_max
                0x02013238                png_get_user_height_max
                0x02013244                png_get_IHDR
 .text          0x02013330     0x32c0 d:/devkitPro/libnds/lib\libpng.a(pngrutil.o)
                0x02013330                png_get_uint_32
                0x02013350                png_get_int_32
                0x02013370                png_get_uint_16
                0x02013388                png_read_filter_row
                0x02013554                png_check_chunk_name
                0x0201360c                png_get_uint_31
                0x0201363c                png_read_start_row
                0x0201394c                png_crc_error
                0x020139d4                png_do_read_interlace
                0x02013ddc                png_combine_row
                0x02014094                png_decompress_chunk
                0x020143e8                png_crc_read
                0x02014418                png_crc_finish
                0x020144a0                png_handle_IEND
                0x020144e0                png_read_finish_row
                0x02014734                png_handle_unknown
                0x02014898                png_handle_zTXt
                0x02014a20                png_handle_tEXt
                0x02014b54                png_handle_tIME
                0x02014c34                png_handle_sCAL
                0x02014df8                png_handle_pCAL
                0x020150b8                png_handle_oFFs
                0x02015198                png_handle_pHYs
                0x02015278                png_handle_hIST
                0x02015368                png_handle_bKGD
                0x0201550c                png_handle_tRNS
                0x020156a4                png_handle_sPLT
                0x020158fc                png_handle_iCCP
                0x02015aac                png_handle_sRGB
                0x02015b9c                png_handle_cHRM
                0x02016070                png_handle_sBIT
                0x0201617c                png_handle_gAMA
                0x020162c0                png_handle_PLTE
                0x02016420                png_handle_IHDR
                0x02016578                png_read_chunk_header
 .text          0x020165f0      0x704 d:/devkitPro/libnds/lib\libpng.a(pngtrans.o)
                0x020165f0                png_set_bgr
                0x02016604                png_set_swap
                0x02016624                png_set_packing
                0x0201664c                png_set_packswap
                0x0201666c                png_set_shift
                0x020166a4                png_set_interlace_handling
                0x020166d4                png_set_filler
                0x0201673c                png_set_add_alpha
                0x02016760                png_set_swap_alpha
                0x02016774                png_set_invert_alpha
                0x02016788                png_set_invert_mono
                0x0201679c                png_do_invert
                0x02016858                png_do_swap
                0x0201689c                png_do_packswap
                0x020168fc                png_do_strip_filler
                0x02016bb0                png_do_bgr
                0x02016cd4                png_set_user_transform_info
                0x02016ce8                png_get_user_transform_ptr
 .text          0x02016cf4     0x1438 d:/devkitPro/libnds/lib\libpng.a(pngset.o)
                0x02016cf4                png_set_cHRM
                0x02016efc                png_set_gAMA
                0x02016f94                png_set_gAMA_fixed
                0x02016fec                png_set_oFFs
                0x0201701c                png_set_sCAL
                0x02017060                png_set_pHYs
                0x02017090                png_set_sRGB
                0x020170ac                png_set_unknown_chunk_location
                0x020170e4                png_permit_empty_plte
                0x02017100                png_permit_mng_features
                0x02017114                png_set_read_user_chunk_fn
                0x02017124                png_set_invalid
                0x0201713c                png_set_asm_flags
                0x0201714c                png_set_mmx_thresholds
                0x02017150                png_set_user_limits
                0x02017160                png_set_rows
                0x020171bc                png_set_tRNS
                0x02017274                png_set_tIME
                0x020172b8                png_set_sBIT
                0x020172f0                png_set_bKGD
                0x02017328                png_set_keep_unknown_chunks
                0x02017424                png_set_unknown_chunks
                0x02017530                png_set_hIST
                0x020175e4                png_set_sPLT
                0x0201772c                png_set_text_2
                0x0201790c                png_set_iCCP
                0x020179f4                png_set_text
                0x02017a14                png_set_IHDR
                0x02017c20                png_set_cHRM_fixed
                0x02017d9c                png_set_sRGB_gAMA_and_cHRM
                0x02017f10                png_set_PLTE
                0x02017fd0                png_set_pCAL
 .text          0x0201812c      0x934 d:/devkitPro/libnds/lib\libz.a(crc32.o)
                0x0201812c                get_crc_table
                0x02018138                crc32
                0x0201887c                crc32_combine
 .text          0x02018a60     0x1e8c d:/devkitPro/libnds/lib\libz.a(inflate.o)
                0x02018a60                inflateReset
                0x02018adc                inflatePrime
                0x02018b38                inflateInit2_
                0x02018c54                inflateInit_
                0x02018c64                inflateEnd
                0x02018ccc                inflateGetHeader
                0x02018d08                inflateSync
                0x02018eac                inflateSyncPoint
                0x02018ee8                inflateCopy
                0x020191b0                inflateSetDictionary
                0x020192a8                inflate
 .text          0x0201a8ec      0x590 d:/devkitPro/libnds/lib\libz.a(inftrees.o)
                0x0201a8ec                inflate_table
 .text          0x0201ae7c      0x570 d:/devkitPro/libnds/lib\libz.a(inffast.o)
                0x0201ae7c                inflate_fast
 .text          0x0201b3ec      0x3fc d:/devkitPro/libnds/lib\libz.a(adler32.o)
                0x0201b3ec                adler32
                0x0201b72c                adler32_combine
 .text          0x0201b7e8       0x60 d:/devkitPro/libnds/lib\libz.a(zutil.o)
                0x0201b7e8                zlibVersion
                0x0201b7f4                zlibCompileFlags
                0x0201b7fc                zError
                0x0201b810                zcfree
                0x0201b82c                zcalloc
 .text          0x0201b848      0x348 d:/devkitPro/libnds/lib\libfat.a(libfat.o)
                0x0201b848                fatMount
                0x0201b900                fatMountSimple
                0x0201b914                fatUnmount
                0x0201b94c                fatInit
                0x0201baa8                fatInitDefault
                0x0201bab4                fatGetVolumeLabel
 .text          0x0201bb90      0x6d4 d:/devkitPro/libnds/lib\libfat.a(partition.o)
                0x0201bbac                FindFirstValidPartition
                0x0201bd58                _FAT_partition_getPartitionFromPath
                0x0201bd6c                _FAT_partition_createFSinfo
                0x0201be38                _FAT_partition_readFSinfo
                0x0201bef8                _FAT_partition_constructor
                0x0201c170                _FAT_partition_writeFSinfo
                0x0201c224                _FAT_partition_destructor
 .text          0x0201c264      0x4bc d:/devkitPro/libnds/lib\libfat.a(cache.o)
                0x0201c364                _FAT_cache_constructor
                0x0201c400                _FAT_cache_readSectors
                0x0201c45c                _FAT_cache_readPartialSector
                0x0201c4a4                _FAT_cache_readLittleEndianValue
                0x0201c500                _FAT_cache_writePartialSector
                0x0201c550                _FAT_cache_writeLittleEndianValue
                0x0201c598                _FAT_cache_eraseWritePartialSector
                0x0201c5fc                _FAT_cache_writeSectors
                0x0201c668                _FAT_cache_flush
                0x0201c6c0                _FAT_cache_destructor
                0x0201c6f4                _FAT_cache_invalidate
 .text          0x0201c720     0x1414 d:/devkitPro/libnds/lib\libfat.a(directory.o)
                0x0201c944                _FAT_directory_entryGetCluster
                0x0201c96c                _FAT_directory_getNextEntry
                0x0201cc3c                _FAT_directory_getFirstEntry
                0x0201cc5c                _FAT_directory_getRootEntry
                0x0201ccb8                _FAT_directory_getVolumeLabel
                0x0201cd6c                _FAT_directory_entryFromPosition
                0x0201ceb4                _FAT_directory_entryFromPath
                0x0201d0c4                _FAT_directory_removeEntry
                0x0201d198                _FAT_directory_addEntry
                0x0201da3c                _FAT_directory_chdir
                0x0201da78                _FAT_directory_entryStat
 .text          0x0201db34        0x8 d:/devkitPro/libnds/lib\libfat.a(disc.o)
 .text          0x0201db3c      0x924 d:/devkitPro/libnds/lib\libfat.a(fatdir.o)
                0x0201db3c                _FAT_stat_r
                0x0201dbdc                _FAT_link_r
                0x0201dbe8                _FAT_unlink_r
                0x0201dd60                _FAT_chdir_r
                0x0201ddd0                _FAT_rename_r
                0x0201dfa8                _FAT_mkdir_r
                0x0201e220                _FAT_statvfs_r
                0x0201e2ac                _FAT_diropen_r
                0x0201e370                _FAT_dirreset_r
                0x0201e3bc                _FAT_dirnext_r
                0x0201e440                _FAT_dirclose_r
 .text          0x0201e460     0x123c d:/devkitPro/libnds/lib\libfat.a(fatfile.o)
                0x0201e6d8                _FAT_open_r
                0x0201e9e8                _FAT_syncToDisc
                0x0201eac4                _FAT_close_r
                0x0201eb30                _FAT_read_r
                0x0201ee98                _FAT_write_r
                0x0201f31c                _FAT_seek_r
                0x0201f46c                _FAT_fstat_r
                0x0201f508                _FAT_ftruncate_r
                0x0201f65c                _FAT_fsync_r
 .text          0x0201f69c      0x434 d:/devkitPro/libnds/lib\libfat.a(file_allocation_table.o)
                0x0201f7b0                _FAT_fat_nextCluster
                0x0201f88c                _FAT_fat_linkFreeCluster
                0x0201f920                _FAT_fat_linkFreeClusterCleared
                0x0201f990                _FAT_fat_clearLinks
                0x0201f9f0                _FAT_fat_trimChain
                0x0201fa74                _FAT_fat_lastCluster
                0x0201faa8                _FAT_fat_freeClusterCount
 .text          0x0201fad0       0xc8 d:/devkitPro/libnds/lib\libfat.a(filetime.o)
                0x0201fad0                _FAT_filetime_getTimeFromRTC
                0x0201fb18                _FAT_filetime_getDateFromRTC
                0x0201fb60                _FAT_filetime_to_time_t
 .text          0x0201fb98       0x10 d:/devkitPro/libnds/lib\libfat.a(lock.o)
                0x0201fb98                _FAT_lock_init
                0x0201fb9c                _FAT_lock_deinit
                0x0201fba0                _FAT_lock
                0x0201fba4                _FAT_unlock
 .text          0x0201fba8      0xa2c d:/devkitPro/libnds/lib\libnds9.a(console.o)
                0x0201fc3c                nocash_write
                0x0201fc4c                consoleGetDefault
                0x0201fc58                consoleSelect
                0x0201fc68                consoleDebugInit
                0x0201fcb8                consolePrintChar
                0x0201fe58                consoleLoadFont
                0x020200f0                consoleSetFont
                0x02020110                consoleInit
                0x02020288                consoleDemoInit
                0x020202cc                con_write
                0x020205a0                consoleClear
                0x020205b0                consoleSetWindow
 .text          0x020205d4       0x94 d:/devkitPro/libnds/lib\libnds9.a(dynamicArray.o)
                0x020205d4                DynamicArrayInit
                0x020205ec                DynamicArrayDelete
                0x02020600                DynamicArrayGet
                0x0202061c                DynamicArraySet
 .text          0x02020668       0xf8 d:/devkitPro/libnds/lib\libnds9.a(keys.o)
                0x02020668                scanKeys
                0x020206d8                keysHeld
                0x020206e4                keysDown
                0x020206f4                keysDownRepeat
                0x02020704                keysSetRepeat
                0x0202071c                keysUp
                0x0202072c                keysCurrent
 .text          0x02020760       0xf4 d:/devkitPro/libnds/lib\libnds9.a(system.o)
                0x02020760                systemMsgHandler
                0x020207a4                systemSleep
                0x020207bc                powerValueHandler
                0x020207cc                powerOn
                0x020207f8                powerOff
                0x02020820                ledBlink
                0x02020834                getBatteryLevel
 .text          0x02020854       0x4c d:/devkitPro/libnds/lib\libnds9.a(touch.o)
                0x02020854                touchRead
                0x0202087c                touchReadXY
 .text          0x020208a0      0x238 d:/devkitPro/libnds/lib\libnds9.a(trig.o)
                0x020208a0                asinComp
                0x020208c4                sinLutLookup
                0x02020900                sinLerp
                0x02020934                cosLerp
                0x0202094c                tanLutLookup
                0x02020984                tanLerp
                0x02020a34                asinLerp
                0x02020a9c                acosLerp
                0x02020ab4                atanComp
 .text          0x02020ad8     0x14b8 d:/devkitPro/libnds/lib\libnds9.a(videoGL.o)
                0x02020ad8                glGetGlobals
                0x02020ae0                glRotatef32i
                0x02020dbc                glMaterialf
                0x02020e2c                glTexCoord2f32
                0x02020ea0                vramBlock_init
                0x02020f0c                vramBlock_Construct
                0x02020f34                vramBlock_terminate
                0x02020f60                vramBlock_Deconstruct
                0x02020f74                vramBlock__allocateBlock
                0x020210d4                vramBlock__deallocateBlock
                0x020211ec                vramBlock_examineSpecial
                0x02021428                vramBlock_allocateSpecial
                0x02021494                vramBlock_allocateBlock
                0x020214cc                vramBlock_deallocateBlock
                0x02021510                vramBlock_deallocateAll
                0x02021520                vramBlock_getAddr
                0x02021534                vramBlock_getSize
                0x02021548                glInit_C
                0x020216e8                glResetTextures
                0x02021770                removePaletteFromTexture
                0x020217e0                glGenTextures
                0x0202187c                glDeleteTextures
                0x02021954                vramGetBank
                0x02021a14                glBindTexture
                0x02021a78                glColorTableEXT
                0x02021be0                glAssignColorTable
                0x02021c54                glTexParameter
                0x02021c8c                glGetTexturePointer
                0x02021cac                glGetTexParameter
                0x02021ccc                glTexImage2D
 .text          0x02021f90      0x298 d:/devkitPro/libnds/lib\libnds9.a(dldi.o)
                0x02021f90                dldiGetInternal
                0x02021fc8                dldiIsValid
                0x02022000                dldiFixDriverAddresses
                0x02022124                dldiLoadFromFile
                0x0202221c                dldiFree
 .text          0x02022228      0x108 d:/devkitPro/libnds/lib\libnds9.a(dsi_sd.o)
                0x02022228                sdio_IsInserted
                0x02022238                sdio_ClearStatus
                0x02022248                sdio_Shutdown
                0x02022258                sdio_WriteSectors
                0x020222ac                sdio_ReadSectors
                0x02022300                sdio_Startup
 .text          0x02022330      0x14c d:/devkitPro/libnds/lib\libnds9.a(initSystem.o)
                0x02022330                initSystem
 .text          0x0202247c      0xc98 d:/devkitPro/libnds/lib\libnds9.a(fifosystem.o)
                0x020226ec                fifoSendAddress
                0x02022718                fifoSendValue32
                0x02022758                fifoSendDatamsg
                0x020227d0                fifoGetAddress
                0x02022840                fifoSetAddressHandler
                0x020228b4                fifoGetValue32
                0x02022920                fifoSetValue32Handler
                0x02022994                fifoGetDatamsg
                0x02022e24                fifoSetDatamsgHandler
                0x02022ebc                fifoCheckAddress
                0x02022ee0                fifoCheckDatamsg
                0x02022f04                fifoCheckValue32
                0x02022f28                fifoInit
 .text          0x02023114      0x1c0 d:/devkitPro/libnds/lib\libnds9.a(gbfs.o)
                0x02023120                gbfs_search_range
                0x02023148                find_first_gbfs_file
                0x020231f4                skip_gbfs_file
                0x020231fc                gbfs_get_obj
                0x02023258                gbfs_get_nth_obj
                0x0202329c                gbfs_copy_obj
                0x020232c4                gbfs_count_objs
 .text          0x020232d4      0x1cc d:/devkitPro/libnds/lib\libnds9.a(interrupts.o)
                0x020232d4                irqDummy
                0x020232d8                irqSet
                0x02023344                irqInit
                0x02023390                irqInitHandler
                0x020233c0                irqEnable
                0x02023420                irqDisable
                0x02023474                irqClear
 .text          0x020234a0       0x40 d:/devkitPro/libnds/lib\libnds9.a(libnds_exit.o)
                0x020234a0                systemErrorExit
                0x020234a4                __libnds_exit
 .text          0x020234e0       0x70 d:/devkitPro/libnds/lib\libnds9.a(dcache.o)
                0x020234e0                DC_FlushAll
                0x0202350c                DC_FlushRange
                0x02023528                DC_InvalidateAll
                0x02023534                DC_InvalidateRange
 *fill*         0x02023550       0x30 ff
 .text          0x02023580     0x8000 d:/devkitPro/libnds/lib\libnds9.a(dldi_stub.o)
                0x02023580                _io_dldi_stub
 .text          0x0202b580      0x1b4 d:/devkitPro/libnds/lib\libnds9.a(mpu_setup.o)
                0x0202b580                __libnds_mpu_setup
                0x0202b6c0                memCached
                0x0202b6d8                memUncached
 *fill*         0x0202b734        0xc ff
 .text          0x0202b740       0x70 d:/devkitPro/libnds/lib\libnds9.a(biosCalls.o)
                0x0202b740                swiDelay
                0x0202b744                swiIntrWait
                0x0202b748                swiWaitForVBlank
                0x0202b74c                swiSleep
                0x0202b750                swiChangeSoundBias
                0x0202b754                swiDivide
                0x0202b758                swiRemainder
                0x0202b75e                swiDivMod
                0x0202b76a                swiCopy
                0x0202b76e                swiFastCopy
                0x0202b772                swiSqrt
                0x0202b776                swiCRC16
                0x0202b77a                swiIsDebugger
                0x0202b77e                swiUnpackBits
                0x0202b782                swiDecompressLZSSWram
                0x0202b786                swiDecompressLZSSVramNTR
                0x0202b78a                swiDecompressLZSSVramTWL
                0x0202b78e                swiDecompressHuffman
                0x0202b792                swiDecompressRLEWram
                0x0202b796                swiDecompressRLEVram
                0x0202b79a                swiWaitForIRQ
                0x0202b79e                swiDecodeDelta8
                0x0202b7a2                swiDecodeDelta16
                0x0202b7a6                swiSetHaltCR
 .text          0x0202b7b0       0xa4 d:/devkitPro/libnds/lib\libnds9.a(debugprint.o)
                0x0202b7b0                nocashWrite
                0x0202b7b2                nocashMessage
 .text          0x0202b854        0x0 d:/devkitPro/libnds/lib\libnds9.a(interruptDispatcher.o)
 *fill*         0x0202b854        0xc ff
 .text          0x0202b860       0x30 d:/devkitPro/libnds/lib\libnds9.a(swiSoftReset.o)
                0x0202b860                swiSoftReset
 .text          0x0202b890        0x0 d:/devkitPro/libnds/lib\libnds9.a(default_font.bin.o)
 .text          0x0202b890      0x318 d:/devkitPro/libnds/lib\libnds9.a(background.o)
                0x0202b890                bgIsText
                0x0202b89c                checkIfText
                0x0202b8fc                bgUpdate
                0x0202ba1c                bgInit_call
                0x0202bae0                bgInitSub_call
 .text          0x0202bba8      0x148 d:/devkitPro/libnds/lib\libnds9.a(video.o)
                0x0202bba8                vramSetPrimaryBanks
                0x0202bbec                vramSetMainBanks
                0x0202bc30                vramSetBanks_EFG
                0x0202bc68                vramRestorePrimaryBanks
                0x0202bc74                vramRestoreMainBanks
                0x0202bc80                vramRestoreBanks_EFG
                0x0202bc8c                setBrightness
                0x0202bccc                vramDefault
 .text          0x0202bcf0      0x104 d:/devkitpro/devkitarm/bin/../lib/gcc/arm-eabi/4.5.1/../../../../arm-eabi/lib\libm.a(lib_a-s_cos.o)
                0x0202bcf0                cos
 .text          0x0202bdf4      0x110 d:/devkitpro/devkitarm/bin/../lib/gcc/arm-eabi/4.5.1/../../../../arm-eabi/lib\libm.a(lib_a-s_sin.o)
                0x0202bdf4                sin
 .text          0x0202bf04      0x520 d:/devkitpro/devkitarm/bin/../lib/gcc/arm-eabi/4.5.1/../../../../arm-eabi/lib\libm.a(lib_a-w_pow.o)
                0x0202bf04                pow
 *fill*         0x0202c424        0x4 ff
 .text          0x0202c428      0xff8 d:/devkitpro/devkitarm/bin/../lib/gcc/arm-eabi/4.5.1/../../../../arm-eabi/lib\libm.a(lib_a-e_pow.o)
                0x0202c428                __ieee754_pow
 .text          0x0202d420      0x678 d:/devkitpro/devkitarm/bin/../lib/gcc/arm-eabi/4.5.1/../../../../arm-eabi/lib\libm.a(lib_a-e_rem_pio2.o)
                0x0202d420                __ieee754_rem_pio2
 .text          0x0202da98      0x238 d:/devkitpro/devkitarm/bin/../lib/gcc/arm-eabi/4.5.1/../../../../arm-eabi/lib\libm.a(lib_a-e_sqrt.o)
                0x0202da98                __ieee754_sqrt
 .text          0x0202dcd0      0x358 d:/devkitpro/devkitarm/bin/../lib/gcc/arm-eabi/4.5.1/../../../../arm-eabi/lib\libm.a(lib_a-k_cos.o)
                0x0202dcd0                __kernel_cos
 .text          0x0202e028      0xb08 d:/devkitpro/devkitarm/bin/../lib/gcc/arm-eabi/4.5.1/../../../../arm-eabi/lib\libm.a(lib_a-k_rem_pio2.o)
                0x0202e028                __kernel_rem_pio2
 .text          0x0202eb30      0x218 d:/devkitpro/devkitarm/bin/../lib/gcc/arm-eabi/4.5.1/../../../../arm-eabi/lib\libm.a(lib_a-k_sin.o)
                0x0202eb30                __kernel_sin
 .text          0x0202ed48       0x14 d:/devkitpro/devkitarm/bin/../lib/gcc/arm-eabi/4.5.1/../../../../arm-eabi/lib\libm.a(lib_a-s_fabs.o)
                0x0202ed48                fabs
 .text          0x0202ed5c       0x14 d:/devkitpro/devkitarm/bin/../lib/gcc/arm-eabi/4.5.1/../../../../arm-eabi/lib\libm.a(lib_a-s_finite.o)
                0x0202ed5c                finite
 .text          0x0202ed70      0x198 d:/devkitpro/devkitarm/bin/../lib/gcc/arm-eabi/4.5.1/../../../../arm-eabi/lib\libm.a(lib_a-s_floor.o)
                0x0202ed70                floor
 .text          0x0202ef08       0x8c d:/devkitpro/devkitarm/bin/../lib/gcc/arm-eabi/4.5.1/../../../../arm-eabi/lib\libm.a(lib_a-s_fpclassify.o)
                0x0202ef08                __fpclassifyd
 .text          0x0202ef94        0x0 d:/devkitpro/devkitarm/bin/../lib/gcc/arm-eabi/4.5.1/../../../../arm-eabi/lib\libm.a(lib_a-s_lib_ver.o)
 .text          0x0202ef94        0x8 d:/devkitpro/devkitarm/bin/../lib/gcc/arm-eabi/4.5.1/../../../../arm-eabi/lib\libm.a(lib_a-s_matherr.o)
                0x0202ef94                matherr
 .text          0x0202ef9c       0x10 d:/devkitpro/devkitarm/bin/../lib/gcc/arm-eabi/4.5.1/../../../../arm-eabi/lib\libm.a(lib_a-s_nan.o)
                0x0202ef9c                nan
 .text          0x0202efac      0x19c d:/devkitpro/devkitarm/bin/../lib/gcc/arm-eabi/4.5.1/../../../../arm-eabi/lib\libm.a(lib_a-s_rint.o)
                0x0202efac                rint
 .text          0x0202f148      0x1a8 d:/devkitpro/devkitarm/bin/../lib/gcc/arm-eabi/4.5.1/../../../../arm-eabi/lib\libm.a(lib_a-s_scalbn.o)
                0x0202f148                scalbn
 .text          0x0202f2f0       0x24 d:/devkitpro/devkitarm/bin/../lib/gcc/arm-eabi/4.5.1/../../../../arm-eabi/lib\libm.a(lib_a-s_copysign.o)
                0x0202f2f0                copysign
 .text          0x0202f314      0x114 d:/devkitpro/devkitarm/bin/../lib/gcc/arm-eabi/4.5.1\libgcc.a(_udivsi3.o)
                0x0202f314                __aeabi_uidiv
                0x0202f314                __udivsi3
                0x0202f408                __aeabi_uidivmod
 .text          0x0202f428      0x148 d:/devkitpro/devkitarm/bin/../lib/gcc/arm-eabi/4.5.1\libgcc.a(_divsi3.o)
                0x0202f428                __divsi3
                0x0202f428                __aeabi_idiv
                0x0202f550                __aeabi_idivmod
 .text          0x0202f570        0x4 d:/devkitpro/devkitarm/bin/../lib/gcc/arm-eabi/4.5.1\libgcc.a(_dvmd_tls.o)
                0x0202f570                __aeabi_idiv0
                0x0202f570                __aeabi_ldiv0
 .text          0x0202f574      0x41c d:/devkitpro/devkitarm/bin/../lib/gcc/arm-eabi/4.5.1\libgcc.a(_arm_addsubdf3.o)
                0x0202f574                __aeabi_drsub
                0x0202f57c                __aeabi_dsub
                0x0202f57c                __subdf3
                0x0202f580                __aeabi_dadd
                0x0202f580                __adddf3
                0x0202f890                __floatunsidf
                0x0202f890                __aeabi_ui2d
                0x0202f8b4                __floatsidf
                0x0202f8b4                __aeabi_i2d
                0x0202f8dc                __aeabi_f2d
                0x0202f8dc                __extendsfdf2
                0x0202f91c                __floatundidf
                0x0202f91c                __aeabi_ul2d
                0x0202f930                __floatdidf
                0x0202f930                __aeabi_l2d
 .text          0x0202f990      0x49c d:/devkitpro/devkitarm/bin/../lib/gcc/arm-eabi/4.5.1\libgcc.a(_arm_muldivdf3.o)
                0x0202f990                __aeabi_dmul
                0x0202f990                __muldf3
                0x0202fc20                __divdf3
                0x0202fc20                __aeabi_ddiv
 .text          0x0202fe2c      0x144 d:/devkitpro/devkitarm/bin/../lib/gcc/arm-eabi/4.5.1\libgcc.a(_arm_cmpdf2.o)
                0x0202fe2c                __gtdf2
                0x0202fe2c                __gedf2
                0x0202fe34                __ltdf2
                0x0202fe34                __ledf2
                0x0202fe3c                __nedf2
                0x0202fe3c                __eqdf2
                0x0202fe3c                __cmpdf2
                0x0202fec4                __aeabi_cdrcmple
                0x0202fee0                __aeabi_cdcmpeq
                0x0202fee0                __aeabi_cdcmple
                0x0202fef8                __aeabi_dcmpeq
                0x0202ff10                __aeabi_dcmplt
                0x0202ff28                __aeabi_dcmple
                0x0202ff40                __aeabi_dcmpge
                0x0202ff58                __aeabi_dcmpgt
 .text          0x0202ff70       0x5c d:/devkitpro/devkitarm/bin/../lib/gcc/arm-eabi/4.5.1\libgcc.a(_arm_fixdfsi.o)
                0x0202ff70                __aeabi_d2iz
                0x0202ff70                __fixdfsi
 .text          0x0202ffcc       0x54 d:/devkitpro/devkitarm/bin/../lib/gcc/arm-eabi/4.5.1\libgcc.a(_arm_fixunsdfsi.o)
                0x0202ffcc                __aeabi_d2uiz
                0x0202ffcc                __fixunsdfsi
 .text          0x02030020       0xa0 d:/devkitpro/devkitarm/bin/../lib/gcc/arm-eabi/4.5.1\libgcc.a(_arm_truncdfsf2.o)
                0x02030020                __truncdfsf2
                0x02030020                __aeabi_d2f
 .text          0x020300c0      0x2ac d:/devkitpro/devkitarm/bin/../lib/gcc/arm-eabi/4.5.1\libgcc.a(_arm_addsubsf3.o)
                0x020300c0                __aeabi_frsub
                0x020300c8                __subsf3
                0x020300c8                __aeabi_fsub
                0x020300cc                __aeabi_fadd
                0x020300cc                __addsf3
                0x02030288                __aeabi_ui2f
                0x02030288                __floatunsisf
                0x02030290                __aeabi_i2f
                0x02030290                __floatsisf
                0x020302b0                __aeabi_ul2f
                0x020302b0                __floatundisf
                0x020302c0                __aeabi_l2f
                0x020302c0                __floatdisf
 .text          0x0203036c      0x2f8 d:/devkitpro/devkitarm/bin/../lib/gcc/arm-eabi/4.5.1\libgcc.a(_arm_muldivsf3.o)
                0x0203036c                __mulsf3
                0x0203036c                __aeabi_fmul
                0x02030504                __aeabi_fdiv
                0x02030504                __divsf3
 .text          0x02030664      0x114 d:/devkitpro/devkitarm/bin/../lib/gcc/arm-eabi/4.5.1\libgcc.a(_arm_cmpsf2.o)
                0x02030664                __gesf2
                0x02030664                __gtsf2
                0x0203066c                __lesf2
                0x0203066c                __ltsf2
                0x02030674                __nesf2
                0x02030674                __eqsf2
                0x02030674                __cmpsf2
                0x020306d8                __aeabi_cfrcmple
                0x020306e8                __aeabi_cfcmpeq
                0x020306e8                __aeabi_cfcmple
                0x02030700                __aeabi_fcmpeq
                0x02030718                __aeabi_fcmplt
                0x02030730                __aeabi_fcmple
                0x02030748                __aeabi_fcmpge
                0x02030760                __aeabi_fcmpgt
 .text          0x02030778       0x5c d:/devkitpro/devkitarm/bin/../lib/gcc/arm-eabi/4.5.1\libgcc.a(_arm_fixsfsi.o)
                0x02030778                __aeabi_f2iz
                0x02030778                __fixsfsi
 .text          0x020307d4       0x54 d:/devkitpro/devkitarm/bin/../lib/gcc/arm-eabi/4.5.1\libgcc.a(_arm_fixunssfsi.o)
                0x020307d4                __fixunssfsi
                0x020307d4                __aeabi_f2uiz
 .text          0x02030828       0x48 d:/devkitpro/devkitarm/bin/../lib/gcc/arm-eabi/4.5.1\libgcc.a(_muldi3.o)
                0x02030828                __muldi3
                0x02030828                __aeabi_lmul
 .text          0x02030870       0x14 d:/devkitpro/devkitarm/bin/../lib/gcc/arm-eabi/4.5.1/../../../../arm-eabi/lib\libg.a(lib_a-abort.o)
                0x02030870                abort
 .text          0x02030884       0x7c d:/devkitpro/devkitarm/bin/../lib/gcc/arm-eabi/4.5.1/../../../../arm-eabi/lib\libg.a(lib_a-bsearch.o)
                0x02030884                bsearch
 .text          0x02030900       0x28 d:/devkitpro/devkitarm/bin/../lib/gcc/arm-eabi/4.5.1/../../../../arm-eabi/lib\libg.a(lib_a-calloc.o)
                0x02030900                calloc
 .text          0x02030928       0x9c d:/devkitpro/devkitarm/bin/../lib/gcc/arm-eabi/4.5.1/../../../../arm-eabi/lib\libg.a(lib_a-callocr.o)
                0x02030928                _calloc_r
 .text          0x020309c4       0x10 d:/devkitpro/devkitarm/bin/../lib/gcc/arm-eabi/4.5.1/../../../../arm-eabi/lib\libg.a(lib_a-errno.o)
                0x020309c4                __errno
 .text          0x020309d4      0x10c d:/devkitpro/devkitarm/bin/../lib/gcc/arm-eabi/4.5.1/../../../../arm-eabi/lib\libg.a(lib_a-fclose.o)
                0x020309d4                _fclose_r
                0x02030acc                fclose
 .text          0x02030ae0      0x298 d:/devkitpro/devkitarm/bin/../lib/gcc/arm-eabi/4.5.1/../../../../arm-eabi/lib\libg.a(lib_a-fflush.o)
                0x02030ae0                _fflush_r
                0x02030d38                fflush
 .text          0x02030d78       0xd8 d:/devkitpro/devkitarm/bin/../lib/gcc/arm-eabi/4.5.1/../../../../arm-eabi/lib\libg.a(lib_a-fgetc.o)
                0x02030d78                _fgetc_r
                0x02030dd4                fgetc
 .text          0x02030e50      0x148 d:/devkitpro/devkitarm/bin/../lib/gcc/arm-eabi/4.5.1/../../../../arm-eabi/lib\libg.a(lib_a-fgets.o)
                0x02030e50                _fgets_r
                0x02030f6c                fgets
 .text          0x02030f98      0x334 d:/devkitpro/devkitarm/bin/../lib/gcc/arm-eabi/4.5.1/../../../../arm-eabi/lib\libg.a(lib_a-findfp.o)
                0x02030fa8                _cleanup_r
                0x02030fc0                __sfmoreglue
                0x02031008                _cleanup
                0x02031018                __sinit
                0x02031180                __sfp
                0x02031274                __sfp_lock_acquire
                0x02031278                __sfp_lock_release
                0x0203127c                __sinit_lock_acquire
                0x02031280                __sinit_lock_release
                0x02031284                __fp_lock_all
                0x020312a8                __fp_unlock_all
 .text          0x020312cc      0x108 d:/devkitpro/devkitarm/bin/../lib/gcc/arm-eabi/4.5.1/../../../../arm-eabi/lib\libg.a(lib_a-fopen.o)
                0x020312cc                _fopen_r
                0x020313b8                fopen
 .text          0x020313d4       0x70 d:/devkitpro/devkitarm/bin/../lib/gcc/arm-eabi/4.5.1/../../../../arm-eabi/lib\libg.a(lib_a-fprintf.o)
                0x020313d4                _fprintf_r
                0x02031404                fprintf
 .text          0x02031444       0x94 d:/devkitpro/devkitarm/bin/../lib/gcc/arm-eabi/4.5.1/../../../../arm-eabi/lib\libg.a(lib_a-fputc.o)
                0x02031444                _fputc_r
                0x02031488                fputc
 .text          0x020314d8       0xa8 d:/devkitpro/devkitarm/bin/../lib/gcc/arm-eabi/4.5.1/../../../../arm-eabi/lib\libg.a(lib_a-fputs.o)
                0x020314d8                _fputs_r
                0x02031564                fputs
 .text          0x02031580      0x270 d:/devkitpro/devkitarm/bin/../lib/gcc/arm-eabi/4.5.1/../../../../arm-eabi/lib\libg.a(lib_a-fread.o)
                0x02031580                _fread_r
                0x020317ac                fread
 .text          0x020317f0      0x360 d:/devkitpro/devkitarm/bin/../lib/gcc/arm-eabi/4.5.1/../../../../arm-eabi/lib\libg.a(lib_a-freer.o)
                0x020317f0                _malloc_trim_r
                0x020318ec                _free_r
 .text          0x02031b50      0x4d8 d:/devkitpro/devkitarm/bin/../lib/gcc/arm-eabi/4.5.1/../../../../arm-eabi/lib\libg.a(lib_a-fseek.o)
                0x02031b50                _fseek_r
                0x02031ffc                fseek
 .text          0x02032028       0xec d:/devkitpro/devkitarm/bin/../lib/gcc/arm-eabi/4.5.1/../../../../arm-eabi/lib\libg.a(lib_a-ftell.o)
                0x02032028                _ftell_r
                0x02032100                ftell
 .text          0x02032114      0x4ac d:/devkitpro/devkitarm/bin/../lib/gcc/arm-eabi/4.5.1/../../../../arm-eabi/lib\libg.a(lib_a-fvwrite.o)
                0x02032114                __sfvwrite_r
 .text          0x020325c0      0x10c d:/devkitpro/devkitarm/bin/../lib/gcc/arm-eabi/4.5.1/../../../../arm-eabi/lib\libg.a(lib_a-fwalk.o)
                0x020325c0                _fwalk
                0x02032644                _fwalk_reent
 .text          0x020326cc       0xec d:/devkitpro/devkitarm/bin/../lib/gcc/arm-eabi/4.5.1/../../../../arm-eabi/lib\libg.a(lib_a-fwrite.o)
                0x020326cc                _fwrite_r
                0x02032774                fwrite
 .text          0x020327b8        0x0 d:/devkitpro/devkitarm/bin/../lib/gcc/arm-eabi/4.5.1/../../../../arm-eabi/lib\libg.a(lib_a-impure.o)
 .text          0x020327b8       0xc4 d:/devkitpro/devkitarm/bin/../lib/gcc/arm-eabi/4.5.1/../../../../arm-eabi/lib\libg.a(lib_a-init.o)
                0x020327b8                __libc_init_array
                0x02032838                __libc_fini_array
 .text          0x0203287c       0x74 d:/devkitpro/devkitarm/bin/../lib/gcc/arm-eabi/4.5.1/../../../../arm-eabi/lib\libg.a(lib_a-iprintf.o)
                0x0203287c                iprintf
                0x020328bc                _iprintf_r
 .text          0x020328f0       0x14 d:/devkitpro/devkitarm/bin/../lib/gcc/arm-eabi/4.5.1/../../../../arm-eabi/lib\libg.a(lib_a-lcltime_r.o)
                0x020328f0                localtime_r
 .text          0x02032904      0xbb0 d:/devkitpro/devkitarm/bin/../lib/gcc/arm-eabi/4.5.1/../../../../arm-eabi/lib\libg.a(lib_a-locale.o)
                0x0203311c                _setlocale_r
                0x02033458                __locale_charset
                0x02033464                __locale_msgcharset
                0x02033470                __locale_cjk_lang
                0x02033480                _localeconv_r
                0x0203348c                setlocale
                0x020334a8                localeconv
 .text          0x020334b4      0x164 d:/devkitpro/devkitarm/bin/../lib/gcc/arm-eabi/4.5.1/../../../../arm-eabi/lib\libg.a(lib_a-makebuf.o)
                0x020334b4                __smakebuf_r
 .text          0x02033618       0x40 d:/devkitpro/devkitarm/bin/../lib/gcc/arm-eabi/4.5.1/../../../../arm-eabi/lib\libg.a(lib_a-malloc.o)
                0x02033618                malloc
                0x02033638                free
 .text          0x02033658      0x710 d:/devkitpro/devkitarm/bin/../lib/gcc/arm-eabi/4.5.1/../../../../arm-eabi/lib\libg.a(lib_a-mallocr.o)
                0x02033658                _malloc_r
 .text          0x02033d68      0x164 d:/devkitpro/devkitarm/bin/../lib/gcc/arm-eabi/4.5.1/../../../../arm-eabi/lib\libg.a(lib_a-mbrtowc.o)
                0x02033d68                _mbrtowc_r
                0x02033e14                mbrtowc
 .text          0x02033ecc       0x68 d:/devkitpro/devkitarm/bin/../lib/gcc/arm-eabi/4.5.1/../../../../arm-eabi/lib\libg.a(lib_a-mbsrtowcs.o)
                0x02033ecc                _mbsrtowcs_r
                0x02033ef4                mbsrtowcs
 .text          0x02033f34      0x720 d:/devkitpro/devkitarm/bin/../lib/gcc/arm-eabi/4.5.1/../../../../arm-eabi/lib\libg.a(lib_a-mbtowc_r.o)
                0x02033f34                __utf8_mbtowc
                0x02034238                _mbtowc_r
                0x0203428c                __ascii_mbtowc
                0x020342d0                __sjis_mbtowc
                0x020343a4                __eucjp_mbtowc
                0x020344d0                __jis_mbtowc
 .text          0x02034654      0x108 d:/devkitpro/devkitarm/bin/../lib/gcc/arm-eabi/4.5.1/../../../../arm-eabi/lib\libg.a(lib_a-memchr.o)
                0x02034654                memchr
 .text          0x0203475c       0xa8 d:/devkitpro/devkitarm/bin/../lib/gcc/arm-eabi/4.5.1/../../../../arm-eabi/lib\libg.a(lib_a-memcmp.o)
                0x0203475c                memcmp
 .text          0x02034804       0xf8 d:/devkitpro/devkitarm/bin/../lib/gcc/arm-eabi/4.5.1/../../../../arm-eabi/lib\libg.a(lib_a-memcpy.o)
                0x02034804                memcpy
 .text          0x020348fc      0x138 d:/devkitpro/devkitarm/bin/../lib/gcc/arm-eabi/4.5.1/../../../../arm-eabi/lib\libg.a(lib_a-memmove.o)
                0x020348fc                memmove
 .text          0x02034a34      0x100 d:/devkitpro/devkitarm/bin/../lib/gcc/arm-eabi/4.5.1/../../../../arm-eabi/lib\libg.a(lib_a-memset.o)
                0x02034a34                memset
 .text          0x02034b34      0x720 d:/devkitpro/devkitarm/bin/../lib/gcc/arm-eabi/4.5.1/../../../../arm-eabi/lib\libg.a(lib_a-mktime.o)
                0x02034e70                mktime
 .text          0x02035254      0x760 d:/devkitpro/devkitarm/bin/../lib/gcc/arm-eabi/4.5.1/../../../../arm-eabi/lib\libg.a(lib_a-mktm_r.o)
                0x02035254                __tzcalc_limits
                0x020354a0                _mktm_r
 .text          0x020359b4        0x8 d:/devkitpro/devkitarm/bin/../lib/gcc/arm-eabi/4.5.1/../../../../arm-eabi/lib\libg.a(lib_a-mlock.o)
                0x020359b4                __malloc_lock
                0x020359b8                __malloc_unlock
 .text          0x020359bc      0x168 d:/devkitpro/devkitarm/bin/../lib/gcc/arm-eabi/4.5.1/../../../../arm-eabi/lib\libg.a(lib_a-putc.o)
                0x020359bc                _putc_r
                0x02035a68                putc
 .text          0x02035b24       0x78 d:/devkitpro/devkitarm/bin/../lib/gcc/arm-eabi/4.5.1/../../../../arm-eabi/lib\libg.a(lib_a-rand.o)
                0x02035b24                srand
                0x02035b40                rand
 .text          0x02035b9c       0x28 d:/devkitpro/devkitarm/bin/../lib/gcc/arm-eabi/4.5.1/../../../../arm-eabi/lib\libg.a(lib_a-realloc.o)
                0x02035b9c                realloc
 .text          0x02035bc4      0x5c0 d:/devkitpro/devkitarm/bin/../lib/gcc/arm-eabi/4.5.1/../../../../arm-eabi/lib\libg.a(lib_a-reallocr.o)
                0x02035bc4                _realloc_r
 .text          0x02036184      0x1d0 d:/devkitpro/devkitarm/bin/../lib/gcc/arm-eabi/4.5.1/../../../../arm-eabi/lib\libg.a(lib_a-refill.o)
                0x020361ac                __srefill_r
 .text          0x02036354       0x6c d:/devkitpro/devkitarm/bin/../lib/gcc/arm-eabi/4.5.1/../../../../arm-eabi/lib\libg.a(lib_a-rget.o)
                0x02036354                __srget_r
                0x020363ac                __srget
 .text          0x020363c0       0x2c d:/devkitpro/devkitarm/bin/../lib/gcc/arm-eabi/4.5.1/../../../../arm-eabi/lib\libg.a(lib_a-setjmp.o)
                0x020363c0                setjmp
                0x020363d4                longjmp
 .text          0x020363ec      0x178 d:/devkitpro/devkitarm/bin/../lib/gcc/arm-eabi/4.5.1/../../../../arm-eabi/lib\libg.a(lib_a-setvbuf.o)
                0x020363ec                setvbuf
 .text          0x02036564      0x238 d:/devkitpro/devkitarm/bin/../lib/gcc/arm-eabi/4.5.1/../../../../arm-eabi/lib\libg.a(lib_a-signal.o)
                0x02036564                _init_signal_r
                0x020365b8                _signal_r
                0x02036620                _raise_r
                0x020366b4                __sigtramp_r
                0x02036748                raise
                0x0203675c                signal
                0x02036778                _init_signal
                0x02036788                __sigtramp
 .text          0x0203679c      0x100 d:/devkitpro/devkitarm/bin/../lib/gcc/arm-eabi/4.5.1/../../../../arm-eabi/lib\libg.a(lib_a-siscanf.o)
                0x0203679c                siscanf
                0x0203681c                _siscanf_r
 .text          0x0203689c      0x130 d:/devkitpro/devkitarm/bin/../lib/gcc/arm-eabi/4.5.1/../../../../arm-eabi/lib\libg.a(lib_a-snprintf.o)
                0x0203689c                _snprintf_r
                0x02036930                snprintf
 .text          0x020369cc       0xdc d:/devkitpro/devkitarm/bin/../lib/gcc/arm-eabi/4.5.1/../../../../arm-eabi/lib\libg.a(lib_a-sprintf.o)
                0x020369cc                _sprintf_r
                0x02036a34                sprintf
 .text          0x02036aa8       0xe0 d:/devkitpro/devkitarm/bin/../lib/gcc/arm-eabi/4.5.1/../../../../arm-eabi/lib\libg.a(lib_a-stdio.o)
                0x02036aa8                __sread
                0x02036adc                __seofread
                0x02036ae4                __swrite
                0x02036b3c                __sseek
                0x02036b74                __sclose
 .text          0x02036b88       0x64 d:/devkitpro/devkitarm/bin/../lib/gcc/arm-eabi/4.5.1/../../../../arm-eabi/lib\libg.a(lib_a-strcasecmp.o)
                0x02036b88                strcasecmp
 .text          0x02036bec       0xb0 d:/devkitpro/devkitarm/bin/../lib/gcc/arm-eabi/4.5.1/../../../../arm-eabi/lib\libg.a(lib_a-strcat.o)
                0x02036bec                strcat
 .text          0x02036c9c      0x23c d:/devkitpro/devkitarm/bin/../lib/gcc/arm-eabi/4.5.1/../../../../arm-eabi/lib\libg.a(lib_a-strchr.o)
                0x02036c9c                strchr
 .text          0x02036ed8      0x230 d:/devkitpro/devkitarm/bin/../lib/gcc/arm-eabi/4.5.1/../../../../arm-eabi/lib\libg.a(lib_a-strcmp.o)
                0x02036ed8                strcmp
 .text          0x02037108       0xf0 d:/devkitpro/devkitarm/bin/../lib/gcc/arm-eabi/4.5.1/../../../../arm-eabi/lib\libg.a(lib_a-strcpy.o)
                0x02037108                strcpy
 .text          0x020371f8       0x7c d:/devkitpro/devkitarm/bin/../lib/gcc/arm-eabi/4.5.1/../../../../arm-eabi/lib\libg.a(lib_a-strlcpy.o)
                0x020371f8                strlcpy
 .text          0x02037274       0x60 d:/devkitpro/devkitarm/bin/../lib/gcc/arm-eabi/4.5.1/../../../../arm-eabi/lib\libg.a(lib_a-strlen.o)
                0x02037274                strlen
 .text          0x020372d4       0x7c d:/devkitpro/devkitarm/bin/../lib/gcc/arm-eabi/4.5.1/../../../../arm-eabi/lib\libg.a(lib_a-strncasecmp.o)
                0x020372d4                strncasecmp
 .text          0x02037350      0x170 d:/devkitpro/devkitarm/bin/../lib/gcc/arm-eabi/4.5.1/../../../../arm-eabi/lib\libg.a(lib_a-strncmp.o)
                0x02037350                strncmp
 .text          0x020374c0       0xec d:/devkitpro/devkitarm/bin/../lib/gcc/arm-eabi/4.5.1/../../../../arm-eabi/lib\libg.a(lib_a-strncpy.o)
                0x020374c0                strncpy
 .text          0x020375ac       0x58 d:/devkitpro/devkitarm/bin/../lib/gcc/arm-eabi/4.5.1/../../../../arm-eabi/lib\libg.a(lib_a-strnlen.o)
                0x020375ac                strnlen
 .text          0x02037604       0xa4 d:/devkitpro/devkitarm/bin/../lib/gcc/arm-eabi/4.5.1/../../../../arm-eabi/lib\libg.a(lib_a-strpbrk.o)
                0x02037604                strpbrk
 .text          0x020376a8       0x4c d:/devkitpro/devkitarm/bin/../lib/gcc/arm-eabi/4.5.1/../../../../arm-eabi/lib\libg.a(lib_a-strrchr.o)
                0x020376a8                strrchr
 *fill*         0x020376f4        0x4 ff
 .text          0x020376f8     0x16a0 d:/devkitpro/devkitarm/bin/../lib/gcc/arm-eabi/4.5.1/../../../../arm-eabi/lib\libg.a(lib_a-strtod.o)
                0x02037740                _strtod_r
                0x02038d2c                strtod
                0x02038d48                strtof
 .text          0x02038d98      0x1f4 d:/devkitpro/devkitarm/bin/../lib/gcc/arm-eabi/4.5.1/../../../../arm-eabi/lib\libg.a(lib_a-strtol.o)
                0x02038d98                _strtol_r
                0x02038f60                strtol
 .text          0x02038f8c     0x12f0 d:/devkitpro/devkitarm/bin/../lib/gcc/arm-eabi/4.5.1/../../../../arm-eabi/lib\libg.a(lib_a-svfiscanf.o)
                0x02038f8c                _sungetc_r
                0x0203908c                __ssrefill_r
                0x020390f8                _sfread_r
                0x020391b8                __ssvfiscanf_r
 .text          0x0203a27c     0x233c d:/devkitpro/devkitarm/bin/../lib/gcc/arm-eabi/4.5.1/../../../../arm-eabi/lib\libg.a(lib_a-svfprintf.o)
                0x0203a27c                _svfprintf_r
 .text          0x0203c5b8       0x20 d:/devkitpro/devkitarm/bin/../lib/gcc/arm-eabi/4.5.1/../../../../arm-eabi/lib\libg.a(lib_a-sysclose.o)
                0x0203c5b8                close
 .text          0x0203c5d8       0x30 d:/devkitpro/devkitarm/bin/../lib/gcc/arm-eabi/4.5.1/../../../../arm-eabi/lib\libg.a(lib_a-syslseek.o)
                0x0203c5d8                lseek
 .text          0x0203c608       0x44 d:/devkitpro/devkitarm/bin/../lib/gcc/arm-eabi/4.5.1/../../../../arm-eabi/lib\libg.a(lib_a-sysopen.o)
                0x0203c608                open
 .text          0x0203c64c       0x30 d:/devkitpro/devkitarm/bin/../lib/gcc/arm-eabi/4.5.1/../../../../arm-eabi/lib\libg.a(lib_a-sysread.o)
                0x0203c64c                read
 .text          0x0203c67c       0x4c d:/devkitpro/devkitarm/bin/../lib/gcc/arm-eabi/4.5.1/../../../../arm-eabi/lib\libg.a(lib_a-time.o)
                0x0203c67c                time
 .text          0x0203c6c8      0x704 d:/devkitpro/devkitarm/bin/../lib/gcc/arm-eabi/4.5.1/../../../../arm-eabi/lib\libg.a(lib_a-towlower.o)
                0x0203c6c8                towlower
 .text          0x0203cdcc      0x888 d:/devkitpro/devkitarm/bin/../lib/gcc/arm-eabi/4.5.1/../../../../arm-eabi/lib\libg.a(lib_a-towupper.o)
                0x0203cdcc                towupper
 .text          0x0203d654        0x8 d:/devkitpro/devkitarm/bin/../lib/gcc/arm-eabi/4.5.1/../../../../arm-eabi/lib\libg.a(lib_a-tzlock.o)
                0x0203d654                __tz_lock
                0x0203d658                __tz_unlock
 .text          0x0203d65c        0x0 d:/devkitpro/devkitarm/bin/../lib/gcc/arm-eabi/4.5.1/../../../../arm-eabi/lib\libg.a(lib_a-tzvars.o)
 .text          0x0203d65c      0x24c d:/devkitpro/devkitarm/bin/../lib/gcc/arm-eabi/4.5.1/../../../../arm-eabi/lib\libg.a(lib_a-ungetc.o)
                0x0203d65c                __submore
                0x0203d708                _ungetc_r
                0x0203d88c                ungetc
 .text          0x0203d8a8     0x16dc d:/devkitpro/devkitarm/bin/../lib/gcc/arm-eabi/4.5.1/../../../../arm-eabi/lib\libg.a(lib_a-vfiprintf.o)
                0x0203d8a8                __sprint_r
                0x0203d968                _vfiprintf_r
                0x0203ef58                vfiprintf
 .text          0x0203ef84     0x2588 d:/devkitpro/devkitarm/bin/../lib/gcc/arm-eabi/4.5.1/../../../../arm-eabi/lib\libg.a(lib_a-vfprintf.o)
                0x0203ef84                _vfprintf_r
                0x020414e0                vfprintf
 .text          0x0204150c      0x15c d:/devkitpro/devkitarm/bin/../lib/gcc/arm-eabi/4.5.1/../../../../arm-eabi/lib\libg.a(lib_a-wbuf.o)
                0x0204150c                __swbuf_r
                0x0204164c                __swbuf
 .text          0x02041668      0x14c d:/devkitpro/devkitarm/bin/../lib/gcc/arm-eabi/4.5.1/../../../../arm-eabi/lib\libg.a(lib_a-wcrtomb.o)
                0x02041668                _wcrtomb_r
                0x02041704                wcrtomb
 .text          0x020417b4       0x68 d:/devkitpro/devkitarm/bin/../lib/gcc/arm-eabi/4.5.1/../../../../arm-eabi/lib\libg.a(lib_a-wcsrtombs.o)
                0x020417b4                _wcsrtombs_r
                0x020417dc                wcsrtombs
 .text          0x0204181c       0x84 d:/devkitpro/devkitarm/bin/../lib/gcc/arm-eabi/4.5.1/../../../../arm-eabi/lib\libg.a(lib_a-wctob.o)
                0x0204181c                wctob
 .text          0x020418a0      0x3a8 d:/devkitpro/devkitarm/bin/../lib/gcc/arm-eabi/4.5.1/../../../../arm-eabi/lib\libg.a(lib_a-wctomb_r.o)
                0x020418a0                __utf8_wctomb
                0x020419bc                _wctomb_r
                0x02041a0c                __ascii_wctomb
                0x02041a38                __sjis_wctomb
                0x02041ab8                __eucjp_wctomb
                0x02041b70                __jis_wctomb
 .text          0x02041c48      0x134 d:/devkitpro/devkitarm/bin/../lib/gcc/arm-eabi/4.5.1/../../../../arm-eabi/lib\libg.a(lib_a-wsetup.o)
                0x02041c48                __swsetup_r
 .text          0x02041d7c       0x18 d:/devkitpro/devkitarm/bin/../lib/gcc/arm-eabi/4.5.1/../../../../arm-eabi/lib\libg.a(lib_a-ctype_.o)
                0x02041d7c                __set_ctype
 .text          0x02041d94       0x64 d:/devkitpro/devkitarm/bin/../lib/gcc/arm-eabi/4.5.1/../../../../arm-eabi/lib\libg.a(lib_a-div.o)
                0x02041d94                div
 .text          0x02041df8     0x1810 d:/devkitpro/devkitarm/bin/../lib/gcc/arm-eabi/4.5.1/../../../../arm-eabi/lib\libg.a(lib_a-dtoa.o)
                0x02041fc8                _dtoa_r
 .text          0x02043608       0xc8 d:/devkitpro/devkitarm/bin/../lib/gcc/arm-eabi/4.5.1/../../../../arm-eabi/lib\libg.a(lib_a-flags.o)
                0x02043608                __sflags
 .text          0x020436d0      0x1c0 d:/devkitpro/devkitarm/bin/../lib/gcc/arm-eabi/4.5.1/../../../../arm-eabi/lib\libg.a(lib_a-fputwc.o)
                0x020436d0                _fputwc_r
                0x02043844                fputwc
 .text          0x02043890      0x9b4 d:/devkitpro/devkitarm/bin/../lib/gcc/arm-eabi/4.5.1/../../../../arm-eabi/lib\libg.a(lib_a-gdtoa-gethex.o)
                0x0204396c                __hexdig_init
                0x020439f0                __gethex
 .text          0x02044244      0x2bc d:/devkitpro/devkitarm/bin/../lib/gcc/arm-eabi/4.5.1/../../../../arm-eabi/lib\libg.a(lib_a-gdtoa-hexnan.o)
                0x02044244                __hexnan
 .text          0x02044500      0x100 d:/devkitpro/devkitarm/bin/../lib/gcc/arm-eabi/4.5.1/../../../../arm-eabi/lib\libg.a(lib_a-getenv_r.o)
                0x02044500                _findenv_r
                0x020445e4                _getenv_r
 .text          0x02044600        0xc d:/devkitpro/devkitarm/bin/../lib/gcc/arm-eabi/4.5.1/../../../../arm-eabi/lib\libg.a(lib_a-gettzinfo.o)
                0x02044600                __gettzinfo
 .text          0x0204460c       0x80 d:/devkitpro/devkitarm/bin/../lib/gcc/arm-eabi/4.5.1/../../../../arm-eabi/lib\libg.a(lib_a-iswspace.o)
                0x0204460c                iswspace
 .text          0x0204468c      0x2b0 d:/devkitpro/devkitarm/bin/../lib/gcc/arm-eabi/4.5.1/../../../../arm-eabi/lib\libg.a(lib_a-jp2uc.o)
                0x020448b0                _jp2uc
 .text          0x0204493c      0x138 d:/devkitpro/devkitarm/bin/../lib/gcc/arm-eabi/4.5.1/../../../../arm-eabi/lib\libg.a(lib_a-mbsnrtowcs.o)
                0x0204493c                _mbsnrtowcs_r
                0x02044a28                mbsnrtowcs
 .text          0x02044a74      0xd3c d:/devkitpro/devkitarm/bin/../lib/gcc/arm-eabi/4.5.1/../../../../arm-eabi/lib\libg.a(lib_a-mprec.o)
                0x02044a74                _Balloc
                0x02044afc                _Bfree
                0x02044b18                __multadd
                0x02044bf4                __s2b
                0x02044ce4                __hi0bits
                0x02044d34                __lo0bits
                0x02044dc4                __i2b
                0x02044de8                __multiply
                0x02044fd8                __pow5mult
                0x020450d0                __lshift
                0x020451d4                __mcmp
                0x02045234                __mdiff
                0x0204538c                __ulp
                0x020453ec                __b2d
                0x020454b4                __d2b
                0x020455c0                __ratio
                0x02045660                _mprec_log10
                0x020456b4                __copybits
                0x02045728                __any_on
 .text          0x020457b0       0xc8 d:/devkitpro/devkitarm/bin/../lib/gcc/arm-eabi/4.5.1/../../../../arm-eabi/lib\libg.a(lib_a-sccl.o)
                0x020457b0                __sccl
 .text          0x02045878        0xc d:/devkitpro/devkitarm/bin/../lib/gcc/arm-eabi/4.5.1/../../../../arm-eabi/lib\libg.a(lib_a-sf_nan.o)
                0x02045878                nanf
 .text          0x02045884      0x2b4 d:/devkitpro/devkitarm/bin/../lib/gcc/arm-eabi/4.5.1/../../../../arm-eabi/lib\libg.a(lib_a-strtoll_r.o)
                0x02045884                _strtoll_r
 .text          0x02045b38      0x1f4 d:/devkitpro/devkitarm/bin/../lib/gcc/arm-eabi/4.5.1/../../../../arm-eabi/lib\libg.a(lib_a-strtoul.o)
                0x02045b38                _strtoul_r
                0x02045d00                strtoul
 *fill*         0x02045d2c        0x4 ff
 .text          0x02045d30      0x290 d:/devkitpro/devkitarm/bin/../lib/gcc/arm-eabi/4.5.1/../../../../arm-eabi/lib\libg.a(lib_a-strtoull_r.o)
                0x02045d30                _strtoull_r
 .text          0x02045fc0     0x16b4 d:/devkitpro/devkitarm/bin/../lib/gcc/arm-eabi/4.5.1/../../../../arm-eabi/lib\libg.a(lib_a-svfiprintf.o)
                0x02045fc0                __ssprint_r
                0x02046154                _svfiprintf_r
 .text          0x02047674      0x1dc d:/devkitpro/devkitarm/bin/../lib/gcc/arm-eabi/4.5.1/../../../../arm-eabi/lib\libg.a(lib_a-wcsnrtombs.o)
                0x02047674                _wcsnrtombs_r
                0x02047804                wcsnrtombs
 .text          0x02047850        0x0 d:/devkitpro/devkitarm/bin/../lib/gcc/arm-eabi/4.5.1/../../../../arm-eabi/lib\libg.a(lib_a-environ.o)
 .text          0x02047850        0x8 d:/devkitpro/devkitarm/bin/../lib/gcc/arm-eabi/4.5.1/../../../../arm-eabi/lib\libg.a(lib_a-envlock.o)
                0x02047850                __env_lock
                0x02047854                __env_unlock
 .text          0x02047858      0x1b4 d:/devkitpro/devkitarm/bin/../lib/gcc/arm-eabi/4.5.1/../../../../arm-eabi/lib\libsysbase.a(iosupport.o)
                0x02047858                setDefaultDevice
                0x02047870                FindDevice
                0x0204791c                RemoveDevice
                0x0204794c                AddDevice
                0x020479e4                GetDeviceOpTab
 .text          0x02047a0c       0x78 d:/devkitpro/devkitarm/bin/../lib/gcc/arm-eabi/4.5.1/../../../../arm-eabi/lib\libsysbase.a(close.o)
                0x02047a0c                _close_r
 .text          0x02047a84       0x88 d:/devkitpro/devkitarm/bin/../lib/gcc/arm-eabi/4.5.1/../../../../arm-eabi/lib\libsysbase.a(fstat.o)
                0x02047a84                _fstat_r
 .text          0x02047b0c       0x10 d:/devkitpro/devkitarm/bin/../lib/gcc/arm-eabi/4.5.1/../../../../arm-eabi/lib\libsysbase.a(getpid.o)
                0x02047b0c                _getpid_r
 .text          0x02047b1c        0x8 d:/devkitpro/devkitarm/bin/../lib/gcc/arm-eabi/4.5.1/../../../../arm-eabi/lib\libsysbase.a(isatty.o)
                0x02047b1c                _isatty_r
 .text          0x02047b24       0x10 d:/devkitpro/devkitarm/bin/../lib/gcc/arm-eabi/4.5.1/../../../../arm-eabi/lib\libsysbase.a(kill.o)
                0x02047b24                _kill_r
 .text          0x02047b34       0x8c d:/devkitpro/devkitarm/bin/../lib/gcc/arm-eabi/4.5.1/../../../../arm-eabi/lib\libsysbase.a(lseek.o)
                0x02047b34                _lseek_r
 .text          0x02047bc0       0xd0 d:/devkitpro/devkitarm/bin/../lib/gcc/arm-eabi/4.5.1/../../../../arm-eabi/lib\libsysbase.a(open.o)
                0x02047bc0                _open_r
 .text          0x02047c90       0x8c d:/devkitpro/devkitarm/bin/../lib/gcc/arm-eabi/4.5.1/../../../../arm-eabi/lib\libsysbase.a(read.o)
                0x02047c90                _read_r
 .text          0x02047d1c       0x78 d:/devkitpro/devkitarm/bin/../lib/gcc/arm-eabi/4.5.1/../../../../arm-eabi/lib\libsysbase.a(sbrk.o)
                0x02047d1c                _sbrk_r
 .text          0x02047d94       0x68 d:/devkitpro/devkitarm/bin/../lib/gcc/arm-eabi/4.5.1/../../../../arm-eabi/lib\libsysbase.a(times.o)
                0x02047d94                _times
                0x02047db0                _times_r
                0x02047db8                _gettimeofday_r
 .text          0x02047dfc       0x8c d:/devkitpro/devkitarm/bin/../lib/gcc/arm-eabi/4.5.1/../../../../arm-eabi/lib\libsysbase.a(write.o)
                0x02047dfc                _write_r
 .text          0x02047e88       0x20 d:/devkitpro/devkitarm/bin/../lib/gcc/arm-eabi/4.5.1/../../../../arm-eabi/lib\libsysbase.a(_exit.o)
                0x02047e88                _exit
 .text          0x02047ea8        0x0 d:/devkitpro/devkitarm/bin/../lib/gcc/arm-eabi/4.5.1/../../../../arm-eabi/lib\libsysbase.a(malloc_vars.o)
 .text          0x02047ea8      0x344 d:/devkitpro/devkitarm/bin/../lib/gcc/arm-eabi/4.5.1/../../../../arm-eabi/lib\libsysbase.a(chdir.o)
                0x02047ea8                _concatenate_path
                0x0204803c                chdir
                0x02048184                getcwd
 .text          0x020481ec       0x84 d:/devkitpro/devkitarm/bin/../lib/gcc/arm-eabi/4.5.1/../../../../arm-eabi/lib\libsysbase.a(build_argv.o)
                0x020481ec                build_argv
 .text          0x02048270        0x0 d:/devkitpro/devkitarm/bin/../lib/gcc/arm-eabi/4.5.1/../../../../arm-eabi/lib\libsysbase.a(syscall_support.o)
 .text          0x02048270       0xac d:/devkitpro/devkitarm/bin/../lib/gcc/arm-eabi/4.5.1/../../../../arm-eabi/lib\libsysbase.a(handle_manager.o)
                0x02048270                __release_handle
                0x020482a8                __alloc_handle
                0x02048300                __get_handle
 .text          0x0204831c       0x3c d:/devkitpro/devkitarm/bin/../lib/gcc/arm-eabi/4.5.1\libgcc.a(_aeabi_uldivmod.o)
                0x0204831c                __aeabi_uldivmod
 .text          0x02048358       0x80 d:/devkitpro/devkitarm/bin/../lib/gcc/arm-eabi/4.5.1\libgcc.a(bpabi.o)
                0x02048358                __gnu_ldivmod_helper
                0x02048398                __gnu_uldivmod_helper
 .text          0x020483d8      0xf3c d:/devkitpro/devkitarm/bin/../lib/gcc/arm-eabi/4.5.1\libgcc.a(unwind-arm.o)
                0x02048810                _Unwind_VRS_Get
                0x02048884                _Unwind_VRS_Set
                0x02048cf0                __aeabi_unwind_cpp_pr2
                0x02048cf8                __aeabi_unwind_cpp_pr1
                0x02048d00                __aeabi_unwind_cpp_pr0
                0x02048d08                _Unwind_VRS_Pop
                0x020490a4                _Unwind_GetCFA
                0x020490ac                __gnu_Unwind_RaiseException
                0x02049160                __gnu_Unwind_ForcedUnwind
                0x02049184                __gnu_Unwind_Resume
                0x020491f0                __gnu_Unwind_Resume_or_Rethrow
                0x02049210                _Unwind_Complete
                0x02049214                _Unwind_DeleteException
                0x02049238                __gnu_Unwind_Backtrace
 .text          0x02049314      0x1b0 d:/devkitpro/devkitarm/bin/../lib/gcc/arm-eabi/4.5.1\libgcc.a(libunwind.o)
                0x02049314                __restore_core_regs
                0x02049314                restore_core_regs
                0x02049330                __gnu_Unwind_Restore_VFP
                0x02049338                __gnu_Unwind_Save_VFP
                0x02049340                __gnu_Unwind_Restore_VFP_D
                0x02049348                __gnu_Unwind_Save_VFP_D
                0x02049350                __gnu_Unwind_Restore_VFP_D_16_to_31
                0x02049358                __gnu_Unwind_Save_VFP_D_16_to_31
                0x02049360                __gnu_Unwind_Restore_WMMXD
                0x020493a4                __gnu_Unwind_Save_WMMXD
                0x020493e8                __gnu_Unwind_Restore_WMMXC
                0x020493fc                __gnu_Unwind_Save_WMMXC
                0x02049410                ___Unwind_RaiseException
                0x02049410                _Unwind_RaiseException
                0x02049434                _Unwind_Resume
                0x02049434                ___Unwind_Resume
                0x02049458                _Unwind_Resume_or_Rethrow
                0x02049458                ___Unwind_Resume_or_Rethrow
                0x0204947c                _Unwind_ForcedUnwind
                0x0204947c                ___Unwind_ForcedUnwind
                0x020494a0                ___Unwind_Backtrace
                0x020494a0                _Unwind_Backtrace
 .text          0x020494c4      0x554 d:/devkitpro/devkitarm/bin/../lib/gcc/arm-eabi/4.5.1\libgcc.a(pr-support.o)
                0x02049564                __gnu_unwind_execute
                0x0204998c                __gnu_unwind_frame
                0x020499d4                _Unwind_GetRegionStart
                0x020499e8                _Unwind_GetLanguageSpecificData
                0x02049a08                _Unwind_GetDataRelBase
                0x02049a10                _Unwind_GetTextRelBase
 .text          0x02049a18      0x4b8 d:/devkitpro/devkitarm/bin/../lib/gcc/arm-eabi/4.5.1\libgcc.a(_divdi3.o)
                0x02049a18                __divdi3
 .text          0x02049ed0      0x44c d:/devkitpro/devkitarm/bin/../lib/gcc/arm-eabi/4.5.1\libgcc.a(_udivdi3.o)
                0x02049ed0                __udivdi3
 .text          0x0204a31c       0x48 d:/devkitpro/devkitarm/bin/../lib/gcc/arm-eabi/4.5.1\libgcc.a(_clzsi2.o)
                0x0204a31c                __clzsi2
 .text          0x0204a364        0x0 d:/devkitpro/devkitarm/bin/../lib/gcc/arm-eabi/4.5.1/crtend.o
 .text          0x0204a364        0x0 d:/devkitpro/devkitarm/bin/../lib/gcc/arm-eabi/4.5.1/crtn.o
 *fill*         0x0204a364        0x4 ff
 .text.stub     0x0204a368        0x8 linker stubs
 *(.text.*)
 *(.stub)
 *(.gnu.warning)
 *(.gnu.linkonce.t*)
 *(.glue_7)
 .glue_7        0x00000000        0x0 linker stubs
 *(.glue_7t)
 .glue_7t       0x00000000        0x0 linker stubs
                0x0204a370                . = ALIGN (0x4)

.vfp11_veneer   0x00000000        0x0 load address 0x0204a370
 .vfp11_veneer  0x00000000        0x0 linker stubs

.v4_bx          0x00000000        0x0 load address 0x0204a370
 .v4_bx         0x00000000        0x0 linker stubs

.fini           0x0204a370       0x18
 *(.fini)
 .fini          0x0204a370        0xc d:/devkitpro/devkitarm/bin/../lib/gcc/arm-eabi/4.5.1/crti.o
                0x0204a370                _fini
 .fini          0x0204a37c        0xc d:/devkitpro/devkitarm/bin/../lib/gcc/arm-eabi/4.5.1/crtn.o
                0x0204a388                __text_end = .

.rodata         0x0204a388    0x1af78
 *(.rodata)
 .rodata        0x0204a388     0x3bc8 roll.png.o
                0x0204a388                roll_png
                0x0204df4b                roll_png_end
                0x0204df4c                roll_png_size
 .rodata        0x0204df50       0x18 main.o
 .rodata        0x0204df68       0x48 d:/devkitPro/libnds/lib\libul.a(drawing.o)
                0x0204df68                ul_pixelSizes
                0x0204df74                ul_pixelWidth
                0x0204df98                ul_paletteSizes
                0x0204dfa4                ul_pixelsPerByte
 .rodata        0x0204dfb0      0x810 d:/devkitPro/libnds/lib\libul.a(text.o)
                0x0204dfc0                ul_lcdFont_data
 .rodata        0x0204e7c0     0x246c d:/devkitPro/libnds/lib\libul.a(ulShowSplashScreen1.o)
                0x0204e7c0                ul_logo_msk
                0x0204efa8                ul_logo_base
                0x0204fb9c                ul_logo
                0x020506b8                ul_circle_mask
                0x02050c1c                ul_circle_mask_size
                0x02050c20                ul_logo_size
                0x02050c24                ul_logo_base_size
                0x02050c28                ul_logo_msk_size
 .rodata        0x02050c2c     0xa62c d:/devkitPro/libnds/lib\libul.a(ulShowSplashScreen2.o)
                0x02050c2c                ul_neoflashlogo
                0x0205b254                ul_neoflashlogo_size
 .rodata        0x0205b258      0x1a0 d:/devkitPro/libnds/lib\libul.a(gba-jpeg-decode.o)
                0x0205b258                JPEG_ToZigZag
                0x0205b298                JPEG_ComponentRange
                0x0205b2f8                JPEG_AANScaleFactor
 .rodata        0x0205b3f8       0x10 d:/devkitPro/libnds/lib\libul.a(libLoadGif.o)
                0x0205b3f8                InterlacedOffset
                0x0205b400                InterlacedJumps
 .rodata        0x0205b408       0x1c d:/devkitPro/libnds/lib\libul.a(dgif_lib.o)
 .rodata        0x0205b424       0xfc d:/devkitPro/libnds/lib\libpng.a(png.o)
                0x0205b424                png_libpng_ver
                0x0205b436                png_sig
                0x0205b440                png_pass_start
                0x0205b45c                png_pass_inc
                0x0205b478                png_pass_ystart
                0x0205b494                png_pass_yinc
                0x0205b4b0                png_pass_mask
                0x0205b4cc                png_pass_dsp_mask
 .rodata        0x0205b520       0x24 d:/devkitPro/libnds/lib\libpng.a(pngrtran.o)
 .rodata        0x0205b544       0x1f d:/devkitPro/libnds/lib\libpng.a(pngrutil.o)
 .rodata        0x0205b563      0x300 d:/devkitPro/libnds/lib\libpng.a(pngtrans.o)
 *fill*         0x0205b863        0x1 ff
 .rodata        0x0205b864     0x2000 d:/devkitPro/libnds/lib\libz.a(crc32.o)
 .rodata        0x0205d864      0x8a6 d:/devkitPro/libnds/lib\libz.a(inflate.o)
 .rodata        0x0205e10a      0x12c d:/devkitPro/libnds/lib\libz.a(inftrees.o)
                0x0205e10a                inflate_copyright
 *fill*         0x0205e236        0x2 ff
 .rodata        0x0205e238       0x28 d:/devkitPro/libnds/lib\libz.a(zutil.o)
                0x0205e238                z_errmsg
 .rodata        0x0205e260       0x64 d:/devkitPro/libnds/lib\libfat.a(libfat.o)
 .rodata        0x0205e2c4        0xc d:/devkitPro/libnds/lib\libfat.a(partition.o)
 .rodata        0x0205e2d0       0x54 d:/devkitPro/libnds/lib\libfat.a(directory.o)
 .rodata        0x0205e324       0x18 d:/devkitPro/libnds/lib\libfat.a(disc.o)
                0x0205e324                _FAT_disc_interfaces
 .rodata        0x0205e33c      0x200 d:/devkitPro/libnds/lib\libnds9.a(console.o)
 .rodata        0x0205e53c      0x308 d:/devkitPro/libnds/lib\libnds9.a(trig.o)
                0x0205e53c                SIN_LUT
                0x0205e640                TAN_LUT
 .rodata        0x0205e844       0x68 d:/devkitPro/libnds/lib\libnds9.a(videoGL.o)
 .rodata        0x0205e8ac        0xc d:/devkitPro/libnds/lib\libnds9.a(dldi.o)
                0x0205e8ac                DLDI_MAGIC_STRING_BACKWARDS
                0x0205e8b4                DLDI_MAGIC_NUMBER
 .rodata        0x0205e8b8       0x20 d:/devkitPro/libnds/lib\libnds9.a(dsi_sd.o)
                0x0205e8b8                __io_dsisd
 .rodata        0x0205e8d8     0x2004 d:/devkitPro/libnds/lib\libnds9.a(default_font.bin.o)
                0x0205e8d8                default_font_bin
                0x020608d8                default_font_bin_size
                0x020608d8                default_font_bin_end
 *fill*         0x020608dc        0x4 ff
 .rodata        0x020608e0       0x30 d:/devkitpro/devkitarm/bin/../lib/gcc/arm-eabi/4.5.1/../../../../arm-eabi/lib\libm.a(lib_a-e_pow.o)
 .rodata        0x02060910      0x188 d:/devkitpro/devkitarm/bin/../lib/gcc/arm-eabi/4.5.1/../../../../arm-eabi/lib\libm.a(lib_a-e_rem_pio2.o)
 .rodata        0x02060a98       0x50 d:/devkitpro/devkitarm/bin/../lib/gcc/arm-eabi/4.5.1/../../../../arm-eabi/lib\libm.a(lib_a-k_rem_pio2.o)
 .rodata        0x02060ae8       0x10 d:/devkitpro/devkitarm/bin/../lib/gcc/arm-eabi/4.5.1/../../../../arm-eabi/lib\libm.a(lib_a-s_rint.o)
 .rodata        0x02060af8        0x4 d:/devkitpro/devkitarm/bin/../lib/gcc/arm-eabi/4.5.1/../../../../arm-eabi/lib\libg.a(lib_a-impure.o)
                0x02060af8                _global_impure_ptr
 .rodata        0x02060afc       0x54 d:/devkitpro/devkitarm/bin/../lib/gcc/arm-eabi/4.5.1/../../../../arm-eabi/lib\libg.a(lib_a-locale.o)
 .rodata        0x02060b50       0x90 d:/devkitpro/devkitarm/bin/../lib/gcc/arm-eabi/4.5.1/../../../../arm-eabi/lib\libg.a(lib_a-mbtowc_r.o)
 .rodata        0x02060be0       0x60 d:/devkitpro/devkitarm/bin/../lib/gcc/arm-eabi/4.5.1/../../../../arm-eabi/lib\libg.a(lib_a-mktime.o)
 .rodata        0x02060c40       0x68 d:/devkitpro/devkitarm/bin/../lib/gcc/arm-eabi/4.5.1/../../../../arm-eabi/lib\libg.a(lib_a-mktm_r.o)
 .rodata        0x02060ca8       0x28 d:/devkitpro/devkitarm/bin/../lib/gcc/arm-eabi/4.5.1/../../../../arm-eabi/lib\libg.a(lib_a-strtod.o)
 .rodata        0x02060cd0       0x24 d:/devkitpro/devkitarm/bin/../lib/gcc/arm-eabi/4.5.1/../../../../arm-eabi/lib\libg.a(lib_a-svfiscanf.o)
 .rodata        0x02060cf4       0x20 d:/devkitpro/devkitarm/bin/../lib/gcc/arm-eabi/4.5.1/../../../../arm-eabi/lib\libg.a(lib_a-svfprintf.o)
 .rodata        0x02060d14      0x1c0 d:/devkitpro/devkitarm/bin/../lib/gcc/arm-eabi/4.5.1/../../../../arm-eabi/lib\libg.a(lib_a-towlower.o)
 .rodata        0x02060ed4      0x210 d:/devkitpro/devkitarm/bin/../lib/gcc/arm-eabi/4.5.1/../../../../arm-eabi/lib\libg.a(lib_a-towupper.o)
 .rodata        0x020610e4       0x20 d:/devkitpro/devkitarm/bin/../lib/gcc/arm-eabi/4.5.1/../../../../arm-eabi/lib\libg.a(lib_a-vfiprintf.o)
 .rodata        0x02061104       0x20 d:/devkitpro/devkitarm/bin/../lib/gcc/arm-eabi/4.5.1/../../../../arm-eabi/lib\libg.a(lib_a-vfprintf.o)
 .rodata        0x02061124      0x104 d:/devkitpro/devkitarm/bin/../lib/gcc/arm-eabi/4.5.1/../../../../arm-eabi/lib\libg.a(lib_a-ctype_.o)
                0x02061124                _ctype_
 .rodata        0x02061228     0x34d0 d:/devkitpro/devkitarm/bin/../lib/gcc/arm-eabi/4.5.1/../../../../arm-eabi/lib\libg.a(lib_a-jp2uc.o)
 .rodata        0x020646f8      0x128 d:/devkitpro/devkitarm/bin/../lib/gcc/arm-eabi/4.5.1/../../../../arm-eabi/lib\libg.a(lib_a-mprec.o)
                0x02064708                __mprec_tens
                0x020647d0                __mprec_bigtens
                0x020647f8                __mprec_tinytens
 .rodata        0x02064820       0x20 d:/devkitpro/devkitarm/bin/../lib/gcc/arm-eabi/4.5.1/../../../../arm-eabi/lib\libg.a(lib_a-svfiprintf.o)
 .rodata        0x02064840       0x64 d:/devkitpro/devkitarm/bin/../lib/gcc/arm-eabi/4.5.1/../../../../arm-eabi/lib\libsysbase.a(iosupport.o)
                0x02064840                dotab_stdnull
 .rodata        0x020648a4        0xc d:/devkitpro/devkitarm/bin/../lib/gcc/arm-eabi/4.5.1/../../../../arm-eabi/lib\libsysbase.a(chdir.o)
                0x020648a4                DIRECTORY_PARENT
                0x020648a8                DIRECTORY_SEPARATOR
                0x020648ac                DIRECTORY_THIS
 *all.rodata*(*)
 *(.roda)
 *(.rodata.*)
 .rodata.str1.4
                0x020648b0      0x2b8 main.o
 .rodata.str1.4
                0x02064b68        0xc d:/devkitPro/libnds/lib\libul.a(text.o)
 .rodata.str1.1
                0x02064b74        0xa d:/devkitPro/libnds/lib\libul.a(vfsLibFat.o)
 *fill*         0x02064b7e        0x2 ff
 .rodata.str1.4
                0x02064b80       0x3f d:/devkitPro/libnds/lib\libul.a(ulShowSplashScreen1.o)
                                 0x40 (size before relaxing)
 .rodata.str1.1
                0x02064bbf        0x6 d:/devkitPro/libnds/lib\libul.a(libLoadPng.o)
 .rodata.str1.1
                0x02064bc5      0x117 d:/devkitPro/libnds/lib\libpng.a(png.o)
 .rodata.str1.1
                0x02064cdc       0x83 d:/devkitPro/libnds/lib\libpng.a(pngread.o)
 .rodata.str1.1
                0x02064d5f       0x25 d:/devkitPro/libnds/lib\libpng.a(pngrtran.o)
 .rodata.str1.1
                0x02064d84       0x48 d:/devkitPro/libnds/lib\libpng.a(pngerror.o)
 .rodata.str1.1
                0x02064dcc      0x119 d:/devkitPro/libnds/lib\libpng.a(pngrutil.o)
 .rodata.str1.1
                0x02064ee5      0x1a8 d:/devkitPro/libnds/lib\libz.a(inflate.o)
 .rodata.str1.1
                0x00000000       0x50 d:/devkitPro/libnds/lib\libz.a(inffast.o)
 .rodata.str1.1
                0x0206508d       0x74 d:/devkitPro/libnds/lib\libz.a(zutil.o)
                                 0x7b (size before relaxing)
 *fill*         0x02065101        0x3 ff
 .rodata.str1.4
                0x02065104       0x14 d:/devkitPro/libnds/lib\libfat.a(libfat.o)
 .rodata.str1.4
                0x02065118        0x7 d:/devkitPro/libnds/lib\libfat.a(directory.o)
                                  0x8 (size before relaxing)
 *fill*         0x0206511f        0x1 ff
 .rodata.str1.4
                0x02065120        0x3 d:/devkitPro/libnds/lib\libfat.a(disc.o)
                                  0x8 (size before relaxing)
 *fill*         0x02065123        0x1 ff
 .rodata.str1.4
                0x02065124        0x5 d:/devkitPro/libnds/lib\libfat.a(fatdir.o)
                                  0x8 (size before relaxing)
 *fill*         0x02065129        0x3 ff
 .rodata.str1.4
                0x0206512c       0x49 d:/devkitPro/libnds/lib\libnds9.a(console.o)
                                 0x4c (size before relaxing)
 *fill*         0x02065175        0x3 ff
 .rodata.str1.4
                0x02065178        0xd d:/devkitPro/libnds/lib\libnds9.a(gbfs.o)
                                 0x10 (size before relaxing)
 *fill*         0x02065185        0x3 ff
 .rodata.str1.4
                0x02065188        0x4 d:/devkitpro/devkitarm/bin/../lib/gcc/arm-eabi/4.5.1/../../../../arm-eabi/lib\libm.a(lib_a-w_pow.o)
 .rodata.str1.4
                0x00000000        0x4 d:/devkitpro/devkitarm/bin/../lib/gcc/arm-eabi/4.5.1/../../../../arm-eabi/lib\libm.a(lib_a-e_pow.o)
 .rodata.str1.4
                0x0206518c        0x2 d:/devkitpro/devkitarm/bin/../lib/gcc/arm-eabi/4.5.1/../../../../arm-eabi/lib\libg.a(lib_a-impure.o)
                                  0x4 (size before relaxing)
 *fill*         0x0206518e        0x2 ff
 .rodata.str1.4
                0x02065190       0xe4 d:/devkitpro/devkitarm/bin/../lib/gcc/arm-eabi/4.5.1/../../../../arm-eabi/lib\libg.a(lib_a-locale.o)
                                 0xf0 (size before relaxing)
 .rodata.str1.4
                0x00000000        0x4 d:/devkitpro/devkitarm/bin/../lib/gcc/arm-eabi/4.5.1/../../../../arm-eabi/lib\libg.a(lib_a-mbrtowc.o)
 .rodata.str1.4
                0x02065274        0xf d:/devkitpro/devkitarm/bin/../lib/gcc/arm-eabi/4.5.1/../../../../arm-eabi/lib\libg.a(lib_a-strtod.o)
                                 0x10 (size before relaxing)
 *fill*         0x02065283        0x1 ff
 .rodata.str1.4
                0x02065284       0x42 d:/devkitpro/devkitarm/bin/../lib/gcc/arm-eabi/4.5.1/../../../../arm-eabi/lib\libg.a(lib_a-svfprintf.o)
                                 0x44 (size before relaxing)
 *fill*         0x020652c6        0x2 ff
 .rodata.str1.4
                0x020652c8        0x4 d:/devkitpro/devkitarm/bin/../lib/gcc/arm-eabi/4.5.1/../../../../arm-eabi/lib\libg.a(lib_a-tzvars.o)
 .rodata.str1.4
                0x00000000       0x30 d:/devkitpro/devkitarm/bin/../lib/gcc/arm-eabi/4.5.1/../../../../arm-eabi/lib\libg.a(lib_a-vfiprintf.o)
 .rodata.str1.4
                0x00000000       0x44 d:/devkitpro/devkitarm/bin/../lib/gcc/arm-eabi/4.5.1/../../../../arm-eabi/lib\libg.a(lib_a-vfprintf.o)
 .rodata.str1.4
                0x020652cc       0x10 d:/devkitpro/devkitarm/bin/../lib/gcc/arm-eabi/4.5.1/../../../../arm-eabi/lib\libg.a(lib_a-dtoa.o)
                                 0x14 (size before relaxing)
 .rodata.str1.4
                0x020652dc       0x1b d:/devkitpro/devkitarm/bin/../lib/gcc/arm-eabi/4.5.1/../../../../arm-eabi/lib\libg.a(lib_a-gdtoa-gethex.o)
                                 0x1c (size before relaxing)
 .rodata.str1.4
                0x00000000       0x14 d:/devkitpro/devkitarm/bin/../lib/gcc/arm-eabi/4.5.1/../../../../arm-eabi/lib\libg.a(lib_a-jp2uc.o)
 .rodata.str1.4
                0x00000000       0x30 d:/devkitpro/devkitarm/bin/../lib/gcc/arm-eabi/4.5.1/../../../../arm-eabi/lib\libg.a(lib_a-svfiprintf.o)
 *fill*         0x020652f7        0x1 ff
 .rodata.str1.4
                0x020652f8        0x8 d:/devkitpro/devkitarm/bin/../lib/gcc/arm-eabi/4.5.1/../../../../arm-eabi/lib\libsysbase.a(iosupport.o)
 *(.gnu.linkonce.r*)
                0x02065300                . = ALIGN (0x4)

.ARM.extab      0x02065300       0x30
 *(.ARM.extab* .gnu.linkonce.armextab.*)
 .ARM.extab     0x02065300        0x0 d:/devkitpro/devkitarm/bin/../lib/gcc/arm-eabi/4.5.1\libgcc.a(bpabi.o)
 .ARM.extab     0x02065300       0x18 d:/devkitpro/devkitarm/bin/../lib/gcc/arm-eabi/4.5.1\libgcc.a(unwind-arm.o)
 .ARM.extab     0x02065318       0x18 d:/devkitpro/devkitarm/bin/../lib/gcc/arm-eabi/4.5.1\libgcc.a(pr-support.o)
 .ARM.extab     0x02065330        0x0 d:/devkitpro/devkitarm/bin/../lib/gcc/arm-eabi/4.5.1\libgcc.a(_divdi3.o)
 .ARM.extab     0x02065330        0x0 d:/devkitpro/devkitarm/bin/../lib/gcc/arm-eabi/4.5.1\libgcc.a(_udivdi3.o)
                0x02065330                __exidx_start = .

.ARM.exidx      0x02065330       0xe0
 *(.ARM.exidx* .gnu.linkonce.armexidx.*)
 .ARM.exidx     0x02065330        0x8 d:/devkitpro/devkitarm/bin/../lib/gcc/arm-eabi/4.5.1\libgcc.a(bpabi.o)
                                 0x10 (size before relaxing)
 .ARM.exidx     0x02065338       0x88 d:/devkitpro/devkitarm/bin/../lib/gcc/arm-eabi/4.5.1\libgcc.a(unwind-arm.o)
                                 0xc0 (size before relaxing)
 .ARM.exidx     0x020653c0       0x38 d:/devkitpro/devkitarm/bin/../lib/gcc/arm-eabi/4.5.1\libgcc.a(pr-support.o)
                                 0x48 (size before relaxing)
 .ARM.exidx     0x020653f8        0x8 d:/devkitpro/devkitarm/bin/../lib/gcc/arm-eabi/4.5.1\libgcc.a(_divdi3.o)
 .ARM.exidx     0x02065400       0x10 d:/devkitpro/devkitarm/bin/../lib/gcc/arm-eabi/4.5.1\libgcc.a(_udivdi3.o)
                                  0x8 (size before relaxing)
                0x02065410                __exidx_end = .
                0x02065410                . = ALIGN (0x4)
                0x02065410                PROVIDE (__preinit_array_start, .)

.preinit_array
 *(.preinit_array)
                0x02065410                PROVIDE (__preinit_array_end, .)
                0x02065410                PROVIDE (__init_array_start, .)

.init_array     0x02065410        0x4
 *(SORT(.init_array.*))
 *(.init_array)
 .init_array    0x02065410        0x4 d:/devkitpro/devkitarm/bin/../lib/gcc/arm-eabi/4.5.1/crtbegin.o
                0x02065414                PROVIDE (__init_array_end, .)
                0x02065414                PROVIDE (__fini_array_start, .)

.fini_array     0x02065414        0x4
 *(.fini_array)
 .fini_array    0x02065414        0x4 d:/devkitpro/devkitarm/bin/../lib/gcc/arm-eabi/4.5.1/crtbegin.o
 *(SORT(.fini_array.*))
                0x02065418                PROVIDE (__fini_array_end, .)

.ctors          0x02065418        0x0
 *crtbegin.o(.ctors)
 *(EXCLUDE_FILE(*crtend.o) .ctors)
 *(SORT(.ctors.*))
 *(.ctors)
                0x02065418                . = ALIGN (0x4)

.dtors          0x02065418        0x0
 *crtbegin.o(.dtors)
 *(EXCLUDE_FILE(*crtend.o) .dtors)
 *(SORT(.dtors.*))
 *(.dtors)
                0x02065418                . = ALIGN (0x4)

.eh_frame       0x02065418        0x4
 *(.eh_frame)
 .eh_frame      0x02065418        0x0 d:/devkitpro/devkitarm/bin/../lib/gcc/arm-eabi/4.5.1/crtbegin.o
 .eh_frame      0x02065418        0x4 d:/devkitpro/devkitarm/bin/../lib/gcc/arm-eabi/4.5.1/crtend.o
                0x0206541c                . = ALIGN (0x4)

.gcc_except_table
                0x0206541c        0x0
 *(.gcc_except_table)
                0x0206541c                . = ALIGN (0x4)

.jcr            0x0206541c        0x4
 *(.jcr)
 .jcr           0x0206541c        0x0 d:/devkitpro/devkitarm/bin/../lib/gcc/arm-eabi/4.5.1/crtbegin.o
 .jcr           0x0206541c        0x4 d:/devkitpro/devkitarm/bin/../lib/gcc/arm-eabi/4.5.1/crtend.o

.got
 *(.got.plt)
 *(.got)
 *(.rel.got)

.ewram          0x02065420        0x0
                0x02065420                __ewram_start = ABSOLUTE (.)
 *(.ewram)
 *ewram.*(.text)
                0x02065420                . = ALIGN (0x4)

.data           0x02065420     0x10b0
                0x02065420                __data_start = ABSOLUTE (.)
 *(.data)
 .data          0x02065420        0x0 d:/devkitpro/devkitarm/bin/../lib/gcc/arm-eabi/4.5.1/../../../../arm-eabi/lib/ds_arm9_crt0.o
 .data          0x02065420        0x0 d:/devkitpro/devkitarm/bin/../lib/gcc/arm-eabi/4.5.1/crti.o
 .data          0x02065420        0x4 d:/devkitpro/devkitarm/bin/../lib/gcc/arm-eabi/4.5.1/crtbegin.o
                0x02065420                __dso_handle
 .data          0x02065424        0x0 roll.png.o
 .data          0x02065424       0x10 main.o
                0x02065424                ram_names
 .data          0x02065434        0x0 d:/devkitPro/libnds/lib\libul.a(ulib.o)
 .data          0x02065434        0x0 d:/devkitPro/libnds/lib\libul.a(drawing.o)
 .data          0x02065434       0x28 d:/devkitPro/libnds/lib\libul.a(text.o)
                0x02065434                ul_curTextColor
                0x02065438                ul_lcdFontInfo
 .data          0x0206545c       0x2c d:/devkitPro/libnds/lib\libul.a(VirtualFile.o)
                0x0206545c                VF_MEMORY
                0x02065460                vfsMemory
 .data          0x02065488       0x2c d:/devkitPro/libnds/lib\libul.a(vfsLibFat.o)
                0x02065488                vfsFatLib
                0x020654b0                VF_FILE
 .data          0x020654b4       0x2c d:/devkitPro/libnds/lib\libul.a(vfsGBFS.o)
                0x020654b4                vfsGBFS
                0x020654dc                VF_GBFS
 .data          0x020654e0       0x10 d:/devkitPro/libnds/lib\libul.a(texVramManager.o)
                0x020654e0                ul_texVramSize
                0x020654e4                ul_optimizeTextureSize
                0x020654e8                ul_texVramBase
                0x020654ec                ul_texVramBanks
                0x020654ee                ul_initTexturesToZero
 .data          0x020654f0        0xc d:/devkitPro/libnds/lib\libul.a(texPalManager.o)
                0x020654f0                ul_texPalVramSize
                0x020654f4                ul_texPalVramBanks
                0x020654f8                ul_texPalVramBase
 .data          0x020654fc       0x28 d:/devkitPro/libnds/lib\libul.a(keys.o)
                0x020654fc                ul_keys
 .data          0x02065524        0x0 d:/devkitPro/libnds/lib\libul.a(ulDrawImage.o)
 .data          0x02065524        0x0 d:/devkitPro/libnds/lib\libul.a(ulCreateImagePalette.o)
 .data          0x02065524        0x0 d:/devkitPro/libnds/lib\libul.a(ulDrawGradientRect.o)
 .data          0x02065524        0x0 d:/devkitPro/libnds/lib\libul.a(messagebox.o)
 .data          0x02065524        0x0 d:/devkitPro/libnds/lib\libul.a(textSize.o)
 .data          0x02065524        0x4 d:/devkitPro/libnds/lib\libul.a(loading_utility.o)
                0x02065524                ul_loadUtilActiveSource
 .data          0x02065528        0x0 d:/devkitPro/libnds/lib\libul.a(ulLoadImageFilePNG.o)
 .data          0x02065528        0x0 d:/devkitPro/libnds/lib\libul.a(ulLoadImageFileJPG.o)
 .data          0x02065528        0x0 d:/devkitPro/libnds/lib\libul.a(ulShowSplashScreen1.o)
 .data          0x02065528        0x0 d:/devkitPro/libnds/lib\libul.a(ulShowSplashScreen2.o)
 .data          0x02065528        0x0 d:/devkitPro/libnds/lib\libul.a(glWrapper.o)
 .data          0x02065528        0x0 d:/devkitPro/libnds/lib\libul.a(libLoadPng.o)
 .data          0x02065528        0x0 d:/devkitPro/libnds/lib\libul.a(libLoadJpg.o)
 .data          0x02065528        0x0 d:/devkitPro/libnds/lib\libul.a(ulDrawFillRect.o)
 .data          0x02065528        0x0 d:/devkitPro/libnds/lib\libul.a(ulDrawLine.o)
 .data          0x02065528        0x0 d:/devkitPro/libnds/lib\libul.a(ulDrawRect.o)
 .data          0x02065528        0x0 d:/devkitPro/libnds/lib\libul.a(ulSetImagePixel.o)
 .data          0x02065528        0x0 d:/devkitPro/libnds/lib\libul.a(ulGetImagePixel.o)
 .data          0x02065528        0x0 d:/devkitPro/libnds/lib\libul.a(ulLoadImageFileGIF.o)
 .data          0x02065528        0x0 d:/devkitPro/libnds/lib\libul.a(ulReadEntireFileToMemory.o)
 .data          0x02065528        0x0 d:/devkitPro/libnds/lib\libul.a(gba-jpeg-decode.o)
 .data          0x02065528        0x0 d:/devkitPro/libnds/lib\libul.a(libLoadGif.o)
 .data          0x02065528        0x0 d:/devkitPro/libnds/lib\libul.a(dgif_lib.o)
 .data          0x02065528        0x0 d:/devkitPro/libnds/lib\libul.a(gif_err.o)
 .data          0x02065528        0x0 d:/devkitPro/libnds/lib\libul.a(gifalloc.o)
 .data          0x02065528       0x69 d:/devkitPro/libnds/lib\libpng.a(png.o)
                0x02065528                png_IHDR
                0x0206552d                png_IDAT
                0x02065532                png_IEND
                0x02065537                png_PLTE
                0x0206553c                png_bKGD
                0x02065541                png_cHRM
                0x02065546                png_gAMA
                0x0206554b                png_hIST
                0x02065550                png_iCCP
                0x02065555                png_iTXt
                0x0206555a                png_oFFs
                0x0206555f                png_pCAL
                0x02065564                png_sCAL
                0x02065569                png_pHYs
                0x0206556e                png_sBIT
                0x02065573                png_sPLT
                0x02065578                png_sRGB
                0x0206557d                png_tEXt
                0x02065582                png_tIME
                0x02065587                png_tRNS
                0x0206558c                png_zTXt
 .data          0x02065591        0x0 d:/devkitPro/libnds/lib\libpng.a(pngread.o)
 .data          0x02065591        0x0 d:/devkitPro/libnds/lib\libpng.a(pngrio.o)
 .data          0x02065591        0x0 d:/devkitPro/libnds/lib\libpng.a(pngrtran.o)
 .data          0x02065591        0x0 d:/devkitPro/libnds/lib\libpng.a(pngmem.o)
 .data          0x02065591        0x0 d:/devkitPro/libnds/lib\libpng.a(pngerror.o)
 .data          0x02065591        0x0 d:/devkitPro/libnds/lib\libpng.a(pngget.o)
 .data          0x02065591        0x0 d:/devkitPro/libnds/lib\libpng.a(pngrutil.o)
 .data          0x02065591        0x0 d:/devkitPro/libnds/lib\libpng.a(pngtrans.o)
 .data          0x02065591        0x0 d:/devkitPro/libnds/lib\libpng.a(pngset.o)
 .data          0x02065591        0x0 d:/devkitPro/libnds/lib\libz.a(crc32.o)
 .data          0x02065591        0x0 d:/devkitPro/libnds/lib\libz.a(inflate.o)
 .data          0x02065591        0x0 d:/devkitPro/libnds/lib\libz.a(inftrees.o)
 .data          0x02065591        0x0 d:/devkitPro/libnds/lib\libz.a(inffast.o)
 .data          0x02065591        0x0 d:/devkitPro/libnds/lib\libz.a(adler32.o)
 .data          0x02065591        0x0 d:/devkitPro/libnds/lib\libz.a(zutil.o)
 .data          0x02065591        0x0 d:/devkitPro/libnds/lib\libfat.a(libfat.o)
 .data          0x02065591        0x0 d:/devkitPro/libnds/lib\libfat.a(partition.o)
 .data          0x02065591        0x0 d:/devkitPro/libnds/lib\libfat.a(cache.o)
 .data          0x02065591        0x0 d:/devkitPro/libnds/lib\libfat.a(directory.o)
 .data          0x02065591        0x0 d:/devkitPro/libnds/lib\libfat.a(disc.o)
 .data          0x02065591        0x0 d:/devkitPro/libnds/lib\libfat.a(fatdir.o)
 .data          0x02065591        0x0 d:/devkitPro/libnds/lib\libfat.a(fatfile.o)
 .data          0x02065591        0x0 d:/devkitPro/libnds/lib\libfat.a(file_allocation_table.o)
 .data          0x02065591        0x0 d:/devkitPro/libnds/lib\libfat.a(filetime.o)
 .data          0x02065591        0x0 d:/devkitPro/libnds/lib\libfat.a(lock.o)
 *fill*         0x02065591        0x3 ff
 .data          0x02065594       0x64 d:/devkitPro/libnds/lib\libnds9.a(console.o)
                0x02065594                currentConsole
                0x02065598                defaultConsole
 .data          0x020655f8        0x0 d:/devkitPro/libnds/lib\libnds9.a(dynamicArray.o)
 .data          0x020655f8        0x3 d:/devkitPro/libnds/lib\libnds9.a(keys.o)
 .data          0x020655fb        0x0 d:/devkitPro/libnds/lib\libnds9.a(system.o)
 .data          0x020655fb        0x0 d:/devkitPro/libnds/lib\libnds9.a(touch.o)
 .data          0x020655fb        0x0 d:/devkitPro/libnds/lib\libnds9.a(trig.o)
 *fill*         0x020655fb        0x1 ff
 .data          0x020655fc        0x4 d:/devkitPro/libnds/lib\libnds9.a(videoGL.o)
 .data          0x02065600        0x4 d:/devkitPro/libnds/lib\libnds9.a(dldi.o)
                0x02065600                io_dldi_data
 .data          0x02065604        0x0 d:/devkitPro/libnds/lib\libnds9.a(dsi_sd.o)
 .data          0x02065604        0x0 d:/devkitPro/libnds/lib\libnds9.a(initSystem.o)
 .data          0x02065604       0x10 d:/devkitPro/libnds/lib\libnds9.a(fifosystem.o)
                0x02065604                fifo_freewords
                0x02065608                fifo_buffer_free
                0x0206560c                fifo_send_queue
                0x02065610                fifo_receive_queue
 .data          0x02065614       0x10 d:/devkitPro/libnds/lib\libnds9.a(gbfs.o)
 .data          0x02065624        0x0 d:/devkitPro/libnds/lib\libnds9.a(interrupts.o)
 .data          0x02065624        0x0 d:/devkitPro/libnds/lib\libnds9.a(libnds_exit.o)
 .data          0x02065624        0x0 d:/devkitPro/libnds/lib\libnds9.a(dcache.o)
 .data          0x02065624        0x0 d:/devkitPro/libnds/lib\libnds9.a(dldi_stub.o)
 .data          0x02065624        0x0 d:/devkitPro/libnds/lib\libnds9.a(mpu_setup.o)
 .data          0x02065624        0x0 d:/devkitPro/libnds/lib\libnds9.a(biosCalls.o)
 .data          0x02065624        0x0 d:/devkitPro/libnds/lib\libnds9.a(debugprint.o)
 .data          0x02065624        0x0 d:/devkitPro/libnds/lib\libnds9.a(interruptDispatcher.o)
 .data          0x02065624        0x0 d:/devkitPro/libnds/lib\libnds9.a(swiSoftReset.o)
 .data          0x02065624        0x0 d:/devkitPro/libnds/lib\libnds9.a(default_font.bin.o)
 .data          0x02065624       0x60 d:/devkitPro/libnds/lib\libnds9.a(background.o)
                0x02065624                bgScrollTable
                0x02065644                bgTransform
                0x02065664                bgControl
 .data          0x02065684        0x0 d:/devkitPro/libnds/lib\libnds9.a(video.o)
 .data          0x02065684        0x0 d:/devkitpro/devkitarm/bin/../lib/gcc/arm-eabi/4.5.1/../../../../arm-eabi/lib\libm.a(lib_a-s_cos.o)
 .data          0x02065684        0x0 d:/devkitpro/devkitarm/bin/../lib/gcc/arm-eabi/4.5.1/../../../../arm-eabi/lib\libm.a(lib_a-s_sin.o)
 .data          0x02065684        0x0 d:/devkitpro/devkitarm/bin/../lib/gcc/arm-eabi/4.5.1/../../../../arm-eabi/lib\libm.a(lib_a-w_pow.o)
 .data          0x02065684        0x0 d:/devkitpro/devkitarm/bin/../lib/gcc/arm-eabi/4.5.1/../../../../arm-eabi/lib\libm.a(lib_a-e_pow.o)
 .data          0x02065684        0x0 d:/devkitpro/devkitarm/bin/../lib/gcc/arm-eabi/4.5.1/../../../../arm-eabi/lib\libm.a(lib_a-e_rem_pio2.o)
 .data          0x02065684        0x0 d:/devkitpro/devkitarm/bin/../lib/gcc/arm-eabi/4.5.1/../../../../arm-eabi/lib\libm.a(lib_a-e_sqrt.o)
 .data          0x02065684        0x0 d:/devkitpro/devkitarm/bin/../lib/gcc/arm-eabi/4.5.1/../../../../arm-eabi/lib\libm.a(lib_a-k_cos.o)
 .data          0x02065684        0x0 d:/devkitpro/devkitarm/bin/../lib/gcc/arm-eabi/4.5.1/../../../../arm-eabi/lib\libm.a(lib_a-k_rem_pio2.o)
 .data          0x02065684        0x0 d:/devkitpro/devkitarm/bin/../lib/gcc/arm-eabi/4.5.1/../../../../arm-eabi/lib\libm.a(lib_a-k_sin.o)
 .data          0x02065684        0x0 d:/devkitpro/devkitarm/bin/../lib/gcc/arm-eabi/4.5.1/../../../../arm-eabi/lib\libm.a(lib_a-s_fabs.o)
 .data          0x02065684        0x0 d:/devkitpro/devkitarm/bin/../lib/gcc/arm-eabi/4.5.1/../../../../arm-eabi/lib\libm.a(lib_a-s_finite.o)
 .data          0x02065684        0x0 d:/devkitpro/devkitarm/bin/../lib/gcc/arm-eabi/4.5.1/../../../../arm-eabi/lib\libm.a(lib_a-s_floor.o)
 .data          0x02065684        0x0 d:/devkitpro/devkitarm/bin/../lib/gcc/arm-eabi/4.5.1/../../../../arm-eabi/lib\libm.a(lib_a-s_fpclassify.o)
 .data          0x02065684        0x1 d:/devkitpro/devkitarm/bin/../lib/gcc/arm-eabi/4.5.1/../../../../arm-eabi/lib\libm.a(lib_a-s_lib_ver.o)
                0x02065684                __fdlib_version
 .data          0x02065685        0x0 d:/devkitpro/devkitarm/bin/../lib/gcc/arm-eabi/4.5.1/../../../../arm-eabi/lib\libm.a(lib_a-s_matherr.o)
 .data          0x02065685        0x0 d:/devkitpro/devkitarm/bin/../lib/gcc/arm-eabi/4.5.1/../../../../arm-eabi/lib\libm.a(lib_a-s_nan.o)
 .data          0x02065685        0x0 d:/devkitpro/devkitarm/bin/../lib/gcc/arm-eabi/4.5.1/../../../../arm-eabi/lib\libm.a(lib_a-s_rint.o)
 .data          0x02065685        0x0 d:/devkitpro/devkitarm/bin/../lib/gcc/arm-eabi/4.5.1/../../../../arm-eabi/lib\libm.a(lib_a-s_scalbn.o)
 .data          0x02065685        0x0 d:/devkitpro/devkitarm/bin/../lib/gcc/arm-eabi/4.5.1/../../../../arm-eabi/lib\libm.a(lib_a-s_copysign.o)
 .data          0x02065685        0x0 d:/devkitpro/devkitarm/bin/../lib/gcc/arm-eabi/4.5.1\libgcc.a(_udivsi3.o)
 .data          0x02065685        0x0 d:/devkitpro/devkitarm/bin/../lib/gcc/arm-eabi/4.5.1\libgcc.a(_divsi3.o)
 .data          0x02065685        0x0 d:/devkitpro/devkitarm/bin/../lib/gcc/arm-eabi/4.5.1\libgcc.a(_dvmd_tls.o)
 .data          0x02065685        0x0 d:/devkitpro/devkitarm/bin/../lib/gcc/arm-eabi/4.5.1\libgcc.a(_arm_addsubdf3.o)
 .data          0x02065685        0x0 d:/devkitpro/devkitarm/bin/../lib/gcc/arm-eabi/4.5.1\libgcc.a(_arm_muldivdf3.o)
 .data          0x02065685        0x0 d:/devkitpro/devkitarm/bin/../lib/gcc/arm-eabi/4.5.1\libgcc.a(_arm_cmpdf2.o)
 .data          0x02065685        0x0 d:/devkitpro/devkitarm/bin/../lib/gcc/arm-eabi/4.5.1\libgcc.a(_arm_fixdfsi.o)
 .data          0x02065685        0x0 d:/devkitpro/devkitarm/bin/../lib/gcc/arm-eabi/4.5.1\libgcc.a(_arm_fixunsdfsi.o)
 .data          0x02065685        0x0 d:/devkitpro/devkitarm/bin/../lib/gcc/arm-eabi/4.5.1\libgcc.a(_arm_truncdfsf2.o)
 .data          0x02065685        0x0 d:/devkitpro/devkitarm/bin/../lib/gcc/arm-eabi/4.5.1\libgcc.a(_arm_addsubsf3.o)
 .data          0x02065685        0x0 d:/devkitpro/devkitarm/bin/../lib/gcc/arm-eabi/4.5.1\libgcc.a(_arm_muldivsf3.o)
 .data          0x02065685        0x0 d:/devkitpro/devkitarm/bin/../lib/gcc/arm-eabi/4.5.1\libgcc.a(_arm_cmpsf2.o)
 .data          0x02065685        0x0 d:/devkitpro/devkitarm/bin/../lib/gcc/arm-eabi/4.5.1\libgcc.a(_arm_fixsfsi.o)
 .data          0x02065685        0x0 d:/devkitpro/devkitarm/bin/../lib/gcc/arm-eabi/4.5.1\libgcc.a(_arm_fixunssfsi.o)
 .data          0x02065685        0x0 d:/devkitpro/devkitarm/bin/../lib/gcc/arm-eabi/4.5.1\libgcc.a(_muldi3.o)
 .data          0x02065685        0x0 d:/devkitpro/devkitarm/bin/../lib/gcc/arm-eabi/4.5.1/../../../../arm-eabi/lib\libg.a(lib_a-abort.o)
 .data          0x02065685        0x0 d:/devkitpro/devkitarm/bin/../lib/gcc/arm-eabi/4.5.1/../../../../arm-eabi/lib\libg.a(lib_a-bsearch.o)
 .data          0x02065685        0x0 d:/devkitpro/devkitarm/bin/../lib/gcc/arm-eabi/4.5.1/../../../../arm-eabi/lib\libg.a(lib_a-calloc.o)
 .data          0x02065685        0x0 d:/devkitpro/devkitarm/bin/../lib/gcc/arm-eabi/4.5.1/../../../../arm-eabi/lib\libg.a(lib_a-callocr.o)
 .data          0x02065685        0x0 d:/devkitpro/devkitarm/bin/../lib/gcc/arm-eabi/4.5.1/../../../../arm-eabi/lib\libg.a(lib_a-errno.o)
 .data          0x02065685        0x0 d:/devkitpro/devkitarm/bin/../lib/gcc/arm-eabi/4.5.1/../../../../arm-eabi/lib\libg.a(lib_a-fclose.o)
 .data          0x02065685        0x0 d:/devkitpro/devkitarm/bin/../lib/gcc/arm-eabi/4.5.1/../../../../arm-eabi/lib\libg.a(lib_a-fflush.o)
 .data          0x02065685        0x0 d:/devkitpro/devkitarm/bin/../lib/gcc/arm-eabi/4.5.1/../../../../arm-eabi/lib\libg.a(lib_a-fgetc.o)
 .data          0x02065685        0x0 d:/devkitpro/devkitarm/bin/../lib/gcc/arm-eabi/4.5.1/../../../../arm-eabi/lib\libg.a(lib_a-fgets.o)
 .data          0x02065685        0x0 d:/devkitpro/devkitarm/bin/../lib/gcc/arm-eabi/4.5.1/../../../../arm-eabi/lib\libg.a(lib_a-findfp.o)
 .data          0x02065685        0x0 d:/devkitpro/devkitarm/bin/../lib/gcc/arm-eabi/4.5.1/../../../../arm-eabi/lib\libg.a(lib_a-fopen.o)
 .data          0x02065685        0x0 d:/devkitpro/devkitarm/bin/../lib/gcc/arm-eabi/4.5.1/../../../../arm-eabi/lib\libg.a(lib_a-fprintf.o)
 .data          0x02065685        0x0 d:/devkitpro/devkitarm/bin/../lib/gcc/arm-eabi/4.5.1/../../../../arm-eabi/lib\libg.a(lib_a-fputc.o)
 .data          0x02065685        0x0 d:/devkitpro/devkitarm/bin/../lib/gcc/arm-eabi/4.5.1/../../../../arm-eabi/lib\libg.a(lib_a-fputs.o)
 .data          0x02065685        0x0 d:/devkitpro/devkitarm/bin/../lib/gcc/arm-eabi/4.5.1/../../../../arm-eabi/lib\libg.a(lib_a-fread.o)
 .data          0x02065685        0x0 d:/devkitpro/devkitarm/bin/../lib/gcc/arm-eabi/4.5.1/../../../../arm-eabi/lib\libg.a(lib_a-freer.o)
 .data          0x02065685        0x0 d:/devkitpro/devkitarm/bin/../lib/gcc/arm-eabi/4.5.1/../../../../arm-eabi/lib\libg.a(lib_a-fseek.o)
 .data          0x02065685        0x0 d:/devkitpro/devkitarm/bin/../lib/gcc/arm-eabi/4.5.1/../../../../arm-eabi/lib\libg.a(lib_a-ftell.o)
 .data          0x02065685        0x0 d:/devkitpro/devkitarm/bin/../lib/gcc/arm-eabi/4.5.1/../../../../arm-eabi/lib\libg.a(lib_a-fvwrite.o)
 .data          0x02065685        0x0 d:/devkitpro/devkitarm/bin/../lib/gcc/arm-eabi/4.5.1/../../../../arm-eabi/lib\libg.a(lib_a-fwalk.o)
 .data          0x02065685        0x0 d:/devkitpro/devkitarm/bin/../lib/gcc/arm-eabi/4.5.1/../../../../arm-eabi/lib\libg.a(lib_a-fwrite.o)
 *fill*         0x02065685        0x3 ff
 .data          0x02065688      0x430 d:/devkitpro/devkitarm/bin/../lib/gcc/arm-eabi/4.5.1/../../../../arm-eabi/lib\libg.a(lib_a-impure.o)
                0x02065688                _impure_ptr
 .data          0x02065ab8        0x0 d:/devkitpro/devkitarm/bin/../lib/gcc/arm-eabi/4.5.1/../../../../arm-eabi/lib\libg.a(lib_a-init.o)
 .data          0x02065ab8        0x0 d:/devkitpro/devkitarm/bin/../lib/gcc/arm-eabi/4.5.1/../../../../arm-eabi/lib\libg.a(lib_a-iprintf.o)
 .data          0x02065ab8        0x0 d:/devkitpro/devkitarm/bin/../lib/gcc/arm-eabi/4.5.1/../../../../arm-eabi/lib\libg.a(lib_a-lcltime_r.o)
 .data          0x02065ab8      0x144 d:/devkitpro/devkitarm/bin/../lib/gcc/arm-eabi/4.5.1/../../../../arm-eabi/lib\libg.a(lib_a-locale.o)
                0x02065ab8                __default_locale
                0x02065af8                __mb_cur_max
 .data          0x02065bfc        0x0 d:/devkitpro/devkitarm/bin/../lib/gcc/arm-eabi/4.5.1/../../../../arm-eabi/lib\libg.a(lib_a-makebuf.o)
 .data          0x02065bfc        0x0 d:/devkitpro/devkitarm/bin/../lib/gcc/arm-eabi/4.5.1/../../../../arm-eabi/lib\libg.a(lib_a-malloc.o)
 .data          0x02065bfc      0x410 d:/devkitpro/devkitarm/bin/../lib/gcc/arm-eabi/4.5.1/../../../../arm-eabi/lib\libg.a(lib_a-mallocr.o)
                0x02065bfc                __malloc_av_
                0x02066004                __malloc_sbrk_base
                0x02066008                __malloc_trim_threshold
 .data          0x0206600c        0x0 d:/devkitpro/devkitarm/bin/../lib/gcc/arm-eabi/4.5.1/../../../../arm-eabi/lib\libg.a(lib_a-mbrtowc.o)
 .data          0x0206600c        0x0 d:/devkitpro/devkitarm/bin/../lib/gcc/arm-eabi/4.5.1/../../../../arm-eabi/lib\libg.a(lib_a-mbsrtowcs.o)
 .data          0x0206600c        0x4 d:/devkitpro/devkitarm/bin/../lib/gcc/arm-eabi/4.5.1/../../../../arm-eabi/lib\libg.a(lib_a-mbtowc_r.o)
                0x0206600c                __mbtowc
 .data          0x02066010        0x0 d:/devkitpro/devkitarm/bin/../lib/gcc/arm-eabi/4.5.1/../../../../arm-eabi/lib\libg.a(lib_a-memchr.o)
 .data          0x02066010        0x0 d:/devkitpro/devkitarm/bin/../lib/gcc/arm-eabi/4.5.1/../../../../arm-eabi/lib\libg.a(lib_a-memcmp.o)
 .data          0x02066010        0x0 d:/devkitpro/devkitarm/bin/../lib/gcc/arm-eabi/4.5.1/../../../../arm-eabi/lib\libg.a(lib_a-memcpy.o)
 .data          0x02066010        0x0 d:/devkitpro/devkitarm/bin/../lib/gcc/arm-eabi/4.5.1/../../../../arm-eabi/lib\libg.a(lib_a-memmove.o)
 .data          0x02066010        0x0 d:/devkitpro/devkitarm/bin/../lib/gcc/arm-eabi/4.5.1/../../../../arm-eabi/lib\libg.a(lib_a-memset.o)
 .data          0x02066010        0x0 d:/devkitpro/devkitarm/bin/../lib/gcc/arm-eabi/4.5.1/../../../../arm-eabi/lib\libg.a(lib_a-mktime.o)
 .data          0x02066010        0x0 d:/devkitpro/devkitarm/bin/../lib/gcc/arm-eabi/4.5.1/../../../../arm-eabi/lib\libg.a(lib_a-mktm_r.o)
 .data          0x02066010        0x0 d:/devkitpro/devkitarm/bin/../lib/gcc/arm-eabi/4.5.1/../../../../arm-eabi/lib\libg.a(lib_a-mlock.o)
 .data          0x02066010        0x0 d:/devkitpro/devkitarm/bin/../lib/gcc/arm-eabi/4.5.1/../../../../arm-eabi/lib\libg.a(lib_a-putc.o)
 .data          0x02066010        0x0 d:/devkitpro/devkitarm/bin/../lib/gcc/arm-eabi/4.5.1/../../../../arm-eabi/lib\libg.a(lib_a-rand.o)
 .data          0x02066010        0x0 d:/devkitpro/devkitarm/bin/../lib/gcc/arm-eabi/4.5.1/../../../../arm-eabi/lib\libg.a(lib_a-realloc.o)
 .data          0x02066010        0x0 d:/devkitpro/devkitarm/bin/../lib/gcc/arm-eabi/4.5.1/../../../../arm-eabi/lib\libg.a(lib_a-reallocr.o)
 .data          0x02066010        0x0 d:/devkitpro/devkitarm/bin/../lib/gcc/arm-eabi/4.5.1/../../../../arm-eabi/lib\libg.a(lib_a-refill.o)
 .data          0x02066010        0x0 d:/devkitpro/devkitarm/bin/../lib/gcc/arm-eabi/4.5.1/../../../../arm-eabi/lib\libg.a(lib_a-rget.o)
 .data          0x02066010        0x0 d:/devkitpro/devkitarm/bin/../lib/gcc/arm-eabi/4.5.1/../../../../arm-eabi/lib\libg.a(lib_a-setjmp.o)
 .data          0x02066010        0x0 d:/devkitpro/devkitarm/bin/../lib/gcc/arm-eabi/4.5.1/../../../../arm-eabi/lib\libg.a(lib_a-setvbuf.o)
 .data          0x02066010        0x0 d:/devkitpro/devkitarm/bin/../lib/gcc/arm-eabi/4.5.1/../../../../arm-eabi/lib\libg.a(lib_a-signal.o)
 .data          0x02066010        0x0 d:/devkitpro/devkitarm/bin/../lib/gcc/arm-eabi/4.5.1/../../../../arm-eabi/lib\libg.a(lib_a-siscanf.o)
 .data          0x02066010        0x0 d:/devkitpro/devkitarm/bin/../lib/gcc/arm-eabi/4.5.1/../../../../arm-eabi/lib\libg.a(lib_a-snprintf.o)
 .data          0x02066010        0x0 d:/devkitpro/devkitarm/bin/../lib/gcc/arm-eabi/4.5.1/../../../../arm-eabi/lib\libg.a(lib_a-sprintf.o)
 .data          0x02066010        0x0 d:/devkitpro/devkitarm/bin/../lib/gcc/arm-eabi/4.5.1/../../../../arm-eabi/lib\libg.a(lib_a-stdio.o)
 .data          0x02066010        0x0 d:/devkitpro/devkitarm/bin/../lib/gcc/arm-eabi/4.5.1/../../../../arm-eabi/lib\libg.a(lib_a-strcasecmp.o)
 .data          0x02066010        0x0 d:/devkitpro/devkitarm/bin/../lib/gcc/arm-eabi/4.5.1/../../../../arm-eabi/lib\libg.a(lib_a-strcat.o)
 .data          0x02066010        0x0 d:/devkitpro/devkitarm/bin/../lib/gcc/arm-eabi/4.5.1/../../../../arm-eabi/lib\libg.a(lib_a-strchr.o)
 .data          0x02066010        0x0 d:/devkitpro/devkitarm/bin/../lib/gcc/arm-eabi/4.5.1/../../../../arm-eabi/lib\libg.a(lib_a-strcmp.o)
 .data          0x02066010        0x0 d:/devkitpro/devkitarm/bin/../lib/gcc/arm-eabi/4.5.1/../../../../arm-eabi/lib\libg.a(lib_a-strcpy.o)
 .data          0x02066010        0x0 d:/devkitpro/devkitarm/bin/../lib/gcc/arm-eabi/4.5.1/../../../../arm-eabi/lib\libg.a(lib_a-strlcpy.o)
 .data          0x02066010        0x0 d:/devkitpro/devkitarm/bin/../lib/gcc/arm-eabi/4.5.1/../../../../arm-eabi/lib\libg.a(lib_a-strlen.o)
 .data          0x02066010        0x0 d:/devkitpro/devkitarm/bin/../lib/gcc/arm-eabi/4.5.1/../../../../arm-eabi/lib\libg.a(lib_a-strncasecmp.o)
 .data          0x02066010        0x0 d:/devkitpro/devkitarm/bin/../lib/gcc/arm-eabi/4.5.1/../../../../arm-eabi/lib\libg.a(lib_a-strncmp.o)
 .data          0x02066010        0x0 d:/devkitpro/devkitarm/bin/../lib/gcc/arm-eabi/4.5.1/../../../../arm-eabi/lib\libg.a(lib_a-strncpy.o)
 .data          0x02066010        0x0 d:/devkitpro/devkitarm/bin/../lib/gcc/arm-eabi/4.5.1/../../../../arm-eabi/lib\libg.a(lib_a-strnlen.o)
 .data          0x02066010        0x0 d:/devkitpro/devkitarm/bin/../lib/gcc/arm-eabi/4.5.1/../../../../arm-eabi/lib\libg.a(lib_a-strpbrk.o)
 .data          0x02066010        0x0 d:/devkitpro/devkitarm/bin/../lib/gcc/arm-eabi/4.5.1/../../../../arm-eabi/lib\libg.a(lib_a-strrchr.o)
 .data          0x02066010       0x28 d:/devkitpro/devkitarm/bin/../lib/gcc/arm-eabi/4.5.1/../../../../arm-eabi/lib\libg.a(lib_a-strtod.o)
 .data          0x02066038        0x0 d:/devkitpro/devkitarm/bin/../lib/gcc/arm-eabi/4.5.1/../../../../arm-eabi/lib\libg.a(lib_a-strtol.o)
 .data          0x02066038        0x0 d:/devkitpro/devkitarm/bin/../lib/gcc/arm-eabi/4.5.1/../../../../arm-eabi/lib\libg.a(lib_a-svfiscanf.o)
 .data          0x02066038        0x0 d:/devkitpro/devkitarm/bin/../lib/gcc/arm-eabi/4.5.1/../../../../arm-eabi/lib\libg.a(lib_a-svfprintf.o)
 .data          0x02066038        0x0 d:/devkitpro/devkitarm/bin/../lib/gcc/arm-eabi/4.5.1/../../../../arm-eabi/lib\libg.a(lib_a-sysclose.o)
 .data          0x02066038        0x0 d:/devkitpro/devkitarm/bin/../lib/gcc/arm-eabi/4.5.1/../../../../arm-eabi/lib\libg.a(lib_a-syslseek.o)
 .data          0x02066038        0x0 d:/devkitpro/devkitarm/bin/../lib/gcc/arm-eabi/4.5.1/../../../../arm-eabi/lib\libg.a(lib_a-sysopen.o)
 .data          0x02066038        0x0 d:/devkitpro/devkitarm/bin/../lib/gcc/arm-eabi/4.5.1/../../../../arm-eabi/lib\libg.a(lib_a-sysread.o)
 .data          0x02066038        0x0 d:/devkitpro/devkitarm/bin/../lib/gcc/arm-eabi/4.5.1/../../../../arm-eabi/lib\libg.a(lib_a-time.o)
 .data          0x02066038        0x0 d:/devkitpro/devkitarm/bin/../lib/gcc/arm-eabi/4.5.1/../../../../arm-eabi/lib\libg.a(lib_a-towlower.o)
 .data          0x02066038        0x0 d:/devkitpro/devkitarm/bin/../lib/gcc/arm-eabi/4.5.1/../../../../arm-eabi/lib\libg.a(lib_a-towupper.o)
 .data          0x02066038        0x0 d:/devkitpro/devkitarm/bin/../lib/gcc/arm-eabi/4.5.1/../../../../arm-eabi/lib\libg.a(lib_a-tzlock.o)
 .data          0x02066038        0x8 d:/devkitpro/devkitarm/bin/../lib/gcc/arm-eabi/4.5.1/../../../../arm-eabi/lib\libg.a(lib_a-tzvars.o)
                0x02066038                _tzname
 .data          0x02066040        0x0 d:/devkitpro/devkitarm/bin/../lib/gcc/arm-eabi/4.5.1/../../../../arm-eabi/lib\libg.a(lib_a-ungetc.o)
 .data          0x02066040        0x0 d:/devkitpro/devkitarm/bin/../lib/gcc/arm-eabi/4.5.1/../../../../arm-eabi/lib\libg.a(lib_a-vfiprintf.o)
 .data          0x02066040        0x0 d:/devkitpro/devkitarm/bin/../lib/gcc/arm-eabi/4.5.1/../../../../arm-eabi/lib\libg.a(lib_a-vfprintf.o)
 .data          0x02066040        0x0 d:/devkitpro/devkitarm/bin/../lib/gcc/arm-eabi/4.5.1/../../../../arm-eabi/lib\libg.a(lib_a-wbuf.o)
 .data          0x02066040        0x0 d:/devkitpro/devkitarm/bin/../lib/gcc/arm-eabi/4.5.1/../../../../arm-eabi/lib\libg.a(lib_a-wcrtomb.o)
 .data          0x02066040        0x0 d:/devkitpro/devkitarm/bin/../lib/gcc/arm-eabi/4.5.1/../../../../arm-eabi/lib\libg.a(lib_a-wcsrtombs.o)
 .data          0x02066040        0x0 d:/devkitpro/devkitarm/bin/../lib/gcc/arm-eabi/4.5.1/../../../../arm-eabi/lib\libg.a(lib_a-wctob.o)
 .data          0x02066040        0x4 d:/devkitpro/devkitarm/bin/../lib/gcc/arm-eabi/4.5.1/../../../../arm-eabi/lib\libg.a(lib_a-wctomb_r.o)
                0x02066040                __wctomb
 .data          0x02066044        0x0 d:/devkitpro/devkitarm/bin/../lib/gcc/arm-eabi/4.5.1/../../../../arm-eabi/lib\libg.a(lib_a-wsetup.o)
 .data          0x02066044        0x4 d:/devkitpro/devkitarm/bin/../lib/gcc/arm-eabi/4.5.1/../../../../arm-eabi/lib\libg.a(lib_a-ctype_.o)
                0x02066044                __ctype_ptr__
 .data          0x02066048        0x0 d:/devkitpro/devkitarm/bin/../lib/gcc/arm-eabi/4.5.1/../../../../arm-eabi/lib\libg.a(lib_a-div.o)
 .data          0x02066048        0x0 d:/devkitpro/devkitarm/bin/../lib/gcc/arm-eabi/4.5.1/../../../../arm-eabi/lib\libg.a(lib_a-dtoa.o)
 .data          0x02066048        0x0 d:/devkitpro/devkitarm/bin/../lib/gcc/arm-eabi/4.5.1/../../../../arm-eabi/lib\libg.a(lib_a-flags.o)
 .data          0x02066048        0x0 d:/devkitpro/devkitarm/bin/../lib/gcc/arm-eabi/4.5.1/../../../../arm-eabi/lib\libg.a(lib_a-fputwc.o)
 .data          0x02066048        0x0 d:/devkitpro/devkitarm/bin/../lib/gcc/arm-eabi/4.5.1/../../../../arm-eabi/lib\libg.a(lib_a-gdtoa-gethex.o)
 .data          0x02066048        0x0 d:/devkitpro/devkitarm/bin/../lib/gcc/arm-eabi/4.5.1/../../../../arm-eabi/lib\libg.a(lib_a-gdtoa-hexnan.o)
 .data          0x02066048        0x0 d:/devkitpro/devkitarm/bin/../lib/gcc/arm-eabi/4.5.1/../../../../arm-eabi/lib\libg.a(lib_a-getenv_r.o)
 .data          0x02066048       0x40 d:/devkitpro/devkitarm/bin/../lib/gcc/arm-eabi/4.5.1/../../../../arm-eabi/lib\libg.a(lib_a-gettzinfo.o)
 .data          0x02066088        0x0 d:/devkitpro/devkitarm/bin/../lib/gcc/arm-eabi/4.5.1/../../../../arm-eabi/lib\libg.a(lib_a-iswspace.o)
 .data          0x02066088        0x0 d:/devkitpro/devkitarm/bin/../lib/gcc/arm-eabi/4.5.1/../../../../arm-eabi/lib\libg.a(lib_a-jp2uc.o)
 .data          0x02066088        0x0 d:/devkitpro/devkitarm/bin/../lib/gcc/arm-eabi/4.5.1/../../../../arm-eabi/lib\libg.a(lib_a-mbsnrtowcs.o)
 .data          0x02066088        0x0 d:/devkitpro/devkitarm/bin/../lib/gcc/arm-eabi/4.5.1/../../../../arm-eabi/lib\libg.a(lib_a-mprec.o)
 .data          0x02066088        0x0 d:/devkitpro/devkitarm/bin/../lib/gcc/arm-eabi/4.5.1/../../../../arm-eabi/lib\libg.a(lib_a-sccl.o)
 .data          0x02066088        0x0 d:/devkitpro/devkitarm/bin/../lib/gcc/arm-eabi/4.5.1/../../../../arm-eabi/lib\libg.a(lib_a-sf_nan.o)
 .data          0x02066088        0x0 d:/devkitpro/devkitarm/bin/../lib/gcc/arm-eabi/4.5.1/../../../../arm-eabi/lib\libg.a(lib_a-strtoll_r.o)
 .data          0x02066088        0x0 d:/devkitpro/devkitarm/bin/../lib/gcc/arm-eabi/4.5.1/../../../../arm-eabi/lib\libg.a(lib_a-strtoul.o)
 .data          0x02066088        0x0 d:/devkitpro/devkitarm/bin/../lib/gcc/arm-eabi/4.5.1/../../../../arm-eabi/lib\libg.a(lib_a-strtoull_r.o)
 .data          0x02066088        0x0 d:/devkitpro/devkitarm/bin/../lib/gcc/arm-eabi/4.5.1/../../../../arm-eabi/lib\libg.a(lib_a-svfiprintf.o)
 .data          0x02066088        0x0 d:/devkitpro/devkitarm/bin/../lib/gcc/arm-eabi/4.5.1/../../../../arm-eabi/lib\libg.a(lib_a-wcsnrtombs.o)
 .data          0x02066088        0x4 d:/devkitpro/devkitarm/bin/../lib/gcc/arm-eabi/4.5.1/../../../../arm-eabi/lib\libg.a(lib_a-environ.o)
                0x02066088                environ
 .data          0x0206608c        0x0 d:/devkitpro/devkitarm/bin/../lib/gcc/arm-eabi/4.5.1/../../../../arm-eabi/lib\libg.a(lib_a-envlock.o)
 .data          0x0206608c       0x44 d:/devkitpro/devkitarm/bin/../lib/gcc/arm-eabi/4.5.1/../../../../arm-eabi/lib\libsysbase.a(iosupport.o)
                0x02066090                devoptab_list
 .data          0x020660d0        0x0 d:/devkitpro/devkitarm/bin/../lib/gcc/arm-eabi/4.5.1/../../../../arm-eabi/lib\libsysbase.a(close.o)
 .data          0x020660d0        0x0 d:/devkitpro/devkitarm/bin/../lib/gcc/arm-eabi/4.5.1/../../../../arm-eabi/lib\libsysbase.a(fstat.o)
 .data          0x020660d0        0x0 d:/devkitpro/devkitarm/bin/../lib/gcc/arm-eabi/4.5.1/../../../../arm-eabi/lib\libsysbase.a(getpid.o)
 .data          0x020660d0        0x0 d:/devkitpro/devkitarm/bin/../lib/gcc/arm-eabi/4.5.1/../../../../arm-eabi/lib\libsysbase.a(isatty.o)
 .data          0x020660d0        0x0 d:/devkitpro/devkitarm/bin/../lib/gcc/arm-eabi/4.5.1/../../../../arm-eabi/lib\libsysbase.a(kill.o)
 .data          0x020660d0        0x0 d:/devkitpro/devkitarm/bin/../lib/gcc/arm-eabi/4.5.1/../../../../arm-eabi/lib\libsysbase.a(lseek.o)
 .data          0x020660d0        0x0 d:/devkitpro/devkitarm/bin/../lib/gcc/arm-eabi/4.5.1/../../../../arm-eabi/lib\libsysbase.a(open.o)
 .data          0x020660d0        0x0 d:/devkitpro/devkitarm/bin/../lib/gcc/arm-eabi/4.5.1/../../../../arm-eabi/lib\libsysbase.a(read.o)
 .data          0x020660d0        0x0 d:/devkitpro/devkitarm/bin/../lib/gcc/arm-eabi/4.5.1/../../../../arm-eabi/lib\libsysbase.a(sbrk.o)
 .data          0x020660d0        0x0 d:/devkitpro/devkitarm/bin/../lib/gcc/arm-eabi/4.5.1/../../../../arm-eabi/lib\libsysbase.a(times.o)
 .data          0x020660d0        0x0 d:/devkitpro/devkitarm/bin/../lib/gcc/arm-eabi/4.5.1/../../../../arm-eabi/lib\libsysbase.a(write.o)
 .data          0x020660d0        0x0 d:/devkitpro/devkitarm/bin/../lib/gcc/arm-eabi/4.5.1/../../../../arm-eabi/lib\libsysbase.a(_exit.o)
 .data          0x020660d0        0x0 d:/devkitpro/devkitarm/bin/../lib/gcc/arm-eabi/4.5.1/../../../../arm-eabi/lib\libsysbase.a(malloc_vars.o)
 .data          0x020660d0      0x400 d:/devkitpro/devkitarm/bin/../lib/gcc/arm-eabi/4.5.1/../../../../arm-eabi/lib\libsysbase.a(chdir.o)
 .data          0x020664d0        0x0 d:/devkitpro/devkitarm/bin/../lib/gcc/arm-eabi/4.5.1/../../../../arm-eabi/lib\libsysbase.a(build_argv.o)
 .data          0x020664d0        0x0 d:/devkitpro/devkitarm/bin/../lib/gcc/arm-eabi/4.5.1/../../../../arm-eabi/lib\libsysbase.a(syscall_support.o)
 .data          0x020664d0        0x0 d:/devkitpro/devkitarm/bin/../lib/gcc/arm-eabi/4.5.1/../../../../arm-eabi/lib\libsysbase.a(handle_manager.o)
 .data          0x020664d0        0x0 d:/devkitpro/devkitarm/bin/../lib/gcc/arm-eabi/4.5.1\libgcc.a(_aeabi_uldivmod.o)
 .data          0x020664d0        0x0 d:/devkitpro/devkitarm/bin/../lib/gcc/arm-eabi/4.5.1\libgcc.a(bpabi.o)
 .data          0x020664d0        0x0 d:/devkitpro/devkitarm/bin/../lib/gcc/arm-eabi/4.5.1\libgcc.a(unwind-arm.o)
 .data          0x020664d0        0x0 d:/devkitpro/devkitarm/bin/../lib/gcc/arm-eabi/4.5.1\libgcc.a(libunwind.o)
 .data          0x020664d0        0x0 d:/devkitpro/devkitarm/bin/../lib/gcc/arm-eabi/4.5.1\libgcc.a(pr-support.o)
 .data          0x020664d0        0x0 d:/devkitpro/devkitarm/bin/../lib/gcc/arm-eabi/4.5.1\libgcc.a(_divdi3.o)
 .data          0x020664d0        0x0 d:/devkitpro/devkitarm/bin/../lib/gcc/arm-eabi/4.5.1\libgcc.a(_udivdi3.o)
 .data          0x020664d0        0x0 d:/devkitpro/devkitarm/bin/../lib/gcc/arm-eabi/4.5.1\libgcc.a(_clzsi2.o)
 .data          0x020664d0        0x0 d:/devkitpro/devkitarm/bin/../lib/gcc/arm-eabi/4.5.1/crtend.o
 .data          0x020664d0        0x0 d:/devkitpro/devkitarm/bin/../lib/gcc/arm-eabi/4.5.1/crtn.o
 *(.data.*)
 *(.gnu.linkonce.d*)
                0x020664d0                . = ALIGN (0x4)
                0x020664d0                __data_end = ABSOLUTE (.)
                0x020664d0                __dtcm_lma = .
                0x020664d0                __bss_vma = .

.dtcm           0x0b000000        0x0 load address 0x020664d0
 *(.dtcm)
 *(.dtcm.*)
                0x0b000000                . = ALIGN (0x4)
                0x0b000000                __dtcm_end = ABSOLUTE (.)
                0x020664d0                __itcm_lma = (__dtcm_lma + SIZEOF (.dtcm))

.itcm           0x01000100      0x194 load address 0x020664d0
 *(.itcm)
 .itcm          0x01000100       0xc8 d:/devkitPro/libnds/lib\libnds9.a(interrupts.o)
                0x01000100                irqTable
 .itcm          0x010001c8       0xcc d:/devkitPro/libnds/lib\libnds9.a(interruptDispatcher.o)
                0x010001c8                IntrMain
 *itcm.*(.text)
                0x01000294                . = ALIGN (0x4)
                0x01000294                __itcm_end = ABSOLUTE (.)
                0x02066664                __vectors_lma = (__itcm_lma + SIZEOF (.itcm))

.vectors        0x01000000        0x0 load address 0x02066664
 *(.vectors)
 *vectors.*(.text)
                0x01000000                . = ALIGN (0x4)
                0x01000000                __vectors_end = ABSOLUTE (.)

.sbss           0x0b000000        0x0
                0x0b000000                __sbss_start = ABSOLUTE (.)
                0x0b000000                __sbss_start__ = ABSOLUTE (.)
 *(.sbss)
                0x0b000000                . = ALIGN (0x4)
                0x0b000000                __sbss_end = ABSOLUTE (.)

.bss            0x020664d0     0x4348
                0x020664d0                __bss_start = ABSOLUTE (.)
                0x020664d0                __bss_start__ = ABSOLUTE (.)
 *(.dynbss)
 *(.gnu.linkonce.b*)
 *(.bss*)
 .bss           0x020664d0        0x0 d:/devkitpro/devkitarm/bin/../lib/gcc/arm-eabi/4.5.1/../../../../arm-eabi/lib/ds_arm9_crt0.o
 .bss           0x020664d0        0x0 d:/devkitpro/devkitarm/bin/../lib/gcc/arm-eabi/4.5.1/crti.o
 .bss           0x020664d0       0x1c d:/devkitpro/devkitarm/bin/../lib/gcc/arm-eabi/4.5.1/crtbegin.o
 .bss           0x020664ec        0x0 roll.png.o
 .bss           0x020664ec        0x0 main.o
 .bss           0x020664ec        0x4 d:/devkitPro/libnds/lib\libul.a(ulib.o)
                0x020664ec                ul_isConsoleInited
 .bss           0x020664f0        0x3 d:/devkitPro/libnds/lib\libul.a(drawing.o)
                0x020664f0                ul_drawingStarted
                0x020664f1                ul_screenClippingChanged
                0x020664f2                ul_firstPaletteColorOpaque
 *fill*         0x020664f3        0x1 00
 .bss           0x020664f4        0x8 d:/devkitPro/libnds/lib\libul.a(text.o)
                0x020664f4                ul_curFont
                0x020664f8                ul_lcdFont
 .bss           0x020664fc        0x8 d:/devkitPro/libnds/lib\libul.a(VirtualFile.o)
                0x020664fc                VirtualFileSourcesNb
                0x02066500                ul_virtualFileListNumber
 .bss           0x02066504        0x0 d:/devkitPro/libnds/lib\libul.a(vfsLibFat.o)
 .bss           0x02066504        0x0 d:/devkitPro/libnds/lib\libul.a(vfsGBFS.o)
 .bss           0x02066504        0x0 d:/devkitPro/libnds/lib\libul.a(texVramManager.o)
 .bss           0x02066504        0x0 d:/devkitPro/libnds/lib\libul.a(texPalManager.o)
 .bss           0x02066504        0x0 d:/devkitPro/libnds/lib\libul.a(keys.o)
 .bss           0x02066504        0x0 d:/devkitPro/libnds/lib\libul.a(ulDrawImage.o)
 .bss           0x02066504        0x0 d:/devkitPro/libnds/lib\libul.a(ulCreateImagePalette.o)
 .bss           0x02066504        0x0 d:/devkitPro/libnds/lib\libul.a(ulDrawGradientRect.o)
 .bss           0x02066504        0x0 d:/devkitPro/libnds/lib\libul.a(messagebox.o)
 .bss           0x02066504        0x0 d:/devkitPro/libnds/lib\libul.a(textSize.o)
 .bss           0x02066504        0x0 d:/devkitPro/libnds/lib\libul.a(loading_utility.o)
 .bss           0x02066504        0x0 d:/devkitPro/libnds/lib\libul.a(ulLoadImageFilePNG.o)
 .bss           0x02066504        0x0 d:/devkitPro/libnds/lib\libul.a(ulLoadImageFileJPG.o)
 .bss           0x02066504        0x0 d:/devkitPro/libnds/lib\libul.a(ulShowSplashScreen1.o)
 .bss           0x02066504        0x0 d:/devkitPro/libnds/lib\libul.a(ulShowSplashScreen2.o)
 .bss           0x02066504        0x0 d:/devkitPro/libnds/lib\libul.a(glWrapper.o)
 .bss           0x02066504        0x0 d:/devkitPro/libnds/lib\libul.a(libLoadPng.o)
 .bss           0x02066504        0x0 d:/devkitPro/libnds/lib\libul.a(libLoadJpg.o)
 .bss           0x02066504        0x0 d:/devkitPro/libnds/lib\libul.a(ulDrawFillRect.o)
 .bss           0x02066504        0x0 d:/devkitPro/libnds/lib\libul.a(ulDrawLine.o)
 .bss           0x02066504        0x0 d:/devkitPro/libnds/lib\libul.a(ulDrawRect.o)
 .bss           0x02066504        0x0 d:/devkitPro/libnds/lib\libul.a(ulSetImagePixel.o)
 .bss           0x02066504        0x0 d:/devkitPro/libnds/lib\libul.a(ulGetImagePixel.o)
 .bss           0x02066504        0x0 d:/devkitPro/libnds/lib\libul.a(ulLoadImageFileGIF.o)
 .bss           0x02066504        0x0 d:/devkitPro/libnds/lib\libul.a(ulReadEntireFileToMemory.o)
 .bss           0x02066504        0x0 d:/devkitPro/libnds/lib\libul.a(gba-jpeg-decode.o)
 .bss           0x02066504        0x0 d:/devkitPro/libnds/lib\libul.a(libLoadGif.o)
 .bss           0x02066504        0x0 d:/devkitPro/libnds/lib\libul.a(dgif_lib.o)
 .bss           0x02066504        0x4 d:/devkitPro/libnds/lib\libul.a(gif_err.o)
                0x02066504                _GifError
 .bss           0x02066508        0x0 d:/devkitPro/libnds/lib\libul.a(gifalloc.o)
 .bss           0x02066508        0x0 d:/devkitPro/libnds/lib\libpng.a(png.o)
 .bss           0x02066508        0x0 d:/devkitPro/libnds/lib\libpng.a(pngread.o)
 .bss           0x02066508        0x0 d:/devkitPro/libnds/lib\libpng.a(pngrio.o)
 .bss           0x02066508        0x0 d:/devkitPro/libnds/lib\libpng.a(pngrtran.o)
 .bss           0x02066508        0x0 d:/devkitPro/libnds/lib\libpng.a(pngmem.o)
 .bss           0x02066508        0x0 d:/devkitPro/libnds/lib\libpng.a(pngerror.o)
 .bss           0x02066508        0x0 d:/devkitPro/libnds/lib\libpng.a(pngget.o)
 .bss           0x02066508        0x0 d:/devkitPro/libnds/lib\libpng.a(pngrutil.o)
 .bss           0x02066508        0x0 d:/devkitPro/libnds/lib\libpng.a(pngtrans.o)
 .bss           0x02066508        0x0 d:/devkitPro/libnds/lib\libpng.a(pngset.o)
 .bss           0x02066508        0x0 d:/devkitPro/libnds/lib\libz.a(crc32.o)
 .bss           0x02066508        0x0 d:/devkitPro/libnds/lib\libz.a(inflate.o)
 .bss           0x02066508        0x0 d:/devkitPro/libnds/lib\libz.a(inftrees.o)
 .bss           0x02066508        0x0 d:/devkitPro/libnds/lib\libz.a(inffast.o)
 .bss           0x02066508        0x0 d:/devkitPro/libnds/lib\libz.a(adler32.o)
 .bss           0x02066508        0x0 d:/devkitPro/libnds/lib\libz.a(zutil.o)
 .bss           0x02066508        0x0 d:/devkitPro/libnds/lib\libfat.a(libfat.o)
 *fill*         0x02066508       0x18 00
 .bss           0x02066520      0x200 d:/devkitPro/libnds/lib\libfat.a(partition.o)
 .bss           0x02066720        0x4 d:/devkitPro/libnds/lib\libfat.a(cache.o)
 .bss           0x02066724        0x0 d:/devkitPro/libnds/lib\libfat.a(directory.o)
 .bss           0x02066724        0x0 d:/devkitPro/libnds/lib\libfat.a(disc.o)
 .bss           0x02066724        0x0 d:/devkitPro/libnds/lib\libfat.a(fatdir.o)
 .bss           0x02066724        0x0 d:/devkitPro/libnds/lib\libfat.a(fatfile.o)
 .bss           0x02066724        0x0 d:/devkitPro/libnds/lib\libfat.a(file_allocation_table.o)
 .bss           0x02066724        0x0 d:/devkitPro/libnds/lib\libfat.a(filetime.o)
 .bss           0x02066724        0x0 d:/devkitPro/libnds/lib\libfat.a(lock.o)
 .bss           0x02066724        0x0 d:/devkitPro/libnds/lib\libnds9.a(console.o)
 .bss           0x02066724        0x0 d:/devkitPro/libnds/lib\libnds9.a(dynamicArray.o)
 .bss           0x02066724        0x6 d:/devkitPro/libnds/lib\libnds9.a(keys.o)
 .bss           0x0206672a        0x0 d:/devkitPro/libnds/lib\libnds9.a(system.o)
 .bss           0x0206672a        0x0 d:/devkitPro/libnds/lib\libnds9.a(touch.o)
 .bss           0x0206672a        0x0 d:/devkitPro/libnds/lib\libnds9.a(trig.o)
 *fill*         0x0206672a        0x2 00
 .bss           0x0206672c        0x8 d:/devkitPro/libnds/lib\libnds9.a(videoGL.o)
 .bss           0x02066734        0x0 d:/devkitPro/libnds/lib\libnds9.a(dldi.o)
 .bss           0x02066734        0x0 d:/devkitPro/libnds/lib\libnds9.a(dsi_sd.o)
 .bss           0x02066734        0x0 d:/devkitPro/libnds/lib\libnds9.a(initSystem.o)
 .bss           0x02066734        0x8 d:/devkitPro/libnds/lib\libnds9.a(fifosystem.o)
                0x02066738                processing
 .bss           0x0206673c        0x0 d:/devkitPro/libnds/lib\libnds9.a(gbfs.o)
 .bss           0x0206673c        0x0 d:/devkitPro/libnds/lib\libnds9.a(interrupts.o)
 .bss           0x0206673c        0x0 d:/devkitPro/libnds/lib\libnds9.a(libnds_exit.o)
 .bss           0x0206673c        0x0 d:/devkitPro/libnds/lib\libnds9.a(dcache.o)
 .bss           0x0206673c        0x0 d:/devkitPro/libnds/lib\libnds9.a(dldi_stub.o)
 .bss           0x0206673c        0x0 d:/devkitPro/libnds/lib\libnds9.a(mpu_setup.o)
 .bss           0x0206673c        0x0 d:/devkitPro/libnds/lib\libnds9.a(biosCalls.o)
 .bss           0x0206673c        0x0 d:/devkitPro/libnds/lib\libnds9.a(debugprint.o)
 .bss           0x0206673c        0x0 d:/devkitPro/libnds/lib\libnds9.a(interruptDispatcher.o)
 .bss           0x0206673c        0x0 d:/devkitPro/libnds/lib\libnds9.a(swiSoftReset.o)
 .bss           0x0206673c        0x0 d:/devkitPro/libnds/lib\libnds9.a(default_font.bin.o)
 .bss           0x0206673c        0x0 d:/devkitPro/libnds/lib\libnds9.a(background.o)
 .bss           0x0206673c        0x0 d:/devkitPro/libnds/lib\libnds9.a(video.o)
 .bss           0x0206673c        0x0 d:/devkitpro/devkitarm/bin/../lib/gcc/arm-eabi/4.5.1/../../../../arm-eabi/lib\libm.a(lib_a-s_cos.o)
 .bss           0x0206673c        0x0 d:/devkitpro/devkitarm/bin/../lib/gcc/arm-eabi/4.5.1/../../../../arm-eabi/lib\libm.a(lib_a-s_sin.o)
 .bss           0x0206673c        0x0 d:/devkitpro/devkitarm/bin/../lib/gcc/arm-eabi/4.5.1/../../../../arm-eabi/lib\libm.a(lib_a-w_pow.o)
 .bss           0x0206673c        0x0 d:/devkitpro/devkitarm/bin/../lib/gcc/arm-eabi/4.5.1/../../../../arm-eabi/lib\libm.a(lib_a-e_pow.o)
 .bss           0x0206673c        0x0 d:/devkitpro/devkitarm/bin/../lib/gcc/arm-eabi/4.5.1/../../../../arm-eabi/lib\libm.a(lib_a-e_rem_pio2.o)
 .bss           0x0206673c        0x0 d:/devkitpro/devkitarm/bin/../lib/gcc/arm-eabi/4.5.1/../../../../arm-eabi/lib\libm.a(lib_a-e_sqrt.o)
 .bss           0x0206673c        0x0 d:/devkitpro/devkitarm/bin/../lib/gcc/arm-eabi/4.5.1/../../../../arm-eabi/lib\libm.a(lib_a-k_cos.o)
 .bss           0x0206673c        0x0 d:/devkitpro/devkitarm/bin/../lib/gcc/arm-eabi/4.5.1/../../../../arm-eabi/lib\libm.a(lib_a-k_rem_pio2.o)
 .bss           0x0206673c        0x0 d:/devkitpro/devkitarm/bin/../lib/gcc/arm-eabi/4.5.1/../../../../arm-eabi/lib\libm.a(lib_a-k_sin.o)
 .bss           0x0206673c        0x0 d:/devkitpro/devkitarm/bin/../lib/gcc/arm-eabi/4.5.1/../../../../arm-eabi/lib\libm.a(lib_a-s_fabs.o)
 .bss           0x0206673c        0x0 d:/devkitpro/devkitarm/bin/../lib/gcc/arm-eabi/4.5.1/../../../../arm-eabi/lib\libm.a(lib_a-s_finite.o)
 .bss           0x0206673c        0x0 d:/devkitpro/devkitarm/bin/../lib/gcc/arm-eabi/4.5.1/../../../../arm-eabi/lib\libm.a(lib_a-s_floor.o)
 .bss           0x0206673c        0x0 d:/devkitpro/devkitarm/bin/../lib/gcc/arm-eabi/4.5.1/../../../../arm-eabi/lib\libm.a(lib_a-s_fpclassify.o)
 .bss           0x0206673c        0x0 d:/devkitpro/devkitarm/bin/../lib/gcc/arm-eabi/4.5.1/../../../../arm-eabi/lib\libm.a(lib_a-s_lib_ver.o)
 .bss           0x0206673c        0x0 d:/devkitpro/devkitarm/bin/../lib/gcc/arm-eabi/4.5.1/../../../../arm-eabi/lib\libm.a(lib_a-s_matherr.o)
 .bss           0x0206673c        0x0 d:/devkitpro/devkitarm/bin/../lib/gcc/arm-eabi/4.5.1/../../../../arm-eabi/lib\libm.a(lib_a-s_nan.o)
 .bss           0x0206673c        0x0 d:/devkitpro/devkitarm/bin/../lib/gcc/arm-eabi/4.5.1/../../../../arm-eabi/lib\libm.a(lib_a-s_rint.o)
 .bss           0x0206673c        0x0 d:/devkitpro/devkitarm/bin/../lib/gcc/arm-eabi/4.5.1/../../../../arm-eabi/lib\libm.a(lib_a-s_scalbn.o)
 .bss           0x0206673c        0x0 d:/devkitpro/devkitarm/bin/../lib/gcc/arm-eabi/4.5.1/../../../../arm-eabi/lib\libm.a(lib_a-s_copysign.o)
 .bss           0x0206673c        0x0 d:/devkitpro/devkitarm/bin/../lib/gcc/arm-eabi/4.5.1\libgcc.a(_udivsi3.o)
 .bss           0x0206673c        0x0 d:/devkitpro/devkitarm/bin/../lib/gcc/arm-eabi/4.5.1\libgcc.a(_divsi3.o)
 .bss           0x0206673c        0x0 d:/devkitpro/devkitarm/bin/../lib/gcc/arm-eabi/4.5.1\libgcc.a(_dvmd_tls.o)
 .bss           0x0206673c        0x0 d:/devkitpro/devkitarm/bin/../lib/gcc/arm-eabi/4.5.1\libgcc.a(_arm_addsubdf3.o)
 .bss           0x0206673c        0x0 d:/devkitpro/devkitarm/bin/../lib/gcc/arm-eabi/4.5.1\libgcc.a(_arm_muldivdf3.o)
 .bss           0x0206673c        0x0 d:/devkitpro/devkitarm/bin/../lib/gcc/arm-eabi/4.5.1\libgcc.a(_arm_cmpdf2.o)
 .bss           0x0206673c        0x0 d:/devkitpro/devkitarm/bin/../lib/gcc/arm-eabi/4.5.1\libgcc.a(_arm_fixdfsi.o)
 .bss           0x0206673c        0x0 d:/devkitpro/devkitarm/bin/../lib/gcc/arm-eabi/4.5.1\libgcc.a(_arm_fixunsdfsi.o)
 .bss           0x0206673c        0x0 d:/devkitpro/devkitarm/bin/../lib/gcc/arm-eabi/4.5.1\libgcc.a(_arm_truncdfsf2.o)
 .bss           0x0206673c        0x0 d:/devkitpro/devkitarm/bin/../lib/gcc/arm-eabi/4.5.1\libgcc.a(_arm_addsubsf3.o)
 .bss           0x0206673c        0x0 d:/devkitpro/devkitarm/bin/../lib/gcc/arm-eabi/4.5.1\libgcc.a(_arm_muldivsf3.o)
 .bss           0x0206673c        0x0 d:/devkitpro/devkitarm/bin/../lib/gcc/arm-eabi/4.5.1\libgcc.a(_arm_cmpsf2.o)
 .bss           0x0206673c        0x0 d:/devkitpro/devkitarm/bin/../lib/gcc/arm-eabi/4.5.1\libgcc.a(_arm_fixsfsi.o)
 .bss           0x0206673c        0x0 d:/devkitpro/devkitarm/bin/../lib/gcc/arm-eabi/4.5.1\libgcc.a(_arm_fixunssfsi.o)
 .bss           0x0206673c        0x0 d:/devkitpro/devkitarm/bin/../lib/gcc/arm-eabi/4.5.1\libgcc.a(_muldi3.o)
 .bss           0x0206673c        0x0 d:/devkitpro/devkitarm/bin/../lib/gcc/arm-eabi/4.5.1/../../../../arm-eabi/lib\libg.a(lib_a-abort.o)
 .bss           0x0206673c        0x0 d:/devkitpro/devkitarm/bin/../lib/gcc/arm-eabi/4.5.1/../../../../arm-eabi/lib\libg.a(lib_a-bsearch.o)
 .bss           0x0206673c        0x0 d:/devkitpro/devkitarm/bin/../lib/gcc/arm-eabi/4.5.1/../../../../arm-eabi/lib\libg.a(lib_a-calloc.o)
 .bss           0x0206673c        0x0 d:/devkitpro/devkitarm/bin/../lib/gcc/arm-eabi/4.5.1/../../../../arm-eabi/lib\libg.a(lib_a-callocr.o)
 .bss           0x0206673c        0x0 d:/devkitpro/devkitarm/bin/../lib/gcc/arm-eabi/4.5.1/../../../../arm-eabi/lib\libg.a(lib_a-errno.o)
 .bss           0x0206673c        0x0 d:/devkitpro/devkitarm/bin/../lib/gcc/arm-eabi/4.5.1/../../../../arm-eabi/lib\libg.a(lib_a-fclose.o)
 .bss           0x0206673c        0x0 d:/devkitpro/devkitarm/bin/../lib/gcc/arm-eabi/4.5.1/../../../../arm-eabi/lib\libg.a(lib_a-fflush.o)
 .bss           0x0206673c        0x0 d:/devkitpro/devkitarm/bin/../lib/gcc/arm-eabi/4.5.1/../../../../arm-eabi/lib\libg.a(lib_a-fgetc.o)
 .bss           0x0206673c        0x0 d:/devkitpro/devkitarm/bin/../lib/gcc/arm-eabi/4.5.1/../../../../arm-eabi/lib\libg.a(lib_a-fgets.o)
 .bss           0x0206673c        0x0 d:/devkitpro/devkitarm/bin/../lib/gcc/arm-eabi/4.5.1/../../../../arm-eabi/lib\libg.a(lib_a-findfp.o)
 .bss           0x0206673c        0x0 d:/devkitpro/devkitarm/bin/../lib/gcc/arm-eabi/4.5.1/../../../../arm-eabi/lib\libg.a(lib_a-fopen.o)
 .bss           0x0206673c        0x0 d:/devkitpro/devkitarm/bin/../lib/gcc/arm-eabi/4.5.1/../../../../arm-eabi/lib\libg.a(lib_a-fprintf.o)
 .bss           0x0206673c        0x0 d:/devkitpro/devkitarm/bin/../lib/gcc/arm-eabi/4.5.1/../../../../arm-eabi/lib\libg.a(lib_a-fputc.o)
 .bss           0x0206673c        0x0 d:/devkitpro/devkitarm/bin/../lib/gcc/arm-eabi/4.5.1/../../../../arm-eabi/lib\libg.a(lib_a-fputs.o)
 .bss           0x0206673c        0x0 d:/devkitpro/devkitarm/bin/../lib/gcc/arm-eabi/4.5.1/../../../../arm-eabi/lib\libg.a(lib_a-fread.o)
 .bss           0x0206673c        0x0 d:/devkitpro/devkitarm/bin/../lib/gcc/arm-eabi/4.5.1/../../../../arm-eabi/lib\libg.a(lib_a-freer.o)
 .bss           0x0206673c        0x0 d:/devkitpro/devkitarm/bin/../lib/gcc/arm-eabi/4.5.1/../../../../arm-eabi/lib\libg.a(lib_a-fseek.o)
 .bss           0x0206673c        0x0 d:/devkitpro/devkitarm/bin/../lib/gcc/arm-eabi/4.5.1/../../../../arm-eabi/lib\libg.a(lib_a-ftell.o)
 .bss           0x0206673c        0x0 d:/devkitpro/devkitarm/bin/../lib/gcc/arm-eabi/4.5.1/../../../../arm-eabi/lib\libg.a(lib_a-fvwrite.o)
 .bss           0x0206673c        0x0 d:/devkitpro/devkitarm/bin/../lib/gcc/arm-eabi/4.5.1/../../../../arm-eabi/lib\libg.a(lib_a-fwalk.o)
 .bss           0x0206673c        0x0 d:/devkitpro/devkitarm/bin/../lib/gcc/arm-eabi/4.5.1/../../../../arm-eabi/lib\libg.a(lib_a-fwrite.o)
 .bss           0x0206673c        0x0 d:/devkitpro/devkitarm/bin/../lib/gcc/arm-eabi/4.5.1/../../../../arm-eabi/lib\libg.a(lib_a-impure.o)
 .bss           0x0206673c        0x0 d:/devkitpro/devkitarm/bin/../lib/gcc/arm-eabi/4.5.1/../../../../arm-eabi/lib\libg.a(lib_a-init.o)
 .bss           0x0206673c        0x0 d:/devkitpro/devkitarm/bin/../lib/gcc/arm-eabi/4.5.1/../../../../arm-eabi/lib\libg.a(lib_a-iprintf.o)
 .bss           0x0206673c        0x0 d:/devkitpro/devkitarm/bin/../lib/gcc/arm-eabi/4.5.1/../../../../arm-eabi/lib\libg.a(lib_a-lcltime_r.o)
 .bss           0x0206673c      0x2b8 d:/devkitpro/devkitarm/bin/../lib/gcc/arm-eabi/4.5.1/../../../../arm-eabi/lib\libg.a(lib_a-locale.o)
                0x020669e8                __nlocale_changed
                0x020669ec                __mlocale_changed
                0x020669f0                _PathLocale
 .bss           0x020669f4        0x0 d:/devkitpro/devkitarm/bin/../lib/gcc/arm-eabi/4.5.1/../../../../arm-eabi/lib\libg.a(lib_a-makebuf.o)
 .bss           0x020669f4        0x0 d:/devkitpro/devkitarm/bin/../lib/gcc/arm-eabi/4.5.1/../../../../arm-eabi/lib\libg.a(lib_a-malloc.o)
 .bss           0x020669f4       0x34 d:/devkitpro/devkitarm/bin/../lib/gcc/arm-eabi/4.5.1/../../../../arm-eabi/lib\libg.a(lib_a-mallocr.o)
                0x020669f4                __malloc_top_pad
                0x020669f8                __malloc_current_mallinfo
                0x02066a20                __malloc_max_sbrked_mem
                0x02066a24                __malloc_max_total_mem
 .bss           0x02066a28        0x0 d:/devkitpro/devkitarm/bin/../lib/gcc/arm-eabi/4.5.1/../../../../arm-eabi/lib\libg.a(lib_a-mbrtowc.o)
 .bss           0x02066a28        0x0 d:/devkitpro/devkitarm/bin/../lib/gcc/arm-eabi/4.5.1/../../../../arm-eabi/lib\libg.a(lib_a-mbsrtowcs.o)
 .bss           0x02066a28        0x0 d:/devkitpro/devkitarm/bin/../lib/gcc/arm-eabi/4.5.1/../../../../arm-eabi/lib\libg.a(lib_a-mbtowc_r.o)
 .bss           0x02066a28        0x0 d:/devkitpro/devkitarm/bin/../lib/gcc/arm-eabi/4.5.1/../../../../arm-eabi/lib\libg.a(lib_a-memchr.o)
 .bss           0x02066a28        0x0 d:/devkitpro/devkitarm/bin/../lib/gcc/arm-eabi/4.5.1/../../../../arm-eabi/lib\libg.a(lib_a-memcmp.o)
 .bss           0x02066a28        0x0 d:/devkitpro/devkitarm/bin/../lib/gcc/arm-eabi/4.5.1/../../../../arm-eabi/lib\libg.a(lib_a-memcpy.o)
 .bss           0x02066a28        0x0 d:/devkitpro/devkitarm/bin/../lib/gcc/arm-eabi/4.5.1/../../../../arm-eabi/lib\libg.a(lib_a-memmove.o)
 .bss           0x02066a28        0x0 d:/devkitpro/devkitarm/bin/../lib/gcc/arm-eabi/4.5.1/../../../../arm-eabi/lib\libg.a(lib_a-memset.o)
 .bss           0x02066a28        0x0 d:/devkitpro/devkitarm/bin/../lib/gcc/arm-eabi/4.5.1/../../../../arm-eabi/lib\libg.a(lib_a-mktime.o)
 .bss           0x02066a28        0x0 d:/devkitpro/devkitarm/bin/../lib/gcc/arm-eabi/4.5.1/../../../../arm-eabi/lib\libg.a(lib_a-mktm_r.o)
 .bss           0x02066a28        0x0 d:/devkitpro/devkitarm/bin/../lib/gcc/arm-eabi/4.5.1/../../../../arm-eabi/lib\libg.a(lib_a-mlock.o)
 .bss           0x02066a28        0x0 d:/devkitpro/devkitarm/bin/../lib/gcc/arm-eabi/4.5.1/../../../../arm-eabi/lib\libg.a(lib_a-putc.o)
 .bss           0x02066a28        0x0 d:/devkitpro/devkitarm/bin/../lib/gcc/arm-eabi/4.5.1/../../../../arm-eabi/lib\libg.a(lib_a-rand.o)
 .bss           0x02066a28        0x0 d:/devkitpro/devkitarm/bin/../lib/gcc/arm-eabi/4.5.1/../../../../arm-eabi/lib\libg.a(lib_a-realloc.o)
 .bss           0x02066a28        0x0 d:/devkitpro/devkitarm/bin/../lib/gcc/arm-eabi/4.5.1/../../../../arm-eabi/lib\libg.a(lib_a-reallocr.o)
 .bss           0x02066a28        0x0 d:/devkitpro/devkitarm/bin/../lib/gcc/arm-eabi/4.5.1/../../../../arm-eabi/lib\libg.a(lib_a-refill.o)
 .bss           0x02066a28        0x0 d:/devkitpro/devkitarm/bin/../lib/gcc/arm-eabi/4.5.1/../../../../arm-eabi/lib\libg.a(lib_a-rget.o)
 .bss           0x02066a28        0x0 d:/devkitpro/devkitarm/bin/../lib/gcc/arm-eabi/4.5.1/../../../../arm-eabi/lib\libg.a(lib_a-setjmp.o)
 .bss           0x02066a28        0x0 d:/devkitpro/devkitarm/bin/../lib/gcc/arm-eabi/4.5.1/../../../../arm-eabi/lib\libg.a(lib_a-setvbuf.o)
 .bss           0x02066a28        0x0 d:/devkitpro/devkitarm/bin/../lib/gcc/arm-eabi/4.5.1/../../../../arm-eabi/lib\libg.a(lib_a-signal.o)
 .bss           0x02066a28        0x0 d:/devkitpro/devkitarm/bin/../lib/gcc/arm-eabi/4.5.1/../../../../arm-eabi/lib\libg.a(lib_a-siscanf.o)
 .bss           0x02066a28        0x0 d:/devkitpro/devkitarm/bin/../lib/gcc/arm-eabi/4.5.1/../../../../arm-eabi/lib\libg.a(lib_a-snprintf.o)
 .bss           0x02066a28        0x0 d:/devkitpro/devkitarm/bin/../lib/gcc/arm-eabi/4.5.1/../../../../arm-eabi/lib\libg.a(lib_a-sprintf.o)
 .bss           0x02066a28        0x0 d:/devkitpro/devkitarm/bin/../lib/gcc/arm-eabi/4.5.1/../../../../arm-eabi/lib\libg.a(lib_a-stdio.o)
 .bss           0x02066a28        0x0 d:/devkitpro/devkitarm/bin/../lib/gcc/arm-eabi/4.5.1/../../../../arm-eabi/lib\libg.a(lib_a-strcasecmp.o)
 .bss           0x02066a28        0x0 d:/devkitpro/devkitarm/bin/../lib/gcc/arm-eabi/4.5.1/../../../../arm-eabi/lib\libg.a(lib_a-strcat.o)
 .bss           0x02066a28        0x0 d:/devkitpro/devkitarm/bin/../lib/gcc/arm-eabi/4.5.1/../../../../arm-eabi/lib\libg.a(lib_a-strchr.o)
 .bss           0x02066a28        0x0 d:/devkitpro/devkitarm/bin/../lib/gcc/arm-eabi/4.5.1/../../../../arm-eabi/lib\libg.a(lib_a-strcmp.o)
 .bss           0x02066a28        0x0 d:/devkitpro/devkitarm/bin/../lib/gcc/arm-eabi/4.5.1/../../../../arm-eabi/lib\libg.a(lib_a-strcpy.o)
 .bss           0x02066a28        0x0 d:/devkitpro/devkitarm/bin/../lib/gcc/arm-eabi/4.5.1/../../../../arm-eabi/lib\libg.a(lib_a-strlcpy.o)
 .bss           0x02066a28        0x0 d:/devkitpro/devkitarm/bin/../lib/gcc/arm-eabi/4.5.1/../../../../arm-eabi/lib\libg.a(lib_a-strlen.o)
 .bss           0x02066a28        0x0 d:/devkitpro/devkitarm/bin/../lib/gcc/arm-eabi/4.5.1/../../../../arm-eabi/lib\libg.a(lib_a-strncasecmp.o)
 .bss           0x02066a28        0x0 d:/devkitpro/devkitarm/bin/../lib/gcc/arm-eabi/4.5.1/../../../../arm-eabi/lib\libg.a(lib_a-strncmp.o)
 .bss           0x02066a28        0x0 d:/devkitpro/devkitarm/bin/../lib/gcc/arm-eabi/4.5.1/../../../../arm-eabi/lib\libg.a(lib_a-strncpy.o)
 .bss           0x02066a28        0x0 d:/devkitpro/devkitarm/bin/../lib/gcc/arm-eabi/4.5.1/../../../../arm-eabi/lib\libg.a(lib_a-strnlen.o)
 .bss           0x02066a28        0x0 d:/devkitpro/devkitarm/bin/../lib/gcc/arm-eabi/4.5.1/../../../../arm-eabi/lib\libg.a(lib_a-strpbrk.o)
 .bss           0x02066a28        0x0 d:/devkitpro/devkitarm/bin/../lib/gcc/arm-eabi/4.5.1/../../../../arm-eabi/lib\libg.a(lib_a-strrchr.o)
 .bss           0x02066a28        0x0 d:/devkitpro/devkitarm/bin/../lib/gcc/arm-eabi/4.5.1/../../../../arm-eabi/lib\libg.a(lib_a-strtod.o)
 .bss           0x02066a28        0x0 d:/devkitpro/devkitarm/bin/../lib/gcc/arm-eabi/4.5.1/../../../../arm-eabi/lib\libg.a(lib_a-strtol.o)
 .bss           0x02066a28        0x0 d:/devkitpro/devkitarm/bin/../lib/gcc/arm-eabi/4.5.1/../../../../arm-eabi/lib\libg.a(lib_a-svfiscanf.o)
 .bss           0x02066a28        0x0 d:/devkitpro/devkitarm/bin/../lib/gcc/arm-eabi/4.5.1/../../../../arm-eabi/lib\libg.a(lib_a-svfprintf.o)
 .bss           0x02066a28        0x0 d:/devkitpro/devkitarm/bin/../lib/gcc/arm-eabi/4.5.1/../../../../arm-eabi/lib\libg.a(lib_a-sysclose.o)
 .bss           0x02066a28        0x0 d:/devkitpro/devkitarm/bin/../lib/gcc/arm-eabi/4.5.1/../../../../arm-eabi/lib\libg.a(lib_a-syslseek.o)
 .bss           0x02066a28        0x0 d:/devkitpro/devkitarm/bin/../lib/gcc/arm-eabi/4.5.1/../../../../arm-eabi/lib\libg.a(lib_a-sysopen.o)
 .bss           0x02066a28        0x0 d:/devkitpro/devkitarm/bin/../lib/gcc/arm-eabi/4.5.1/../../../../arm-eabi/lib\libg.a(lib_a-sysread.o)
 .bss           0x02066a28        0x0 d:/devkitpro/devkitarm/bin/../lib/gcc/arm-eabi/4.5.1/../../../../arm-eabi/lib\libg.a(lib_a-time.o)
 .bss           0x02066a28        0x0 d:/devkitpro/devkitarm/bin/../lib/gcc/arm-eabi/4.5.1/../../../../arm-eabi/lib\libg.a(lib_a-towlower.o)
 .bss           0x02066a28        0x0 d:/devkitpro/devkitarm/bin/../lib/gcc/arm-eabi/4.5.1/../../../../arm-eabi/lib\libg.a(lib_a-towupper.o)
 .bss           0x02066a28        0x0 d:/devkitpro/devkitarm/bin/../lib/gcc/arm-eabi/4.5.1/../../../../arm-eabi/lib\libg.a(lib_a-tzlock.o)
 .bss           0x02066a28        0x8 d:/devkitpro/devkitarm/bin/../lib/gcc/arm-eabi/4.5.1/../../../../arm-eabi/lib\libg.a(lib_a-tzvars.o)
                0x02066a28                _daylight
                0x02066a2c                _timezone
 .bss           0x02066a30        0x0 d:/devkitpro/devkitarm/bin/../lib/gcc/arm-eabi/4.5.1/../../../../arm-eabi/lib\libg.a(lib_a-ungetc.o)
 .bss           0x02066a30        0x0 d:/devkitpro/devkitarm/bin/../lib/gcc/arm-eabi/4.5.1/../../../../arm-eabi/lib\libg.a(lib_a-vfiprintf.o)
 .bss           0x02066a30        0x0 d:/devkitpro/devkitarm/bin/../lib/gcc/arm-eabi/4.5.1/../../../../arm-eabi/lib\libg.a(lib_a-vfprintf.o)
 .bss           0x02066a30        0x0 d:/devkitpro/devkitarm/bin/../lib/gcc/arm-eabi/4.5.1/../../../../arm-eabi/lib\libg.a(lib_a-wbuf.o)
 .bss           0x02066a30        0x0 d:/devkitpro/devkitarm/bin/../lib/gcc/arm-eabi/4.5.1/../../../../arm-eabi/lib\libg.a(lib_a-wcrtomb.o)
 .bss           0x02066a30        0x0 d:/devkitpro/devkitarm/bin/../lib/gcc/arm-eabi/4.5.1/../../../../arm-eabi/lib\libg.a(lib_a-wcsrtombs.o)
 .bss           0x02066a30        0x0 d:/devkitpro/devkitarm/bin/../lib/gcc/arm-eabi/4.5.1/../../../../arm-eabi/lib\libg.a(lib_a-wctob.o)
 .bss           0x02066a30        0x0 d:/devkitpro/devkitarm/bin/../lib/gcc/arm-eabi/4.5.1/../../../../arm-eabi/lib\libg.a(lib_a-wctomb_r.o)
 .bss           0x02066a30        0x0 d:/devkitpro/devkitarm/bin/../lib/gcc/arm-eabi/4.5.1/../../../../arm-eabi/lib\libg.a(lib_a-wsetup.o)
 .bss           0x02066a30        0x0 d:/devkitpro/devkitarm/bin/../lib/gcc/arm-eabi/4.5.1/../../../../arm-eabi/lib\libg.a(lib_a-ctype_.o)
 .bss           0x02066a30        0x0 d:/devkitpro/devkitarm/bin/../lib/gcc/arm-eabi/4.5.1/../../../../arm-eabi/lib\libg.a(lib_a-div.o)
 .bss           0x02066a30        0x0 d:/devkitpro/devkitarm/bin/../lib/gcc/arm-eabi/4.5.1/../../../../arm-eabi/lib\libg.a(lib_a-dtoa.o)
 .bss           0x02066a30        0x0 d:/devkitpro/devkitarm/bin/../lib/gcc/arm-eabi/4.5.1/../../../../arm-eabi/lib\libg.a(lib_a-flags.o)
 .bss           0x02066a30        0x0 d:/devkitpro/devkitarm/bin/../lib/gcc/arm-eabi/4.5.1/../../../../arm-eabi/lib\libg.a(lib_a-fputwc.o)
 .bss           0x02066a30        0x0 d:/devkitpro/devkitarm/bin/../lib/gcc/arm-eabi/4.5.1/../../../../arm-eabi/lib\libg.a(lib_a-gdtoa-gethex.o)
 .bss           0x02066a30        0x0 d:/devkitpro/devkitarm/bin/../lib/gcc/arm-eabi/4.5.1/../../../../arm-eabi/lib\libg.a(lib_a-gdtoa-hexnan.o)
 .bss           0x02066a30        0x0 d:/devkitpro/devkitarm/bin/../lib/gcc/arm-eabi/4.5.1/../../../../arm-eabi/lib\libg.a(lib_a-getenv_r.o)
 .bss           0x02066a30        0x0 d:/devkitpro/devkitarm/bin/../lib/gcc/arm-eabi/4.5.1/../../../../arm-eabi/lib\libg.a(lib_a-gettzinfo.o)
 .bss           0x02066a30        0x0 d:/devkitpro/devkitarm/bin/../lib/gcc/arm-eabi/4.5.1/../../../../arm-eabi/lib\libg.a(lib_a-iswspace.o)
 .bss           0x02066a30        0x0 d:/devkitpro/devkitarm/bin/../lib/gcc/arm-eabi/4.5.1/../../../../arm-eabi/lib\libg.a(lib_a-jp2uc.o)
 .bss           0x02066a30        0x0 d:/devkitpro/devkitarm/bin/../lib/gcc/arm-eabi/4.5.1/../../../../arm-eabi/lib\libg.a(lib_a-mbsnrtowcs.o)
 .bss           0x02066a30        0x0 d:/devkitpro/devkitarm/bin/../lib/gcc/arm-eabi/4.5.1/../../../../arm-eabi/lib\libg.a(lib_a-mprec.o)
 .bss           0x02066a30        0x0 d:/devkitpro/devkitarm/bin/../lib/gcc/arm-eabi/4.5.1/../../../../arm-eabi/lib\libg.a(lib_a-sccl.o)
 .bss           0x02066a30        0x0 d:/devkitpro/devkitarm/bin/../lib/gcc/arm-eabi/4.5.1/../../../../arm-eabi/lib\libg.a(lib_a-sf_nan.o)
 .bss           0x02066a30        0x0 d:/devkitpro/devkitarm/bin/../lib/gcc/arm-eabi/4.5.1/../../../../arm-eabi/lib\libg.a(lib_a-strtoll_r.o)
 .bss           0x02066a30        0x0 d:/devkitpro/devkitarm/bin/../lib/gcc/arm-eabi/4.5.1/../../../../arm-eabi/lib\libg.a(lib_a-strtoul.o)
 .bss           0x02066a30        0x0 d:/devkitpro/devkitarm/bin/../lib/gcc/arm-eabi/4.5.1/../../../../arm-eabi/lib\libg.a(lib_a-strtoull_r.o)
 .bss           0x02066a30        0x0 d:/devkitpro/devkitarm/bin/../lib/gcc/arm-eabi/4.5.1/../../../../arm-eabi/lib\libg.a(lib_a-svfiprintf.o)
 .bss           0x02066a30        0x0 d:/devkitpro/devkitarm/bin/../lib/gcc/arm-eabi/4.5.1/../../../../arm-eabi/lib\libg.a(lib_a-wcsnrtombs.o)
 .bss           0x02066a30        0x4 d:/devkitpro/devkitarm/bin/../lib/gcc/arm-eabi/4.5.1/../../../../arm-eabi/lib\libg.a(lib_a-environ.o)
 .bss           0x02066a34        0x0 d:/devkitpro/devkitarm/bin/../lib/gcc/arm-eabi/4.5.1/../../../../arm-eabi/lib\libg.a(lib_a-envlock.o)
 .bss           0x02066a34        0x0 d:/devkitpro/devkitarm/bin/../lib/gcc/arm-eabi/4.5.1/../../../../arm-eabi/lib\libsysbase.a(iosupport.o)
 .bss           0x02066a34        0x0 d:/devkitpro/devkitarm/bin/../lib/gcc/arm-eabi/4.5.1/../../../../arm-eabi/lib\libsysbase.a(close.o)
 .bss           0x02066a34        0x0 d:/devkitpro/devkitarm/bin/../lib/gcc/arm-eabi/4.5.1/../../../../arm-eabi/lib\libsysbase.a(fstat.o)
 .bss           0x02066a34        0x0 d:/devkitpro/devkitarm/bin/../lib/gcc/arm-eabi/4.5.1/../../../../arm-eabi/lib\libsysbase.a(getpid.o)
 .bss           0x02066a34        0x0 d:/devkitpro/devkitarm/bin/../lib/gcc/arm-eabi/4.5.1/../../../../arm-eabi/lib\libsysbase.a(isatty.o)
 .bss           0x02066a34        0x0 d:/devkitpro/devkitarm/bin/../lib/gcc/arm-eabi/4.5.1/../../../../arm-eabi/lib\libsysbase.a(kill.o)
 .bss           0x02066a34        0x0 d:/devkitpro/devkitarm/bin/../lib/gcc/arm-eabi/4.5.1/../../../../arm-eabi/lib\libsysbase.a(lseek.o)
 .bss           0x02066a34        0x0 d:/devkitpro/devkitarm/bin/../lib/gcc/arm-eabi/4.5.1/../../../../arm-eabi/lib\libsysbase.a(open.o)
 .bss           0x02066a34        0x0 d:/devkitpro/devkitarm/bin/../lib/gcc/arm-eabi/4.5.1/../../../../arm-eabi/lib\libsysbase.a(read.o)
 .bss           0x02066a34        0x4 d:/devkitpro/devkitarm/bin/../lib/gcc/arm-eabi/4.5.1/../../../../arm-eabi/lib\libsysbase.a(sbrk.o)
 .bss           0x02066a38        0x0 d:/devkitpro/devkitarm/bin/../lib/gcc/arm-eabi/4.5.1/../../../../arm-eabi/lib\libsysbase.a(times.o)
 .bss           0x02066a38        0x0 d:/devkitpro/devkitarm/bin/../lib/gcc/arm-eabi/4.5.1/../../../../arm-eabi/lib\libsysbase.a(write.o)
 .bss           0x02066a38        0x0 d:/devkitpro/devkitarm/bin/../lib/gcc/arm-eabi/4.5.1/../../../../arm-eabi/lib\libsysbase.a(_exit.o)
 .bss           0x02066a38        0x8 d:/devkitpro/devkitarm/bin/../lib/gcc/arm-eabi/4.5.1/../../../../arm-eabi/lib\libsysbase.a(malloc_vars.o)
                0x02066a38                fake_heap_end
                0x02066a3c                fake_heap_start
 .bss           0x02066a40        0x0 d:/devkitpro/devkitarm/bin/../lib/gcc/arm-eabi/4.5.1/../../../../arm-eabi/lib\libsysbase.a(chdir.o)
 .bss           0x02066a40        0x0 d:/devkitpro/devkitarm/bin/../lib/gcc/arm-eabi/4.5.1/../../../../arm-eabi/lib\libsysbase.a(build_argv.o)
 .bss           0x02066a40        0x8 d:/devkitpro/devkitarm/bin/../lib/gcc/arm-eabi/4.5.1/../../../../arm-eabi/lib\libsysbase.a(syscall_support.o)
                0x02066a40                __syscalls
 .bss           0x02066a48     0x1000 d:/devkitpro/devkitarm/bin/../lib/gcc/arm-eabi/4.5.1/../../../../arm-eabi/lib\libsysbase.a(handle_manager.o)
 .bss           0x02067a48        0x0 d:/devkitpro/devkitarm/bin/../lib/gcc/arm-eabi/4.5.1\libgcc.a(_aeabi_uldivmod.o)
 .bss           0x02067a48        0x0 d:/devkitpro/devkitarm/bin/../lib/gcc/arm-eabi/4.5.1\libgcc.a(bpabi.o)
 .bss           0x02067a48        0x0 d:/devkitpro/devkitarm/bin/../lib/gcc/arm-eabi/4.5.1\libgcc.a(unwind-arm.o)
 .bss           0x02067a48        0x0 d:/devkitpro/devkitarm/bin/../lib/gcc/arm-eabi/4.5.1\libgcc.a(libunwind.o)
 .bss           0x02067a48        0x0 d:/devkitpro/devkitarm/bin/../lib/gcc/arm-eabi/4.5.1\libgcc.a(pr-support.o)
 .bss           0x02067a48        0x0 d:/devkitpro/devkitarm/bin/../lib/gcc/arm-eabi/4.5.1\libgcc.a(_divdi3.o)
 .bss           0x02067a48        0x0 d:/devkitpro/devkitarm/bin/../lib/gcc/arm-eabi/4.5.1\libgcc.a(_udivdi3.o)
 .bss           0x02067a48        0x0 d:/devkitpro/devkitarm/bin/../lib/gcc/arm-eabi/4.5.1\libgcc.a(_clzsi2.o)
 .bss           0x02067a48        0x0 d:/devkitpro/devkitarm/bin/../lib/gcc/arm-eabi/4.5.1/crtend.o
 .bss           0x02067a48        0x0 d:/devkitpro/devkitarm/bin/../lib/gcc/arm-eabi/4.5.1/crtn.o
 *(COMMON)
 COMMON         0x02067a48      0x800 d:/devkitPro/libnds/lib\libul.a(ulib.o)
                0x02067a48                ul_cos
                0x02067e48                ul_sin
 COMMON         0x02068248      0x411 d:/devkitPro/libnds/lib\libul.a(drawing.o)
                0x02068248                ul_colorKeyValue32
                0x0206824c                ul_colorKeyValue
                0x02068250                ulDualScreenSprites
                0x02068650                ul_autoDepth
                0x02068651                ul_dualScreenMode
                0x02068652                ul_frameNumber
                0x02068654                ul_currentDepth
                0x02068658                ul_colorKeyEnabled
 *fill*         0x02068659        0x3 00
 COMMON         0x0206865c       0x44 d:/devkitPro/libnds/lib\libul.a(VirtualFile.o)
                0x0206865c                VirtualFileSources
                0x0206869c                ul_virtualFileList
 COMMON         0x020686a0        0x4 d:/devkitPro/libnds/lib\libul.a(vfsGBFS.o)
                0x020686a0                ul_data_gbfs
 COMMON         0x020686a4       0x1c d:/devkitPro/libnds/lib\libul.a(texVramManager.o)
                0x020686a4                ulTextureMax
                0x020686a8                ulTextureParams
                0x020686ac                ulTexRamBlocksNb
                0x020686b0                ulTextureNb
                0x020686b4                ulTexRamBlocksMax
                0x020686b8                ulTexRamBlocks
                0x020686bc                ulTextureActive
 COMMON         0x020686c0        0xc d:/devkitPro/libnds/lib\libul.a(texPalManager.o)
                0x020686c0                ulTexPalBlocksNb
                0x020686c4                ulTexPalBlocks
                0x020686c8                ulTexPalBlocksMax
 COMMON         0x020686cc        0x8 d:/devkitPro/libnds/lib\libul.a(ulShowSplashScreen1.o)
                0x020686cc                ul_splash1_fadeDir
                0x020686d0                ul_splash1_fade
 COMMON         0x020686d4      0xc00 d:/devkitPro/libnds/lib\libul.a(ulShowSplashScreen2.o)
                0x020686d4                ul_neoflashlogo_positions
 COMMON         0x020692d4        0x8 d:/devkitPro/libnds/lib\libul.a(gba-jpeg-decode.o)
                0x020692d4                JPG_outEnd
                0x020692d8                JPG_outBegin
 COMMON         0x020692dc      0x804 d:/devkitPro/libnds/lib\libul.a(libLoadGif.o)
                0x020692dc                temppalette
                0x020692e0                LineBuf
 COMMON         0x02069ae0       0x5c d:/devkitPro/libnds/lib\libnds9.a(console.o)
                0x02069ae0                currentCopy
 COMMON         0x02069b3c       0x4c d:/devkitPro/libnds/lib\libnds9.a(videoGL.o)
                0x02069b3c                glGlobalData
 COMMON         0x02069b88        0x1 d:/devkitPro/libnds/lib\libnds9.a(initSystem.o)
                0x02069b88                __dsimode
 *fill*         0x02069b89        0x3 00
 COMMON         0x02069b8c      0xa40 d:/devkitPro/libnds/lib\libnds9.a(fifosystem.o)
                0x02069b8c                fifo_datamsg_data
                0x02069bcc                fifo_buffer
                0x0206a3cc                fifo_value32_func
                0x0206a40c                fifo_address_func
                0x0206a44c                fifo_value32_data
                0x0206a48c                fifo_value32_queue
                0x0206a4cc                fifo_data_queue
                0x0206a50c                fifo_address_data
                0x0206a54c                fifo_datamsg_func
                0x0206a58c                fifo_address_queue
 COMMON         0x0206a5cc      0x148 d:/devkitPro/libnds/lib\libnds9.a(background.o)
                0x0206a5cc                bgState
                0x0206a70c                bgIsTextLut
 COMMON         0x0206a714      0x100 d:/devkitpro/devkitarm/bin/../lib/gcc/arm-eabi/4.5.1/../../../../arm-eabi/lib\libg.a(lib_a-gdtoa-gethex.o)
                0x0206a714                __hexdig
 COMMON         0x0206a814        0x4 d:/devkitpro/devkitarm/bin/../lib/gcc/arm-eabi/4.5.1/../../../../arm-eabi/lib\libsysbase.a(times.o)
                0x0206a814                punixTime
                0x0206a818                . = ALIGN (0x4)
                0x0206a818                __bss_end = ABSOLUTE (.)
                0x0206a818                __bss_end__ = __bss_end
                0x0206a818                _end = __bss_end__
                0x0206a818                __end__ = __bss_end__

.stab
 *(.stab)

.stabstr
 *(.stabstr)

.stab.excl
 *(.stab.excl)

.stab.exclstr
 *(.stab.exclstr)

.stab.index
 *(.stab.index)

.stab.indexstr
 *(.stab.indexstr)

.ARM.attributes
                0x00000000       0x2d load address 0x020664d0
 .ARM.attributes
                0x00000000       0x21 d:/devkitpro/devkitarm/bin/../lib/gcc/arm-eabi/4.5.1/../../../../arm-eabi/lib/ds_arm9_crt0.o
 .ARM.attributes
                0x00000021       0x20 d:/devkitpro/devkitarm/bin/../lib/gcc/arm-eabi/4.5.1/crti.o
 .ARM.attributes
                0x00000041       0x30 d:/devkitpro/devkitarm/bin/../lib/gcc/arm-eabi/4.5.1/crtbegin.o
 .ARM.attributes
                0x00000071       0x14 roll.png.o
 .ARM.attributes
                0x00000085       0x27 main.o
 .ARM.attributes
                0x000000ac       0x2d d:/devkitPro/libnds/lib\libul.a(ulib.o)
 .ARM.attributes
                0x000000d9       0x2d d:/devkitPro/libnds/lib\libul.a(drawing.o)
 .ARM.attributes
                0x00000106       0x2d d:/devkitPro/libnds/lib\libul.a(text.o)
 .ARM.attributes
                0x00000133       0x2d d:/devkitPro/libnds/lib\libul.a(VirtualFile.o)
 .ARM.attributes
                0x00000160       0x2d d:/devkitPro/libnds/lib\libul.a(vfsLibFat.o)
 .ARM.attributes
                0x0000018d       0x2d d:/devkitPro/libnds/lib\libul.a(vfsGBFS.o)
 .ARM.attributes
                0x000001ba       0x2d d:/devkitPro/libnds/lib\libul.a(texVramManager.o)
 .ARM.attributes
                0x000001e7       0x2d d:/devkitPro/libnds/lib\libul.a(texPalManager.o)
 .ARM.attributes
                0x00000214       0x2d d:/devkitPro/libnds/lib\libul.a(keys.o)
 .ARM.attributes
                0x00000241       0x2d d:/devkitPro/libnds/lib\libul.a(ulDrawImage.o)
 .ARM.attributes
                0x0000026e       0x2d d:/devkitPro/libnds/lib\libul.a(ulCreateImagePalette.o)
 .ARM.attributes
                0x0000029b       0x2d d:/devkitPro/libnds/lib\libul.a(ulDrawGradientRect.o)
 .ARM.attributes
                0x000002c8       0x2d d:/devkitPro/libnds/lib\libul.a(messagebox.o)
 .ARM.attributes
                0x000002f5       0x2d d:/devkitPro/libnds/lib\libul.a(textSize.o)
 .ARM.attributes
                0x00000322       0x2d d:/devkitPro/libnds/lib\libul.a(loading_utility.o)
 .ARM.attributes
                0x0000034f       0x2d d:/devkitPro/libnds/lib\libul.a(ulLoadImageFilePNG.o)
 .ARM.attributes
                0x0000037c       0x2d d:/devkitPro/libnds/lib\libul.a(ulLoadImageFileJPG.o)
 .ARM.attributes
                0x000003a9       0x2d d:/devkitPro/libnds/lib\libul.a(ulShowSplashScreen1.o)
 .ARM.attributes
                0x000003d6       0x2d d:/devkitPro/libnds/lib\libul.a(ulShowSplashScreen2.o)
 .ARM.attributes
                0x00000403       0x2d d:/devkitPro/libnds/lib\libul.a(glWrapper.o)
 .ARM.attributes
                0x00000430       0x2d d:/devkitPro/libnds/lib\libul.a(libLoadPng.o)
 .ARM.attributes
                0x0000045d       0x2d d:/devkitPro/libnds/lib\libul.a(libLoadJpg.o)
 .ARM.attributes
                0x0000048a       0x2d d:/devkitPro/libnds/lib\libul.a(ulDrawFillRect.o)
 .ARM.attributes
                0x000004b7       0x2d d:/devkitPro/libnds/lib\libul.a(ulDrawLine.o)
 .ARM.attributes
                0x000004e4       0x2d d:/devkitPro/libnds/lib\libul.a(ulDrawRect.o)
 .ARM.attributes
                0x00000511       0x2d d:/devkitPro/libnds/lib\libul.a(ulSetImagePixel.o)
 .ARM.attributes
                0x0000053e       0x2d d:/devkitPro/libnds/lib\libul.a(ulGetImagePixel.o)
 .ARM.attributes
                0x0000056b       0x2d d:/devkitPro/libnds/lib\libul.a(ulLoadImageFileGIF.o)
 .ARM.attributes
                0x00000598       0x2d d:/devkitPro/libnds/lib\libul.a(ulReadEntireFileToMemory.o)
 .ARM.attributes
                0x000005c5       0x2d d:/devkitPro/libnds/lib\libul.a(gba-jpeg-decode.o)
 .ARM.attributes
                0x000005f2       0x2d d:/devkitPro/libnds/lib\libul.a(libLoadGif.o)
 .ARM.attributes
                0x0000061f       0x2d d:/devkitPro/libnds/lib\libul.a(dgif_lib.o)
 .ARM.attributes
                0x0000064c       0x2d d:/devkitPro/libnds/lib\libul.a(gif_err.o)
 .ARM.attributes
                0x00000679       0x2d d:/devkitPro/libnds/lib\libul.a(gifalloc.o)
 .ARM.attributes
                0x000006a6       0x2e d:/devkitPro/libnds/lib\libpng.a(png.o)
 .ARM.attributes
                0x000006d4       0x2e d:/devkitPro/libnds/lib\libpng.a(pngread.o)
 .ARM.attributes
                0x00000702       0x2e d:/devkitPro/libnds/lib\libpng.a(pngrio.o)
 .ARM.attributes
                0x00000730       0x2e d:/devkitPro/libnds/lib\libpng.a(pngrtran.o)
 .ARM.attributes
                0x0000075e       0x2e d:/devkitPro/libnds/lib\libpng.a(pngmem.o)
 .ARM.attributes
                0x0000078c       0x2e d:/devkitPro/libnds/lib\libpng.a(pngerror.o)
 .ARM.attributes
                0x000007ba       0x2e d:/devkitPro/libnds/lib\libpng.a(pngget.o)
 .ARM.attributes
                0x000007e8       0x2e d:/devkitPro/libnds/lib\libpng.a(pngrutil.o)
 .ARM.attributes
                0x00000816       0x2e d:/devkitPro/libnds/lib\libpng.a(pngtrans.o)
 .ARM.attributes
                0x00000844       0x2e d:/devkitPro/libnds/lib\libpng.a(pngset.o)
 .ARM.attributes
                0x00000872       0x2e d:/devkitPro/libnds/lib\libz.a(crc32.o)
 .ARM.attributes
                0x000008a0       0x2e d:/devkitPro/libnds/lib\libz.a(inflate.o)
 .ARM.attributes
                0x000008ce       0x2e d:/devkitPro/libnds/lib\libz.a(inftrees.o)
 .ARM.attributes
                0x000008fc       0x2e d:/devkitPro/libnds/lib\libz.a(inffast.o)
 .ARM.attributes
                0x0000092a       0x2e d:/devkitPro/libnds/lib\libz.a(adler32.o)
 .ARM.attributes
                0x00000958       0x2e d:/devkitPro/libnds/lib\libz.a(zutil.o)
 .ARM.attributes
                0x00000986       0x27 d:/devkitPro/libnds/lib\libfat.a(libfat.o)
 .ARM.attributes
                0x000009ad       0x27 d:/devkitPro/libnds/lib\libfat.a(partition.o)
 .ARM.attributes
                0x000009d4       0x27 d:/devkitPro/libnds/lib\libfat.a(cache.o)
 .ARM.attributes
                0x000009fb       0x27 d:/devkitPro/libnds/lib\libfat.a(directory.o)
 .ARM.attributes
                0x00000a22       0x27 d:/devkitPro/libnds/lib\libfat.a(disc.o)
 .ARM.attributes
                0x00000a49       0x27 d:/devkitPro/libnds/lib\libfat.a(fatdir.o)
 .ARM.attributes
                0x00000a70       0x27 d:/devkitPro/libnds/lib\libfat.a(fatfile.o)
 .ARM.attributes
                0x00000a97       0x27 d:/devkitPro/libnds/lib\libfat.a(file_allocation_table.o)
 .ARM.attributes
                0x00000abe       0x27 d:/devkitPro/libnds/lib\libfat.a(filetime.o)
 .ARM.attributes
                0x00000ae5       0x27 d:/devkitPro/libnds/lib\libfat.a(lock.o)
 .ARM.attributes
                0x00000b0c       0x27 d:/devkitPro/libnds/lib\libnds9.a(console.o)
 .ARM.attributes
                0x00000b33       0x27 d:/devkitPro/libnds/lib\libnds9.a(dynamicArray.o)
 .ARM.attributes
                0x00000b5a       0x27 d:/devkitPro/libnds/lib\libnds9.a(keys.o)
 .ARM.attributes
                0x00000b81       0x27 d:/devkitPro/libnds/lib\libnds9.a(system.o)
 .ARM.attributes
                0x00000ba8       0x27 d:/devkitPro/libnds/lib\libnds9.a(touch.o)
 .ARM.attributes
                0x00000bcf       0x27 d:/devkitPro/libnds/lib\libnds9.a(trig.o)
 .ARM.attributes
                0x00000bf6       0x27 d:/devkitPro/libnds/lib\libnds9.a(videoGL.o)
 .ARM.attributes
                0x00000c1d       0x27 d:/devkitPro/libnds/lib\libnds9.a(dldi.o)
 .ARM.attributes
                0x00000c44       0x27 d:/devkitPro/libnds/lib\libnds9.a(dsi_sd.o)
 .ARM.attributes
                0x00000c6b       0x27 d:/devkitPro/libnds/lib\libnds9.a(initSystem.o)
 .ARM.attributes
                0x00000c92       0x27 d:/devkitPro/libnds/lib\libnds9.a(fifosystem.o)
 .ARM.attributes
                0x00000cb9       0x27 d:/devkitPro/libnds/lib\libnds9.a(gbfs.o)
 .ARM.attributes
                0x00000ce0       0x27 d:/devkitPro/libnds/lib\libnds9.a(interrupts.o)
 .ARM.attributes
                0x00000d07       0x27 d:/devkitPro/libnds/lib\libnds9.a(libnds_exit.o)
 .ARM.attributes
                0x00000d2e       0x1b d:/devkitPro/libnds/lib\libnds9.a(dcache.o)
 .ARM.attributes
                0x00000d49       0x1b d:/devkitPro/libnds/lib\libnds9.a(dldi_stub.o)
 .ARM.attributes
                0x00000d64       0x21 d:/devkitPro/libnds/lib\libnds9.a(mpu_setup.o)
 .ARM.attributes
                0x00000d85       0x1b d:/devkitPro/libnds/lib\libnds9.a(biosCalls.o)
 .ARM.attributes
                0x00000da0       0x1b d:/devkitPro/libnds/lib\libnds9.a(debugprint.o)
 .ARM.attributes
                0x00000dbb       0x1b d:/devkitPro/libnds/lib\libnds9.a(interruptDispatcher.o)
 .ARM.attributes
                0x00000dd6       0x21 d:/devkitPro/libnds/lib\libnds9.a(swiSoftReset.o)
 .ARM.attributes
                0x00000df7       0x14 d:/devkitPro/libnds/lib\libnds9.a(default_font.bin.o)
 .ARM.attributes
                0x00000e0b       0x27 d:/devkitPro/libnds/lib\libnds9.a(background.o)
 .ARM.attributes
                0x00000e32       0x27 d:/devkitPro/libnds/lib\libnds9.a(video.o)
 .ARM.attributes
                0x00000e59       0x30 d:/devkitpro/devkitarm/bin/../lib/gcc/arm-eabi/4.5.1/../../../../arm-eabi/lib\libm.a(lib_a-s_cos.o)
 .ARM.attributes
                0x00000e89       0x30 d:/devkitpro/devkitarm/bin/../lib/gcc/arm-eabi/4.5.1/../../../../arm-eabi/lib\libm.a(lib_a-s_sin.o)
 .ARM.attributes
                0x00000eb9       0x30 d:/devkitpro/devkitarm/bin/../lib/gcc/arm-eabi/4.5.1/../../../../arm-eabi/lib\libm.a(lib_a-w_pow.o)
 .ARM.attributes
                0x00000ee9       0x30 d:/devkitpro/devkitarm/bin/../lib/gcc/arm-eabi/4.5.1/../../../../arm-eabi/lib\libm.a(lib_a-e_pow.o)
 .ARM.attributes
                0x00000f19       0x30 d:/devkitpro/devkitarm/bin/../lib/gcc/arm-eabi/4.5.1/../../../../arm-eabi/lib\libm.a(lib_a-e_rem_pio2.o)
 .ARM.attributes
                0x00000f49       0x30 d:/devkitpro/devkitarm/bin/../lib/gcc/arm-eabi/4.5.1/../../../../arm-eabi/lib\libm.a(lib_a-e_sqrt.o)
 .ARM.attributes
                0x00000f79       0x30 d:/devkitpro/devkitarm/bin/../lib/gcc/arm-eabi/4.5.1/../../../../arm-eabi/lib\libm.a(lib_a-k_cos.o)
 .ARM.attributes
                0x00000fa9       0x30 d:/devkitpro/devkitarm/bin/../lib/gcc/arm-eabi/4.5.1/../../../../arm-eabi/lib\libm.a(lib_a-k_rem_pio2.o)
 .ARM.attributes
                0x00000fd9       0x30 d:/devkitpro/devkitarm/bin/../lib/gcc/arm-eabi/4.5.1/../../../../arm-eabi/lib\libm.a(lib_a-k_sin.o)
 .ARM.attributes
                0x00001009       0x30 d:/devkitpro/devkitarm/bin/../lib/gcc/arm-eabi/4.5.1/../../../../arm-eabi/lib\libm.a(lib_a-s_fabs.o)
 .ARM.attributes
                0x00001039       0x30 d:/devkitpro/devkitarm/bin/../lib/gcc/arm-eabi/4.5.1/../../../../arm-eabi/lib\libm.a(lib_a-s_finite.o)
 .ARM.attributes
                0x00001069       0x30 d:/devkitpro/devkitarm/bin/../lib/gcc/arm-eabi/4.5.1/../../../../arm-eabi/lib\libm.a(lib_a-s_floor.o)
 .ARM.attributes
                0x00001099       0x30 d:/devkitpro/devkitarm/bin/../lib/gcc/arm-eabi/4.5.1/../../../../arm-eabi/lib\libm.a(lib_a-s_fpclassify.o)
 .ARM.attributes
                0x000010c9       0x30 d:/devkitpro/devkitarm/bin/../lib/gcc/arm-eabi/4.5.1/../../../../arm-eabi/lib\libm.a(lib_a-s_lib_ver.o)
 .ARM.attributes
                0x000010f9       0x30 d:/devkitpro/devkitarm/bin/../lib/gcc/arm-eabi/4.5.1/../../../../arm-eabi/lib\libm.a(lib_a-s_matherr.o)
 .ARM.attributes
                0x00001129       0x30 d:/devkitpro/devkitarm/bin/../lib/gcc/arm-eabi/4.5.1/../../../../arm-eabi/lib\libm.a(lib_a-s_nan.o)
 .ARM.attributes
                0x00001159       0x30 d:/devkitpro/devkitarm/bin/../lib/gcc/arm-eabi/4.5.1/../../../../arm-eabi/lib\libm.a(lib_a-s_rint.o)
 .ARM.attributes
                0x00001189       0x30 d:/devkitpro/devkitarm/bin/../lib/gcc/arm-eabi/4.5.1/../../../../arm-eabi/lib\libm.a(lib_a-s_scalbn.o)
 .ARM.attributes
                0x000011b9       0x30 d:/devkitpro/devkitarm/bin/../lib/gcc/arm-eabi/4.5.1/../../../../arm-eabi/lib\libm.a(lib_a-s_copysign.o)
 .ARM.attributes
                0x000011e9       0x22 d:/devkitpro/devkitarm/bin/../lib/gcc/arm-eabi/4.5.1\libgcc.a(_udivsi3.o)
 .ARM.attributes
                0x0000120b       0x22 d:/devkitpro/devkitarm/bin/../lib/gcc/arm-eabi/4.5.1\libgcc.a(_divsi3.o)
 .ARM.attributes
                0x0000122d       0x22 d:/devkitpro/devkitarm/bin/../lib/gcc/arm-eabi/4.5.1\libgcc.a(_dvmd_tls.o)
 .ARM.attributes
                0x0000124f       0x22 d:/devkitpro/devkitarm/bin/../lib/gcc/arm-eabi/4.5.1\libgcc.a(_arm_addsubdf3.o)
 .ARM.attributes
                0x00001271       0x22 d:/devkitpro/devkitarm/bin/../lib/gcc/arm-eabi/4.5.1\libgcc.a(_arm_muldivdf3.o)
 .ARM.attributes
                0x00001293       0x22 d:/devkitpro/devkitarm/bin/../lib/gcc/arm-eabi/4.5.1\libgcc.a(_arm_cmpdf2.o)
 .ARM.attributes
                0x000012b5       0x22 d:/devkitpro/devkitarm/bin/../lib/gcc/arm-eabi/4.5.1\libgcc.a(_arm_fixdfsi.o)
 .ARM.attributes
                0x000012d7       0x22 d:/devkitpro/devkitarm/bin/../lib/gcc/arm-eabi/4.5.1\libgcc.a(_arm_fixunsdfsi.o)
 .ARM.attributes
                0x000012f9       0x22 d:/devkitpro/devkitarm/bin/../lib/gcc/arm-eabi/4.5.1\libgcc.a(_arm_truncdfsf2.o)
 .ARM.attributes
                0x0000131b       0x22 d:/devkitpro/devkitarm/bin/../lib/gcc/arm-eabi/4.5.1\libgcc.a(_arm_addsubsf3.o)
 .ARM.attributes
                0x0000133d       0x22 d:/devkitpro/devkitarm/bin/../lib/gcc/arm-eabi/4.5.1\libgcc.a(_arm_muldivsf3.o)
 .ARM.attributes
                0x0000135f       0x22 d:/devkitpro/devkitarm/bin/../lib/gcc/arm-eabi/4.5.1\libgcc.a(_arm_cmpsf2.o)
 .ARM.attributes
                0x00001381       0x22 d:/devkitpro/devkitarm/bin/../lib/gcc/arm-eabi/4.5.1\libgcc.a(_arm_fixsfsi.o)
 .ARM.attributes
                0x000013a3       0x22 d:/devkitpro/devkitarm/bin/../lib/gcc/arm-eabi/4.5.1\libgcc.a(_arm_fixunssfsi.o)
 .ARM.attributes
                0x000013c5       0x30 d:/devkitpro/devkitarm/bin/../lib/gcc/arm-eabi/4.5.1\libgcc.a(_muldi3.o)
 .ARM.attributes
                0x000013f5       0x30 d:/devkitpro/devkitarm/bin/../lib/gcc/arm-eabi/4.5.1/../../../../arm-eabi/lib\libg.a(lib_a-abort.o)
 .ARM.attributes
                0x00001425       0x30 d:/devkitpro/devkitarm/bin/../lib/gcc/arm-eabi/4.5.1/../../../../arm-eabi/lib\libg.a(lib_a-bsearch.o)
 .ARM.attributes
                0x00001455       0x30 d:/devkitpro/devkitarm/bin/../lib/gcc/arm-eabi/4.5.1/../../../../arm-eabi/lib\libg.a(lib_a-calloc.o)
 .ARM.attributes
                0x00001485       0x30 d:/devkitpro/devkitarm/bin/../lib/gcc/arm-eabi/4.5.1/../../../../arm-eabi/lib\libg.a(lib_a-callocr.o)
 .ARM.attributes
                0x000014b5       0x30 d:/devkitpro/devkitarm/bin/../lib/gcc/arm-eabi/4.5.1/../../../../arm-eabi/lib\libg.a(lib_a-errno.o)
 .ARM.attributes
                0x000014e5       0x30 d:/devkitpro/devkitarm/bin/../lib/gcc/arm-eabi/4.5.1/../../../../arm-eabi/lib\libg.a(lib_a-fclose.o)
 .ARM.attributes
                0x00001515       0x30 d:/devkitpro/devkitarm/bin/../lib/gcc/arm-eabi/4.5.1/../../../../arm-eabi/lib\libg.a(lib_a-fflush.o)
 .ARM.attributes
                0x00001545       0x30 d:/devkitpro/devkitarm/bin/../lib/gcc/arm-eabi/4.5.1/../../../../arm-eabi/lib\libg.a(lib_a-fgetc.o)
 .ARM.attributes
                0x00001575       0x30 d:/devkitpro/devkitarm/bin/../lib/gcc/arm-eabi/4.5.1/../../../../arm-eabi/lib\libg.a(lib_a-fgets.o)
 .ARM.attributes
                0x000015a5       0x30 d:/devkitpro/devkitarm/bin/../lib/gcc/arm-eabi/4.5.1/../../../../arm-eabi/lib\libg.a(lib_a-findfp.o)
 .ARM.attributes
                0x000015d5       0x30 d:/devkitpro/devkitarm/bin/../lib/gcc/arm-eabi/4.5.1/../../../../arm-eabi/lib\libg.a(lib_a-fopen.o)
 .ARM.attributes
                0x00001605       0x30 d:/devkitpro/devkitarm/bin/../lib/gcc/arm-eabi/4.5.1/../../../../arm-eabi/lib\libg.a(lib_a-fprintf.o)
 .ARM.attributes
                0x00001635       0x30 d:/devkitpro/devkitarm/bin/../lib/gcc/arm-eabi/4.5.1/../../../../arm-eabi/lib\libg.a(lib_a-fputc.o)
 .ARM.attributes
                0x00001665       0x30 d:/devkitpro/devkitarm/bin/../lib/gcc/arm-eabi/4.5.1/../../../../arm-eabi/lib\libg.a(lib_a-fputs.o)
 .ARM.attributes
                0x00001695       0x30 d:/devkitpro/devkitarm/bin/../lib/gcc/arm-eabi/4.5.1/../../../../arm-eabi/lib\libg.a(lib_a-fread.o)
 .ARM.attributes
                0x000016c5       0x30 d:/devkitpro/devkitarm/bin/../lib/gcc/arm-eabi/4.5.1/../../../../arm-eabi/lib\libg.a(lib_a-freer.o)
 .ARM.attributes
                0x000016f5       0x30 d:/devkitpro/devkitarm/bin/../lib/gcc/arm-eabi/4.5.1/../../../../arm-eabi/lib\libg.a(lib_a-fseek.o)
 .ARM.attributes
                0x00001725       0x30 d:/devkitpro/devkitarm/bin/../lib/gcc/arm-eabi/4.5.1/../../../../arm-eabi/lib\libg.a(lib_a-ftell.o)
 .ARM.attributes
                0x00001755       0x30 d:/devkitpro/devkitarm/bin/../lib/gcc/arm-eabi/4.5.1/../../../../arm-eabi/lib\libg.a(lib_a-fvwrite.o)
 .ARM.attributes
                0x00001785       0x30 d:/devkitpro/devkitarm/bin/../lib/gcc/arm-eabi/4.5.1/../../../../arm-eabi/lib\libg.a(lib_a-fwalk.o)
 .ARM.attributes
                0x000017b5       0x30 d:/devkitpro/devkitarm/bin/../lib/gcc/arm-eabi/4.5.1/../../../../arm-eabi/lib\libg.a(lib_a-fwrite.o)
 .ARM.attributes
                0x000017e5       0x30 d:/devkitpro/devkitarm/bin/../lib/gcc/arm-eabi/4.5.1/../../../../arm-eabi/lib\libg.a(lib_a-impure.o)
 .ARM.attributes
                0x00001815       0x30 d:/devkitpro/devkitarm/bin/../lib/gcc/arm-eabi/4.5.1/../../../../arm-eabi/lib\libg.a(lib_a-init.o)
 .ARM.attributes
                0x00001845       0x30 d:/devkitpro/devkitarm/bin/../lib/gcc/arm-eabi/4.5.1/../../../../arm-eabi/lib\libg.a(lib_a-iprintf.o)
 .ARM.attributes
                0x00001875       0x30 d:/devkitpro/devkitarm/bin/../lib/gcc/arm-eabi/4.5.1/../../../../arm-eabi/lib\libg.a(lib_a-lcltime_r.o)
 .ARM.attributes
                0x000018a5       0x30 d:/devkitpro/devkitarm/bin/../lib/gcc/arm-eabi/4.5.1/../../../../arm-eabi/lib\libg.a(lib_a-locale.o)
 .ARM.attributes
                0x000018d5       0x30 d:/devkitpro/devkitarm/bin/../lib/gcc/arm-eabi/4.5.1/../../../../arm-eabi/lib\libg.a(lib_a-makebuf.o)
 .ARM.attributes
                0x00001905       0x30 d:/devkitpro/devkitarm/bin/../lib/gcc/arm-eabi/4.5.1/../../../../arm-eabi/lib\libg.a(lib_a-malloc.o)
 .ARM.attributes
                0x00001935       0x30 d:/devkitpro/devkitarm/bin/../lib/gcc/arm-eabi/4.5.1/../../../../arm-eabi/lib\libg.a(lib_a-mallocr.o)
 .ARM.attributes
                0x00001965       0x30 d:/devkitpro/devkitarm/bin/../lib/gcc/arm-eabi/4.5.1/../../../../arm-eabi/lib\libg.a(lib_a-mbrtowc.o)
 .ARM.attributes
                0x00001995       0x30 d:/devkitpro/devkitarm/bin/../lib/gcc/arm-eabi/4.5.1/../../../../arm-eabi/lib\libg.a(lib_a-mbsrtowcs.o)
 .ARM.attributes
                0x000019c5       0x30 d:/devkitpro/devkitarm/bin/../lib/gcc/arm-eabi/4.5.1/../../../../arm-eabi/lib\libg.a(lib_a-mbtowc_r.o)
 .ARM.attributes
                0x000019f5       0x30 d:/devkitpro/devkitarm/bin/../lib/gcc/arm-eabi/4.5.1/../../../../arm-eabi/lib\libg.a(lib_a-memchr.o)
 .ARM.attributes
                0x00001a25       0x30 d:/devkitpro/devkitarm/bin/../lib/gcc/arm-eabi/4.5.1/../../../../arm-eabi/lib\libg.a(lib_a-memcmp.o)
 .ARM.attributes
                0x00001a55       0x30 d:/devkitpro/devkitarm/bin/../lib/gcc/arm-eabi/4.5.1/../../../../arm-eabi/lib\libg.a(lib_a-memcpy.o)
 .ARM.attributes
                0x00001a85       0x30 d:/devkitpro/devkitarm/bin/../lib/gcc/arm-eabi/4.5.1/../../../../arm-eabi/lib\libg.a(lib_a-memmove.o)
 .ARM.attributes
                0x00001ab5       0x30 d:/devkitpro/devkitarm/bin/../lib/gcc/arm-eabi/4.5.1/../../../../arm-eabi/lib\libg.a(lib_a-memset.o)
 .ARM.attributes
                0x00001ae5       0x30 d:/devkitpro/devkitarm/bin/../lib/gcc/arm-eabi/4.5.1/../../../../arm-eabi/lib\libg.a(lib_a-mktime.o)
 .ARM.attributes
                0x00001b15       0x30 d:/devkitpro/devkitarm/bin/../lib/gcc/arm-eabi/4.5.1/../../../../arm-eabi/lib\libg.a(lib_a-mktm_r.o)
 .ARM.attributes
                0x00001b45       0x30 d:/devkitpro/devkitarm/bin/../lib/gcc/arm-eabi/4.5.1/../../../../arm-eabi/lib\libg.a(lib_a-mlock.o)
 .ARM.attributes
                0x00001b75       0x30 d:/devkitpro/devkitarm/bin/../lib/gcc/arm-eabi/4.5.1/../../../../arm-eabi/lib\libg.a(lib_a-putc.o)
 .ARM.attributes
                0x00001ba5       0x30 d:/devkitpro/devkitarm/bin/../lib/gcc/arm-eabi/4.5.1/../../../../arm-eabi/lib\libg.a(lib_a-rand.o)
 .ARM.attributes
                0x00001bd5       0x30 d:/devkitpro/devkitarm/bin/../lib/gcc/arm-eabi/4.5.1/../../../../arm-eabi/lib\libg.a(lib_a-realloc.o)
 .ARM.attributes
                0x00001c05       0x30 d:/devkitpro/devkitarm/bin/../lib/gcc/arm-eabi/4.5.1/../../../../arm-eabi/lib\libg.a(lib_a-reallocr.o)
 .ARM.attributes
                0x00001c35       0x30 d:/devkitpro/devkitarm/bin/../lib/gcc/arm-eabi/4.5.1/../../../../arm-eabi/lib\libg.a(lib_a-refill.o)
 .ARM.attributes
                0x00001c65       0x30 d:/devkitpro/devkitarm/bin/../lib/gcc/arm-eabi/4.5.1/../../../../arm-eabi/lib\libg.a(lib_a-rget.o)
 .ARM.attributes
                0x00001c95       0x20 d:/devkitpro/devkitarm/bin/../lib/gcc/arm-eabi/4.5.1/../../../../arm-eabi/lib\libg.a(lib_a-setjmp.o)
 .ARM.attributes
                0x00001cb5       0x30 d:/devkitpro/devkitarm/bin/../lib/gcc/arm-eabi/4.5.1/../../../../arm-eabi/lib\libg.a(lib_a-setvbuf.o)
 .ARM.attributes
                0x00001ce5       0x30 d:/devkitpro/devkitarm/bin/../lib/gcc/arm-eabi/4.5.1/../../../../arm-eabi/lib\libg.a(lib_a-signal.o)
 .ARM.attributes
                0x00001d15       0x30 d:/devkitpro/devkitarm/bin/../lib/gcc/arm-eabi/4.5.1/../../../../arm-eabi/lib\libg.a(lib_a-siscanf.o)
 .ARM.attributes
                0x00001d45       0x30 d:/devkitpro/devkitarm/bin/../lib/gcc/arm-eabi/4.5.1/../../../../arm-eabi/lib\libg.a(lib_a-snprintf.o)
 .ARM.attributes
                0x00001d75       0x30 d:/devkitpro/devkitarm/bin/../lib/gcc/arm-eabi/4.5.1/../../../../arm-eabi/lib\libg.a(lib_a-sprintf.o)
 .ARM.attributes
                0x00001da5       0x30 d:/devkitpro/devkitarm/bin/../lib/gcc/arm-eabi/4.5.1/../../../../arm-eabi/lib\libg.a(lib_a-stdio.o)
 .ARM.attributes
                0x00001dd5       0x30 d:/devkitpro/devkitarm/bin/../lib/gcc/arm-eabi/4.5.1/../../../../arm-eabi/lib\libg.a(lib_a-strcasecmp.o)
 .ARM.attributes
                0x00001e05       0x30 d:/devkitpro/devkitarm/bin/../lib/gcc/arm-eabi/4.5.1/../../../../arm-eabi/lib\libg.a(lib_a-strcat.o)
 .ARM.attributes
                0x00001e35       0x30 d:/devkitpro/devkitarm/bin/../lib/gcc/arm-eabi/4.5.1/../../../../arm-eabi/lib\libg.a(lib_a-strchr.o)
 .ARM.attributes
                0x00001e65       0x30 d:/devkitpro/devkitarm/bin/../lib/gcc/arm-eabi/4.5.1/../../../../arm-eabi/lib\libg.a(lib_a-strcmp.o)
 .ARM.attributes
                0x00001e95       0x30 d:/devkitpro/devkitarm/bin/../lib/gcc/arm-eabi/4.5.1/../../../../arm-eabi/lib\libg.a(lib_a-strcpy.o)
 .ARM.attributes
                0x00001ec5       0x30 d:/devkitpro/devkitarm/bin/../lib/gcc/arm-eabi/4.5.1/../../../../arm-eabi/lib\libg.a(lib_a-strlcpy.o)
 .ARM.attributes
                0x00001ef5       0x30 d:/devkitpro/devkitarm/bin/../lib/gcc/arm-eabi/4.5.1/../../../../arm-eabi/lib\libg.a(lib_a-strlen.o)
 .ARM.attributes
                0x00001f25       0x30 d:/devkitpro/devkitarm/bin/../lib/gcc/arm-eabi/4.5.1/../../../../arm-eabi/lib\libg.a(lib_a-strncasecmp.o)
 .ARM.attributes
                0x00001f55       0x30 d:/devkitpro/devkitarm/bin/../lib/gcc/arm-eabi/4.5.1/../../../../arm-eabi/lib\libg.a(lib_a-strncmp.o)
 .ARM.attributes
                0x00001f85       0x30 d:/devkitpro/devkitarm/bin/../lib/gcc/arm-eabi/4.5.1/../../../../arm-eabi/lib\libg.a(lib_a-strncpy.o)
 .ARM.attributes
                0x00001fb5       0x30 d:/devkitpro/devkitarm/bin/../lib/gcc/arm-eabi/4.5.1/../../../../arm-eabi/lib\libg.a(lib_a-strnlen.o)
 .ARM.attributes
                0x00001fe5       0x30 d:/devkitpro/devkitarm/bin/../lib/gcc/arm-eabi/4.5.1/../../../../arm-eabi/lib\libg.a(lib_a-strpbrk.o)
 .ARM.attributes
                0x00002015       0x30 d:/devkitpro/devkitarm/bin/../lib/gcc/arm-eabi/4.5.1/../../../../arm-eabi/lib\libg.a(lib_a-strrchr.o)
 .ARM.attributes
                0x00002045       0x30 d:/devkitpro/devkitarm/bin/../lib/gcc/arm-eabi/4.5.1/../../../../arm-eabi/lib\libg.a(lib_a-strtod.o)
 .ARM.attributes
                0x00002075       0x30 d:/devkitpro/devkitarm/bin/../lib/gcc/arm-eabi/4.5.1/../../../../arm-eabi/lib\libg.a(lib_a-strtol.o)
 .ARM.attributes
                0x000020a5       0x30 d:/devkitpro/devkitarm/bin/../lib/gcc/arm-eabi/4.5.1/../../../../arm-eabi/lib\libg.a(lib_a-svfiscanf.o)
 .ARM.attributes
                0x000020d5       0x30 d:/devkitpro/devkitarm/bin/../lib/gcc/arm-eabi/4.5.1/../../../../arm-eabi/lib\libg.a(lib_a-svfprintf.o)
 .ARM.attributes
                0x00002105       0x30 d:/devkitpro/devkitarm/bin/../lib/gcc/arm-eabi/4.5.1/../../../../arm-eabi/lib\libg.a(lib_a-sysclose.o)
 .ARM.attributes
                0x00002135       0x30 d:/devkitpro/devkitarm/bin/../lib/gcc/arm-eabi/4.5.1/../../../../arm-eabi/lib\libg.a(lib_a-syslseek.o)
 .ARM.attributes
                0x00002165       0x30 d:/devkitpro/devkitarm/bin/../lib/gcc/arm-eabi/4.5.1/../../../../arm-eabi/lib\libg.a(lib_a-sysopen.o)
 .ARM.attributes
                0x00002195       0x30 d:/devkitpro/devkitarm/bin/../lib/gcc/arm-eabi/4.5.1/../../../../arm-eabi/lib\libg.a(lib_a-sysread.o)
 .ARM.attributes
                0x000021c5       0x30 d:/devkitpro/devkitarm/bin/../lib/gcc/arm-eabi/4.5.1/../../../../arm-eabi/lib\libg.a(lib_a-time.o)
 .ARM.attributes
                0x000021f5       0x30 d:/devkitpro/devkitarm/bin/../lib/gcc/arm-eabi/4.5.1/../../../../arm-eabi/lib\libg.a(lib_a-towlower.o)
 .ARM.attributes
                0x00002225       0x30 d:/devkitpro/devkitarm/bin/../lib/gcc/arm-eabi/4.5.1/../../../../arm-eabi/lib\libg.a(lib_a-towupper.o)
 .ARM.attributes
                0x00002255       0x30 d:/devkitpro/devkitarm/bin/../lib/gcc/arm-eabi/4.5.1/../../../../arm-eabi/lib\libg.a(lib_a-tzlock.o)
 .ARM.attributes
                0x00002285       0x30 d:/devkitpro/devkitarm/bin/../lib/gcc/arm-eabi/4.5.1/../../../../arm-eabi/lib\libg.a(lib_a-tzvars.o)
 .ARM.attributes
                0x000022b5       0x30 d:/devkitpro/devkitarm/bin/../lib/gcc/arm-eabi/4.5.1/../../../../arm-eabi/lib\libg.a(lib_a-ungetc.o)
 .ARM.attributes
                0x000022e5       0x30 d:/devkitpro/devkitarm/bin/../lib/gcc/arm-eabi/4.5.1/../../../../arm-eabi/lib\libg.a(lib_a-vfiprintf.o)
 .ARM.attributes
                0x00002315       0x30 d:/devkitpro/devkitarm/bin/../lib/gcc/arm-eabi/4.5.1/../../../../arm-eabi/lib\libg.a(lib_a-vfprintf.o)
 .ARM.attributes
                0x00002345       0x30 d:/devkitpro/devkitarm/bin/../lib/gcc/arm-eabi/4.5.1/../../../../arm-eabi/lib\libg.a(lib_a-wbuf.o)
 .ARM.attributes
                0x00002375       0x30 d:/devkitpro/devkitarm/bin/../lib/gcc/arm-eabi/4.5.1/../../../../arm-eabi/lib\libg.a(lib_a-wcrtomb.o)
 .ARM.attributes
                0x000023a5       0x30 d:/devkitpro/devkitarm/bin/../lib/gcc/arm-eabi/4.5.1/../../../../arm-eabi/lib\libg.a(lib_a-wcsrtombs.o)
 .ARM.attributes
                0x000023d5       0x30 d:/devkitpro/devkitarm/bin/../lib/gcc/arm-eabi/4.5.1/../../../../arm-eabi/lib\libg.a(lib_a-wctob.o)
 .ARM.attributes
                0x00002405       0x30 d:/devkitpro/devkitarm/bin/../lib/gcc/arm-eabi/4.5.1/../../../../arm-eabi/lib\libg.a(lib_a-wctomb_r.o)
 .ARM.attributes
                0x00002435       0x30 d:/devkitpro/devkitarm/bin/../lib/gcc/arm-eabi/4.5.1/../../../../arm-eabi/lib\libg.a(lib_a-wsetup.o)
 .ARM.attributes
                0x00002465       0x30 d:/devkitpro/devkitarm/bin/../lib/gcc/arm-eabi/4.5.1/../../../../arm-eabi/lib\libg.a(lib_a-ctype_.o)
 .ARM.attributes
                0x00002495       0x30 d:/devkitpro/devkitarm/bin/../lib/gcc/arm-eabi/4.5.1/../../../../arm-eabi/lib\libg.a(lib_a-div.o)
 .ARM.attributes
                0x000024c5       0x30 d:/devkitpro/devkitarm/bin/../lib/gcc/arm-eabi/4.5.1/../../../../arm-eabi/lib\libg.a(lib_a-dtoa.o)
 .ARM.attributes
                0x000024f5       0x30 d:/devkitpro/devkitarm/bin/../lib/gcc/arm-eabi/4.5.1/../../../../arm-eabi/lib\libg.a(lib_a-flags.o)
 .ARM.attributes
                0x00002525       0x30 d:/devkitpro/devkitarm/bin/../lib/gcc/arm-eabi/4.5.1/../../../../arm-eabi/lib\libg.a(lib_a-fputwc.o)
 .ARM.attributes
                0x00002555       0x30 d:/devkitpro/devkitarm/bin/../lib/gcc/arm-eabi/4.5.1/../../../../arm-eabi/lib\libg.a(lib_a-gdtoa-gethex.o)
 .ARM.attributes
                0x00002585       0x30 d:/devkitpro/devkitarm/bin/../lib/gcc/arm-eabi/4.5.1/../../../../arm-eabi/lib\libg.a(lib_a-gdtoa-hexnan.o)
 .ARM.attributes
                0x000025b5       0x30 d:/devkitpro/devkitarm/bin/../lib/gcc/arm-eabi/4.5.1/../../../../arm-eabi/lib\libg.a(lib_a-getenv_r.o)
 .ARM.attributes
                0x000025e5       0x30 d:/devkitpro/devkitarm/bin/../lib/gcc/arm-eabi/4.5.1/../../../../arm-eabi/lib\libg.a(lib_a-gettzinfo.o)
 .ARM.attributes
                0x00002615       0x30 d:/devkitpro/devkitarm/bin/../lib/gcc/arm-eabi/4.5.1/../../../../arm-eabi/lib\libg.a(lib_a-iswspace.o)
 .ARM.attributes
                0x00002645       0x30 d:/devkitpro/devkitarm/bin/../lib/gcc/arm-eabi/4.5.1/../../../../arm-eabi/lib\libg.a(lib_a-jp2uc.o)
 .ARM.attributes
                0x00002675       0x30 d:/devkitpro/devkitarm/bin/../lib/gcc/arm-eabi/4.5.1/../../../../arm-eabi/lib\libg.a(lib_a-mbsnrtowcs.o)
 .ARM.attributes
                0x000026a5       0x30 d:/devkitpro/devkitarm/bin/../lib/gcc/arm-eabi/4.5.1/../../../../arm-eabi/lib\libg.a(lib_a-mprec.o)
 .ARM.attributes
                0x000026d5       0x30 d:/devkitpro/devkitarm/bin/../lib/gcc/arm-eabi/4.5.1/../../../../arm-eabi/lib\libg.a(lib_a-sccl.o)
 .ARM.attributes
                0x00002705       0x30 d:/devkitpro/devkitarm/bin/../lib/gcc/arm-eabi/4.5.1/../../../../arm-eabi/lib\libg.a(lib_a-sf_nan.o)
 .ARM.attributes
                0x00002735       0x30 d:/devkitpro/devkitarm/bin/../lib/gcc/arm-eabi/4.5.1/../../../../arm-eabi/lib\libg.a(lib_a-strtoll_r.o)
 .ARM.attributes
                0x00002765       0x30 d:/devkitpro/devkitarm/bin/../lib/gcc/arm-eabi/4.5.1/../../../../arm-eabi/lib\libg.a(lib_a-strtoul.o)
 .ARM.attributes
                0x00002795       0x30 d:/devkitpro/devkitarm/bin/../lib/gcc/arm-eabi/4.5.1/../../../../arm-eabi/lib\libg.a(lib_a-strtoull_r.o)
 .ARM.attributes
                0x000027c5       0x30 d:/devkitpro/devkitarm/bin/../lib/gcc/arm-eabi/4.5.1/../../../../arm-eabi/lib\libg.a(lib_a-svfiprintf.o)
 .ARM.attributes
                0x000027f5       0x30 d:/devkitpro/devkitarm/bin/../lib/gcc/arm-eabi/4.5.1/../../../../arm-eabi/lib\libg.a(lib_a-wcsnrtombs.o)
 .ARM.attributes
                0x00002825       0x30 d:/devkitpro/devkitarm/bin/../lib/gcc/arm-eabi/4.5.1/../../../../arm-eabi/lib\libg.a(lib_a-environ.o)
 .ARM.attributes
                0x00002855       0x30 d:/devkitpro/devkitarm/bin/../lib/gcc/arm-eabi/4.5.1/../../../../arm-eabi/lib\libg.a(lib_a-envlock.o)
 .ARM.attributes
                0x00002885       0x30 d:/devkitpro/devkitarm/bin/../lib/gcc/arm-eabi/4.5.1/../../../../arm-eabi/lib\libsysbase.a(iosupport.o)
 .ARM.attributes
                0x000028b5       0x30 d:/devkitpro/devkitarm/bin/../lib/gcc/arm-eabi/4.5.1/../../../../arm-eabi/lib\libsysbase.a(close.o)
 .ARM.attributes
                0x000028e5       0x30 d:/devkitpro/devkitarm/bin/../lib/gcc/arm-eabi/4.5.1/../../../../arm-eabi/lib\libsysbase.a(fstat.o)
 .ARM.attributes
                0x00002915       0x30 d:/devkitpro/devkitarm/bin/../lib/gcc/arm-eabi/4.5.1/../../../../arm-eabi/lib\libsysbase.a(getpid.o)
 .ARM.attributes
                0x00002945       0x30 d:/devkitpro/devkitarm/bin/../lib/gcc/arm-eabi/4.5.1/../../../../arm-eabi/lib\libsysbase.a(isatty.o)
 .ARM.attributes
                0x00002975       0x30 d:/devkitpro/devkitarm/bin/../lib/gcc/arm-eabi/4.5.1/../../../../arm-eabi/lib\libsysbase.a(kill.o)
 .ARM.attributes
                0x000029a5       0x30 d:/devkitpro/devkitarm/bin/../lib/gcc/arm-eabi/4.5.1/../../../../arm-eabi/lib\libsysbase.a(lseek.o)
 .ARM.attributes
                0x000029d5       0x30 d:/devkitpro/devkitarm/bin/../lib/gcc/arm-eabi/4.5.1/../../../../arm-eabi/lib\libsysbase.a(open.o)
 .ARM.attributes
                0x00002a05       0x30 d:/devkitpro/devkitarm/bin/../lib/gcc/arm-eabi/4.5.1/../../../../arm-eabi/lib\libsysbase.a(read.o)
 .ARM.attributes
                0x00002a35       0x30 d:/devkitpro/devkitarm/bin/../lib/gcc/arm-eabi/4.5.1/../../../../arm-eabi/lib\libsysbase.a(sbrk.o)
 .ARM.attributes
                0x00002a65       0x30 d:/devkitpro/devkitarm/bin/../lib/gcc/arm-eabi/4.5.1/../../../../arm-eabi/lib\libsysbase.a(times.o)
 .ARM.attributes
                0x00002a95       0x30 d:/devkitpro/devkitarm/bin/../lib/gcc/arm-eabi/4.5.1/../../../../arm-eabi/lib\libsysbase.a(write.o)
 .ARM.attributes
                0x00002ac5       0x30 d:/devkitpro/devkitarm/bin/../lib/gcc/arm-eabi/4.5.1/../../../../arm-eabi/lib\libsysbase.a(_exit.o)
 .ARM.attributes
                0x00002af5       0x30 d:/devkitpro/devkitarm/bin/../lib/gcc/arm-eabi/4.5.1/../../../../arm-eabi/lib\libsysbase.a(malloc_vars.o)
 .ARM.attributes
                0x00002b25       0x30 d:/devkitpro/devkitarm/bin/../lib/gcc/arm-eabi/4.5.1/../../../../arm-eabi/lib\libsysbase.a(chdir.o)
 .ARM.attributes
                0x00002b55       0x30 d:/devkitpro/devkitarm/bin/../lib/gcc/arm-eabi/4.5.1/../../../../arm-eabi/lib\libsysbase.a(build_argv.o)
 .ARM.attributes
                0x00002b85       0x30 d:/devkitpro/devkitarm/bin/../lib/gcc/arm-eabi/4.5.1/../../../../arm-eabi/lib\libsysbase.a(syscall_support.o)
 .ARM.attributes
                0x00002bb5       0x30 d:/devkitpro/devkitarm/bin/../lib/gcc/arm-eabi/4.5.1/../../../../arm-eabi/lib\libsysbase.a(handle_manager.o)
 .ARM.attributes
                0x00002be5       0x22 d:/devkitpro/devkitarm/bin/../lib/gcc/arm-eabi/4.5.1\libgcc.a(_aeabi_uldivmod.o)
 .ARM.attributes
                0x00002c07       0x30 d:/devkitpro/devkitarm/bin/../lib/gcc/arm-eabi/4.5.1\libgcc.a(bpabi.o)
 .ARM.attributes
                0x00002c37       0x30 d:/devkitpro/devkitarm/bin/../lib/gcc/arm-eabi/4.5.1\libgcc.a(unwind-arm.o)
 .ARM.attributes
                0x00002c67       0x1c d:/devkitpro/devkitarm/bin/../lib/gcc/arm-eabi/4.5.1\libgcc.a(libunwind.o)
 .ARM.attributes
                0x00002c83       0x30 d:/devkitpro/devkitarm/bin/../lib/gcc/arm-eabi/4.5.1\libgcc.a(pr-support.o)
 .ARM.attributes
                0x00002cb3       0x30 d:/devkitpro/devkitarm/bin/../lib/gcc/arm-eabi/4.5.1\libgcc.a(_divdi3.o)
 .ARM.attributes
                0x00002ce3       0x30 d:/devkitpro/devkitarm/bin/../lib/gcc/arm-eabi/4.5.1\libgcc.a(_udivdi3.o)
 .ARM.attributes
                0x00002d13       0x22 d:/devkitpro/devkitarm/bin/../lib/gcc/arm-eabi/4.5.1\libgcc.a(_clzsi2.o)
 .ARM.attributes
                0x00002d35       0x30 d:/devkitpro/devkitarm/bin/../lib/gcc/arm-eabi/4.5.1/crtend.o
 .ARM.attributes
                0x00002d65       0x20 d:/devkitpro/devkitarm/bin/../lib/gcc/arm-eabi/4.5.1/crtn.o

.comment        0x00000000      0x252 load address 0x020664d0
 *(.comment)
 .comment       0x00000000       0x22 d:/devkitpro/devkitarm/bin/../lib/gcc/arm-eabi/4.5.1/crtbegin.o
                                 0x23 (size before relaxing)
 .comment       0x00000000       0x23 main.o
 .comment       0x00000000       0x23 d:/devkitPro/libnds/lib\libul.a(ulib.o)
 .comment       0x00000000       0x23 d:/devkitPro/libnds/lib\libul.a(drawing.o)
 .comment       0x00000000       0x23 d:/devkitPro/libnds/lib\libul.a(text.o)
 .comment       0x00000000       0x23 d:/devkitPro/libnds/lib\libul.a(VirtualFile.o)
 .comment       0x00000000       0x23 d:/devkitPro/libnds/lib\libul.a(vfsLibFat.o)
 .comment       0x00000000       0x23 d:/devkitPro/libnds/lib\libul.a(vfsGBFS.o)
 .comment       0x00000000       0x23 d:/devkitPro/libnds/lib\libul.a(texVramManager.o)
 .comment       0x00000000       0x23 d:/devkitPro/libnds/lib\libul.a(texPalManager.o)
 .comment       0x00000000       0x23 d:/devkitPro/libnds/lib\libul.a(keys.o)
 .comment       0x00000000       0x23 d:/devkitPro/libnds/lib\libul.a(ulDrawImage.o)
 .comment       0x00000000       0x23 d:/devkitPro/libnds/lib\libul.a(ulCreateImagePalette.o)
 .comment       0x00000000       0x23 d:/devkitPro/libnds/lib\libul.a(ulDrawGradientRect.o)
 .comment       0x00000000       0x23 d:/devkitPro/libnds/lib\libul.a(messagebox.o)
 .comment       0x00000000       0x23 d:/devkitPro/libnds/lib\libul.a(textSize.o)
 .comment       0x00000000       0x23 d:/devkitPro/libnds/lib\libul.a(loading_utility.o)
 .comment       0x00000000       0x23 d:/devkitPro/libnds/lib\libul.a(ulLoadImageFilePNG.o)
 .comment       0x00000000       0x23 d:/devkitPro/libnds/lib\libul.a(ulLoadImageFileJPG.o)
 .comment       0x00000000       0x23 d:/devkitPro/libnds/lib\libul.a(ulShowSplashScreen1.o)
 .comment       0x00000000       0x23 d:/devkitPro/libnds/lib\libul.a(ulShowSplashScreen2.o)
 .comment       0x00000000       0x23 d:/devkitPro/libnds/lib\libul.a(glWrapper.o)
 .comment       0x00000000       0x23 d:/devkitPro/libnds/lib\libul.a(libLoadPng.o)
 .comment       0x00000000       0x23 d:/devkitPro/libnds/lib\libul.a(libLoadJpg.o)
 .comment       0x00000000       0x23 d:/devkitPro/libnds/lib\libul.a(ulDrawFillRect.o)
 .comment       0x00000000       0x23 d:/devkitPro/libnds/lib\libul.a(ulDrawLine.o)
 .comment       0x00000000       0x23 d:/devkitPro/libnds/lib\libul.a(ulDrawRect.o)
 .comment       0x00000000       0x23 d:/devkitPro/libnds/lib\libul.a(ulSetImagePixel.o)
 .comment       0x00000000       0x23 d:/devkitPro/libnds/lib\libul.a(ulGetImagePixel.o)
 .comment       0x00000000       0x23 d:/devkitPro/libnds/lib\libul.a(ulLoadImageFileGIF.o)
 .comment       0x00000000       0x23 d:/devkitPro/libnds/lib\libul.a(ulReadEntireFileToMemory.o)
 .comment       0x00000000       0x23 d:/devkitPro/libnds/lib\libul.a(gba-jpeg-decode.o)
 .comment       0x00000000       0x23 d:/devkitPro/libnds/lib\libul.a(libLoadGif.o)
 .comment       0x00000000       0x23 d:/devkitPro/libnds/lib\libul.a(dgif_lib.o)
 .comment       0x00000000       0x23 d:/devkitPro/libnds/lib\libul.a(gif_err.o)
 .comment       0x00000000       0x23 d:/devkitPro/libnds/lib\libul.a(gifalloc.o)
 .comment       0x00000022       0x23 d:/devkitPro/libnds/lib\libpng.a(png.o)
 .comment       0x00000045       0x23 d:/devkitPro/libnds/lib\libpng.a(pngread.o)
 .comment       0x00000068       0x23 d:/devkitPro/libnds/lib\libpng.a(pngrio.o)
 .comment       0x0000008b       0x23 d:/devkitPro/libnds/lib\libpng.a(pngrtran.o)
 .comment       0x000000ae       0x23 d:/devkitPro/libnds/lib\libpng.a(pngmem.o)
 .comment       0x000000d1       0x23 d:/devkitPro/libnds/lib\libpng.a(pngerror.o)
 .comment       0x000000f4       0x23 d:/devkitPro/libnds/lib\libpng.a(pngget.o)
 .comment       0x00000117       0x23 d:/devkitPro/libnds/lib\libpng.a(pngrutil.o)
 .comment       0x0000013a       0x23 d:/devkitPro/libnds/lib\libpng.a(pngtrans.o)
 .comment       0x0000015d       0x23 d:/devkitPro/libnds/lib\libpng.a(pngset.o)
 .comment       0x00000180       0x23 d:/devkitPro/libnds/lib\libz.a(crc32.o)
 .comment       0x000001a3       0x23 d:/devkitPro/libnds/lib\libz.a(inflate.o)
 .comment       0x000001c6       0x23 d:/devkitPro/libnds/lib\libz.a(inftrees.o)
 .comment       0x000001e9       0x23 d:/devkitPro/libnds/lib\libz.a(inffast.o)
 .comment       0x0000020c       0x23 d:/devkitPro/libnds/lib\libz.a(adler32.o)
 .comment       0x0000022f       0x23 d:/devkitPro/libnds/lib\libz.a(zutil.o)
 .comment       0x00000000       0x23 d:/devkitPro/libnds/lib\libfat.a(libfat.o)
 .comment       0x00000000       0x23 d:/devkitPro/libnds/lib\libfat.a(partition.o)
 .comment       0x00000000       0x23 d:/devkitPro/libnds/lib\libfat.a(cache.o)
 .comment       0x00000000       0x23 d:/devkitPro/libnds/lib\libfat.a(directory.o)
 .comment       0x00000000       0x23 d:/devkitPro/libnds/lib\libfat.a(disc.o)
 .comment       0x00000000       0x23 d:/devkitPro/libnds/lib\libfat.a(fatdir.o)
 .comment       0x00000000       0x23 d:/devkitPro/libnds/lib\libfat.a(fatfile.o)
 .comment       0x00000000       0x23 d:/devkitPro/libnds/lib\libfat.a(file_allocation_table.o)
 .comment       0x00000000       0x23 d:/devkitPro/libnds/lib\libfat.a(filetime.o)
 .comment       0x00000000       0x23 d:/devkitPro/libnds/lib\libfat.a(lock.o)
 .comment       0x00000000       0x23 d:/devkitPro/libnds/lib\libnds9.a(console.o)
 .comment       0x00000000       0x23 d:/devkitPro/libnds/lib\libnds9.a(dynamicArray.o)
 .comment       0x00000000       0x23 d:/devkitPro/libnds/lib\libnds9.a(keys.o)
 .comment       0x00000000       0x23 d:/devkitPro/libnds/lib\libnds9.a(system.o)
 .comment       0x00000000       0x23 d:/devkitPro/libnds/lib\libnds9.a(touch.o)
 .comment       0x00000000       0x23 d:/devkitPro/libnds/lib\libnds9.a(trig.o)
 .comment       0x00000000       0x23 d:/devkitPro/libnds/lib\libnds9.a(videoGL.o)
 .comment       0x00000000       0x23 d:/devkitPro/libnds/lib\libnds9.a(dldi.o)
 .comment       0x00000000       0x23 d:/devkitPro/libnds/lib\libnds9.a(dsi_sd.o)
 .comment       0x00000000       0x23 d:/devkitPro/libnds/lib\libnds9.a(initSystem.o)
 .comment       0x00000000       0x23 d:/devkitPro/libnds/lib\libnds9.a(fifosystem.o)
 .comment       0x00000000       0x23 d:/devkitPro/libnds/lib\libnds9.a(gbfs.o)
 .comment       0x00000000       0x23 d:/devkitPro/libnds/lib\libnds9.a(interrupts.o)
 .comment       0x00000000       0x23 d:/devkitPro/libnds/lib\libnds9.a(libnds_exit.o)
 .comment       0x00000000       0x23 d:/devkitPro/libnds/lib\libnds9.a(background.o)
 .comment       0x00000000       0x23 d:/devkitPro/libnds/lib\libnds9.a(video.o)
 .comment       0x00000000       0x23 d:/devkitpro/devkitarm/bin/../lib/gcc/arm-eabi/4.5.1/../../../../arm-eabi/lib\libm.a(lib_a-s_cos.o)
 .comment       0x00000000       0x23 d:/devkitpro/devkitarm/bin/../lib/gcc/arm-eabi/4.5.1/../../../../arm-eabi/lib\libm.a(lib_a-s_sin.o)
 .comment       0x00000000       0x23 d:/devkitpro/devkitarm/bin/../lib/gcc/arm-eabi/4.5.1/../../../../arm-eabi/lib\libm.a(lib_a-w_pow.o)
 .comment       0x00000000       0x23 d:/devkitpro/devkitarm/bin/../lib/gcc/arm-eabi/4.5.1/../../../../arm-eabi/lib\libm.a(lib_a-e_pow.o)
 .comment       0x00000000       0x23 d:/devkitpro/devkitarm/bin/../lib/gcc/arm-eabi/4.5.1/../../../../arm-eabi/lib\libm.a(lib_a-e_rem_pio2.o)
 .comment       0x00000000       0x23 d:/devkitpro/devkitarm/bin/../lib/gcc/arm-eabi/4.5.1/../../../../arm-eabi/lib\libm.a(lib_a-e_sqrt.o)
 .comment       0x00000000       0x23 d:/devkitpro/devkitarm/bin/../lib/gcc/arm-eabi/4.5.1/../../../../arm-eabi/lib\libm.a(lib_a-k_cos.o)
 .comment       0x00000000       0x23 d:/devkitpro/devkitarm/bin/../lib/gcc/arm-eabi/4.5.1/../../../../arm-eabi/lib\libm.a(lib_a-k_rem_pio2.o)
 .comment       0x00000000       0x23 d:/devkitpro/devkitarm/bin/../lib/gcc/arm-eabi/4.5.1/../../../../arm-eabi/lib\libm.a(lib_a-k_sin.o)
 .comment       0x00000000       0x23 d:/devkitpro/devkitarm/bin/../lib/gcc/arm-eabi/4.5.1/../../../../arm-eabi/lib\libm.a(lib_a-s_fabs.o)
 .comment       0x00000000       0x23 d:/devkitpro/devkitarm/bin/../lib/gcc/arm-eabi/4.5.1/../../../../arm-eabi/lib\libm.a(lib_a-s_finite.o)
 .comment       0x00000000       0x23 d:/devkitpro/devkitarm/bin/../lib/gcc/arm-eabi/4.5.1/../../../../arm-eabi/lib\libm.a(lib_a-s_floor.o)
 .comment       0x00000000       0x23 d:/devkitpro/devkitarm/bin/../lib/gcc/arm-eabi/4.5.1/../../../../arm-eabi/lib\libm.a(lib_a-s_fpclassify.o)
 .comment       0x00000000       0x23 d:/devkitpro/devkitarm/bin/../lib/gcc/arm-eabi/4.5.1/../../../../arm-eabi/lib\libm.a(lib_a-s_lib_ver.o)
 .comment       0x00000000       0x23 d:/devkitpro/devkitarm/bin/../lib/gcc/arm-eabi/4.5.1/../../../../arm-eabi/lib\libm.a(lib_a-s_matherr.o)
 .comment       0x00000000       0x23 d:/devkitpro/devkitarm/bin/../lib/gcc/arm-eabi/4.5.1/../../../../arm-eabi/lib\libm.a(lib_a-s_nan.o)
 .comment       0x00000000       0x23 d:/devkitpro/devkitarm/bin/../lib/gcc/arm-eabi/4.5.1/../../../../arm-eabi/lib\libm.a(lib_a-s_rint.o)
 .comment       0x00000000       0x23 d:/devkitpro/devkitarm/bin/../lib/gcc/arm-eabi/4.5.1/../../../../arm-eabi/lib\libm.a(lib_a-s_scalbn.o)
 .comment       0x00000000       0x23 d:/devkitpro/devkitarm/bin/../lib/gcc/arm-eabi/4.5.1/../../../../arm-eabi/lib\libm.a(lib_a-s_copysign.o)
 .comment       0x00000000       0x23 d:/devkitpro/devkitarm/bin/../lib/gcc/arm-eabi/4.5.1\libgcc.a(_muldi3.o)
 .comment       0x00000000       0x23 d:/devkitpro/devkitarm/bin/../lib/gcc/arm-eabi/4.5.1/../../../../arm-eabi/lib\libg.a(lib_a-abort.o)
 .comment       0x00000000       0x23 d:/devkitpro/devkitarm/bin/../lib/gcc/arm-eabi/4.5.1/../../../../arm-eabi/lib\libg.a(lib_a-bsearch.o)
 .comment       0x00000000       0x23 d:/devkitpro/devkitarm/bin/../lib/gcc/arm-eabi/4.5.1/../../../../arm-eabi/lib\libg.a(lib_a-calloc.o)
 .comment       0x00000000       0x23 d:/devkitpro/devkitarm/bin/../lib/gcc/arm-eabi/4.5.1/../../../../arm-eabi/lib\libg.a(lib_a-callocr.o)
 .comment       0x00000000       0x23 d:/devkitpro/devkitarm/bin/../lib/gcc/arm-eabi/4.5.1/../../../../arm-eabi/lib\libg.a(lib_a-errno.o)
 .comment       0x00000000       0x23 d:/devkitpro/devkitarm/bin/../lib/gcc/arm-eabi/4.5.1/../../../../arm-eabi/lib\libg.a(lib_a-fclose.o)
 .comment       0x00000000       0x23 d:/devkitpro/devkitarm/bin/../lib/gcc/arm-eabi/4.5.1/../../../../arm-eabi/lib\libg.a(lib_a-fflush.o)
 .comment       0x00000000       0x23 d:/devkitpro/devkitarm/bin/../lib/gcc/arm-eabi/4.5.1/../../../../arm-eabi/lib\libg.a(lib_a-fgetc.o)
 .comment       0x00000000       0x23 d:/devkitpro/devkitarm/bin/../lib/gcc/arm-eabi/4.5.1/../../../../arm-eabi/lib\libg.a(lib_a-fgets.o)
 .comment       0x00000000       0x23 d:/devkitpro/devkitarm/bin/../lib/gcc/arm-eabi/4.5.1/../../../../arm-eabi/lib\libg.a(lib_a-findfp.o)
 .comment       0x00000000       0x23 d:/devkitpro/devkitarm/bin/../lib/gcc/arm-eabi/4.5.1/../../../../arm-eabi/lib\libg.a(lib_a-fopen.o)
 .comment       0x00000000       0x23 d:/devkitpro/devkitarm/bin/../lib/gcc/arm-eabi/4.5.1/../../../../arm-eabi/lib\libg.a(lib_a-fprintf.o)
 .comment       0x00000000       0x23 d:/devkitpro/devkitarm/bin/../lib/gcc/arm-eabi/4.5.1/../../../../arm-eabi/lib\libg.a(lib_a-fputc.o)
 .comment       0x00000000       0x23 d:/devkitpro/devkitarm/bin/../lib/gcc/arm-eabi/4.5.1/../../../../arm-eabi/lib\libg.a(lib_a-fputs.o)
 .comment       0x00000000       0x23 d:/devkitpro/devkitarm/bin/../lib/gcc/arm-eabi/4.5.1/../../../../arm-eabi/lib\libg.a(lib_a-fread.o)
 .comment       0x00000000       0x23 d:/devkitpro/devkitarm/bin/../lib/gcc/arm-eabi/4.5.1/../../../../arm-eabi/lib\libg.a(lib_a-freer.o)
 .comment       0x00000000       0x23 d:/devkitpro/devkitarm/bin/../lib/gcc/arm-eabi/4.5.1/../../../../arm-eabi/lib\libg.a(lib_a-fseek.o)
 .comment       0x00000000       0x23 d:/devkitpro/devkitarm/bin/../lib/gcc/arm-eabi/4.5.1/../../../../arm-eabi/lib\libg.a(lib_a-ftell.o)
 .comment       0x00000000       0x23 d:/devkitpro/devkitarm/bin/../lib/gcc/arm-eabi/4.5.1/../../../../arm-eabi/lib\libg.a(lib_a-fvwrite.o)
 .comment       0x00000000       0x23 d:/devkitpro/devkitarm/bin/../lib/gcc/arm-eabi/4.5.1/../../../../arm-eabi/lib\libg.a(lib_a-fwalk.o)
 .comment       0x00000000       0x23 d:/devkitpro/devkitarm/bin/../lib/gcc/arm-eabi/4.5.1/../../../../arm-eabi/lib\libg.a(lib_a-fwrite.o)
 .comment       0x00000000       0x23 d:/devkitpro/devkitarm/bin/../lib/gcc/arm-eabi/4.5.1/../../../../arm-eabi/lib\libg.a(lib_a-impure.o)
 .comment       0x00000000       0x23 d:/devkitpro/devkitarm/bin/../lib/gcc/arm-eabi/4.5.1/../../../../arm-eabi/lib\libg.a(lib_a-init.o)
 .comment       0x00000000       0x23 d:/devkitpro/devkitarm/bin/../lib/gcc/arm-eabi/4.5.1/../../../../arm-eabi/lib\libg.a(lib_a-iprintf.o)
 .comment       0x00000000       0x23 d:/devkitpro/devkitarm/bin/../lib/gcc/arm-eabi/4.5.1/../../../../arm-eabi/lib\libg.a(lib_a-lcltime_r.o)
 .comment       0x00000000       0x23 d:/devkitpro/devkitarm/bin/../lib/gcc/arm-eabi/4.5.1/../../../../arm-eabi/lib\libg.a(lib_a-locale.o)
 .comment       0x00000000       0x23 d:/devkitpro/devkitarm/bin/../lib/gcc/arm-eabi/4.5.1/../../../../arm-eabi/lib\libg.a(lib_a-makebuf.o)
 .comment       0x00000000       0x23 d:/devkitpro/devkitarm/bin/../lib/gcc/arm-eabi/4.5.1/../../../../arm-eabi/lib\libg.a(lib_a-malloc.o)
 .comment       0x00000000       0x23 d:/devkitpro/devkitarm/bin/../lib/gcc/arm-eabi/4.5.1/../../../../arm-eabi/lib\libg.a(lib_a-mallocr.o)
 .comment       0x00000000       0x23 d:/devkitpro/devkitarm/bin/../lib/gcc/arm-eabi/4.5.1/../../../../arm-eabi/lib\libg.a(lib_a-mbrtowc.o)
 .comment       0x00000000       0x23 d:/devkitpro/devkitarm/bin/../lib/gcc/arm-eabi/4.5.1/../../../../arm-eabi/lib\libg.a(lib_a-mbsrtowcs.o)
 .comment       0x00000000       0x23 d:/devkitpro/devkitarm/bin/../lib/gcc/arm-eabi/4.5.1/../../../../arm-eabi/lib\libg.a(lib_a-mbtowc_r.o)
 .comment       0x00000000       0x23 d:/devkitpro/devkitarm/bin/../lib/gcc/arm-eabi/4.5.1/../../../../arm-eabi/lib\libg.a(lib_a-memchr.o)
 .comment       0x00000000       0x23 d:/devkitpro/devkitarm/bin/../lib/gcc/arm-eabi/4.5.1/../../../../arm-eabi/lib\libg.a(lib_a-memcmp.o)
 .comment       0x00000000       0x23 d:/devkitpro/devkitarm/bin/../lib/gcc/arm-eabi/4.5.1/../../../../arm-eabi/lib\libg.a(lib_a-memcpy.o)
 .comment       0x00000000       0x23 d:/devkitpro/devkitarm/bin/../lib/gcc/arm-eabi/4.5.1/../../../../arm-eabi/lib\libg.a(lib_a-memmove.o)
 .comment       0x00000000       0x23 d:/devkitpro/devkitarm/bin/../lib/gcc/arm-eabi/4.5.1/../../../../arm-eabi/lib\libg.a(lib_a-memset.o)
 .comment       0x00000000       0x23 d:/devkitpro/devkitarm/bin/../lib/gcc/arm-eabi/4.5.1/../../../../arm-eabi/lib\libg.a(lib_a-mktime.o)
 .comment       0x00000000       0x23 d:/devkitpro/devkitarm/bin/../lib/gcc/arm-eabi/4.5.1/../../../../arm-eabi/lib\libg.a(lib_a-mktm_r.o)
 .comment       0x00000000       0x23 d:/devkitpro/devkitarm/bin/../lib/gcc/arm-eabi/4.5.1/../../../../arm-eabi/lib\libg.a(lib_a-mlock.o)
 .comment       0x00000000       0x23 d:/devkitpro/devkitarm/bin/../lib/gcc/arm-eabi/4.5.1/../../../../arm-eabi/lib\libg.a(lib_a-putc.o)
 .comment       0x00000000       0x23 d:/devkitpro/devkitarm/bin/../lib/gcc/arm-eabi/4.5.1/../../../../arm-eabi/lib\libg.a(lib_a-rand.o)
 .comment       0x00000000       0x23 d:/devkitpro/devkitarm/bin/../lib/gcc/arm-eabi/4.5.1/../../../../arm-eabi/lib\libg.a(lib_a-realloc.o)
 .comment       0x00000000       0x23 d:/devkitpro/devkitarm/bin/../lib/gcc/arm-eabi/4.5.1/../../../../arm-eabi/lib\libg.a(lib_a-reallocr.o)
 .comment       0x00000000       0x23 d:/devkitpro/devkitarm/bin/../lib/gcc/arm-eabi/4.5.1/../../../../arm-eabi/lib\libg.a(lib_a-refill.o)
 .comment       0x00000000       0x23 d:/devkitpro/devkitarm/bin/../lib/gcc/arm-eabi/4.5.1/../../../../arm-eabi/lib\libg.a(lib_a-rget.o)
 .comment       0x00000000       0x23 d:/devkitpro/devkitarm/bin/../lib/gcc/arm-eabi/4.5.1/../../../../arm-eabi/lib\libg.a(lib_a-setvbuf.o)
 .comment       0x00000000       0x23 d:/devkitpro/devkitarm/bin/../lib/gcc/arm-eabi/4.5.1/../../../../arm-eabi/lib\libg.a(lib_a-signal.o)
 .comment       0x00000000       0x23 d:/devkitpro/devkitarm/bin/../lib/gcc/arm-eabi/4.5.1/../../../../arm-eabi/lib\libg.a(lib_a-siscanf.o)
 .comment       0x00000000       0x23 d:/devkitpro/devkitarm/bin/../lib/gcc/arm-eabi/4.5.1/../../../../arm-eabi/lib\libg.a(lib_a-snprintf.o)
 .comment       0x00000000       0x23 d:/devkitpro/devkitarm/bin/../lib/gcc/arm-eabi/4.5.1/../../../../arm-eabi/lib\libg.a(lib_a-sprintf.o)
 .comment       0x00000000       0x23 d:/devkitpro/devkitarm/bin/../lib/gcc/arm-eabi/4.5.1/../../../../arm-eabi/lib\libg.a(lib_a-stdio.o)
 .comment       0x00000000       0x23 d:/devkitpro/devkitarm/bin/../lib/gcc/arm-eabi/4.5.1/../../../../arm-eabi/lib\libg.a(lib_a-strcasecmp.o)
 .comment       0x00000000       0x23 d:/devkitpro/devkitarm/bin/../lib/gcc/arm-eabi/4.5.1/../../../../arm-eabi/lib\libg.a(lib_a-strcat.o)
 .comment       0x00000000       0x23 d:/devkitpro/devkitarm/bin/../lib/gcc/arm-eabi/4.5.1/../../../../arm-eabi/lib\libg.a(lib_a-strchr.o)
 .comment       0x00000000       0x23 d:/devkitpro/devkitarm/bin/../lib/gcc/arm-eabi/4.5.1/../../../../arm-eabi/lib\libg.a(lib_a-strcmp.o)
 .comment       0x00000000       0x23 d:/devkitpro/devkitarm/bin/../lib/gcc/arm-eabi/4.5.1/../../../../arm-eabi/lib\libg.a(lib_a-strcpy.o)
 .comment       0x00000000       0x23 d:/devkitpro/devkitarm/bin/../lib/gcc/arm-eabi/4.5.1/../../../../arm-eabi/lib\libg.a(lib_a-strlcpy.o)
 .comment       0x00000000       0x23 d:/devkitpro/devkitarm/bin/../lib/gcc/arm-eabi/4.5.1/../../../../arm-eabi/lib\libg.a(lib_a-strlen.o)
 .comment       0x00000000       0x23 d:/devkitpro/devkitarm/bin/../lib/gcc/arm-eabi/4.5.1/../../../../arm-eabi/lib\libg.a(lib_a-strncasecmp.o)
 .comment       0x00000000       0x23 d:/devkitpro/devkitarm/bin/../lib/gcc/arm-eabi/4.5.1/../../../../arm-eabi/lib\libg.a(lib_a-strncmp.o)
 .comment       0x00000000       0x23 d:/devkitpro/devkitarm/bin/../lib/gcc/arm-eabi/4.5.1/../../../../arm-eabi/lib\libg.a(lib_a-strncpy.o)
 .comment       0x00000000       0x23 d:/devkitpro/devkitarm/bin/../lib/gcc/arm-eabi/4.5.1/../../../../arm-eabi/lib\libg.a(lib_a-strnlen.o)
 .comment       0x00000000       0x23 d:/devkitpro/devkitarm/bin/../lib/gcc/arm-eabi/4.5.1/../../../../arm-eabi/lib\libg.a(lib_a-strpbrk.o)
 .comment       0x00000000       0x23 d:/devkitpro/devkitarm/bin/../lib/gcc/arm-eabi/4.5.1/../../../../arm-eabi/lib\libg.a(lib_a-strrchr.o)
 .comment       0x00000000       0x23 d:/devkitpro/devkitarm/bin/../lib/gcc/arm-eabi/4.5.1/../../../../arm-eabi/lib\libg.a(lib_a-strtod.o)
 .comment       0x00000000       0x23 d:/devkitpro/devkitarm/bin/../lib/gcc/arm-eabi/4.5.1/../../../../arm-eabi/lib\libg.a(lib_a-strtol.o)
 .comment       0x00000000       0x23 d:/devkitpro/devkitarm/bin/../lib/gcc/arm-eabi/4.5.1/../../../../arm-eabi/lib\libg.a(lib_a-svfiscanf.o)
 .comment       0x00000000       0x23 d:/devkitpro/devkitarm/bin/../lib/gcc/arm-eabi/4.5.1/../../../../arm-eabi/lib\libg.a(lib_a-svfprintf.o)
 .comment       0x00000000       0x23 d:/devkitpro/devkitarm/bin/../lib/gcc/arm-eabi/4.5.1/../../../../arm-eabi/lib\libg.a(lib_a-sysclose.o)
 .comment       0x00000000       0x23 d:/devkitpro/devkitarm/bin/../lib/gcc/arm-eabi/4.5.1/../../../../arm-eabi/lib\libg.a(lib_a-syslseek.o)
 .comment       0x00000000       0x23 d:/devkitpro/devkitarm/bin/../lib/gcc/arm-eabi/4.5.1/../../../../arm-eabi/lib\libg.a(lib_a-sysopen.o)
 .comment       0x00000000       0x23 d:/devkitpro/devkitarm/bin/../lib/gcc/arm-eabi/4.5.1/../../../../arm-eabi/lib\libg.a(lib_a-sysread.o)
 .comment       0x00000000       0x23 d:/devkitpro/devkitarm/bin/../lib/gcc/arm-eabi/4.5.1/../../../../arm-eabi/lib\libg.a(lib_a-time.o)
 .comment       0x00000000       0x23 d:/devkitpro/devkitarm/bin/../lib/gcc/arm-eabi/4.5.1/../../../../arm-eabi/lib\libg.a(lib_a-towlower.o)
 .comment       0x00000000       0x23 d:/devkitpro/devkitarm/bin/../lib/gcc/arm-eabi/4.5.1/../../../../arm-eabi/lib\libg.a(lib_a-towupper.o)
 .comment       0x00000000       0x23 d:/devkitpro/devkitarm/bin/../lib/gcc/arm-eabi/4.5.1/../../../../arm-eabi/lib\libg.a(lib_a-tzlock.o)
 .comment       0x00000000       0x23 d:/devkitpro/devkitarm/bin/../lib/gcc/arm-eabi/4.5.1/../../../../arm-eabi/lib\libg.a(lib_a-tzvars.o)
 .comment       0x00000000       0x23 d:/devkitpro/devkitarm/bin/../lib/gcc/arm-eabi/4.5.1/../../../../arm-eabi/lib\libg.a(lib_a-ungetc.o)
 .comment       0x00000000       0x23 d:/devkitpro/devkitarm/bin/../lib/gcc/arm-eabi/4.5.1/../../../../arm-eabi/lib\libg.a(lib_a-vfiprintf.o)
 .comment       0x00000000       0x23 d:/devkitpro/devkitarm/bin/../lib/gcc/arm-eabi/4.5.1/../../../../arm-eabi/lib\libg.a(lib_a-vfprintf.o)
 .comment       0x00000000       0x23 d:/devkitpro/devkitarm/bin/../lib/gcc/arm-eabi/4.5.1/../../../../arm-eabi/lib\libg.a(lib_a-wbuf.o)
 .comment       0x00000000       0x23 d:/devkitpro/devkitarm/bin/../lib/gcc/arm-eabi/4.5.1/../../../../arm-eabi/lib\libg.a(lib_a-wcrtomb.o)
 .comment       0x00000000       0x23 d:/devkitpro/devkitarm/bin/../lib/gcc/arm-eabi/4.5.1/../../../../arm-eabi/lib\libg.a(lib_a-wcsrtombs.o)
 .comment       0x00000000       0x23 d:/devkitpro/devkitarm/bin/../lib/gcc/arm-eabi/4.5.1/../../../../arm-eabi/lib\libg.a(lib_a-wctob.o)
 .comment       0x00000000       0x23 d:/devkitpro/devkitarm/bin/../lib/gcc/arm-eabi/4.5.1/../../../../arm-eabi/lib\libg.a(lib_a-wctomb_r.o)
 .comment       0x00000000       0x23 d:/devkitpro/devkitarm/bin/../lib/gcc/arm-eabi/4.5.1/../../../../arm-eabi/lib\libg.a(lib_a-wsetup.o)
 .comment       0x00000000       0x23 d:/devkitpro/devkitarm/bin/../lib/gcc/arm-eabi/4.5.1/../../../../arm-eabi/lib\libg.a(lib_a-ctype_.o)
 .comment       0x00000000       0x23 d:/devkitpro/devkitarm/bin/../lib/gcc/arm-eabi/4.5.1/../../../../arm-eabi/lib\libg.a(lib_a-div.o)
 .comment       0x00000000       0x23 d:/devkitpro/devkitarm/bin/../lib/gcc/arm-eabi/4.5.1/../../../../arm-eabi/lib\libg.a(lib_a-dtoa.o)
 .comment       0x00000000       0x23 d:/devkitpro/devkitarm/bin/../lib/gcc/arm-eabi/4.5.1/../../../../arm-eabi/lib\libg.a(lib_a-flags.o)
 .comment       0x00000000       0x23 d:/devkitpro/devkitarm/bin/../lib/gcc/arm-eabi/4.5.1/../../../../arm-eabi/lib\libg.a(lib_a-fputwc.o)
 .comment       0x00000000       0x23 d:/devkitpro/devkitarm/bin/../lib/gcc/arm-eabi/4.5.1/../../../../arm-eabi/lib\libg.a(lib_a-gdtoa-gethex.o)
 .comment       0x00000000       0x23 d:/devkitpro/devkitarm/bin/../lib/gcc/arm-eabi/4.5.1/../../../../arm-eabi/lib\libg.a(lib_a-gdtoa-hexnan.o)
 .comment       0x00000000       0x23 d:/devkitpro/devkitarm/bin/../lib/gcc/arm-eabi/4.5.1/../../../../arm-eabi/lib\libg.a(lib_a-getenv_r.o)
 .comment       0x00000000       0x23 d:/devkitpro/devkitarm/bin/../lib/gcc/arm-eabi/4.5.1/../../../../arm-eabi/lib\libg.a(lib_a-gettzinfo.o)
 .comment       0x00000000       0x23 d:/devkitpro/devkitarm/bin/../lib/gcc/arm-eabi/4.5.1/../../../../arm-eabi/lib\libg.a(lib_a-iswspace.o)
 .comment       0x00000000       0x23 d:/devkitpro/devkitarm/bin/../lib/gcc/arm-eabi/4.5.1/../../../../arm-eabi/lib\libg.a(lib_a-jp2uc.o)
 .comment       0x00000000       0x23 d:/devkitpro/devkitarm/bin/../lib/gcc/arm-eabi/4.5.1/../../../../arm-eabi/lib\libg.a(lib_a-mbsnrtowcs.o)
 .comment       0x00000000       0x23 d:/devkitpro/devkitarm/bin/../lib/gcc/arm-eabi/4.5.1/../../../../arm-eabi/lib\libg.a(lib_a-mprec.o)
 .comment       0x00000000       0x23 d:/devkitpro/devkitarm/bin/../lib/gcc/arm-eabi/4.5.1/../../../../arm-eabi/lib\libg.a(lib_a-sccl.o)
 .comment       0x00000000       0x23 d:/devkitpro/devkitarm/bin/../lib/gcc/arm-eabi/4.5.1/../../../../arm-eabi/lib\libg.a(lib_a-sf_nan.o)
 .comment       0x00000000       0x23 d:/devkitpro/devkitarm/bin/../lib/gcc/arm-eabi/4.5.1/../../../../arm-eabi/lib\libg.a(lib_a-strtoll_r.o)
 .comment       0x00000000       0x23 d:/devkitpro/devkitarm/bin/../lib/gcc/arm-eabi/4.5.1/../../../../arm-eabi/lib\libg.a(lib_a-strtoul.o)
 .comment       0x00000000       0x23 d:/devkitpro/devkitarm/bin/../lib/gcc/arm-eabi/4.5.1/../../../../arm-eabi/lib\libg.a(lib_a-strtoull_r.o)
 .comment       0x00000000       0x23 d:/devkitpro/devkitarm/bin/../lib/gcc/arm-eabi/4.5.1/../../../../arm-eabi/lib\libg.a(lib_a-svfiprintf.o)
 .comment       0x00000000       0x23 d:/devkitpro/devkitarm/bin/../lib/gcc/arm-eabi/4.5.1/../../../../arm-eabi/lib\libg.a(lib_a-wcsnrtombs.o)
 .comment       0x00000000       0x23 d:/devkitpro/devkitarm/bin/../lib/gcc/arm-eabi/4.5.1/../../../../arm-eabi/lib\libg.a(lib_a-environ.o)
 .comment       0x00000000       0x23 d:/devkitpro/devkitarm/bin/../lib/gcc/arm-eabi/4.5.1/../../../../arm-eabi/lib\libg.a(lib_a-envlock.o)
 .comment       0x00000000       0x23 d:/devkitpro/devkitarm/bin/../lib/gcc/arm-eabi/4.5.1/../../../../arm-eabi/lib\libsysbase.a(iosupport.o)
 .comment       0x00000000       0x23 d:/devkitpro/devkitarm/bin/../lib/gcc/arm-eabi/4.5.1/../../../../arm-eabi/lib\libsysbase.a(close.o)
 .comment       0x00000000       0x23 d:/devkitpro/devkitarm/bin/../lib/gcc/arm-eabi/4.5.1/../../../../arm-eabi/lib\libsysbase.a(fstat.o)
 .comment       0x00000000       0x23 d:/devkitpro/devkitarm/bin/../lib/gcc/arm-eabi/4.5.1/../../../../arm-eabi/lib\libsysbase.a(getpid.o)
 .comment       0x00000000       0x23 d:/devkitpro/devkitarm/bin/../lib/gcc/arm-eabi/4.5.1/../../../../arm-eabi/lib\libsysbase.a(isatty.o)
 .comment       0x00000000       0x23 d:/devkitpro/devkitarm/bin/../lib/gcc/arm-eabi/4.5.1/../../../../arm-eabi/lib\libsysbase.a(kill.o)
 .comment       0x00000000       0x23 d:/devkitpro/devkitarm/bin/../lib/gcc/arm-eabi/4.5.1/../../../../arm-eabi/lib\libsysbase.a(lseek.o)
 .comment       0x00000000       0x23 d:/devkitpro/devkitarm/bin/../lib/gcc/arm-eabi/4.5.1/../../../../arm-eabi/lib\libsysbase.a(open.o)
 .comment       0x00000000       0x23 d:/devkitpro/devkitarm/bin/../lib/gcc/arm-eabi/4.5.1/../../../../arm-eabi/lib\libsysbase.a(read.o)
 .comment       0x00000000       0x23 d:/devkitpro/devkitarm/bin/../lib/gcc/arm-eabi/4.5.1/../../../../arm-eabi/lib\libsysbase.a(sbrk.o)
 .comment       0x00000000       0x23 d:/devkitpro/devkitarm/bin/../lib/gcc/arm-eabi/4.5.1/../../../../arm-eabi/lib\libsysbase.a(times.o)
 .comment       0x00000000       0x23 d:/devkitpro/devkitarm/bin/../lib/gcc/arm-eabi/4.5.1/../../../../arm-eabi/lib\libsysbase.a(write.o)
 .comment       0x00000000       0x23 d:/devkitpro/devkitarm/bin/../lib/gcc/arm-eabi/4.5.1/../../../../arm-eabi/lib\libsysbase.a(_exit.o)
 .comment       0x00000000       0x23 d:/devkitpro/devkitarm/bin/../lib/gcc/arm-eabi/4.5.1/../../../../arm-eabi/lib\libsysbase.a(malloc_vars.o)
 .comment       0x00000000       0x23 d:/devkitpro/devkitarm/bin/../lib/gcc/arm-eabi/4.5.1/../../../../arm-eabi/lib\libsysbase.a(chdir.o)
 .comment       0x00000000       0x23 d:/devkitpro/devkitarm/bin/../lib/gcc/arm-eabi/4.5.1/../../../../arm-eabi/lib\libsysbase.a(build_argv.o)
 .comment       0x00000000       0x23 d:/devkitpro/devkitarm/bin/../lib/gcc/arm-eabi/4.5.1/../../../../arm-eabi/lib\libsysbase.a(syscall_support.o)
 .comment       0x00000000       0x23 d:/devkitpro/devkitarm/bin/../lib/gcc/arm-eabi/4.5.1/../../../../arm-eabi/lib\libsysbase.a(handle_manager.o)
 .comment       0x00000000       0x23 d:/devkitpro/devkitarm/bin/../lib/gcc/arm-eabi/4.5.1\libgcc.a(bpabi.o)
 .comment       0x00000000       0x23 d:/devkitpro/devkitarm/bin/../lib/gcc/arm-eabi/4.5.1\libgcc.a(unwind-arm.o)
 .comment       0x00000000       0x23 d:/devkitpro/devkitarm/bin/../lib/gcc/arm-eabi/4.5.1\libgcc.a(pr-support.o)
 .comment       0x00000000       0x23 d:/devkitpro/devkitarm/bin/../lib/gcc/arm-eabi/4.5.1\libgcc.a(_divdi3.o)
 .comment       0x00000000       0x23 d:/devkitpro/devkitarm/bin/../lib/gcc/arm-eabi/4.5.1\libgcc.a(_udivdi3.o)
 .comment       0x00000000       0x23 d:/devkitpro/devkitarm/bin/../lib/gcc/arm-eabi/4.5.1/crtend.o

.debug
 *(.debug)

.line
 *(.line)

.debug_srcinfo
 *(.debug_srcinfo)

.debug_sfnames
 *(.debug_sfnames)

.debug_aranges  0x00000000      0x860 load address 0x020664d0
 *(.debug_aranges)
 .debug_aranges
                0x00000000       0x20 main.o
 .debug_aranges
                0x00000020       0x20 d:/devkitPro/libnds/lib\libul.a(ulib.o)
 .debug_aranges
                0x00000040       0x20 d:/devkitPro/libnds/lib\libul.a(drawing.o)
 .debug_aranges
                0x00000060       0x20 d:/devkitPro/libnds/lib\libul.a(text.o)
 .debug_aranges
                0x00000080       0x20 d:/devkitPro/libnds/lib\libul.a(VirtualFile.o)
 .debug_aranges
                0x000000a0       0x20 d:/devkitPro/libnds/lib\libul.a(vfsLibFat.o)
 .debug_aranges
                0x000000c0       0x20 d:/devkitPro/libnds/lib\libul.a(vfsGBFS.o)
 .debug_aranges
                0x000000e0       0x20 d:/devkitPro/libnds/lib\libul.a(texVramManager.o)
 .debug_aranges
                0x00000100       0x20 d:/devkitPro/libnds/lib\libul.a(texPalManager.o)
 .debug_aranges
                0x00000120       0x20 d:/devkitPro/libnds/lib\libul.a(keys.o)
 .debug_aranges
                0x00000140       0x20 d:/devkitPro/libnds/lib\libul.a(ulDrawImage.o)
 .debug_aranges
                0x00000160       0x20 d:/devkitPro/libnds/lib\libul.a(ulCreateImagePalette.o)
 .debug_aranges
                0x00000180       0x20 d:/devkitPro/libnds/lib\libul.a(ulDrawGradientRect.o)
 .debug_aranges
                0x000001a0       0x20 d:/devkitPro/libnds/lib\libul.a(messagebox.o)
 .debug_aranges
                0x000001c0       0x20 d:/devkitPro/libnds/lib\libul.a(textSize.o)
 .debug_aranges
                0x000001e0       0x20 d:/devkitPro/libnds/lib\libul.a(ulLoadImageFilePNG.o)
 .debug_aranges
                0x00000200       0x20 d:/devkitPro/libnds/lib\libul.a(ulLoadImageFileJPG.o)
 .debug_aranges
                0x00000220       0x20 d:/devkitPro/libnds/lib\libul.a(ulShowSplashScreen1.o)
 .debug_aranges
                0x00000240       0x20 d:/devkitPro/libnds/lib\libul.a(ulShowSplashScreen2.o)
 .debug_aranges
                0x00000260       0x20 d:/devkitPro/libnds/lib\libul.a(glWrapper.o)
 .debug_aranges
                0x00000280       0x20 d:/devkitPro/libnds/lib\libul.a(libLoadPng.o)
 .debug_aranges
                0x000002a0       0x20 d:/devkitPro/libnds/lib\libul.a(libLoadJpg.o)
 .debug_aranges
                0x000002c0       0x20 d:/devkitPro/libnds/lib\libul.a(ulDrawFillRect.o)
 .debug_aranges
                0x000002e0       0x20 d:/devkitPro/libnds/lib\libul.a(ulDrawLine.o)
 .debug_aranges
                0x00000300       0x20 d:/devkitPro/libnds/lib\libul.a(ulDrawRect.o)
 .debug_aranges
                0x00000320       0x20 d:/devkitPro/libnds/lib\libul.a(ulSetImagePixel.o)
 .debug_aranges
                0x00000340       0x20 d:/devkitPro/libnds/lib\libul.a(ulGetImagePixel.o)
 .debug_aranges
                0x00000360       0x20 d:/devkitPro/libnds/lib\libul.a(ulLoadImageFileGIF.o)
 .debug_aranges
                0x00000380       0x20 d:/devkitPro/libnds/lib\libul.a(ulReadEntireFileToMemory.o)
 .debug_aranges
                0x000003a0       0x20 d:/devkitPro/libnds/lib\libul.a(gba-jpeg-decode.o)
 .debug_aranges
                0x000003c0       0x20 d:/devkitPro/libnds/lib\libul.a(libLoadGif.o)
 .debug_aranges
                0x000003e0       0x20 d:/devkitPro/libnds/lib\libul.a(dgif_lib.o)
 .debug_aranges
                0x00000400       0x20 d:/devkitPro/libnds/lib\libul.a(gif_err.o)
 .debug_aranges
                0x00000420       0x20 d:/devkitPro/libnds/lib\libul.a(gifalloc.o)
 .debug_aranges
                0x00000440       0x20 d:/devkitPro/libnds/lib\libfat.a(libfat.o)
 .debug_aranges
                0x00000460       0x20 d:/devkitPro/libnds/lib\libfat.a(partition.o)
 .debug_aranges
                0x00000480       0x20 d:/devkitPro/libnds/lib\libfat.a(cache.o)
 .debug_aranges
                0x000004a0       0x20 d:/devkitPro/libnds/lib\libfat.a(directory.o)
 .debug_aranges
                0x000004c0       0x20 d:/devkitPro/libnds/lib\libfat.a(disc.o)
 .debug_aranges
                0x000004e0       0x20 d:/devkitPro/libnds/lib\libfat.a(fatdir.o)
 .debug_aranges
                0x00000500       0x20 d:/devkitPro/libnds/lib\libfat.a(fatfile.o)
 .debug_aranges
                0x00000520       0x20 d:/devkitPro/libnds/lib\libfat.a(file_allocation_table.o)
 .debug_aranges
                0x00000540       0x20 d:/devkitPro/libnds/lib\libfat.a(filetime.o)
 .debug_aranges
                0x00000560       0x20 d:/devkitPro/libnds/lib\libfat.a(lock.o)
 .debug_aranges
                0x00000580       0x20 d:/devkitPro/libnds/lib\libnds9.a(console.o)
 .debug_aranges
                0x000005a0       0x20 d:/devkitPro/libnds/lib\libnds9.a(dynamicArray.o)
 .debug_aranges
                0x000005c0       0x20 d:/devkitPro/libnds/lib\libnds9.a(keys.o)
 .debug_aranges
                0x000005e0       0x20 d:/devkitPro/libnds/lib\libnds9.a(system.o)
 .debug_aranges
                0x00000600       0x20 d:/devkitPro/libnds/lib\libnds9.a(touch.o)
 .debug_aranges
                0x00000620       0x20 d:/devkitPro/libnds/lib\libnds9.a(trig.o)
 .debug_aranges
                0x00000640       0x20 d:/devkitPro/libnds/lib\libnds9.a(videoGL.o)
 .debug_aranges
                0x00000660       0x20 d:/devkitPro/libnds/lib\libnds9.a(dldi.o)
 .debug_aranges
                0x00000680       0x20 d:/devkitPro/libnds/lib\libnds9.a(dsi_sd.o)
 .debug_aranges
                0x000006a0       0x20 d:/devkitPro/libnds/lib\libnds9.a(initSystem.o)
 .debug_aranges
                0x000006c0       0x20 d:/devkitPro/libnds/lib\libnds9.a(fifosystem.o)
 .debug_aranges
                0x000006e0       0x20 d:/devkitPro/libnds/lib\libnds9.a(gbfs.o)
 .debug_aranges
                0x00000700       0x20 d:/devkitPro/libnds/lib\libnds9.a(interrupts.o)
 .debug_aranges
                0x00000720       0x20 d:/devkitPro/libnds/lib\libnds9.a(libnds_exit.o)
 .debug_aranges
                0x00000740       0x20 d:/devkitPro/libnds/lib\libnds9.a(dcache.o)
 .debug_aranges
                0x00000760       0x20 d:/devkitPro/libnds/lib\libnds9.a(dldi_stub.o)
 .debug_aranges
                0x00000780       0x20 d:/devkitPro/libnds/lib\libnds9.a(mpu_setup.o)
 .debug_aranges
                0x000007a0       0x20 d:/devkitPro/libnds/lib\libnds9.a(biosCalls.o)
 .debug_aranges
                0x000007c0       0x20 d:/devkitPro/libnds/lib\libnds9.a(debugprint.o)
 .debug_aranges
                0x000007e0       0x20 d:/devkitPro/libnds/lib\libnds9.a(interruptDispatcher.o)
 .debug_aranges
                0x00000800       0x20 d:/devkitPro/libnds/lib\libnds9.a(swiSoftReset.o)
 .debug_aranges
                0x00000820       0x20 d:/devkitPro/libnds/lib\libnds9.a(background.o)
 .debug_aranges
                0x00000840       0x20 d:/devkitPro/libnds/lib\libnds9.a(video.o)

.debug_pubnames
                0x00000000     0x2a25 load address 0x020664d0
 *(.debug_pubnames)
 .debug_pubnames
                0x00000000       0x3e main.o
 .debug_pubnames
                0x0000003e       0x84 d:/devkitPro/libnds/lib\libul.a(ulib.o)
 .debug_pubnames
                0x000000c2      0x33e d:/devkitPro/libnds/lib\libul.a(drawing.o)
 .debug_pubnames
                0x00000400      0x119 d:/devkitPro/libnds/lib\libul.a(text.o)
 .debug_pubnames
                0x00000519      0x1c5 d:/devkitPro/libnds/lib\libul.a(VirtualFile.o)
 .debug_pubnames
                0x000006de       0xd4 d:/devkitPro/libnds/lib\libul.a(vfsLibFat.o)
 .debug_pubnames
                0x000007b2       0xeb d:/devkitPro/libnds/lib\libul.a(vfsGBFS.o)
 .debug_pubnames
                0x0000089d      0x259 d:/devkitPro/libnds/lib\libul.a(texVramManager.o)
 .debug_pubnames
                0x00000af6      0x176 d:/devkitPro/libnds/lib\libul.a(texPalManager.o)
 .debug_pubnames
                0x00000c6c       0x2d d:/devkitPro/libnds/lib\libul.a(keys.o)
 .debug_pubnames
                0x00000c99       0x22 d:/devkitPro/libnds/lib\libul.a(ulDrawImage.o)
 .debug_pubnames
                0x00000cbb       0x2b d:/devkitPro/libnds/lib\libul.a(ulCreateImagePalette.o)
 .debug_pubnames
                0x00000ce6       0x29 d:/devkitPro/libnds/lib\libul.a(ulDrawGradientRect.o)
 .debug_pubnames
                0x00000d0f       0x35 d:/devkitPro/libnds/lib\libul.a(messagebox.o)
 .debug_pubnames
                0x00000d44       0x3e d:/devkitPro/libnds/lib\libul.a(textSize.o)
 .debug_pubnames
                0x00000d82       0x2e d:/devkitPro/libnds/lib\libul.a(loading_utility.o)
 .debug_pubnames
                0x00000db0       0x29 d:/devkitPro/libnds/lib\libul.a(ulLoadImageFilePNG.o)
 .debug_pubnames
                0x00000dd9       0x29 d:/devkitPro/libnds/lib\libul.a(ulLoadImageFileJPG.o)
 .debug_pubnames
                0x00000e02      0x1cb d:/devkitPro/libnds/lib\libul.a(ulShowSplashScreen1.o)
 .debug_pubnames
                0x00000fcd       0x97 d:/devkitPro/libnds/lib\libul.a(ulShowSplashScreen2.o)
 .debug_pubnames
                0x00001064       0x2d d:/devkitPro/libnds/lib\libul.a(glWrapper.o)
 .debug_pubnames
                0x00001091       0x25 d:/devkitPro/libnds/lib\libul.a(libLoadPng.o)
 .debug_pubnames
                0x000010b6       0x25 d:/devkitPro/libnds/lib\libul.a(libLoadJpg.o)
 .debug_pubnames
                0x000010db       0x25 d:/devkitPro/libnds/lib\libul.a(ulDrawFillRect.o)
 .debug_pubnames
                0x00001100       0x21 d:/devkitPro/libnds/lib\libul.a(ulDrawLine.o)
 .debug_pubnames
                0x00001121       0x21 d:/devkitPro/libnds/lib\libul.a(ulDrawRect.o)
 .debug_pubnames
                0x00001142       0x26 d:/devkitPro/libnds/lib\libul.a(ulSetImagePixel.o)
 .debug_pubnames
                0x00001168       0x26 d:/devkitPro/libnds/lib\libul.a(ulGetImagePixel.o)
 .debug_pubnames
                0x0000118e       0x29 d:/devkitPro/libnds/lib\libul.a(ulLoadImageFileGIF.o)
 .debug_pubnames
                0x000011b7       0x2f d:/devkitPro/libnds/lib\libul.a(ulReadEntireFileToMemory.o)
 .debug_pubnames
                0x000011e6      0x14b d:/devkitPro/libnds/lib\libul.a(gba-jpeg-decode.o)
 .debug_pubnames
                0x00001331       0x9f d:/devkitPro/libnds/lib\libul.a(libLoadGif.o)
 .debug_pubnames
                0x000013d0       0xf8 d:/devkitPro/libnds/lib\libul.a(dgif_lib.o)
 .debug_pubnames
                0x000014c8       0x31 d:/devkitPro/libnds/lib\libul.a(gif_err.o)
 .debug_pubnames
                0x000014f9       0xe1 d:/devkitPro/libnds/lib\libul.a(gifalloc.o)
 .debug_pubnames
                0x000015da       0x76 d:/devkitPro/libnds/lib\libfat.a(libfat.o)
 .debug_pubnames
                0x00001650       0xf0 d:/devkitPro/libnds/lib\libfat.a(partition.o)
 .debug_pubnames
                0x00001740      0x162 d:/devkitPro/libnds/lib\libfat.a(cache.o)
 .debug_pubnames
                0x000018a2      0x16f d:/devkitPro/libnds/lib\libfat.a(directory.o)
 .debug_pubnames
                0x00001a11       0x2b d:/devkitPro/libnds/lib\libfat.a(disc.o)
 .debug_pubnames
                0x00001a3c       0xd9 d:/devkitPro/libnds/lib\libfat.a(fatdir.o)
 .debug_pubnames
                0x00001b15       0xaf d:/devkitPro/libnds/lib\libfat.a(fatfile.o)
 .debug_pubnames
                0x00001bc4       0xd2 d:/devkitPro/libnds/lib\libfat.a(file_allocation_table.o)
 .debug_pubnames
                0x00001c96       0x70 d:/devkitPro/libnds/lib\libfat.a(filetime.o)
 .debug_pubnames
                0x00001d06       0x58 d:/devkitPro/libnds/lib\libfat.a(lock.o)
 .debug_pubnames
                0x00001d5e      0x12a d:/devkitPro/libnds/lib\libnds9.a(console.o)
 .debug_pubnames
                0x00001e88       0x66 d:/devkitPro/libnds/lib\libnds9.a(dynamicArray.o)
 .debug_pubnames
                0x00001eee       0x79 d:/devkitPro/libnds/lib\libnds9.a(keys.o)
 .debug_pubnames
                0x00001f67       0x87 d:/devkitPro/libnds/lib\libnds9.a(system.o)
 .debug_pubnames
                0x00001fee       0x30 d:/devkitPro/libnds/lib\libnds9.a(touch.o)
 .debug_pubnames
                0x0000201e       0xa4 d:/devkitPro/libnds/lib\libnds9.a(trig.o)
 .debug_pubnames
                0x000020c2      0x2c2 d:/devkitPro/libnds/lib\libnds9.a(videoGL.o)
 .debug_pubnames
                0x00002384       0xba d:/devkitPro/libnds/lib\libnds9.a(dldi.o)
 .debug_pubnames
                0x0000243e       0x98 d:/devkitPro/libnds/lib\libnds9.a(dsi_sd.o)
 .debug_pubnames
                0x000024d6       0x2f d:/devkitPro/libnds/lib\libnds9.a(initSystem.o)
 .debug_pubnames
                0x00002505      0x259 d:/devkitPro/libnds/lib\libnds9.a(fifosystem.o)
 .debug_pubnames
                0x0000275e       0xa0 d:/devkitPro/libnds/lib\libnds9.a(gbfs.o)
 .debug_pubnames
                0x000027fe       0x80 d:/devkitPro/libnds/lib\libnds9.a(interrupts.o)
 .debug_pubnames
                0x0000287e       0x38 d:/devkitPro/libnds/lib\libnds9.a(libnds_exit.o)
 .debug_pubnames
                0x000028b6       0xab d:/devkitPro/libnds/lib\libnds9.a(background.o)
 .debug_pubnames
                0x00002961       0xc4 d:/devkitPro/libnds/lib\libnds9.a(video.o)

.debug_info     0x00000000    0x314de load address 0x020664d0
 *(.debug_info)
 .debug_info    0x00000000     0x1295 main.o
 .debug_info    0x00001295      0x908 d:/devkitPro/libnds/lib\libul.a(ulib.o)
 .debug_info    0x00001b9d     0x2312 d:/devkitPro/libnds/lib\libul.a(drawing.o)
 .debug_info    0x00003eaf     0x1338 d:/devkitPro/libnds/lib\libul.a(text.o)
 .debug_info    0x000051e7      0xeef d:/devkitPro/libnds/lib\libul.a(VirtualFile.o)
 .debug_info    0x000060d6     0x1495 d:/devkitPro/libnds/lib\libul.a(vfsLibFat.o)
 .debug_info    0x0000756b      0xceb d:/devkitPro/libnds/lib\libul.a(vfsGBFS.o)
 .debug_info    0x00008256      0xebb d:/devkitPro/libnds/lib\libul.a(texVramManager.o)
 .debug_info    0x00009111      0xb0e d:/devkitPro/libnds/lib\libul.a(texPalManager.o)
 .debug_info    0x00009c1f      0xa76 d:/devkitPro/libnds/lib\libul.a(keys.o)
 .debug_info    0x0000a695      0x9da d:/devkitPro/libnds/lib\libul.a(ulDrawImage.o)
 .debug_info    0x0000b06f      0x8d1 d:/devkitPro/libnds/lib\libul.a(ulCreateImagePalette.o)
 .debug_info    0x0000b940      0x761 d:/devkitPro/libnds/lib\libul.a(ulDrawGradientRect.o)
 .debug_info    0x0000c0a1      0xe8d d:/devkitPro/libnds/lib\libul.a(messagebox.o)
 .debug_info    0x0000cf2e      0x9ac d:/devkitPro/libnds/lib\libul.a(textSize.o)
 .debug_info    0x0000d8da       0x3f d:/devkitPro/libnds/lib\libul.a(loading_utility.o)
 .debug_info    0x0000d919      0x8eb d:/devkitPro/libnds/lib\libul.a(ulLoadImageFilePNG.o)
 .debug_info    0x0000e204      0x8eb d:/devkitPro/libnds/lib\libul.a(ulLoadImageFileJPG.o)
 .debug_info    0x0000eaef     0x169e d:/devkitPro/libnds/lib\libul.a(ulShowSplashScreen1.o)
 .debug_info    0x0001018d      0xe89 d:/devkitPro/libnds/lib\libul.a(ulShowSplashScreen2.o)
 .debug_info    0x00011016      0x795 d:/devkitPro/libnds/lib\libul.a(glWrapper.o)
 .debug_info    0x000117ab     0x240b d:/devkitPro/libnds/lib\libul.a(libLoadPng.o)
 .debug_info    0x00013bb6      0xc62 d:/devkitPro/libnds/lib\libul.a(libLoadJpg.o)
 .debug_info    0x00014818      0x737 d:/devkitPro/libnds/lib\libul.a(ulDrawFillRect.o)
 .debug_info    0x00014f4f      0x735 d:/devkitPro/libnds/lib\libul.a(ulDrawLine.o)
 .debug_info    0x00015684      0x737 d:/devkitPro/libnds/lib\libul.a(ulDrawRect.o)
 .debug_info    0x00015dbb      0x8c7 d:/devkitPro/libnds/lib\libul.a(ulSetImagePixel.o)
 .debug_info    0x00016682      0x8bc d:/devkitPro/libnds/lib\libul.a(ulGetImagePixel.o)
 .debug_info    0x00016f3e      0x8eb d:/devkitPro/libnds/lib\libul.a(ulLoadImageFileGIF.o)
 .debug_info    0x00017829      0x917 d:/devkitPro/libnds/lib\libul.a(ulReadEntireFileToMemory.o)
 .debug_info    0x00018140     0x1e32 d:/devkitPro/libnds/lib\libul.a(gba-jpeg-decode.o)
 .debug_info    0x00019f72     0x12ff d:/devkitPro/libnds/lib\libul.a(libLoadGif.o)
 .debug_info    0x0001b271     0x1634 d:/devkitPro/libnds/lib\libul.a(dgif_lib.o)
 .debug_info    0x0001c8a5       0xbe d:/devkitPro/libnds/lib\libul.a(gif_err.o)
 .debug_info    0x0001c963      0x65c d:/devkitPro/libnds/lib\libul.a(gifalloc.o)
 .debug_info    0x0001cfbf     0x196a d:/devkitPro/libnds/lib\libfat.a(libfat.o)
 .debug_info    0x0001e929     0x1efd d:/devkitPro/libnds/lib\libfat.a(partition.o)
 .debug_info    0x00020826      0xc06 d:/devkitPro/libnds/lib\libfat.a(cache.o)
 .debug_info    0x0002142c     0x1abd d:/devkitPro/libnds/lib\libfat.a(directory.o)
 .debug_info    0x00022ee9      0x275 d:/devkitPro/libnds/lib\libfat.a(disc.o)
 .debug_info    0x0002315e     0x19c9 d:/devkitPro/libnds/lib\libfat.a(fatdir.o)
 .debug_info    0x00024b27     0x1f54 d:/devkitPro/libnds/lib\libfat.a(fatfile.o)
 .debug_info    0x00026a7b      0x811 d:/devkitPro/libnds/lib\libfat.a(file_allocation_table.o)
 .debug_info    0x0002728c      0x1d3 d:/devkitPro/libnds/lib\libfat.a(filetime.o)
 .debug_info    0x0002745f      0x11b d:/devkitPro/libnds/lib\libfat.a(lock.o)
 .debug_info    0x0002757a     0x20d1 d:/devkitPro/libnds/lib\libnds9.a(console.o)
 .debug_info    0x0002964b      0x1e7 d:/devkitPro/libnds/lib\libnds9.a(dynamicArray.o)
 .debug_info    0x00029832      0x3d0 d:/devkitPro/libnds/lib\libnds9.a(keys.o)
 .debug_info    0x00029c02      0x6f4 d:/devkitPro/libnds/lib\libnds9.a(system.o)
 .debug_info    0x0002a2f6      0x2c2 d:/devkitPro/libnds/lib\libnds9.a(touch.o)
 .debug_info    0x0002a5b8      0x4b6 d:/devkitPro/libnds/lib\libnds9.a(trig.o)
 .debug_info    0x0002aa6e     0x1dc7 d:/devkitPro/libnds/lib\libnds9.a(videoGL.o)
 .debug_info    0x0002c835      0x5f9 d:/devkitPro/libnds/lib\libnds9.a(dldi.o)
 .debug_info    0x0002ce2e      0x6c1 d:/devkitPro/libnds/lib\libnds9.a(dsi_sd.o)
 .debug_info    0x0002d4ef      0xed0 d:/devkitPro/libnds/lib\libnds9.a(initSystem.o)
 .debug_info    0x0002e3bf     0x10ca d:/devkitPro/libnds/lib\libnds9.a(fifosystem.o)
 .debug_info    0x0002f489      0x4bc d:/devkitPro/libnds/lib\libnds9.a(gbfs.o)
 .debug_info    0x0002f945      0x466 d:/devkitPro/libnds/lib\libnds9.a(interrupts.o)
 .debug_info    0x0002fdab      0x2a6 d:/devkitPro/libnds/lib\libnds9.a(libnds_exit.o)
 .debug_info    0x00030051       0xc0 d:/devkitPro/libnds/lib\libnds9.a(dcache.o)
 .debug_info    0x00030111       0xc8 d:/devkitPro/libnds/lib\libnds9.a(dldi_stub.o)
 .debug_info    0x000301d9       0xca d:/devkitPro/libnds/lib\libnds9.a(mpu_setup.o)
 .debug_info    0x000302a3       0xc5 d:/devkitPro/libnds/lib\libnds9.a(biosCalls.o)
 .debug_info    0x00030368       0xc6 d:/devkitPro/libnds/lib\libnds9.a(debugprint.o)
 .debug_info    0x0003042e       0xcf d:/devkitPro/libnds/lib\libnds9.a(interruptDispatcher.o)
 .debug_info    0x000304fd       0xc8 d:/devkitPro/libnds/lib\libnds9.a(swiSoftReset.o)
 .debug_info    0x000305c5      0x8c8 d:/devkitPro/libnds/lib\libnds9.a(background.o)
 .debug_info    0x00030e8d      0x651 d:/devkitPro/libnds/lib\libnds9.a(video.o)

.debug_abbrev   0x00000000     0x7fb5 load address 0x020664d0
 *(.debug_abbrev)
 .debug_abbrev  0x00000000      0x325 main.o
 .debug_abbrev  0x00000325      0x1a9 d:/devkitPro/libnds/lib\libul.a(ulib.o)
 .debug_abbrev  0x000004ce      0x4ca d:/devkitPro/libnds/lib\libul.a(drawing.o)
 .debug_abbrev  0x00000998      0x270 d:/devkitPro/libnds/lib\libul.a(text.o)
 .debug_abbrev  0x00000c08      0x29d d:/devkitPro/libnds/lib\libul.a(VirtualFile.o)
 .debug_abbrev  0x00000ea5      0x26d d:/devkitPro/libnds/lib\libul.a(vfsLibFat.o)
 .debug_abbrev  0x00001112      0x201 d:/devkitPro/libnds/lib\libul.a(vfsGBFS.o)
 .debug_abbrev  0x00001313      0x30f d:/devkitPro/libnds/lib\libul.a(texVramManager.o)
 .debug_abbrev  0x00001622      0x245 d:/devkitPro/libnds/lib\libul.a(texPalManager.o)
 .debug_abbrev  0x00001867      0x1cf d:/devkitPro/libnds/lib\libul.a(keys.o)
 .debug_abbrev  0x00001a36      0x1d7 d:/devkitPro/libnds/lib\libul.a(ulDrawImage.o)
 .debug_abbrev  0x00001c0d      0x16c d:/devkitPro/libnds/lib\libul.a(ulCreateImagePalette.o)
 .debug_abbrev  0x00001d79      0x13f d:/devkitPro/libnds/lib\libul.a(ulDrawGradientRect.o)
 .debug_abbrev  0x00001eb8      0x244 d:/devkitPro/libnds/lib\libul.a(messagebox.o)
 .debug_abbrev  0x000020fc      0x1b5 d:/devkitPro/libnds/lib\libul.a(textSize.o)
 .debug_abbrev  0x000022b1       0x30 d:/devkitPro/libnds/lib\libul.a(loading_utility.o)
 .debug_abbrev  0x000022e1      0x164 d:/devkitPro/libnds/lib\libul.a(ulLoadImageFilePNG.o)
 .debug_abbrev  0x00002445      0x164 d:/devkitPro/libnds/lib\libul.a(ulLoadImageFileJPG.o)
 .debug_abbrev  0x000025a9      0x3bd d:/devkitPro/libnds/lib\libul.a(ulShowSplashScreen1.o)
 .debug_abbrev  0x00002966      0x2a9 d:/devkitPro/libnds/lib\libul.a(ulShowSplashScreen2.o)
 .debug_abbrev  0x00002c0f      0x171 d:/devkitPro/libnds/lib\libul.a(glWrapper.o)
 .debug_abbrev  0x00002d80      0x289 d:/devkitPro/libnds/lib\libul.a(libLoadPng.o)
 .debug_abbrev  0x00003009      0x1bd d:/devkitPro/libnds/lib\libul.a(libLoadJpg.o)
 .debug_abbrev  0x000031c6      0x13f d:/devkitPro/libnds/lib\libul.a(ulDrawFillRect.o)
 .debug_abbrev  0x00003305      0x14e d:/devkitPro/libnds/lib\libul.a(ulDrawLine.o)
 .debug_abbrev  0x00003453      0x13f d:/devkitPro/libnds/lib\libul.a(ulDrawRect.o)
 .debug_abbrev  0x00003592      0x176 d:/devkitPro/libnds/lib\libul.a(ulSetImagePixel.o)
 .debug_abbrev  0x00003708      0x178 d:/devkitPro/libnds/lib\libul.a(ulGetImagePixel.o)
 .debug_abbrev  0x00003880      0x164 d:/devkitPro/libnds/lib\libul.a(ulLoadImageFileGIF.o)
 .debug_abbrev  0x000039e4      0x193 d:/devkitPro/libnds/lib\libul.a(ulReadEntireFileToMemory.o)
 .debug_abbrev  0x00003b77      0x348 d:/devkitPro/libnds/lib\libul.a(gba-jpeg-decode.o)
 .debug_abbrev  0x00003ebf      0x294 d:/devkitPro/libnds/lib\libul.a(libLoadGif.o)
 .debug_abbrev  0x00004153      0x2fa d:/devkitPro/libnds/lib\libul.a(dgif_lib.o)
 .debug_abbrev  0x0000444d       0x74 d:/devkitPro/libnds/lib\libul.a(gif_err.o)
 .debug_abbrev  0x000044c1      0x206 d:/devkitPro/libnds/lib\libul.a(gifalloc.o)
 .debug_abbrev  0x000046c7      0x2b7 d:/devkitPro/libnds/lib\libfat.a(libfat.o)
 .debug_abbrev  0x0000497e      0x358 d:/devkitPro/libnds/lib\libfat.a(partition.o)
 .debug_abbrev  0x00004cd6      0x2a4 d:/devkitPro/libnds/lib\libfat.a(cache.o)
 .debug_abbrev  0x00004f7a      0x408 d:/devkitPro/libnds/lib\libfat.a(directory.o)
 .debug_abbrev  0x00005382       0xf6 d:/devkitPro/libnds/lib\libfat.a(disc.o)
 .debug_abbrev  0x00005478      0x35a d:/devkitPro/libnds/lib\libfat.a(fatdir.o)
 .debug_abbrev  0x000057d2      0x3c8 d:/devkitPro/libnds/lib\libfat.a(fatfile.o)
 .debug_abbrev  0x00005b9a      0x1e6 d:/devkitPro/libnds/lib\libfat.a(file_allocation_table.o)
 .debug_abbrev  0x00005d80       0xa1 d:/devkitPro/libnds/lib\libfat.a(filetime.o)
 .debug_abbrev  0x00005e21       0x79 d:/devkitPro/libnds/lib\libfat.a(lock.o)
 .debug_abbrev  0x00005e9a      0x455 d:/devkitPro/libnds/lib\libnds9.a(console.o)
 .debug_abbrev  0x000062ef       0xf6 d:/devkitPro/libnds/lib\libnds9.a(dynamicArray.o)
 .debug_abbrev  0x000063e5      0x176 d:/devkitPro/libnds/lib\libnds9.a(keys.o)
 .debug_abbrev  0x0000655b      0x19a d:/devkitPro/libnds/lib\libnds9.a(system.o)
 .debug_abbrev  0x000066f5      0x123 d:/devkitPro/libnds/lib\libnds9.a(touch.o)
 .debug_abbrev  0x00006818      0x1c2 d:/devkitPro/libnds/lib\libnds9.a(trig.o)
 .debug_abbrev  0x000069da      0x390 d:/devkitPro/libnds/lib\libnds9.a(videoGL.o)
 .debug_abbrev  0x00006d6a      0x207 d:/devkitPro/libnds/lib\libnds9.a(dldi.o)
 .debug_abbrev  0x00006f71      0x176 d:/devkitPro/libnds/lib\libnds9.a(dsi_sd.o)
 .debug_abbrev  0x000070e7      0x242 d:/devkitPro/libnds/lib\libnds9.a(initSystem.o)
 .debug_abbrev  0x00007329      0x3af d:/devkitPro/libnds/lib\libnds9.a(fifosystem.o)
 .debug_abbrev  0x000076d8      0x166 d:/devkitPro/libnds/lib\libnds9.a(gbfs.o)
 .debug_abbrev  0x0000783e      0x1d5 d:/devkitPro/libnds/lib\libnds9.a(interrupts.o)
 .debug_abbrev  0x00007a13      0x131 d:/devkitPro/libnds/lib\libnds9.a(libnds_exit.o)
 .debug_abbrev  0x00007b44       0x14 d:/devkitPro/libnds/lib\libnds9.a(dcache.o)
 .debug_abbrev  0x00007b58       0x14 d:/devkitPro/libnds/lib\libnds9.a(dldi_stub.o)
 .debug_abbrev  0x00007b6c       0x14 d:/devkitPro/libnds/lib\libnds9.a(mpu_setup.o)
 .debug_abbrev  0x00007b80       0x14 d:/devkitPro/libnds/lib\libnds9.a(biosCalls.o)
 .debug_abbrev  0x00007b94       0x14 d:/devkitPro/libnds/lib\libnds9.a(debugprint.o)
 .debug_abbrev  0x00007ba8       0x14 d:/devkitPro/libnds/lib\libnds9.a(interruptDispatcher.o)
 .debug_abbrev  0x00007bbc       0x14 d:/devkitPro/libnds/lib\libnds9.a(swiSoftReset.o)
 .debug_abbrev  0x00007bd0      0x22c d:/devkitPro/libnds/lib\libnds9.a(background.o)
 .debug_abbrev  0x00007dfc      0x1b9 d:/devkitPro/libnds/lib\libnds9.a(video.o)

.debug_line     0x00000000     0xcb6e load address 0x020664d0
 *(.debug_line)
 .debug_line    0x00000000      0x46f main.o
 .debug_line    0x0000046f      0x1c8 d:/devkitPro/libnds/lib\libul.a(ulib.o)
 .debug_line    0x00000637      0x81c d:/devkitPro/libnds/lib\libul.a(drawing.o)
 .debug_line    0x00000e53      0x3dd d:/devkitPro/libnds/lib\libul.a(text.o)
 .debug_line    0x00001230      0x2f3 d:/devkitPro/libnds/lib\libul.a(VirtualFile.o)
 .debug_line    0x00001523      0x29c d:/devkitPro/libnds/lib\libul.a(vfsLibFat.o)
 .debug_line    0x000017bf      0x24b d:/devkitPro/libnds/lib\libul.a(vfsGBFS.o)
 .debug_line    0x00001a0a      0x385 d:/devkitPro/libnds/lib\libul.a(texVramManager.o)
 .debug_line    0x00001d8f      0x29c d:/devkitPro/libnds/lib\libul.a(texPalManager.o)
 .debug_line    0x0000202b      0x1c5 d:/devkitPro/libnds/lib\libul.a(keys.o)
 .debug_line    0x000021f0      0x2c1 d:/devkitPro/libnds/lib\libul.a(ulDrawImage.o)
 .debug_line    0x000024b1      0x1e4 d:/devkitPro/libnds/lib\libul.a(ulCreateImagePalette.o)
 .debug_line    0x00002695      0x1d9 d:/devkitPro/libnds/lib\libul.a(ulDrawGradientRect.o)
 .debug_line    0x0000286e      0x2ba d:/devkitPro/libnds/lib\libul.a(messagebox.o)
 .debug_line    0x00002b28      0x1cb d:/devkitPro/libnds/lib\libul.a(textSize.o)
 .debug_line    0x00002cf3       0x3b d:/devkitPro/libnds/lib\libul.a(loading_utility.o)
 .debug_line    0x00002d2e      0x1b0 d:/devkitPro/libnds/lib\libul.a(ulLoadImageFilePNG.o)
 .debug_line    0x00002ede      0x1b0 d:/devkitPro/libnds/lib\libul.a(ulLoadImageFileJPG.o)
 .debug_line    0x0000308e      0x4a5 d:/devkitPro/libnds/lib\libul.a(ulShowSplashScreen1.o)
 .debug_line    0x00003533      0x367 d:/devkitPro/libnds/lib\libul.a(ulShowSplashScreen2.o)
 .debug_line    0x0000389a      0x190 d:/devkitPro/libnds/lib\libul.a(glWrapper.o)
 .debug_line    0x00003a2a      0x442 d:/devkitPro/libnds/lib\libul.a(libLoadPng.o)
 .debug_line    0x00003e6c      0x1bf d:/devkitPro/libnds/lib\libul.a(libLoadJpg.o)
 .debug_line    0x0000402b      0x1cf d:/devkitPro/libnds/lib\libul.a(ulDrawFillRect.o)
 .debug_line    0x000041fa      0x1c1 d:/devkitPro/libnds/lib\libul.a(ulDrawLine.o)
 .debug_line    0x000043bb      0x1d5 d:/devkitPro/libnds/lib\libul.a(ulDrawRect.o)
 .debug_line    0x00004590      0x1b0 d:/devkitPro/libnds/lib\libul.a(ulSetImagePixel.o)
 .debug_line    0x00004740      0x1ac d:/devkitPro/libnds/lib\libul.a(ulGetImagePixel.o)
 .debug_line    0x000048ec      0x1b0 d:/devkitPro/libnds/lib\libul.a(ulLoadImageFileGIF.o)
 .debug_line    0x00004a9c      0x1ff d:/devkitPro/libnds/lib\libul.a(ulReadEntireFileToMemory.o)
 .debug_line    0x00004c9b      0xac8 d:/devkitPro/libnds/lib\libul.a(gba-jpeg-decode.o)
 .debug_line    0x00005763      0x30f d:/devkitPro/libnds/lib\libul.a(libLoadGif.o)
 .debug_line    0x00005a72      0x54d d:/devkitPro/libnds/lib\libul.a(dgif_lib.o)
 .debug_line    0x00005fbf       0x42 d:/devkitPro/libnds/lib\libul.a(gif_err.o)
 .debug_line    0x00006001      0x1cf d:/devkitPro/libnds/lib\libul.a(gifalloc.o)
 .debug_line    0x000061d0      0x412 d:/devkitPro/libnds/lib\libfat.a(libfat.o)
 .debug_line    0x000065e2      0x669 d:/devkitPro/libnds/lib\libfat.a(partition.o)
 .debug_line    0x00006c4b      0x3ef d:/devkitPro/libnds/lib\libfat.a(cache.o)
 .debug_line    0x0000703a      0xb41 d:/devkitPro/libnds/lib\libfat.a(directory.o)
 .debug_line    0x00007b7b      0x120 d:/devkitPro/libnds/lib\libfat.a(disc.o)
 .debug_line    0x00007c9b      0x61f d:/devkitPro/libnds/lib\libfat.a(fatdir.o)
 .debug_line    0x000082ba      0x986 d:/devkitPro/libnds/lib\libfat.a(fatfile.o)
 .debug_line    0x00008c40      0x2ee d:/devkitPro/libnds/lib\libfat.a(file_allocation_table.o)
 .debug_line    0x00008f2e      0x178 d:/devkitPro/libnds/lib\libfat.a(filetime.o)
 .debug_line    0x000090a6       0x82 d:/devkitPro/libnds/lib\libfat.a(lock.o)
 .debug_line    0x00009128      0x796 d:/devkitPro/libnds/lib\libnds9.a(console.o)
 .debug_line    0x000098be      0x178 d:/devkitPro/libnds/lib\libnds9.a(dynamicArray.o)
 .debug_line    0x00009a36      0x254 d:/devkitPro/libnds/lib\libnds9.a(keys.o)
 .debug_line    0x00009c8a      0x26c d:/devkitPro/libnds/lib\libnds9.a(system.o)
 .debug_line    0x00009ef6      0x22d d:/devkitPro/libnds/lib\libnds9.a(touch.o)
 .debug_line    0x0000a123      0x224 d:/devkitPro/libnds/lib\libnds9.a(trig.o)
 .debug_line    0x0000a347      0x93f d:/devkitPro/libnds/lib\libnds9.a(videoGL.o)
 .debug_line    0x0000ac86      0x33a d:/devkitPro/libnds/lib\libnds9.a(dldi.o)
 .debug_line    0x0000afc0      0x1d0 d:/devkitPro/libnds/lib\libnds9.a(dsi_sd.o)
 .debug_line    0x0000b190      0x36c d:/devkitPro/libnds/lib\libnds9.a(initSystem.o)
 .debug_line    0x0000b4fc      0x6c8 d:/devkitPro/libnds/lib\libnds9.a(fifosystem.o)
 .debug_line    0x0000bbc4      0x27c d:/devkitPro/libnds/lib\libnds9.a(gbfs.o)
 .debug_line    0x0000be40      0x1d0 d:/devkitPro/libnds/lib\libnds9.a(interrupts.o)
 .debug_line    0x0000c010      0x1d8 d:/devkitPro/libnds/lib\libnds9.a(libnds_exit.o)
 .debug_line    0x0000c1e8       0xa4 d:/devkitPro/libnds/lib\libnds9.a(dcache.o)
 .debug_line    0x0000c28c       0x8d d:/devkitPro/libnds/lib\libnds9.a(dldi_stub.o)
 .debug_line    0x0000c319       0xe3 d:/devkitPro/libnds/lib\libnds9.a(mpu_setup.o)
 .debug_line    0x0000c3fc       0xc5 d:/devkitPro/libnds/lib\libnds9.a(biosCalls.o)
 .debug_line    0x0000c4c1       0x9e d:/devkitPro/libnds/lib\libnds9.a(debugprint.o)
 .debug_line    0x0000c55f       0xc4 d:/devkitPro/libnds/lib\libnds9.a(interruptDispatcher.o)
 .debug_line    0x0000c623       0x93 d:/devkitPro/libnds/lib\libnds9.a(swiSoftReset.o)
 .debug_line    0x0000c6b6      0x2b2 d:/devkitPro/libnds/lib\libnds9.a(background.o)
 .debug_line    0x0000c968      0x206 d:/devkitPro/libnds/lib\libnds9.a(video.o)

.debug_frame    0x00000000     0x30b4 load address 0x020664d0
 *(.debug_frame)
 .debug_frame   0x00000000       0x60 main.o
 .debug_frame   0x00000060       0x70 d:/devkitPro/libnds/lib\libul.a(ulib.o)
 .debug_frame   0x000000d0      0x220 d:/devkitPro/libnds/lib\libul.a(drawing.o)
 .debug_frame   0x000002f0      0x160 d:/devkitPro/libnds/lib\libul.a(text.o)
 .debug_frame   0x00000450      0x1b0 d:/devkitPro/libnds/lib\libul.a(VirtualFile.o)
 .debug_frame   0x00000600       0xe8 d:/devkitPro/libnds/lib\libul.a(vfsLibFat.o)
 .debug_frame   0x000006e8       0xd4 d:/devkitPro/libnds/lib\libul.a(vfsGBFS.o)
 .debug_frame   0x000007bc      0x1a0 d:/devkitPro/libnds/lib\libul.a(texVramManager.o)
 .debug_frame   0x0000095c      0x10c d:/devkitPro/libnds/lib\libul.a(texPalManager.o)
 .debug_frame   0x00000a68       0x30 d:/devkitPro/libnds/lib\libul.a(keys.o)
 .debug_frame   0x00000a98       0x3c d:/devkitPro/libnds/lib\libul.a(ulDrawImage.o)
 .debug_frame   0x00000ad4       0x30 d:/devkitPro/libnds/lib\libul.a(ulCreateImagePalette.o)
 .debug_frame   0x00000b04       0x38 d:/devkitPro/libnds/lib\libul.a(ulDrawGradientRect.o)
 .debug_frame   0x00000b3c       0x68 d:/devkitPro/libnds/lib\libul.a(messagebox.o)
 .debug_frame   0x00000ba4       0x44 d:/devkitPro/libnds/lib\libul.a(textSize.o)
 .debug_frame   0x00000be8       0x2c d:/devkitPro/libnds/lib\libul.a(ulLoadImageFilePNG.o)
 .debug_frame   0x00000c14       0x2c d:/devkitPro/libnds/lib\libul.a(ulLoadImageFileJPG.o)
 .debug_frame   0x00000c40      0x124 d:/devkitPro/libnds/lib\libul.a(ulShowSplashScreen1.o)
 .debug_frame   0x00000d64       0x68 d:/devkitPro/libnds/lib\libul.a(ulShowSplashScreen2.o)
 .debug_frame   0x00000dcc       0x28 d:/devkitPro/libnds/lib\libul.a(glWrapper.o)
 .debug_frame   0x00000df4       0x68 d:/devkitPro/libnds/lib\libul.a(libLoadPng.o)
 .debug_frame   0x00000e5c       0x38 d:/devkitPro/libnds/lib\libul.a(libLoadJpg.o)
 .debug_frame   0x00000e94       0x30 d:/devkitPro/libnds/lib\libul.a(ulDrawFillRect.o)
 .debug_frame   0x00000ec4       0x30 d:/devkitPro/libnds/lib\libul.a(ulDrawLine.o)
 .debug_frame   0x00000ef4       0x34 d:/devkitPro/libnds/lib\libul.a(ulDrawRect.o)
 .debug_frame   0x00000f28       0x2c d:/devkitPro/libnds/lib\libul.a(ulSetImagePixel.o)
 .debug_frame   0x00000f54       0x28 d:/devkitPro/libnds/lib\libul.a(ulGetImagePixel.o)
 .debug_frame   0x00000f7c       0x2c d:/devkitPro/libnds/lib\libul.a(ulLoadImageFileGIF.o)
 .debug_frame   0x00000fa8       0x34 d:/devkitPro/libnds/lib\libul.a(ulReadEntireFileToMemory.o)
 .debug_frame   0x00000fdc      0x1cc d:/devkitPro/libnds/lib\libul.a(gba-jpeg-decode.o)
 .debug_frame   0x000011a8       0xa4 d:/devkitPro/libnds/lib\libul.a(libLoadGif.o)
 .debug_frame   0x0000124c      0x208 d:/devkitPro/libnds/lib\libul.a(dgif_lib.o)
 .debug_frame   0x00001454       0x20 d:/devkitPro/libnds/lib\libul.a(gif_err.o)
 .debug_frame   0x00001474      0x140 d:/devkitPro/libnds/lib\libul.a(gifalloc.o)
 .debug_frame   0x000015b4       0xd4 d:/devkitPro/libnds/lib\libfat.a(libfat.o)
 .debug_frame   0x00001688      0x114 d:/devkitPro/libnds/lib\libfat.a(partition.o)
 .debug_frame   0x0000179c      0x1c8 d:/devkitPro/libnds/lib\libfat.a(cache.o)
 .debug_frame   0x00001964      0x268 d:/devkitPro/libnds/lib\libfat.a(directory.o)
 .debug_frame   0x00001bcc       0x20 d:/devkitPro/libnds/lib\libfat.a(disc.o)
 .debug_frame   0x00001bec      0x180 d:/devkitPro/libnds/lib\libfat.a(fatdir.o)
 .debug_frame   0x00001d6c      0x1bc d:/devkitPro/libnds/lib\libfat.a(fatfile.o)
 .debug_frame   0x00001f28      0x118 d:/devkitPro/libnds/lib\libfat.a(file_allocation_table.o)
 .debug_frame   0x00002040       0x68 d:/devkitPro/libnds/lib\libfat.a(filetime.o)
 .debug_frame   0x000020a8       0x50 d:/devkitPro/libnds/lib\libfat.a(lock.o)
 .debug_frame   0x000020f8      0x1a4 d:/devkitPro/libnds/lib\libnds9.a(console.o)
 .debug_frame   0x0000229c       0x78 d:/devkitPro/libnds/lib\libnds9.a(dynamicArray.o)
 .debug_frame   0x00002314       0x8c d:/devkitPro/libnds/lib\libnds9.a(keys.o)
 .debug_frame   0x000023a0       0xbc d:/devkitPro/libnds/lib\libnds9.a(system.o)
 .debug_frame   0x0000245c       0x44 d:/devkitPro/libnds/lib\libnds9.a(touch.o)
 .debug_frame   0x000024a0       0xf4 d:/devkitPro/libnds/lib\libnds9.a(trig.o)
 .debug_frame   0x00002594      0x3b4 d:/devkitPro/libnds/lib\libnds9.a(videoGL.o)
 .debug_frame   0x00002948       0xa4 d:/devkitPro/libnds/lib\libnds9.a(dldi.o)
 .debug_frame   0x000029ec       0x98 d:/devkitPro/libnds/lib\libnds9.a(dsi_sd.o)
 .debug_frame   0x00002a84       0x28 d:/devkitPro/libnds/lib\libnds9.a(initSystem.o)
 .debug_frame   0x00002aac      0x2b4 d:/devkitPro/libnds/lib\libnds9.a(fifosystem.o)
 .debug_frame   0x00002d60       0xfc d:/devkitPro/libnds/lib\libnds9.a(gbfs.o)
 .debug_frame   0x00002e5c       0xb4 d:/devkitPro/libnds/lib\libnds9.a(interrupts.o)
 .debug_frame   0x00002f10       0x38 d:/devkitPro/libnds/lib\libnds9.a(libnds_exit.o)
 .debug_frame   0x00002f48       0xb0 d:/devkitPro/libnds/lib\libnds9.a(background.o)
 .debug_frame   0x00002ff8       0xbc d:/devkitPro/libnds/lib\libnds9.a(video.o)

.debug_str      0x00000000     0x89a9 load address 0x020664d0
 *(.debug_str)
 .debug_str     0x00000000      0x994 main.o
                                0xa57 (size before relaxing)
 .debug_str     0x00000994      0x185 d:/devkitPro/libnds/lib\libul.a(ulib.o)
                                0x701 (size before relaxing)
 .debug_str     0x00000b19      0xe94 d:/devkitPro/libnds/lib\libul.a(drawing.o)
                               0x1595 (size before relaxing)
 .debug_str     0x000019ad      0x2c7 d:/devkitPro/libnds/lib\libul.a(text.o)
                                0x949 (size before relaxing)
 .debug_str     0x00001c74      0x1ad d:/devkitPro/libnds/lib\libul.a(VirtualFile.o)
                                0x720 (size before relaxing)
 .debug_str     0x00001e21      0x431 d:/devkitPro/libnds/lib\libul.a(vfsLibFat.o)
                                0x9f0 (size before relaxing)
 .debug_str     0x00002252       0xe2 d:/devkitPro/libnds/lib\libul.a(vfsGBFS.o)
                                0x6d0 (size before relaxing)
 .debug_str     0x00002334      0x308 d:/devkitPro/libnds/lib\libul.a(texVramManager.o)
                                0x8e1 (size before relaxing)
 .debug_str     0x0000263c      0x14b d:/devkitPro/libnds/lib\libul.a(texPalManager.o)
                                0x784 (size before relaxing)
 .debug_str     0x00002787       0x2f d:/devkitPro/libnds/lib\libul.a(keys.o)
                                0x687 (size before relaxing)
 .debug_str     0x000027b6       0x38 d:/devkitPro/libnds/lib\libul.a(ulDrawImage.o)
                                0x57c (size before relaxing)
 .debug_str     0x000027ee       0x32 d:/devkitPro/libnds/lib\libul.a(ulCreateImagePalette.o)
                                0x5ce (size before relaxing)
 .debug_str     0x00002820       0x4a d:/devkitPro/libnds/lib\libul.a(ulDrawGradientRect.o)
                                0x4b0 (size before relaxing)
 .debug_str     0x0000286a      0x135 d:/devkitPro/libnds/lib\libul.a(messagebox.o)
                                0x81e (size before relaxing)
 .debug_str     0x0000299f       0x41 d:/devkitPro/libnds/lib\libul.a(textSize.o)
                                0x571 (size before relaxing)
 .debug_str     0x000029e0       0x1b d:/devkitPro/libnds/lib\libul.a(loading_utility.o)
                                 0x5c (size before relaxing)
 .debug_str     0x000029fb       0x3a d:/devkitPro/libnds/lib\libul.a(ulLoadImageFilePNG.o)
                                0x54f (size before relaxing)
 .debug_str     0x00002a35       0x31 d:/devkitPro/libnds/lib\libul.a(ulLoadImageFileJPG.o)
                                0x54f (size before relaxing)
 .debug_str     0x00002a66      0x200 d:/devkitPro/libnds/lib\libul.a(ulShowSplashScreen1.o)
                                0xf76 (size before relaxing)
 .debug_str     0x00002c66       0xaa d:/devkitPro/libnds/lib\libul.a(ulShowSplashScreen2.o)
                                0x942 (size before relaxing)
 .debug_str     0x00002d10       0x92 d:/devkitPro/libnds/lib\libul.a(glWrapper.o)
                                0x603 (size before relaxing)
 .debug_str     0x00002da2      0xd03 d:/devkitPro/libnds/lib\libul.a(libLoadPng.o)
                               0x14e8 (size before relaxing)
 .debug_str     0x00003aa5      0x359 d:/devkitPro/libnds/lib\libul.a(libLoadJpg.o)
                                0x875 (size before relaxing)
 .debug_str     0x00003dfe       0x26 d:/devkitPro/libnds/lib\libul.a(ulDrawFillRect.o)
                                0x492 (size before relaxing)
 .debug_str     0x00003e24       0x1e d:/devkitPro/libnds/lib\libul.a(ulDrawLine.o)
                                0x48a (size before relaxing)
 .debug_str     0x00003e42       0x1e d:/devkitPro/libnds/lib\libul.a(ulDrawRect.o)
                                0x48a (size before relaxing)
 .debug_str     0x00003e60       0x3a d:/devkitPro/libnds/lib\libul.a(ulSetImagePixel.o)
                                0x569 (size before relaxing)
 .debug_str     0x00003e9a       0x28 d:/devkitPro/libnds/lib\libul.a(ulGetImagePixel.o)
                                0x55e (size before relaxing)
 .debug_str     0x00003ec2       0x31 d:/devkitPro/libnds/lib\libul.a(ulLoadImageFileGIF.o)
                                0x54f (size before relaxing)
 .debug_str     0x00003ef3       0x4a d:/devkitPro/libnds/lib\libul.a(ulReadEntireFileToMemory.o)
                                0x4da (size before relaxing)
 .debug_str     0x00003f3d      0x3d5 d:/devkitPro/libnds/lib\libul.a(gba-jpeg-decode.o)
                                0xc4d (size before relaxing)
 .debug_str     0x00004312      0x24c d:/devkitPro/libnds/lib\libul.a(libLoadGif.o)
                                0xa46 (size before relaxing)
 .debug_str     0x0000455e      0x246 d:/devkitPro/libnds/lib\libul.a(dgif_lib.o)
                                0x904 (size before relaxing)
 .debug_str     0x000047a4       0x1b d:/devkitPro/libnds/lib\libul.a(gif_err.o)
                                 0xd7 (size before relaxing)
 .debug_str     0x000047bf      0x10f d:/devkitPro/libnds/lib\libul.a(gifalloc.o)
                                0x35e (size before relaxing)
 .debug_str     0x000048ce      0x651 d:/devkitPro/libnds/lib\libfat.a(libfat.o)
                                0xc6e (size before relaxing)
 .debug_str     0x00004f1f      0x4fd d:/devkitPro/libnds/lib\libfat.a(partition.o)
                               0x102b (size before relaxing)
 .debug_str     0x0000541c      0x214 d:/devkitPro/libnds/lib\libfat.a(cache.o)
                                0x503 (size before relaxing)
 .debug_str     0x00005630      0x78d d:/devkitPro/libnds/lib\libfat.a(directory.o)
                                0xd00 (size before relaxing)
 .debug_str     0x00005dbd       0x64 d:/devkitPro/libnds/lib\libfat.a(disc.o)
                                0x243 (size before relaxing)
 .debug_str     0x00005e21      0x1c4 d:/devkitPro/libnds/lib\libfat.a(fatdir.o)
                                0xcc3 (size before relaxing)
 .debug_str     0x00005fe5      0x1df d:/devkitPro/libnds/lib\libfat.a(fatfile.o)
                                0xd42 (size before relaxing)
 .debug_str     0x000061c4      0x169 d:/devkitPro/libnds/lib\libfat.a(file_allocation_table.o)
                                0x568 (size before relaxing)
 .debug_str     0x0000632d       0xb6 d:/devkitPro/libnds/lib\libfat.a(filetime.o)
                                0x1ae (size before relaxing)
 .debug_str     0x000063e3       0x88 d:/devkitPro/libnds/lib\libfat.a(lock.o)
                                0x129 (size before relaxing)
 .debug_str     0x0000646b      0x60b d:/devkitPro/libnds/lib\libnds9.a(console.o)
                               0x103c (size before relaxing)
 .debug_str     0x00006a76       0xaa d:/devkitPro/libnds/lib\libnds9.a(dynamicArray.o)
                                0x18f (size before relaxing)
 .debug_str     0x00006b20      0x165 d:/devkitPro/libnds/lib\libnds9.a(keys.o)
                                0x2dc (size before relaxing)
 .debug_str     0x00006c85      0x348 d:/devkitPro/libnds/lib\libnds9.a(system.o)
                                0x510 (size before relaxing)
 .debug_str     0x00006fcd       0x72 d:/devkitPro/libnds/lib\libnds9.a(touch.o)
                                0x1f8 (size before relaxing)
 .debug_str     0x0000703f       0xdf d:/devkitPro/libnds/lib\libnds9.a(trig.o)
                                0x1d7 (size before relaxing)
 .debug_str     0x0000711e      0xa14 d:/devkitPro/libnds/lib\libnds9.a(videoGL.o)
                               0x130f (size before relaxing)
 .debug_str     0x00007b32      0x1fe d:/devkitPro/libnds/lib\libnds9.a(dldi.o)
                                0x3e2 (size before relaxing)
 .debug_str     0x00007d30      0x125 d:/devkitPro/libnds/lib\libnds9.a(dsi_sd.o)
                                0x557 (size before relaxing)
 .debug_str     0x00007e55       0xc2 d:/devkitPro/libnds/lib\libnds9.a(initSystem.o)
                                0x95d (size before relaxing)
 .debug_str     0x00007f17      0x512 d:/devkitPro/libnds/lib\libnds9.a(fifosystem.o)
                                0x74c (size before relaxing)
 .debug_str     0x00008429      0x191 d:/devkitPro/libnds/lib\libnds9.a(gbfs.o)
                                0x291 (size before relaxing)
 .debug_str     0x000085ba      0x128 d:/devkitPro/libnds/lib\libnds9.a(interrupts.o)
                                0x34a (size before relaxing)
 .debug_str     0x000086e2       0x88 d:/devkitPro/libnds/lib\libnds9.a(libnds_exit.o)
                                0x298 (size before relaxing)
 .debug_str     0x0000876a      0x123 d:/devkitPro/libnds/lib\libnds9.a(background.o)
                                0x67a (size before relaxing)
 .debug_str     0x0000888d      0x11c d:/devkitPro/libnds/lib\libnds9.a(video.o)
                                0xb12 (size before relaxing)

.debug_loc      0x00000000    0x15a52 load address 0x020664d0
 *(.debug_loc)
 .debug_loc     0x00000000      0x3f8 main.o
 .debug_loc     0x000003f8       0xa4 d:/devkitPro/libnds/lib\libul.a(ulib.o)
 .debug_loc     0x0000049c      0xa4b d:/devkitPro/libnds/lib\libul.a(drawing.o)
 .debug_loc     0x00000ee7      0x7ed d:/devkitPro/libnds/lib\libul.a(text.o)
 .debug_loc     0x000016d4      0x776 d:/devkitPro/libnds/lib\libul.a(VirtualFile.o)
 .debug_loc     0x00001e4a      0x1ff d:/devkitPro/libnds/lib\libul.a(vfsLibFat.o)
 .debug_loc     0x00002049       0xfa d:/devkitPro/libnds/lib\libul.a(vfsGBFS.o)
 .debug_loc     0x00002143      0x81d d:/devkitPro/libnds/lib\libul.a(texVramManager.o)
 .debug_loc     0x00002960      0x413 d:/devkitPro/libnds/lib\libul.a(texPalManager.o)
 .debug_loc     0x00002d73       0x99 d:/devkitPro/libnds/lib\libul.a(keys.o)
 .debug_loc     0x00002e0c      0x133 d:/devkitPro/libnds/lib\libul.a(ulDrawImage.o)
 .debug_loc     0x00002f3f       0xdd d:/devkitPro/libnds/lib\libul.a(ulCreateImagePalette.o)
 .debug_loc     0x0000301c       0x78 d:/devkitPro/libnds/lib\libul.a(ulDrawGradientRect.o)
 .debug_loc     0x00003094      0x559 d:/devkitPro/libnds/lib\libul.a(messagebox.o)
 .debug_loc     0x000035ed      0x1d4 d:/devkitPro/libnds/lib\libul.a(textSize.o)
 .debug_loc     0x000037c1       0xd5 d:/devkitPro/libnds/lib\libul.a(ulLoadImageFilePNG.o)
 .debug_loc     0x00003896       0xd5 d:/devkitPro/libnds/lib\libul.a(ulLoadImageFileJPG.o)
 .debug_loc     0x0000396b      0x86e d:/devkitPro/libnds/lib\libul.a(ulShowSplashScreen1.o)
 .debug_loc     0x000041d9      0x2d1 d:/devkitPro/libnds/lib\libul.a(ulShowSplashScreen2.o)
 .debug_loc     0x000044aa       0x76 d:/devkitPro/libnds/lib\libul.a(glWrapper.o)
 .debug_loc     0x00004520      0x9ca d:/devkitPro/libnds/lib\libul.a(libLoadPng.o)
 .debug_loc     0x00004eea      0x17e d:/devkitPro/libnds/lib\libul.a(libLoadJpg.o)
 .debug_loc     0x00005068       0x6c d:/devkitPro/libnds/lib\libul.a(ulDrawFillRect.o)
 .debug_loc     0x000050d4       0x59 d:/devkitPro/libnds/lib\libul.a(ulDrawLine.o)
 .debug_loc     0x0000512d       0x6c d:/devkitPro/libnds/lib\libul.a(ulDrawRect.o)
 .debug_loc     0x00005199       0xae d:/devkitPro/libnds/lib\libul.a(ulSetImagePixel.o)
 .debug_loc     0x00005247       0xa6 d:/devkitPro/libnds/lib\libul.a(ulGetImagePixel.o)
 .debug_loc     0x000052ed       0xd5 d:/devkitPro/libnds/lib\libul.a(ulLoadImageFileGIF.o)
 .debug_loc     0x000053c2      0x14e d:/devkitPro/libnds/lib\libul.a(ulReadEntireFileToMemory.o)
 .debug_loc     0x00005510     0x1b73 d:/devkitPro/libnds/lib\libul.a(gba-jpeg-decode.o)
 .debug_loc     0x00007083      0x72a d:/devkitPro/libnds/lib\libul.a(libLoadGif.o)
 .debug_loc     0x000077ad      0xd7b d:/devkitPro/libnds/lib\libul.a(dgif_lib.o)
 .debug_loc     0x00008528      0x4ea d:/devkitPro/libnds/lib\libul.a(gifalloc.o)
 .debug_loc     0x00008a12      0x51c d:/devkitPro/libnds/lib\libfat.a(libfat.o)
 .debug_loc     0x00008f2e      0xa52 d:/devkitPro/libnds/lib\libfat.a(partition.o)
 .debug_loc     0x00009980      0xe16 d:/devkitPro/libnds/lib\libfat.a(cache.o)
 .debug_loc     0x0000a796     0x24a9 d:/devkitPro/libnds/lib\libfat.a(directory.o)
 .debug_loc     0x0000cc3f      0xe76 d:/devkitPro/libnds/lib\libfat.a(fatdir.o)
 .debug_loc     0x0000dab5     0x1fad d:/devkitPro/libnds/lib\libfat.a(fatfile.o)
 .debug_loc     0x0000fa62      0x92d d:/devkitPro/libnds/lib\libfat.a(file_allocation_table.o)
 .debug_loc     0x0001038f       0xaa d:/devkitPro/libnds/lib\libfat.a(filetime.o)
 .debug_loc     0x00010439      0xf0a d:/devkitPro/libnds/lib\libnds9.a(console.o)
 .debug_loc     0x00011343      0x196 d:/devkitPro/libnds/lib\libnds9.a(dynamicArray.o)
 .debug_loc     0x000114d9       0x20 d:/devkitPro/libnds/lib\libnds9.a(keys.o)
 .debug_loc     0x000114f9      0x1ba d:/devkitPro/libnds/lib\libnds9.a(system.o)
 .debug_loc     0x000116b3       0x40 d:/devkitPro/libnds/lib\libnds9.a(touch.o)
 .debug_loc     0x000116f3      0x5b9 d:/devkitPro/libnds/lib\libnds9.a(trig.o)
 .debug_loc     0x00011cac     0x1c39 d:/devkitPro/libnds/lib\libnds9.a(videoGL.o)
 .debug_loc     0x000138e5      0x2b2 d:/devkitPro/libnds/lib\libnds9.a(dldi.o)
 .debug_loc     0x00013b97      0x1d3 d:/devkitPro/libnds/lib\libnds9.a(dsi_sd.o)
 .debug_loc     0x00013d6a       0x64 d:/devkitPro/libnds/lib\libnds9.a(initSystem.o)
 .debug_loc     0x00013dce     0x1131 d:/devkitPro/libnds/lib\libnds9.a(fifosystem.o)
 .debug_loc     0x00014eff      0x3e1 d:/devkitPro/libnds/lib\libnds9.a(gbfs.o)
 .debug_loc     0x000152e0      0x17b d:/devkitPro/libnds/lib\libnds9.a(interrupts.o)
 .debug_loc     0x0001545b       0x5c d:/devkitPro/libnds/lib\libnds9.a(libnds_exit.o)
 .debug_loc     0x000154b7      0x38a d:/devkitPro/libnds/lib\libnds9.a(background.o)
 .debug_loc     0x00015841      0x211 d:/devkitPro/libnds/lib\libnds9.a(video.o)

.debug_macinfo
 *(.debug_macinfo)

.debug_weaknames
 *(.debug_weaknames)

.debug_funcnames
 *(.debug_funcnames)

.debug_typenames
 *(.debug_typenames)

.debug_varnames
 *(.debug_varnames)

.stack          0x00080000        0x0 load address 0x020664d0
                0x00080000                _stack = .
 *(.stack)
LOAD d:/devkitpro/devkitarm/bin/../lib/gcc/arm-eabi/4.5.1/../../../../arm-eabi/lib/ds_arm9_crt0.o
LOAD d:/devkitpro/devkitarm/bin/../lib/gcc/arm-eabi/4.5.1/crti.o
LOAD d:/devkitpro/devkitarm/bin/../lib/gcc/arm-eabi/4.5.1/crtbegin.o
LOAD roll.png.o
LOAD main.o
LOAD d:/devkitPro/libnds/lib\libul.a
LOAD d:/devkitPro/libnds/lib\libpng.a
LOAD d:/devkitPro/libnds/lib\libz.a
LOAD d:/devkitPro/libnds/lib\libfat.a
LOAD d:/devkitPro/libnds/lib\libnds9.a
LOAD d:/devkitpro/devkitarm/bin/../lib/gcc/arm-eabi/4.5.1/../../../../arm-eabi/lib\libm.a
START GROUP
LOAD d:/devkitpro/devkitarm/bin/../lib/gcc/arm-eabi/4.5.1\libgcc.a
LOAD d:/devkitpro/devkitarm/bin/../lib/gcc/arm-eabi/4.5.1/../../../../arm-eabi/lib\libg.a
LOAD d:/devkitpro/devkitarm/bin/../lib/gcc/arm-eabi/4.5.1/../../../../arm-eabi/lib\libc.a
LOAD d:/devkitpro/devkitarm/bin/../lib/gcc/arm-eabi/4.5.1/../../../../arm-eabi/lib\libsysbase.a
END GROUP
LOAD d:/devkitpro/devkitarm/bin/../lib/gcc/arm-eabi/4.5.1/crtend.o
LOAD d:/devkitpro/devkitarm/bin/../lib/gcc/arm-eabi/4.5.1/crtn.o
OUTPUT(d:/devkitPro/uLibrary/Examples/Example08/Example08.elf elf32-littlearm)

.debug_pubtypes
                0x00000000     0x688b load address 0x020664d0
 .debug_pubtypes
                0x00000000      0x24e main.o
 .debug_pubtypes
                0x0000024e      0x192 d:/devkitPro/libnds/lib\libul.a(ulib.o)
 .debug_pubtypes
                0x000003e0      0x335 d:/devkitPro/libnds/lib\libul.a(drawing.o)
 .debug_pubtypes
                0x00000715      0x21f d:/devkitPro/libnds/lib\libul.a(text.o)
 .debug_pubtypes
                0x00000934      0x1ab d:/devkitPro/libnds/lib\libul.a(VirtualFile.o)
 .debug_pubtypes
                0x00000adf      0x27a d:/devkitPro/libnds/lib\libul.a(vfsLibFat.o)
 .debug_pubtypes
                0x00000d59      0x1df d:/devkitPro/libnds/lib\libul.a(vfsGBFS.o)
 .debug_pubtypes
                0x00000f38      0x1d0 d:/devkitPro/libnds/lib\libul.a(texVramManager.o)
 .debug_pubtypes
                0x00001108      0x19e d:/devkitPro/libnds/lib\libul.a(texPalManager.o)
 .debug_pubtypes
                0x000012a6      0x1c9 d:/devkitPro/libnds/lib\libul.a(keys.o)
 .debug_pubtypes
                0x0000146f      0x186 d:/devkitPro/libnds/lib\libul.a(ulDrawImage.o)
 .debug_pubtypes
                0x000015f5      0x1b3 d:/devkitPro/libnds/lib\libul.a(ulCreateImagePalette.o)
 .debug_pubtypes
                0x000017a8      0x17d d:/devkitPro/libnds/lib\libul.a(ulDrawGradientRect.o)
 .debug_pubtypes
                0x00001925      0x1d6 d:/devkitPro/libnds/lib\libul.a(messagebox.o)
 .debug_pubtypes
                0x00001afb      0x180 d:/devkitPro/libnds/lib\libul.a(textSize.o)
 .debug_pubtypes
                0x00001c7b      0x197 d:/devkitPro/libnds/lib\libul.a(ulLoadImageFilePNG.o)
 .debug_pubtypes
                0x00001e12      0x197 d:/devkitPro/libnds/lib\libul.a(ulLoadImageFileJPG.o)
 .debug_pubtypes
                0x00001fa9      0x23b d:/devkitPro/libnds/lib\libul.a(ulShowSplashScreen1.o)
 .debug_pubtypes
                0x000021e4      0x205 d:/devkitPro/libnds/lib\libul.a(ulShowSplashScreen2.o)
 .debug_pubtypes
                0x000023e9      0x19c d:/devkitPro/libnds/lib\libul.a(glWrapper.o)
 .debug_pubtypes
                0x00002585      0x67d d:/devkitPro/libnds/lib\libul.a(libLoadPng.o)
 .debug_pubtypes
                0x00002c02      0x2a9 d:/devkitPro/libnds/lib\libul.a(libLoadJpg.o)
 .debug_pubtypes
                0x00002eab      0x17d d:/devkitPro/libnds/lib\libul.a(ulDrawFillRect.o)
 .debug_pubtypes
                0x00003028      0x17d d:/devkitPro/libnds/lib\libul.a(ulDrawLine.o)
 .debug_pubtypes
                0x000031a5      0x17d d:/devkitPro/libnds/lib\libul.a(ulDrawRect.o)
 .debug_pubtypes
                0x00003322      0x189 d:/devkitPro/libnds/lib\libul.a(ulSetImagePixel.o)
 .debug_pubtypes
                0x000034ab      0x189 d:/devkitPro/libnds/lib\libul.a(ulGetImagePixel.o)
 .debug_pubtypes
                0x00003634      0x197 d:/devkitPro/libnds/lib\libul.a(ulLoadImageFileGIF.o)
 .debug_pubtypes
                0x000037cb      0x194 d:/devkitPro/libnds/lib\libul.a(ulReadEntireFileToMemory.o)
 .debug_pubtypes
                0x0000395f      0x2a1 d:/devkitPro/libnds/lib\libul.a(gba-jpeg-decode.o)
 .debug_pubtypes
                0x00003c00      0x2cb d:/devkitPro/libnds/lib\libul.a(libLoadGif.o)
 .debug_pubtypes
                0x00003ecb      0x23d d:/devkitPro/libnds/lib\libul.a(dgif_lib.o)
 .debug_pubtypes
                0x00004108       0x12 d:/devkitPro/libnds/lib\libul.a(gif_err.o)
 .debug_pubtypes
                0x0000411a       0xfa d:/devkitPro/libnds/lib\libul.a(gifalloc.o)
 .debug_pubtypes
                0x00004214      0x397 d:/devkitPro/libnds/lib\libfat.a(libfat.o)
 .debug_pubtypes
                0x000045ab      0x3a9 d:/devkitPro/libnds/lib\libfat.a(partition.o)
 .debug_pubtypes
                0x00004954      0x13a d:/devkitPro/libnds/lib\libfat.a(cache.o)
 .debug_pubtypes
                0x00004a8e      0x294 d:/devkitPro/libnds/lib\libfat.a(directory.o)
 .debug_pubtypes
                0x00004d22      0x105 d:/devkitPro/libnds/lib\libfat.a(disc.o)
 .debug_pubtypes
                0x00004e27      0x35a d:/devkitPro/libnds/lib\libfat.a(fatdir.o)
 .debug_pubtypes
                0x00005181      0x366 d:/devkitPro/libnds/lib\libfat.a(fatfile.o)
 .debug_pubtypes
                0x000054e7      0x15d d:/devkitPro/libnds/lib\libfat.a(file_allocation_table.o)
 .debug_pubtypes
                0x00005644       0x31 d:/devkitPro/libnds/lib\libfat.a(filetime.o)
 .debug_pubtypes
                0x00005675       0x1e d:/devkitPro/libnds/lib\libfat.a(lock.o)
 .debug_pubtypes
                0x00005693      0x33b d:/devkitPro/libnds/lib\libnds9.a(console.o)
 .debug_pubtypes
                0x000059ce       0x3d d:/devkitPro/libnds/lib\libnds9.a(dynamicArray.o)
 .debug_pubtypes
                0x00005a0b       0xdd d:/devkitPro/libnds/lib\libnds9.a(keys.o)
 .debug_pubtypes
                0x00005ae8      0x109 d:/devkitPro/libnds/lib\libnds9.a(system.o)
 .debug_pubtypes
                0x00005bf1       0xc4 d:/devkitPro/libnds/lib\libnds9.a(touch.o)
 .debug_pubtypes
                0x00005cb5       0x58 d:/devkitPro/libnds/lib\libnds9.a(trig.o)
 .debug_pubtypes
                0x00005d0d      0x20c d:/devkitPro/libnds/lib\libnds9.a(videoGL.o)
 .debug_pubtypes
                0x00005f19      0x15e d:/devkitPro/libnds/lib\libnds9.a(dldi.o)
 .debug_pubtypes
                0x00006077      0x171 d:/devkitPro/libnds/lib\libnds9.a(dsi_sd.o)
 .debug_pubtypes
                0x000061e8      0x1e5 d:/devkitPro/libnds/lib\libnds9.a(initSystem.o)
 .debug_pubtypes
                0x000063cd      0x126 d:/devkitPro/libnds/lib\libnds9.a(fifosystem.o)
 .debug_pubtypes
                0x000064f3       0x81 d:/devkitPro/libnds/lib\libnds9.a(gbfs.o)
 .debug_pubtypes
                0x00006574       0xaa d:/devkitPro/libnds/lib\libnds9.a(interrupts.o)
 .debug_pubtypes
                0x0000661e       0x8b d:/devkitPro/libnds/lib\libnds9.a(libnds_exit.o)
 .debug_pubtypes
                0x000066a9       0xfe d:/devkitPro/libnds/lib\libnds9.a(background.o)
 .debug_pubtypes
                0x000067a7       0xe4 d:/devkitPro/libnds/lib\libnds9.a(video.o)

.debug_ranges   0x00000000     0x2b70 load address 0x020664d0
 .debug_ranges  0x00000000      0x278 main.o
 .debug_ranges  0x00000278      0x4d8 d:/devkitPro/libnds/lib\libul.a(drawing.o)
 .debug_ranges  0x00000750       0x40 d:/devkitPro/libnds/lib\libul.a(text.o)
 .debug_ranges  0x00000790      0x100 d:/devkitPro/libnds/lib\libul.a(texVramManager.o)
 .debug_ranges  0x00000890       0x38 d:/devkitPro/libnds/lib\libul.a(texPalManager.o)
 .debug_ranges  0x000008c8       0xf8 d:/devkitPro/libnds/lib\libul.a(ulDrawImage.o)
 .debug_ranges  0x000009c0       0x78 d:/devkitPro/libnds/lib\libul.a(messagebox.o)
 .debug_ranges  0x00000a38      0x150 d:/devkitPro/libnds/lib\libul.a(ulShowSplashScreen1.o)
 .debug_ranges  0x00000b88       0x90 d:/devkitPro/libnds/lib\libul.a(ulShowSplashScreen2.o)
 .debug_ranges  0x00000c18       0x30 d:/devkitPro/libnds/lib\libul.a(glWrapper.o)
 .debug_ranges  0x00000c48       0x30 d:/devkitPro/libnds/lib\libul.a(libLoadPng.o)
 .debug_ranges  0x00000c78      0x4b8 d:/devkitPro/libnds/lib\libul.a(gba-jpeg-decode.o)
 .debug_ranges  0x00001130       0x60 d:/devkitPro/libnds/lib\libul.a(libLoadGif.o)
 .debug_ranges  0x00001190       0x58 d:/devkitPro/libnds/lib\libul.a(dgif_lib.o)
 .debug_ranges  0x000011e8       0x48 d:/devkitPro/libnds/lib\libfat.a(libfat.o)
 .debug_ranges  0x00001230      0x1f0 d:/devkitPro/libnds/lib\libfat.a(partition.o)
 .debug_ranges  0x00001420       0x48 d:/devkitPro/libnds/lib\libfat.a(cache.o)
 .debug_ranges  0x00001468      0x3a8 d:/devkitPro/libnds/lib\libfat.a(directory.o)
 .debug_ranges  0x00001810       0xd8 d:/devkitPro/libnds/lib\libfat.a(fatdir.o)
 .debug_ranges  0x000018e8      0x2c8 d:/devkitPro/libnds/lib\libfat.a(fatfile.o)
 .debug_ranges  0x00001bb0       0x38 d:/devkitPro/libnds/lib\libfat.a(file_allocation_table.o)
 .debug_ranges  0x00001be8      0x380 d:/devkitPro/libnds/lib\libnds9.a(console.o)
 .debug_ranges  0x00001f68       0x18 d:/devkitPro/libnds/lib\libnds9.a(touch.o)
 .debug_ranges  0x00001f80       0x80 d:/devkitPro/libnds/lib\libnds9.a(trig.o)
 .debug_ranges  0x00002000      0x730 d:/devkitPro/libnds/lib\libnds9.a(videoGL.o)
 .debug_ranges  0x00002730       0x30 d:/devkitPro/libnds/lib\libnds9.a(dldi.o)
 .debug_ranges  0x00002760      0x378 d:/devkitPro/libnds/lib\libnds9.a(fifosystem.o)
 .debug_ranges  0x00002ad8       0x30 d:/devkitPro/libnds/lib\libnds9.a(interrupts.o)
 .debug_ranges  0x00002b08       0x38 d:/devkitPro/libnds/lib\libnds9.a(background.o)
 .debug_ranges  0x00002b40       0x30 d:/devkitPro/libnds/lib\libnds9.a(video.o)
