Archive member included because of file (symbol)

d:/devkitPro/libnds/lib\libul.a(ulib.o)
                              CBall.o (ul_sin)
d:/devkitPro/libnds/lib\libul.a(drawing.o)
                              main.o (ulInitGfx)
d:/devkitPro/libnds/lib\libul.a(text.o)
                              main.o (ulDrawString)
d:/devkitPro/libnds/lib\libul.a(VirtualFile.o)
                              d:/devkitPro/libnds/lib\libul.a(text.o) (VirtualFileSources)
d:/devkitPro/libnds/lib\libul.a(texVramManager.o)
                              d:/devkitPro/libnds/lib\libul.a(ulib.o) (ulTexVramInit)
d:/devkitPro/libnds/lib\libul.a(texPalManager.o)
                              d:/devkitPro/libnds/lib\libul.a(ulib.o) (ulTexPalInit)
d:/devkitPro/libnds/lib\libul.a(keys.o)
                              main.o (ulReadKeys)
d:/devkitPro/libnds/lib\libul.a(ulDrawImage.o)
                              CBall.o (ulDrawImage)
d:/devkitPro/libnds/lib\libul.a(ulCreateImagePalette.o)
                              d:/devkitPro/libnds/lib\libul.a(drawing.o) (ulCreateImagePalette)
d:/devkitPro/libnds/lib\libul.a(ulDrawGradientRect.o)
                              main.o (ulDrawGradientRect)
d:/devkitPro/libnds/lib\libul.a(ulLoadImageFilePNG.o)
                              CBall.o (ulLoadImageFilePNG)
d:/devkitPro/libnds/lib\libul.a(ulShowSplashScreen1.o)
                              main.o (ulShowSplashScreen1)
d:/devkitPro/libnds/lib\libul.a(ulShowSplashScreen2.o)
                              main.o (ulShowSplashScreen2)
d:/devkitPro/libnds/lib\libul.a(glWrapper.o)
                              d:/devkitPro/libnds/lib\libul.a(texVramManager.o) (ulChangeVramAllocation)
d:/devkitPro/libnds/lib\libul.a(libLoadPng.o)
                              d:/devkitPro/libnds/lib\libul.a(ulLoadImageFilePNG.o) (ulLoadImagePNG)
d:/devkitPro/libnds/lib\libul.a(ulDrawFillRect.o)
                              d:/devkitPro/libnds/lib\libul.a(ulShowSplashScreen1.o) (ulDrawFillRect)
d:/devkitPro/libnds/lib\libul.a(ulSetImagePixel.o)
                              d:/devkitPro/libnds/lib\libul.a(ulShowSplashScreen1.o) (ulSetImagePixel)
d:/devkitPro/libnds/lib\libul.a(ulGetImagePixel.o)
                              d:/devkitPro/libnds/lib\libul.a(ulShowSplashScreen1.o) (ulGetImagePixel)
d:/devkitPro/libnds/lib\libul.a(textSize.o)
                              d:/devkitPro/libnds/lib\libul.a(ulShowSplashScreen1.o) (ulGetStringWidth)
d:/devkitPro/libnds/lib\libul.a(loading_utility.o)
                              d:/devkitPro/libnds/lib\libul.a(ulLoadImageFilePNG.o) (ul_loadUtilActiveSource)
d:/devkitPro/libnds/lib\libul.a(ulLoadImageFileJPG.o)
                              d:/devkitPro/libnds/lib\libul.a(ulShowSplashScreen2.o) (ulLoadImageFileJPG)
d:/devkitPro/libnds/lib\libul.a(ulLoadImageFileGIF.o)
                              d:/devkitPro/libnds/lib\libul.a(ulShowSplashScreen1.o) (ulLoadImageFileGIF)
d:/devkitPro/libnds/lib\libul.a(libLoadJpg.o)
                              d:/devkitPro/libnds/lib\libul.a(ulLoadImageFileJPG.o) (ulLoadImageJPG)
d:/devkitPro/libnds/lib\libul.a(libLoadGif.o)
                              d:/devkitPro/libnds/lib\libul.a(ulLoadImageFileGIF.o) (ulLoadImageGIF)
d:/devkitPro/libnds/lib\libul.a(dgif_lib.o)
                              d:/devkitPro/libnds/lib\libul.a(libLoadGif.o) (DGifOpen)
d:/devkitPro/libnds/lib\libul.a(gif_err.o)
                              d:/devkitPro/libnds/lib\libul.a(dgif_lib.o) (_GifError)
d:/devkitPro/libnds/lib\libul.a(gifalloc.o)
                              d:/devkitPro/libnds/lib\libul.a(dgif_lib.o) (MakeMapObject)
d:/devkitPro/libnds/lib\libul.a(ulReadEntireFileToMemory.o)
                              d:/devkitPro/libnds/lib\libul.a(libLoadJpg.o) (ulReadEntireFileToMemory)
d:/devkitPro/libnds/lib\libul.a(gba-jpeg-decode.o)
                              d:/devkitPro/libnds/lib\libul.a(libLoadJpg.o) (JPEG_Decoder_ReadImage)
d:/devkitPro/libnds/lib\libpng.a(png.o)
                              d:/devkitPro/libnds/lib\libul.a(libLoadPng.o) (png_get_io_ptr)
d:/devkitPro/libnds/lib\libpng.a(pngread.o)
                              d:/devkitPro/libnds/lib\libul.a(libLoadPng.o) (png_destroy_read_struct)
d:/devkitPro/libnds/lib\libpng.a(pngrio.o)
                              d:/devkitPro/libnds/lib\libul.a(libLoadPng.o) (png_set_read_fn)
d:/devkitPro/libnds/lib\libpng.a(pngrtran.o)
                              d:/devkitPro/libnds/lib\libpng.a(pngread.o) (png_set_strip_16)
d:/devkitPro/libnds/lib\libpng.a(pngmem.o)
                              d:/devkitPro/libnds/lib\libpng.a(pngread.o) (png_set_mem_fn)
d:/devkitPro/libnds/lib\libpng.a(pngerror.o)
                              d:/devkitPro/libnds/lib\libpng.a(pngread.o) (png_set_error_fn)
d:/devkitPro/libnds/lib\libpng.a(pngget.o)
                              d:/devkitPro/libnds/lib\libpng.a(pngread.o) (png_get_valid)
d:/devkitPro/libnds/lib\libpng.a(pngrutil.o)
                              d:/devkitPro/libnds/lib\libpng.a(pngread.o) (png_read_filter_row)
d:/devkitPro/libnds/lib\libpng.a(pngtrans.o)
                              d:/devkitPro/libnds/lib\libpng.a(pngread.o) (png_set_bgr)
d:/devkitPro/libnds/lib\libpng.a(pngset.o)
                              d:/devkitPro/libnds/lib\libpng.a(pngrutil.o) (png_set_cHRM)
d:/devkitPro/libnds/lib\libz.a(crc32.o)
                              d:/devkitPro/libnds/lib\libpng.a(png.o) (crc32)
d:/devkitPro/libnds/lib\libz.a(inflate.o)
                              d:/devkitPro/libnds/lib\libpng.a(png.o) (inflateReset)
d:/devkitPro/libnds/lib\libz.a(inftrees.o)
                              d:/devkitPro/libnds/lib\libz.a(inflate.o) (inflate_table)
d:/devkitPro/libnds/lib\libz.a(inffast.o)
                              d:/devkitPro/libnds/lib\libz.a(inflate.o) (inflate_fast)
d:/devkitPro/libnds/lib\libz.a(adler32.o)
                              d:/devkitPro/libnds/lib\libz.a(inflate.o) (adler32)
d:/devkitPro/libnds/lib\libz.a(zutil.o)
                              d:/devkitPro/libnds/lib\libz.a(inflate.o) (zcfree)
d:/devkitPro/libnds/lib\libnds9.a(dynamicArray.o)
                              d:/devkitPro/libnds/lib\libul.a(texVramManager.o) (DynamicArraySet)
d:/devkitPro/libnds/lib\libnds9.a(keys.o)
                              d:/devkitPro/libnds/lib\libul.a(keys.o) (keysCurrent)
d:/devkitPro/libnds/lib\libnds9.a(system.o)
                              d:/devkitPro/libnds/lib\libul.a(ulib.o) (powerOn)
d:/devkitPro/libnds/lib\libnds9.a(touch.o)
                              d:/devkitPro/libnds/lib\libul.a(keys.o) (touchRead)
d:/devkitPro/libnds/lib\libnds9.a(trig.o)
                              d:/devkitPro/libnds/lib\libul.a(ulDrawImage.o) (sinLerp)
d:/devkitPro/libnds/lib\libnds9.a(videoGL.o)
                              d:/devkitPro/libnds/lib\libul.a(texVramManager.o) (glGlobalData)
d:/devkitPro/libnds/lib\libnds9.a(initSystem.o)
                              d:/devkitpro/devkitarm/bin/../lib/gcc/arm-eabi/4.5.1/../../../../arm-eabi/lib/ds_arm9_crt0.o (initSystem)
d:/devkitPro/libnds/lib\libnds9.a(fifosystem.o)
                              d:/devkitPro/libnds/lib\libnds9.a(system.o) (fifoSendValue32)
d:/devkitPro/libnds/lib\libnds9.a(interrupts.o)
                              d:/devkitPro/libnds/lib\libnds9.a(fifosystem.o) (irqSet)
d:/devkitPro/libnds/lib\libnds9.a(libnds_exit.o)
                              d:/devkitpro/devkitarm/bin/../lib/gcc/arm-eabi/4.5.1/../../../../arm-eabi/lib/ds_arm9_crt0.o (__libnds_exit)
d:/devkitPro/libnds/lib\libnds9.a(mpu_setup.o)
                              d:/devkitpro/devkitarm/bin/../lib/gcc/arm-eabi/4.5.1/../../../../arm-eabi/lib/ds_arm9_crt0.o (__libnds_mpu_setup)
d:/devkitPro/libnds/lib\libnds9.a(biosCalls.o)
                              d:/devkitPro/libnds/lib\libnds9.a(system.o) (swiDelay)
d:/devkitPro/libnds/lib\libnds9.a(interruptDispatcher.o)
                              d:/devkitPro/libnds/lib\libnds9.a(interrupts.o) (IntrMain)
d:/devkitPro/libnds/lib\libnds9.a(swiSoftReset.o)
                              d:/devkitPro/libnds/lib\libnds9.a(fifosystem.o) (swiSoftReset)
d:/devkitPro/libnds/lib\libnds9.a(video.o)
                              d:/devkitPro/libnds/lib\libnds9.a(videoGL.o) (vramSetPrimaryBanks)
d:/devkitpro/devkitarm/bin/../lib/gcc/arm-eabi/4.5.1/../../../../arm-eabi/lib\libstdc++.a(new_op.o)
                              main.o (operator new(unsigned int))
d:/devkitpro/devkitarm/bin/../lib/gcc/arm-eabi/4.5.1/../../../../arm-eabi/lib\libstdc++.a(eh_alloc.o)
                              d:/devkitpro/devkitarm/bin/../lib/gcc/arm-eabi/4.5.1/../../../../arm-eabi/lib\libstdc++.a(new_op.o) (__cxa_allocate_exception)
d:/devkitpro/devkitarm/bin/../lib/gcc/arm-eabi/4.5.1/../../../../arm-eabi/lib\libstdc++.a(eh_arm.o)
                              d:/devkitpro/devkitarm/bin/../lib/gcc/arm-eabi/4.5.1/../../../../arm-eabi/lib\libstdc++.a(new_op.o) (__cxa_end_cleanup)
d:/devkitpro/devkitarm/bin/../lib/gcc/arm-eabi/4.5.1/../../../../arm-eabi/lib\libstdc++.a(eh_aux_runtime.o)
                              d:/devkitpro/devkitarm/bin/../lib/gcc/arm-eabi/4.5.1/../../../../arm-eabi/lib\libstdc++.a(eh_arm.o) (__cxa_bad_typeid)
d:/devkitpro/devkitarm/bin/../lib/gcc/arm-eabi/4.5.1/../../../../arm-eabi/lib\libstdc++.a(eh_call.o)
                              d:/devkitpro/devkitarm/bin/../lib/gcc/arm-eabi/4.5.1/../../../../arm-eabi/lib\libstdc++.a(new_op.o) (__cxa_call_unexpected)
d:/devkitpro/devkitarm/bin/../lib/gcc/arm-eabi/4.5.1/../../../../arm-eabi/lib\libstdc++.a(eh_catch.o)
                              d:/devkitpro/devkitarm/bin/../lib/gcc/arm-eabi/4.5.1/../../../../arm-eabi/lib\libstdc++.a(eh_call.o) (__cxa_begin_catch)
d:/devkitpro/devkitarm/bin/../lib/gcc/arm-eabi/4.5.1/../../../../arm-eabi/lib\libstdc++.a(eh_exception.o)
                              d:/devkitpro/devkitarm/bin/../lib/gcc/arm-eabi/4.5.1/../../../../arm-eabi/lib\libstdc++.a(eh_call.o) (std::bad_exception::~bad_exception())
d:/devkitpro/devkitarm/bin/../lib/gcc/arm-eabi/4.5.1/../../../../arm-eabi/lib\libstdc++.a(eh_globals.o)
                              d:/devkitpro/devkitarm/bin/../lib/gcc/arm-eabi/4.5.1/../../../../arm-eabi/lib\libstdc++.a(eh_call.o) (__cxa_get_globals_fast)
d:/devkitpro/devkitarm/bin/../lib/gcc/arm-eabi/4.5.1/../../../../arm-eabi/lib\libstdc++.a(eh_personality.o)
                              d:/devkitpro/devkitarm/bin/../lib/gcc/arm-eabi/4.5.1/../../../../arm-eabi/lib\libstdc++.a(new_op.o) (__gxx_personality_v0)
d:/devkitpro/devkitarm/bin/../lib/gcc/arm-eabi/4.5.1/../../../../arm-eabi/lib\libstdc++.a(eh_terminate.o)
                              d:/devkitpro/devkitarm/bin/../lib/gcc/arm-eabi/4.5.1/../../../../arm-eabi/lib\libstdc++.a(eh_call.o) (__cxxabiv1::__terminate(void (*)()))
d:/devkitpro/devkitarm/bin/../lib/gcc/arm-eabi/4.5.1/../../../../arm-eabi/lib\libstdc++.a(eh_term_handler.o)
                              d:/devkitpro/devkitarm/bin/../lib/gcc/arm-eabi/4.5.1/../../../../arm-eabi/lib\libstdc++.a(eh_terminate.o) (__cxxabiv1::__terminate_handler)
d:/devkitpro/devkitarm/bin/../lib/gcc/arm-eabi/4.5.1/../../../../arm-eabi/lib\libstdc++.a(eh_throw.o)
                              d:/devkitpro/devkitarm/bin/../lib/gcc/arm-eabi/4.5.1/../../../../arm-eabi/lib\libstdc++.a(new_op.o) (__cxa_throw)
d:/devkitpro/devkitarm/bin/../lib/gcc/arm-eabi/4.5.1/../../../../arm-eabi/lib\libstdc++.a(eh_unex_handler.o)
                              d:/devkitpro/devkitarm/bin/../lib/gcc/arm-eabi/4.5.1/../../../../arm-eabi/lib\libstdc++.a(eh_terminate.o) (__cxxabiv1::__unexpected_handler)
d:/devkitpro/devkitarm/bin/../lib/gcc/arm-eabi/4.5.1/../../../../arm-eabi/lib\libstdc++.a(fundamental_type_info.o)
                              d:/devkitpro/devkitarm/bin/../lib/gcc/arm-eabi/4.5.1/../../../../arm-eabi/lib\libstdc++.a(eh_arm.o) (typeinfo for void)
d:/devkitpro/devkitarm/bin/../lib/gcc/arm-eabi/4.5.1/../../../../arm-eabi/lib\libstdc++.a(new_handler.o)
                              d:/devkitpro/devkitarm/bin/../lib/gcc/arm-eabi/4.5.1/../../../../arm-eabi/lib\libstdc++.a(new_op.o) (std::bad_alloc::~bad_alloc())
d:/devkitpro/devkitarm/bin/../lib/gcc/arm-eabi/4.5.1/../../../../arm-eabi/lib\libstdc++.a(pointer_type_info.o)
                              d:/devkitpro/devkitarm/bin/../lib/gcc/arm-eabi/4.5.1/../../../../arm-eabi/lib\libstdc++.a(fundamental_type_info.o) (vtable for __cxxabiv1::__pointer_type_info)
d:/devkitpro/devkitarm/bin/../lib/gcc/arm-eabi/4.5.1/../../../../arm-eabi/lib\libstdc++.a(pure.o)
                              d:/devkitpro/devkitarm/bin/../lib/gcc/arm-eabi/4.5.1/../../../../arm-eabi/lib\libstdc++.a(eh_exception.o) (__cxa_pure_virtual)
d:/devkitpro/devkitarm/bin/../lib/gcc/arm-eabi/4.5.1/../../../../arm-eabi/lib\libstdc++.a(si_class_type_info.o)
                              d:/devkitpro/devkitarm/bin/../lib/gcc/arm-eabi/4.5.1/../../../../arm-eabi/lib\libstdc++.a(eh_exception.o) (vtable for __cxxabiv1::__si_class_type_info)
d:/devkitpro/devkitarm/bin/../lib/gcc/arm-eabi/4.5.1/../../../../arm-eabi/lib\libstdc++.a(tinfo.o)
                              d:/devkitpro/devkitarm/bin/../lib/gcc/arm-eabi/4.5.1/../../../../arm-eabi/lib\libstdc++.a(fundamental_type_info.o) (std::type_info::~type_info())
d:/devkitpro/devkitarm/bin/../lib/gcc/arm-eabi/4.5.1/../../../../arm-eabi/lib\libstdc++.a(vterminate.o)
                              d:/devkitpro/devkitarm/bin/../lib/gcc/arm-eabi/4.5.1/../../../../arm-eabi/lib\libstdc++.a(eh_term_handler.o) (__gnu_cxx::__verbose_terminate_handler())
d:/devkitpro/devkitarm/bin/../lib/gcc/arm-eabi/4.5.1/../../../../arm-eabi/lib\libstdc++.a(bad_cast.o)
                              d:/devkitpro/devkitarm/bin/../lib/gcc/arm-eabi/4.5.1/../../../../arm-eabi/lib\libstdc++.a(eh_aux_runtime.o) (std::bad_cast::~bad_cast())
d:/devkitpro/devkitarm/bin/../lib/gcc/arm-eabi/4.5.1/../../../../arm-eabi/lib\libstdc++.a(bad_typeid.o)
                              d:/devkitpro/devkitarm/bin/../lib/gcc/arm-eabi/4.5.1/../../../../arm-eabi/lib\libstdc++.a(eh_aux_runtime.o) (std::bad_typeid::~bad_typeid())
d:/devkitpro/devkitarm/bin/../lib/gcc/arm-eabi/4.5.1/../../../../arm-eabi/lib\libstdc++.a(class_type_info.o)
                              d:/devkitpro/devkitarm/bin/../lib/gcc/arm-eabi/4.5.1/../../../../arm-eabi/lib\libstdc++.a(si_class_type_info.o) (__cxxabiv1::__class_type_info::__do_upcast(__cxxabiv1::__class_type_info const*, void**) const)
d:/devkitpro/devkitarm/bin/../lib/gcc/arm-eabi/4.5.1/../../../../arm-eabi/lib\libstdc++.a(cp-demangle.o)
                              d:/devkitpro/devkitarm/bin/../lib/gcc/arm-eabi/4.5.1/../../../../arm-eabi/lib\libstdc++.a(vterminate.o) (__cxa_demangle)
d:/devkitpro/devkitarm/bin/../lib/gcc/arm-eabi/4.5.1/../../../../arm-eabi/lib\libstdc++.a(del_op.o)
                              d:/devkitpro/devkitarm/bin/../lib/gcc/arm-eabi/4.5.1/../../../../arm-eabi/lib\libstdc++.a(eh_exception.o) (operator delete(void*))
d:/devkitpro/devkitarm/bin/../lib/gcc/arm-eabi/4.5.1/../../../../arm-eabi/lib\libstdc++.a(eh_type.o)
                              d:/devkitpro/devkitarm/bin/../lib/gcc/arm-eabi/4.5.1/../../../../arm-eabi/lib\libstdc++.a(vterminate.o) (__cxa_current_exception_type)
d:/devkitpro/devkitarm/bin/../lib/gcc/arm-eabi/4.5.1/../../../../arm-eabi/lib\libstdc++.a(pbase_type_info.o)
                              d:/devkitpro/devkitarm/bin/../lib/gcc/arm-eabi/4.5.1/../../../../arm-eabi/lib\libstdc++.a(pointer_type_info.o) (__cxxabiv1::__pbase_type_info::__do_catch(std::type_info const*, void**, unsigned int) const)
d:/devkitpro/devkitarm/bin/../lib/gcc/arm-eabi/4.5.1/../../../../arm-eabi/lib\libm.a(lib_a-s_cos.o)
                              d:/devkitPro/libnds/lib\libul.a(ulib.o) (cos)
d:/devkitpro/devkitarm/bin/../lib/gcc/arm-eabi/4.5.1/../../../../arm-eabi/lib\libm.a(lib_a-s_sin.o)
                              d:/devkitPro/libnds/lib\libul.a(ulib.o) (sin)
d:/devkitpro/devkitarm/bin/../lib/gcc/arm-eabi/4.5.1/../../../../arm-eabi/lib\libm.a(lib_a-w_pow.o)
                              d:/devkitPro/libnds/lib\libpng.a(pngrtran.o) (pow)
d:/devkitpro/devkitarm/bin/../lib/gcc/arm-eabi/4.5.1/../../../../arm-eabi/lib\libm.a(lib_a-e_pow.o)
                              d:/devkitpro/devkitarm/bin/../lib/gcc/arm-eabi/4.5.1/../../../../arm-eabi/lib\libm.a(lib_a-w_pow.o) (__ieee754_pow)
d:/devkitpro/devkitarm/bin/../lib/gcc/arm-eabi/4.5.1/../../../../arm-eabi/lib\libm.a(lib_a-e_rem_pio2.o)
                              d:/devkitpro/devkitarm/bin/../lib/gcc/arm-eabi/4.5.1/../../../../arm-eabi/lib\libm.a(lib_a-s_cos.o) (__ieee754_rem_pio2)
d:/devkitpro/devkitarm/bin/../lib/gcc/arm-eabi/4.5.1/../../../../arm-eabi/lib\libm.a(lib_a-e_sqrt.o)
                              d:/devkitpro/devkitarm/bin/../lib/gcc/arm-eabi/4.5.1/../../../../arm-eabi/lib\libm.a(lib_a-e_pow.o) (__ieee754_sqrt)
d:/devkitpro/devkitarm/bin/../lib/gcc/arm-eabi/4.5.1/../../../../arm-eabi/lib\libm.a(lib_a-k_cos.o)
                              d:/devkitpro/devkitarm/bin/../lib/gcc/arm-eabi/4.5.1/../../../../arm-eabi/lib\libm.a(lib_a-s_cos.o) (__kernel_cos)
d:/devkitpro/devkitarm/bin/../lib/gcc/arm-eabi/4.5.1/../../../../arm-eabi/lib\libm.a(lib_a-k_rem_pio2.o)
                              d:/devkitpro/devkitarm/bin/../lib/gcc/arm-eabi/4.5.1/../../../../arm-eabi/lib\libm.a(lib_a-e_rem_pio2.o) (__kernel_rem_pio2)
d:/devkitpro/devkitarm/bin/../lib/gcc/arm-eabi/4.5.1/../../../../arm-eabi/lib\libm.a(lib_a-k_sin.o)
                              d:/devkitpro/devkitarm/bin/../lib/gcc/arm-eabi/4.5.1/../../../../arm-eabi/lib\libm.a(lib_a-s_cos.o) (__kernel_sin)
d:/devkitpro/devkitarm/bin/../lib/gcc/arm-eabi/4.5.1/../../../../arm-eabi/lib\libm.a(lib_a-s_fabs.o)
                              d:/devkitpro/devkitarm/bin/../lib/gcc/arm-eabi/4.5.1/../../../../arm-eabi/lib\libm.a(lib_a-e_pow.o) (fabs)
d:/devkitpro/devkitarm/bin/../lib/gcc/arm-eabi/4.5.1/../../../../arm-eabi/lib\libm.a(lib_a-s_finite.o)
                              d:/devkitpro/devkitarm/bin/../lib/gcc/arm-eabi/4.5.1/../../../../arm-eabi/lib\libm.a(lib_a-w_pow.o) (finite)
d:/devkitpro/devkitarm/bin/../lib/gcc/arm-eabi/4.5.1/../../../../arm-eabi/lib\libm.a(lib_a-s_floor.o)
                              d:/devkitpro/devkitarm/bin/../lib/gcc/arm-eabi/4.5.1/../../../../arm-eabi/lib\libm.a(lib_a-k_rem_pio2.o) (floor)
d:/devkitpro/devkitarm/bin/../lib/gcc/arm-eabi/4.5.1/../../../../arm-eabi/lib\libm.a(lib_a-s_fpclassify.o)
                              d:/devkitpro/devkitarm/bin/../lib/gcc/arm-eabi/4.5.1/../../../../arm-eabi/lib\libm.a(lib_a-w_pow.o) (__fpclassifyd)
d:/devkitpro/devkitarm/bin/../lib/gcc/arm-eabi/4.5.1/../../../../arm-eabi/lib\libm.a(lib_a-s_lib_ver.o)
                              d:/devkitpro/devkitarm/bin/../lib/gcc/arm-eabi/4.5.1/../../../../arm-eabi/lib\libm.a(lib_a-w_pow.o) (__fdlib_version)
d:/devkitpro/devkitarm/bin/../lib/gcc/arm-eabi/4.5.1/../../../../arm-eabi/lib\libm.a(lib_a-s_matherr.o)
                              d:/devkitpro/devkitarm/bin/../lib/gcc/arm-eabi/4.5.1/../../../../arm-eabi/lib\libm.a(lib_a-w_pow.o) (matherr)
d:/devkitpro/devkitarm/bin/../lib/gcc/arm-eabi/4.5.1/../../../../arm-eabi/lib\libm.a(lib_a-s_nan.o)
                              d:/devkitpro/devkitarm/bin/../lib/gcc/arm-eabi/4.5.1/../../../../arm-eabi/lib\libm.a(lib_a-e_pow.o) (nan)
d:/devkitpro/devkitarm/bin/../lib/gcc/arm-eabi/4.5.1/../../../../arm-eabi/lib\libm.a(lib_a-s_rint.o)
                              d:/devkitpro/devkitarm/bin/../lib/gcc/arm-eabi/4.5.1/../../../../arm-eabi/lib\libm.a(lib_a-w_pow.o) (rint)
d:/devkitpro/devkitarm/bin/../lib/gcc/arm-eabi/4.5.1/../../../../arm-eabi/lib\libm.a(lib_a-s_scalbn.o)
                              d:/devkitpro/devkitarm/bin/../lib/gcc/arm-eabi/4.5.1/../../../../arm-eabi/lib\libm.a(lib_a-e_pow.o) (scalbn)
d:/devkitpro/devkitarm/bin/../lib/gcc/arm-eabi/4.5.1/../../../../arm-eabi/lib\libm.a(lib_a-s_copysign.o)
                              d:/devkitpro/devkitarm/bin/../lib/gcc/arm-eabi/4.5.1/../../../../arm-eabi/lib\libm.a(lib_a-s_scalbn.o) (copysign)
d:/devkitpro/devkitarm/bin/../lib/gcc/arm-eabi/4.5.1\libgcc.a(_udivsi3.o)
                              d:/devkitPro/libnds/lib\libul.a(libLoadPng.o) (__aeabi_uidiv)
d:/devkitpro/devkitarm/bin/../lib/gcc/arm-eabi/4.5.1\libgcc.a(_divsi3.o)
                              d:/devkitPro/libnds/lib\libul.a(ulDrawImage.o) (__aeabi_idiv)
d:/devkitpro/devkitarm/bin/../lib/gcc/arm-eabi/4.5.1\libgcc.a(_dvmd_tls.o)
                              d:/devkitpro/devkitarm/bin/../lib/gcc/arm-eabi/4.5.1\libgcc.a(_udivsi3.o) (__aeabi_idiv0)
d:/devkitpro/devkitarm/bin/../lib/gcc/arm-eabi/4.5.1\libgcc.a(_arm_addsubdf3.o)
                              d:/devkitPro/libnds/lib\libpng.a(pngrtran.o) (__aeabi_dsub)
d:/devkitpro/devkitarm/bin/../lib/gcc/arm-eabi/4.5.1\libgcc.a(_arm_muldivdf3.o)
                              d:/devkitPro/libnds/lib\libul.a(ulib.o) (__aeabi_dmul)
d:/devkitpro/devkitarm/bin/../lib/gcc/arm-eabi/4.5.1\libgcc.a(_arm_cmpdf2.o)
                              d:/devkitpro/devkitarm/bin/../lib/gcc/arm-eabi/4.5.1/../../../../arm-eabi/lib\libm.a(lib_a-w_pow.o) (__aeabi_dcmpeq)
d:/devkitpro/devkitarm/bin/../lib/gcc/arm-eabi/4.5.1\libgcc.a(_arm_fixdfsi.o)
                              d:/devkitPro/libnds/lib\libul.a(ulib.o) (__aeabi_d2iz)
d:/devkitpro/devkitarm/bin/../lib/gcc/arm-eabi/4.5.1\libgcc.a(_arm_fixunsdfsi.o)
                              d:/devkitPro/libnds/lib\libpng.a(pngrtran.o) (__aeabi_d2uiz)
d:/devkitpro/devkitarm/bin/../lib/gcc/arm-eabi/4.5.1\libgcc.a(_arm_truncdfsf2.o)
                              d:/devkitPro/libnds/lib\libpng.a(pngrtran.o) (__aeabi_d2f)
d:/devkitpro/devkitarm/bin/../lib/gcc/arm-eabi/4.5.1\libgcc.a(_arm_addsubsf3.o)
                              d:/devkitPro/libnds/lib\libul.a(ulShowSplashScreen2.o) (__aeabi_fsub)
d:/devkitpro/devkitarm/bin/../lib/gcc/arm-eabi/4.5.1\libgcc.a(_arm_muldivsf3.o)
                              d:/devkitPro/libnds/lib\libul.a(ulib.o) (__aeabi_fmul)
d:/devkitpro/devkitarm/bin/../lib/gcc/arm-eabi/4.5.1\libgcc.a(_arm_cmpsf2.o)
                              d:/devkitPro/libnds/lib\libpng.a(pngrtran.o) (__aeabi_fcmpeq)
d:/devkitpro/devkitarm/bin/../lib/gcc/arm-eabi/4.5.1\libgcc.a(_arm_fixsfsi.o)
                              d:/devkitPro/libnds/lib\libul.a(ulShowSplashScreen2.o) (__aeabi_f2iz)
d:/devkitpro/devkitarm/bin/../lib/gcc/arm-eabi/4.5.1\libgcc.a(_arm_fixunssfsi.o)
                              d:/devkitPro/libnds/lib\libul.a(ulShowSplashScreen2.o) (__aeabi_f2uiz)
d:/devkitpro/devkitarm/bin/../lib/gcc/arm-eabi/4.5.1\libgcc.a(_muldi3.o)
                              d:/devkitPro/libnds/lib\libnds9.a(videoGL.o) (__aeabi_lmul)
d:/devkitpro/devkitarm/bin/../lib/gcc/arm-eabi/4.5.1\libgcc.a(unwind-arm.o)
                              d:/devkitpro/devkitarm/bin/../lib/gcc/arm-eabi/4.5.1/../../../../arm-eabi/lib\libstdc++.a(eh_arm.o) (__aeabi_unwind_cpp_pr0)
d:/devkitpro/devkitarm/bin/../lib/gcc/arm-eabi/4.5.1\libgcc.a(libunwind.o)
                              d:/devkitpro/devkitarm/bin/../lib/gcc/arm-eabi/4.5.1\libgcc.a(unwind-arm.o) (restore_core_regs)
d:/devkitpro/devkitarm/bin/../lib/gcc/arm-eabi/4.5.1\libgcc.a(pr-support.o)
                              d:/devkitpro/devkitarm/bin/../lib/gcc/arm-eabi/4.5.1\libgcc.a(unwind-arm.o) (__gnu_unwind_execute)
d:/devkitpro/devkitarm/bin/../lib/gcc/arm-eabi/4.5.1/../../../../arm-eabi/lib\libg.a(lib_a-abort.o)
                              d:/devkitPro/libnds/lib\libpng.a(pngread.o) (abort)
d:/devkitpro/devkitarm/bin/../lib/gcc/arm-eabi/4.5.1/../../../../arm-eabi/lib\libg.a(lib_a-bsearch.o)
                              d:/devkitPro/libnds/lib\libnds9.a(trig.o) (bsearch)
d:/devkitpro/devkitarm/bin/../lib/gcc/arm-eabi/4.5.1/../../../../arm-eabi/lib\libg.a(lib_a-calloc.o)
                              d:/devkitPro/libnds/lib\libul.a(gifalloc.o) (calloc)
d:/devkitpro/devkitarm/bin/../lib/gcc/arm-eabi/4.5.1/../../../../arm-eabi/lib\libg.a(lib_a-callocr.o)
                              d:/devkitpro/devkitarm/bin/../lib/gcc/arm-eabi/4.5.1/../../../../arm-eabi/lib\libg.a(lib_a-calloc.o) (_calloc_r)
d:/devkitpro/devkitarm/bin/../lib/gcc/arm-eabi/4.5.1/../../../../arm-eabi/lib\libg.a(lib_a-errno.o)
                              d:/devkitpro/devkitarm/bin/../lib/gcc/arm-eabi/4.5.1/../../../../arm-eabi/lib\libm.a(lib_a-w_pow.o) (__errno)
d:/devkitpro/devkitarm/bin/../lib/gcc/arm-eabi/4.5.1/../../../../arm-eabi/lib\libg.a(lib_a-fclose.o)
                              d:/devkitPro/libnds/lib\libul.a(dgif_lib.o) (fclose)
d:/devkitpro/devkitarm/bin/../lib/gcc/arm-eabi/4.5.1/../../../../arm-eabi/lib\libg.a(lib_a-fflush.o)
                              d:/devkitpro/devkitarm/bin/../lib/gcc/arm-eabi/4.5.1/../../../../arm-eabi/lib\libg.a(lib_a-fclose.o) (_fflush_r)
d:/devkitpro/devkitarm/bin/../lib/gcc/arm-eabi/4.5.1/../../../../arm-eabi/lib\libg.a(lib_a-findfp.o)
                              d:/devkitpro/devkitarm/bin/../lib/gcc/arm-eabi/4.5.1/../../../../arm-eabi/lib\libg.a(lib_a-fclose.o) (__sinit)
d:/devkitpro/devkitarm/bin/../lib/gcc/arm-eabi/4.5.1/../../../../arm-eabi/lib\libg.a(lib_a-fprintf.o)
                              d:/devkitPro/libnds/lib\libpng.a(pngerror.o) (fprintf)
d:/devkitpro/devkitarm/bin/../lib/gcc/arm-eabi/4.5.1/../../../../arm-eabi/lib\libg.a(lib_a-fputc.o)
                              d:/devkitpro/devkitarm/bin/../lib/gcc/arm-eabi/4.5.1/../../../../arm-eabi/lib\libstdc++.a(vterminate.o) (fputc)
d:/devkitpro/devkitarm/bin/../lib/gcc/arm-eabi/4.5.1/../../../../arm-eabi/lib\libg.a(lib_a-fputs.o)
                              d:/devkitpro/devkitarm/bin/../lib/gcc/arm-eabi/4.5.1/../../../../arm-eabi/lib\libstdc++.a(vterminate.o) (fputs)
d:/devkitpro/devkitarm/bin/../lib/gcc/arm-eabi/4.5.1/../../../../arm-eabi/lib\libg.a(lib_a-fread.o)
                              d:/devkitPro/libnds/lib\libul.a(dgif_lib.o) (fread)
d:/devkitpro/devkitarm/bin/../lib/gcc/arm-eabi/4.5.1/../../../../arm-eabi/lib\libg.a(lib_a-freer.o)
                              d:/devkitpro/devkitarm/bin/../lib/gcc/arm-eabi/4.5.1/../../../../arm-eabi/lib\libg.a(lib_a-fclose.o) (_free_r)
d:/devkitpro/devkitarm/bin/../lib/gcc/arm-eabi/4.5.1/../../../../arm-eabi/lib\libg.a(lib_a-fvwrite.o)
                              d:/devkitpro/devkitarm/bin/../lib/gcc/arm-eabi/4.5.1/../../../../arm-eabi/lib\libg.a(lib_a-fputs.o) (__sfvwrite_r)
d:/devkitpro/devkitarm/bin/../lib/gcc/arm-eabi/4.5.1/../../../../arm-eabi/lib\libg.a(lib_a-fwalk.o)
                              d:/devkitpro/devkitarm/bin/../lib/gcc/arm-eabi/4.5.1/../../../../arm-eabi/lib\libg.a(lib_a-findfp.o) (_fwalk)
d:/devkitpro/devkitarm/bin/../lib/gcc/arm-eabi/4.5.1/../../../../arm-eabi/lib\libg.a(lib_a-fwrite.o)
                              d:/devkitpro/devkitarm/bin/../lib/gcc/arm-eabi/4.5.1/../../../../arm-eabi/lib\libstdc++.a(vterminate.o) (fwrite)
d:/devkitpro/devkitarm/bin/../lib/gcc/arm-eabi/4.5.1/../../../../arm-eabi/lib\libg.a(lib_a-impure.o)
                              d:/devkitPro/libnds/lib\libpng.a(pngerror.o) (_impure_ptr)
d:/devkitpro/devkitarm/bin/../lib/gcc/arm-eabi/4.5.1/../../../../arm-eabi/lib\libg.a(lib_a-init.o)
                              d:/devkitpro/devkitarm/bin/../lib/gcc/arm-eabi/4.5.1/../../../../arm-eabi/lib/ds_arm9_crt0.o (__libc_init_array)
d:/devkitpro/devkitarm/bin/../lib/gcc/arm-eabi/4.5.1/../../../../arm-eabi/lib\libg.a(lib_a-malloc.o)
                              d:/devkitPro/libnds/lib\libul.a(drawing.o) (malloc)
d:/devkitpro/devkitarm/bin/../lib/gcc/arm-eabi/4.5.1/../../../../arm-eabi/lib\libg.a(lib_a-mallocr.o)
                              d:/devkitpro/devkitarm/bin/../lib/gcc/arm-eabi/4.5.1/../../../../arm-eabi/lib\libg.a(lib_a-callocr.o) (_malloc_r)
d:/devkitpro/devkitarm/bin/../lib/gcc/arm-eabi/4.5.1/../../../../arm-eabi/lib\libg.a(lib_a-memchr.o)
                              d:/devkitpro/devkitarm/bin/../lib/gcc/arm-eabi/4.5.1/../../../../arm-eabi/lib\libg.a(lib_a-fvwrite.o) (memchr)
d:/devkitpro/devkitarm/bin/../lib/gcc/arm-eabi/4.5.1/../../../../arm-eabi/lib\libg.a(lib_a-memcmp.o)
                              d:/devkitPro/libnds/lib\libul.a(gifalloc.o) (memcmp)
d:/devkitpro/devkitarm/bin/../lib/gcc/arm-eabi/4.5.1/../../../../arm-eabi/lib\libg.a(lib_a-memcpy.o)
                              d:/devkitPro/libnds/lib\libul.a(VirtualFile.o) (memcpy)
d:/devkitpro/devkitarm/bin/../lib/gcc/arm-eabi/4.5.1/../../../../arm-eabi/lib\libg.a(lib_a-memmove.o)
                              d:/devkitPro/libnds/lib\libul.a(texVramManager.o) (memmove)
d:/devkitpro/devkitarm/bin/../lib/gcc/arm-eabi/4.5.1/../../../../arm-eabi/lib\libg.a(lib_a-memset.o)
                              d:/devkitPro/libnds/lib\libul.a(drawing.o) (memset)
d:/devkitpro/devkitarm/bin/../lib/gcc/arm-eabi/4.5.1/../../../../arm-eabi/lib\libg.a(lib_a-mlock.o)
                              d:/devkitpro/devkitarm/bin/../lib/gcc/arm-eabi/4.5.1/../../../../arm-eabi/lib\libg.a(lib_a-freer.o) (__malloc_lock)
d:/devkitpro/devkitarm/bin/../lib/gcc/arm-eabi/4.5.1/../../../../arm-eabi/lib\libg.a(lib_a-putc.o)
                              d:/devkitpro/devkitarm/bin/../lib/gcc/arm-eabi/4.5.1/../../../../arm-eabi/lib\libg.a(lib_a-fputc.o) (_putc_r)
d:/devkitpro/devkitarm/bin/../lib/gcc/arm-eabi/4.5.1/../../../../arm-eabi/lib\libg.a(lib_a-rand.o)
                              main.o (rand)
d:/devkitpro/devkitarm/bin/../lib/gcc/arm-eabi/4.5.1/../../../../arm-eabi/lib\libg.a(lib_a-realloc.o)
                              d:/devkitPro/libnds/lib\libul.a(texVramManager.o) (realloc)
d:/devkitpro/devkitarm/bin/../lib/gcc/arm-eabi/4.5.1/../../../../arm-eabi/lib\libg.a(lib_a-reallocr.o)
                              d:/devkitpro/devkitarm/bin/../lib/gcc/arm-eabi/4.5.1/../../../../arm-eabi/lib\libg.a(lib_a-fvwrite.o) (_realloc_r)
d:/devkitpro/devkitarm/bin/../lib/gcc/arm-eabi/4.5.1/../../../../arm-eabi/lib\libg.a(lib_a-refill.o)
                              d:/devkitpro/devkitarm/bin/../lib/gcc/arm-eabi/4.5.1/../../../../arm-eabi/lib\libg.a(lib_a-fread.o) (__srefill_r)
d:/devkitpro/devkitarm/bin/../lib/gcc/arm-eabi/4.5.1/../../../../arm-eabi/lib\libg.a(lib_a-setjmp.o)
                              d:/devkitPro/libnds/lib\libul.a(libLoadPng.o) (setjmp)
d:/devkitpro/devkitarm/bin/../lib/gcc/arm-eabi/4.5.1/../../../../arm-eabi/lib\libg.a(lib_a-signal.o)
                              d:/devkitpro/devkitarm/bin/../lib/gcc/arm-eabi/4.5.1/../../../../arm-eabi/lib\libg.a(lib_a-abort.o) (raise)
d:/devkitpro/devkitarm/bin/../lib/gcc/arm-eabi/4.5.1/../../../../arm-eabi/lib\libg.a(lib_a-snprintf.o)
                              d:/devkitPro/libnds/lib\libpng.a(png.o) (snprintf)
d:/devkitpro/devkitarm/bin/../lib/gcc/arm-eabi/4.5.1/../../../../arm-eabi/lib\libg.a(lib_a-sprintf.o)
                              d:/devkitpro/devkitarm/bin/../lib/gcc/arm-eabi/4.5.1/../../../../arm-eabi/lib\libstdc++.a(cp-demangle.o) (sprintf)
d:/devkitpro/devkitarm/bin/../lib/gcc/arm-eabi/4.5.1/../../../../arm-eabi/lib\libg.a(lib_a-stdio.o)
                              d:/devkitpro/devkitarm/bin/../lib/gcc/arm-eabi/4.5.1/../../../../arm-eabi/lib\libg.a(lib_a-findfp.o) (__sread)
d:/devkitpro/devkitarm/bin/../lib/gcc/arm-eabi/4.5.1/../../../../arm-eabi/lib\libg.a(lib_a-strcmp.o)
                              d:/devkitPro/libnds/lib\libul.a(text.o) (strcmp)
d:/devkitpro/devkitarm/bin/../lib/gcc/arm-eabi/4.5.1/../../../../arm-eabi/lib\libg.a(lib_a-strcpy.o)
                              d:/devkitpro/devkitarm/bin/../lib/gcc/arm-eabi/4.5.1/../../../../arm-eabi/lib\libstdc++.a(cp-demangle.o) (strcpy)
d:/devkitpro/devkitarm/bin/../lib/gcc/arm-eabi/4.5.1/../../../../arm-eabi/lib\libg.a(lib_a-strlen.o)
                              d:/devkitPro/libnds/lib\libul.a(VirtualFile.o) (strlen)
d:/devkitpro/devkitarm/bin/../lib/gcc/arm-eabi/4.5.1/../../../../arm-eabi/lib\libg.a(lib_a-strncmp.o)
                              d:/devkitpro/devkitarm/bin/../lib/gcc/arm-eabi/4.5.1/../../../../arm-eabi/lib\libstdc++.a(cp-demangle.o) (strncmp)
d:/devkitpro/devkitarm/bin/../lib/gcc/arm-eabi/4.5.1/../../../../arm-eabi/lib\libg.a(lib_a-strtod.o)
                              d:/devkitPro/libnds/lib\libpng.a(pngrutil.o) (strtod)
d:/devkitpro/devkitarm/bin/../lib/gcc/arm-eabi/4.5.1/../../../../arm-eabi/lib\libg.a(lib_a-svfprintf.o)
                              d:/devkitpro/devkitarm/bin/../lib/gcc/arm-eabi/4.5.1/../../../../arm-eabi/lib\libg.a(lib_a-snprintf.o) (_svfprintf_r)
d:/devkitpro/devkitarm/bin/../lib/gcc/arm-eabi/4.5.1/../../../../arm-eabi/lib\libg.a(lib_a-syswrite.o)
                              d:/devkitpro/devkitarm/bin/../lib/gcc/arm-eabi/4.5.1/../../../../arm-eabi/lib\libstdc++.a(pure.o) (write)
d:/devkitpro/devkitarm/bin/../lib/gcc/arm-eabi/4.5.1/../../../../arm-eabi/lib\libg.a(lib_a-vfprintf.o)
                              d:/devkitpro/devkitarm/bin/../lib/gcc/arm-eabi/4.5.1/../../../../arm-eabi/lib\libg.a(lib_a-fprintf.o) (_vfprintf_r)
d:/devkitpro/devkitarm/bin/../lib/gcc/arm-eabi/4.5.1/../../../../arm-eabi/lib\libg.a(lib_a-wbuf.o)
                              d:/devkitpro/devkitarm/bin/../lib/gcc/arm-eabi/4.5.1/../../../../arm-eabi/lib\libg.a(lib_a-putc.o) (__swbuf_r)
d:/devkitpro/devkitarm/bin/../lib/gcc/arm-eabi/4.5.1/../../../../arm-eabi/lib\libg.a(lib_a-wcrtomb.o)
                              d:/devkitpro/devkitarm/bin/../lib/gcc/arm-eabi/4.5.1/../../../../arm-eabi/lib\libg.a(lib_a-svfprintf.o) (_wcrtomb_r)
d:/devkitpro/devkitarm/bin/../lib/gcc/arm-eabi/4.5.1/../../../../arm-eabi/lib\libg.a(lib_a-wcsrtombs.o)
                              d:/devkitpro/devkitarm/bin/../lib/gcc/arm-eabi/4.5.1/../../../../arm-eabi/lib\libg.a(lib_a-svfprintf.o) (_wcsrtombs_r)
d:/devkitpro/devkitarm/bin/../lib/gcc/arm-eabi/4.5.1/../../../../arm-eabi/lib\libg.a(lib_a-wctomb_r.o)
                              d:/devkitpro/devkitarm/bin/../lib/gcc/arm-eabi/4.5.1/../../../../arm-eabi/lib\libg.a(lib_a-wcrtomb.o) (__wctomb)
d:/devkitpro/devkitarm/bin/../lib/gcc/arm-eabi/4.5.1/../../../../arm-eabi/lib\libg.a(lib_a-wsetup.o)
                              d:/devkitpro/devkitarm/bin/../lib/gcc/arm-eabi/4.5.1/../../../../arm-eabi/lib\libg.a(lib_a-fvwrite.o) (__swsetup_r)
d:/devkitpro/devkitarm/bin/../lib/gcc/arm-eabi/4.5.1/../../../../arm-eabi/lib\libg.a(lib_a-dtoa.o)
                              d:/devkitpro/devkitarm/bin/../lib/gcc/arm-eabi/4.5.1/../../../../arm-eabi/lib\libg.a(lib_a-svfprintf.o) (_dtoa_r)
d:/devkitpro/devkitarm/bin/../lib/gcc/arm-eabi/4.5.1/../../../../arm-eabi/lib\libg.a(lib_a-gdtoa-gethex.o)
                              d:/devkitpro/devkitarm/bin/../lib/gcc/arm-eabi/4.5.1/../../../../arm-eabi/lib\libg.a(lib_a-strtod.o) (__gethex)
d:/devkitpro/devkitarm/bin/../lib/gcc/arm-eabi/4.5.1/../../../../arm-eabi/lib\libg.a(lib_a-gdtoa-hexnan.o)
                              d:/devkitpro/devkitarm/bin/../lib/gcc/arm-eabi/4.5.1/../../../../arm-eabi/lib\libg.a(lib_a-strtod.o) (__hexnan)
d:/devkitpro/devkitarm/bin/../lib/gcc/arm-eabi/4.5.1/../../../../arm-eabi/lib\libg.a(lib_a-locale.o)
                              d:/devkitpro/devkitarm/bin/../lib/gcc/arm-eabi/4.5.1/../../../../arm-eabi/lib\libg.a(lib_a-svfprintf.o) (__locale_charset)
d:/devkitpro/devkitarm/bin/../lib/gcc/arm-eabi/4.5.1/../../../../arm-eabi/lib\libg.a(lib_a-makebuf.o)
                              d:/devkitpro/devkitarm/bin/../lib/gcc/arm-eabi/4.5.1/../../../../arm-eabi/lib\libg.a(lib_a-refill.o) (__smakebuf_r)
d:/devkitpro/devkitarm/bin/../lib/gcc/arm-eabi/4.5.1/../../../../arm-eabi/lib\libg.a(lib_a-mbtowc_r.o)
                              d:/devkitpro/devkitarm/bin/../lib/gcc/arm-eabi/4.5.1/../../../../arm-eabi/lib\libg.a(lib_a-locale.o) (__utf8_mbtowc)
d:/devkitpro/devkitarm/bin/../lib/gcc/arm-eabi/4.5.1/../../../../arm-eabi/lib\libg.a(lib_a-mprec.o)
                              d:/devkitpro/devkitarm/bin/../lib/gcc/arm-eabi/4.5.1/../../../../arm-eabi/lib\libg.a(lib_a-strtod.o) (_Balloc)
d:/devkitpro/devkitarm/bin/../lib/gcc/arm-eabi/4.5.1/../../../../arm-eabi/lib\libg.a(lib_a-sf_nan.o)
                              d:/devkitpro/devkitarm/bin/../lib/gcc/arm-eabi/4.5.1/../../../../arm-eabi/lib\libg.a(lib_a-strtod.o) (nanf)
d:/devkitpro/devkitarm/bin/../lib/gcc/arm-eabi/4.5.1/../../../../arm-eabi/lib\libg.a(lib_a-strcasecmp.o)
                              d:/devkitpro/devkitarm/bin/../lib/gcc/arm-eabi/4.5.1/../../../../arm-eabi/lib\libg.a(lib_a-locale.o) (strcasecmp)
d:/devkitpro/devkitarm/bin/../lib/gcc/arm-eabi/4.5.1/../../../../arm-eabi/lib\libg.a(lib_a-strcat.o)
                              d:/devkitpro/devkitarm/bin/../lib/gcc/arm-eabi/4.5.1/../../../../arm-eabi/lib\libg.a(lib_a-locale.o) (strcat)
d:/devkitpro/devkitarm/bin/../lib/gcc/arm-eabi/4.5.1/../../../../arm-eabi/lib\libg.a(lib_a-strchr.o)
                              d:/devkitpro/devkitarm/bin/../lib/gcc/arm-eabi/4.5.1/../../../../arm-eabi/lib\libg.a(lib_a-locale.o) (strchr)
d:/devkitpro/devkitarm/bin/../lib/gcc/arm-eabi/4.5.1/../../../../arm-eabi/lib\libg.a(lib_a-strlcpy.o)
                              d:/devkitpro/devkitarm/bin/../lib/gcc/arm-eabi/4.5.1/../../../../arm-eabi/lib\libg.a(lib_a-locale.o) (strlcpy)
d:/devkitpro/devkitarm/bin/../lib/gcc/arm-eabi/4.5.1/../../../../arm-eabi/lib\libg.a(lib_a-strncasecmp.o)
                              d:/devkitpro/devkitarm/bin/../lib/gcc/arm-eabi/4.5.1/../../../../arm-eabi/lib\libg.a(lib_a-locale.o) (strncasecmp)
d:/devkitpro/devkitarm/bin/../lib/gcc/arm-eabi/4.5.1/../../../../arm-eabi/lib\libg.a(lib_a-strncpy.o)
                              d:/devkitpro/devkitarm/bin/../lib/gcc/arm-eabi/4.5.1/../../../../arm-eabi/lib\libg.a(lib_a-locale.o) (strncpy)
d:/devkitpro/devkitarm/bin/../lib/gcc/arm-eabi/4.5.1/../../../../arm-eabi/lib\libg.a(lib_a-strtol.o)
                              d:/devkitpro/devkitarm/bin/../lib/gcc/arm-eabi/4.5.1/../../../../arm-eabi/lib\libg.a(lib_a-locale.o) (_strtol_r)
d:/devkitpro/devkitarm/bin/../lib/gcc/arm-eabi/4.5.1/../../../../arm-eabi/lib\libg.a(lib_a-svfiprintf.o)
                              d:/devkitpro/devkitarm/bin/../lib/gcc/arm-eabi/4.5.1/../../../../arm-eabi/lib\libg.a(lib_a-svfprintf.o) (__ssprint_r)
d:/devkitpro/devkitarm/bin/../lib/gcc/arm-eabi/4.5.1/../../../../arm-eabi/lib\libg.a(lib_a-vfiprintf.o)
                              d:/devkitpro/devkitarm/bin/../lib/gcc/arm-eabi/4.5.1/../../../../arm-eabi/lib\libg.a(lib_a-vfprintf.o) (__sprint_r)
d:/devkitpro/devkitarm/bin/../lib/gcc/arm-eabi/4.5.1/../../../../arm-eabi/lib\libg.a(lib_a-wcsnrtombs.o)
                              d:/devkitpro/devkitarm/bin/../lib/gcc/arm-eabi/4.5.1/../../../../arm-eabi/lib\libg.a(lib_a-wcsrtombs.o) (_wcsnrtombs_r)
d:/devkitpro/devkitarm/bin/../lib/gcc/arm-eabi/4.5.1/../../../../arm-eabi/lib\libg.a(lib_a-ctype_.o)
                              d:/devkitpro/devkitarm/bin/../lib/gcc/arm-eabi/4.5.1/../../../../arm-eabi/lib\libg.a(lib_a-locale.o) (__set_ctype)
d:/devkitpro/devkitarm/bin/../lib/gcc/arm-eabi/4.5.1/../../../../arm-eabi/lib\libg.a(lib_a-fputwc.o)
                              d:/devkitpro/devkitarm/bin/../lib/gcc/arm-eabi/4.5.1/../../../../arm-eabi/lib\libg.a(lib_a-vfiprintf.o) (_fputwc_r)
d:/devkitpro/devkitarm/bin/../lib/gcc/arm-eabi/4.5.1/../../../../arm-eabi/lib\libg.a(lib_a-getenv_r.o)
                              d:/devkitpro/devkitarm/bin/../lib/gcc/arm-eabi/4.5.1/../../../../arm-eabi/lib\libg.a(lib_a-locale.o) (_getenv_r)
d:/devkitpro/devkitarm/bin/../lib/gcc/arm-eabi/4.5.1/../../../../arm-eabi/lib\libg.a(lib_a-environ.o)
                              d:/devkitpro/devkitarm/bin/../lib/gcc/arm-eabi/4.5.1/../../../../arm-eabi/lib\libg.a(lib_a-getenv_r.o) (environ)
d:/devkitpro/devkitarm/bin/../lib/gcc/arm-eabi/4.5.1/../../../../arm-eabi/lib\libg.a(lib_a-envlock.o)
                              d:/devkitpro/devkitarm/bin/../lib/gcc/arm-eabi/4.5.1/../../../../arm-eabi/lib\libg.a(lib_a-getenv_r.o) (__env_lock)
d:/devkitpro/devkitarm/bin/../lib/gcc/arm-eabi/4.5.1/../../../../arm-eabi/lib\libsysbase.a(close.o)
                              d:/devkitpro/devkitarm/bin/../lib/gcc/arm-eabi/4.5.1/../../../../arm-eabi/lib\libg.a(lib_a-stdio.o) (_close_r)
d:/devkitpro/devkitarm/bin/../lib/gcc/arm-eabi/4.5.1/../../../../arm-eabi/lib\libsysbase.a(fstat.o)
                              d:/devkitpro/devkitarm/bin/../lib/gcc/arm-eabi/4.5.1/../../../../arm-eabi/lib\libg.a(lib_a-makebuf.o) (_fstat_r)
d:/devkitpro/devkitarm/bin/../lib/gcc/arm-eabi/4.5.1/../../../../arm-eabi/lib\libsysbase.a(getpid.o)
                              d:/devkitpro/devkitarm/bin/../lib/gcc/arm-eabi/4.5.1/../../../../arm-eabi/lib\libg.a(lib_a-signal.o) (_getpid_r)
d:/devkitpro/devkitarm/bin/../lib/gcc/arm-eabi/4.5.1/../../../../arm-eabi/lib\libsysbase.a(isatty.o)
                              d:/devkitpro/devkitarm/bin/../lib/gcc/arm-eabi/4.5.1/../../../../arm-eabi/lib\libg.a(lib_a-makebuf.o) (_isatty_r)
d:/devkitpro/devkitarm/bin/../lib/gcc/arm-eabi/4.5.1/../../../../arm-eabi/lib\libsysbase.a(kill.o)
                              d:/devkitpro/devkitarm/bin/../lib/gcc/arm-eabi/4.5.1/../../../../arm-eabi/lib\libg.a(lib_a-signal.o) (_kill_r)
d:/devkitpro/devkitarm/bin/../lib/gcc/arm-eabi/4.5.1/../../../../arm-eabi/lib\libsysbase.a(lseek.o)
                              d:/devkitpro/devkitarm/bin/../lib/gcc/arm-eabi/4.5.1/../../../../arm-eabi/lib\libg.a(lib_a-stdio.o) (_lseek_r)
d:/devkitpro/devkitarm/bin/../lib/gcc/arm-eabi/4.5.1/../../../../arm-eabi/lib\libsysbase.a(read.o)
                              d:/devkitpro/devkitarm/bin/../lib/gcc/arm-eabi/4.5.1/../../../../arm-eabi/lib\libg.a(lib_a-stdio.o) (_read_r)
d:/devkitpro/devkitarm/bin/../lib/gcc/arm-eabi/4.5.1/../../../../arm-eabi/lib\libsysbase.a(sbrk.o)
                              d:/devkitpro/devkitarm/bin/../lib/gcc/arm-eabi/4.5.1/../../../../arm-eabi/lib\libg.a(lib_a-freer.o) (_sbrk_r)
d:/devkitpro/devkitarm/bin/../lib/gcc/arm-eabi/4.5.1/../../../../arm-eabi/lib\libsysbase.a(times.o)
                              d:/devkitPro/libnds/lib\libnds9.a(initSystem.o) (punixTime)
d:/devkitpro/devkitarm/bin/../lib/gcc/arm-eabi/4.5.1/../../../../arm-eabi/lib\libsysbase.a(write.o)
                              d:/devkitpro/devkitarm/bin/../lib/gcc/arm-eabi/4.5.1/../../../../arm-eabi/lib\libg.a(lib_a-stdio.o) (_write_r)
d:/devkitpro/devkitarm/bin/../lib/gcc/arm-eabi/4.5.1/../../../../arm-eabi/lib\libsysbase.a(_exit.o)
                              d:/devkitpro/devkitarm/bin/../lib/gcc/arm-eabi/4.5.1/../../../../arm-eabi/lib\libg.a(lib_a-abort.o) (_exit)
d:/devkitpro/devkitarm/bin/../lib/gcc/arm-eabi/4.5.1/../../../../arm-eabi/lib\libsysbase.a(malloc_vars.o)
                              d:/devkitpro/devkitarm/bin/../lib/gcc/arm-eabi/4.5.1/../../../../arm-eabi/lib/ds_arm9_crt0.o (fake_heap_end)
d:/devkitpro/devkitarm/bin/../lib/gcc/arm-eabi/4.5.1/../../../../arm-eabi/lib\libsysbase.a(build_argv.o)
                              d:/devkitpro/devkitarm/bin/../lib/gcc/arm-eabi/4.5.1/../../../../arm-eabi/lib/ds_arm9_crt0.o (build_argv)
d:/devkitpro/devkitarm/bin/../lib/gcc/arm-eabi/4.5.1/../../../../arm-eabi/lib\libsysbase.a(syscall_support.o)
                              d:/devkitPro/libnds/lib\libnds9.a(initSystem.o) (__syscalls)
d:/devkitpro/devkitarm/bin/../lib/gcc/arm-eabi/4.5.1/../../../../arm-eabi/lib\libsysbase.a(handle_manager.o)
                              d:/devkitpro/devkitarm/bin/../lib/gcc/arm-eabi/4.5.1/../../../../arm-eabi/lib\libsysbase.a(close.o) (__release_handle)
d:/devkitpro/devkitarm/bin/../lib/gcc/arm-eabi/4.5.1/../../../../arm-eabi/lib\libsysbase.a(iosupport.o)
                              d:/devkitpro/devkitarm/bin/../lib/gcc/arm-eabi/4.5.1/../../../../arm-eabi/lib\libsysbase.a(close.o) (devoptab_list)
d:/devkitpro/devkitarm/bin/../lib/gcc/arm-eabi/4.5.1\libgcc.a(_aeabi_uldivmod.o)
                              d:/devkitpro/devkitarm/bin/../lib/gcc/arm-eabi/4.5.1/../../../../arm-eabi/lib\libg.a(lib_a-svfprintf.o) (__aeabi_uldivmod)
d:/devkitpro/devkitarm/bin/../lib/gcc/arm-eabi/4.5.1\libgcc.a(bpabi.o)
                              d:/devkitpro/devkitarm/bin/../lib/gcc/arm-eabi/4.5.1\libgcc.a(_aeabi_uldivmod.o) (__gnu_uldivmod_helper)
d:/devkitpro/devkitarm/bin/../lib/gcc/arm-eabi/4.5.1\libgcc.a(_divdi3.o)
                              d:/devkitpro/devkitarm/bin/../lib/gcc/arm-eabi/4.5.1\libgcc.a(bpabi.o) (__divdi3)
d:/devkitpro/devkitarm/bin/../lib/gcc/arm-eabi/4.5.1\libgcc.a(_udivdi3.o)
                              d:/devkitpro/devkitarm/bin/../lib/gcc/arm-eabi/4.5.1\libgcc.a(bpabi.o) (__udivdi3)
d:/devkitpro/devkitarm/bin/../lib/gcc/arm-eabi/4.5.1\libgcc.a(_clzsi2.o)
                              d:/devkitpro/devkitarm/bin/../lib/gcc/arm-eabi/4.5.1\libgcc.a(_divdi3.o) (__clzsi2)

Allocating common symbols
Common symbol       size              file

ul_colorKeyValue32  0x4               d:/devkitPro/libnds/lib\libul.a(drawing.o)
fifo_datamsg_data   0x40              d:/devkitPro/libnds/lib\libnds9.a(fifosystem.o)
ulTextureMax        0x4               d:/devkitPro/libnds/lib\libul.a(texVramManager.o)
__dsimode           0x1               d:/devkitPro/libnds/lib\libnds9.a(initSystem.o)
ulTextureParams     0x4               d:/devkitPro/libnds/lib\libul.a(texVramManager.o)
ul_cos              0x400             d:/devkitPro/libnds/lib\libul.a(ulib.o)
fifo_buffer         0x800             d:/devkitPro/libnds/lib\libnds9.a(fifosystem.o)
ulTexRamBlocksNb    0x4               d:/devkitPro/libnds/lib\libul.a(texVramManager.o)
fifo_value32_func   0x40              d:/devkitPro/libnds/lib\libnds9.a(fifosystem.o)
fifo_address_func   0x40              d:/devkitPro/libnds/lib\libnds9.a(fifosystem.o)
temppalette         0x4               d:/devkitPro/libnds/lib\libul.a(libLoadGif.o)
ulTexPalBlocksNb    0x4               d:/devkitPro/libnds/lib\libul.a(texPalManager.o)
__hexdig            0x100             d:/devkitpro/devkitarm/bin/../lib/gcc/arm-eabi/4.5.1/../../../../arm-eabi/lib\libg.a(lib_a-gdtoa-gethex.o)
ul_colorKeyValue    0x2               d:/devkitPro/libnds/lib\libul.a(drawing.o)
ul_splash1_fadeDir  0x4               d:/devkitPro/libnds/lib\libul.a(ulShowSplashScreen1.o)
VirtualFileSources  0x40              d:/devkitPro/libnds/lib\libul.a(VirtualFile.o)
ulDualScreenSprites
                    0x400             d:/devkitPro/libnds/lib\libul.a(drawing.o)
ulTextureNb         0x4               d:/devkitPro/libnds/lib\libul.a(texVramManager.o)
ul_splash1_fade     0x4               d:/devkitPro/libnds/lib\libul.a(ulShowSplashScreen1.o)
LineBuf             0x800             d:/devkitPro/libnds/lib\libul.a(libLoadGif.o)
JPG_outEnd          0x4               d:/devkitPro/libnds/lib\libul.a(gba-jpeg-decode.o)
fifo_value32_data   0x40              d:/devkitPro/libnds/lib\libnds9.a(fifosystem.o)
ulTexRamBlocksMax   0x4               d:/devkitPro/libnds/lib\libul.a(texVramManager.o)
ulTexPalBlocks      0x4               d:/devkitPro/libnds/lib\libul.a(texPalManager.o)
ul_virtualFileList  0x4               d:/devkitPro/libnds/lib\libul.a(VirtualFile.o)
fifo_value32_queue  0x40              d:/devkitPro/libnds/lib\libnds9.a(fifosystem.o)
fifo_data_queue     0x40              d:/devkitPro/libnds/lib\libnds9.a(fifosystem.o)
ulTexRamBlocks      0x4               d:/devkitPro/libnds/lib\libul.a(texVramManager.o)
ul_autoDepth        0x1               d:/devkitPro/libnds/lib\libul.a(drawing.o)
ul_dualScreenMode   0x1               d:/devkitPro/libnds/lib\libul.a(drawing.o)
ul_neoflashlogo_positions
                    0xc00             d:/devkitPro/libnds/lib\libul.a(ulShowSplashScreen2.o)
ulTexPalBlocksMax   0x4               d:/devkitPro/libnds/lib\libul.a(texPalManager.o)
ul_frameNumber      0x1               d:/devkitPro/libnds/lib\libul.a(drawing.o)
punixTime           0x4               d:/devkitpro/devkitarm/bin/../lib/gcc/arm-eabi/4.5.1/../../../../arm-eabi/lib\libsysbase.a(times.o)
fifo_address_data   0x40              d:/devkitPro/libnds/lib\libnds9.a(fifosystem.o)
ul_sin              0x400             d:/devkitPro/libnds/lib\libul.a(ulib.o)
ul_currentDepth     0x4               d:/devkitPro/libnds/lib\libul.a(drawing.o)
glGlobalData        0x4c              d:/devkitPro/libnds/lib\libnds9.a(videoGL.o)
ulTextureActive     0x4               d:/devkitPro/libnds/lib\libul.a(texVramManager.o)
ul_colorKeyEnabled  0x1               d:/devkitPro/libnds/lib\libul.a(drawing.o)
JPG_outBegin        0x4               d:/devkitPro/libnds/lib\libul.a(gba-jpeg-decode.o)
fifo_datamsg_func   0x40              d:/devkitPro/libnds/lib\libnds9.a(fifosystem.o)
fifo_address_queue  0x40              d:/devkitPro/libnds/lib\libnds9.a(fifosystem.o)

Discarded input sections

 .group         0x00000000        0x8 d:/devkitpro/devkitarm/bin/../lib/gcc/arm-eabi/4.5.1/../../../../arm-eabi/lib\libstdc++.a(fundamental_type_info.o)
 .group         0x00000000        0x8 d:/devkitpro/devkitarm/bin/../lib/gcc/arm-eabi/4.5.1/../../../../arm-eabi/lib\libstdc++.a(fundamental_type_info.o)
 .group         0x00000000        0x8 d:/devkitpro/devkitarm/bin/../lib/gcc/arm-eabi/4.5.1/../../../../arm-eabi/lib\libstdc++.a(fundamental_type_info.o)
 .group         0x00000000        0x8 d:/devkitpro/devkitarm/bin/../lib/gcc/arm-eabi/4.5.1/../../../../arm-eabi/lib\libstdc++.a(fundamental_type_info.o)
 .group         0x00000000        0x8 d:/devkitpro/devkitarm/bin/../lib/gcc/arm-eabi/4.5.1/../../../../arm-eabi/lib\libstdc++.a(fundamental_type_info.o)
 .group         0x00000000        0x8 d:/devkitpro/devkitarm/bin/../lib/gcc/arm-eabi/4.5.1/../../../../arm-eabi/lib\libstdc++.a(fundamental_type_info.o)
 .group         0x00000000        0x8 d:/devkitpro/devkitarm/bin/../lib/gcc/arm-eabi/4.5.1/../../../../arm-eabi/lib\libstdc++.a(fundamental_type_info.o)
 .group         0x00000000        0x8 d:/devkitpro/devkitarm/bin/../lib/gcc/arm-eabi/4.5.1/../../../../arm-eabi/lib\libstdc++.a(fundamental_type_info.o)
 .group         0x00000000        0x8 d:/devkitpro/devkitarm/bin/../lib/gcc/arm-eabi/4.5.1/../../../../arm-eabi/lib\libstdc++.a(fundamental_type_info.o)
 .group         0x00000000        0x8 d:/devkitpro/devkitarm/bin/../lib/gcc/arm-eabi/4.5.1/../../../../arm-eabi/lib\libstdc++.a(fundamental_type_info.o)
 .group         0x00000000        0x8 d:/devkitpro/devkitarm/bin/../lib/gcc/arm-eabi/4.5.1/../../../../arm-eabi/lib\libstdc++.a(fundamental_type_info.o)
 .group         0x00000000        0x8 d:/devkitpro/devkitarm/bin/../lib/gcc/arm-eabi/4.5.1/../../../../arm-eabi/lib\libstdc++.a(fundamental_type_info.o)
 .group         0x00000000        0x8 d:/devkitpro/devkitarm/bin/../lib/gcc/arm-eabi/4.5.1/../../../../arm-eabi/lib\libstdc++.a(fundamental_type_info.o)
 .group         0x00000000        0x8 d:/devkitpro/devkitarm/bin/../lib/gcc/arm-eabi/4.5.1/../../../../arm-eabi/lib\libstdc++.a(fundamental_type_info.o)
 .group         0x00000000        0x8 d:/devkitpro/devkitarm/bin/../lib/gcc/arm-eabi/4.5.1/../../../../arm-eabi/lib\libstdc++.a(fundamental_type_info.o)
 .group         0x00000000        0x8 d:/devkitpro/devkitarm/bin/../lib/gcc/arm-eabi/4.5.1/../../../../arm-eabi/lib\libstdc++.a(fundamental_type_info.o)
 .group         0x00000000        0x8 d:/devkitpro/devkitarm/bin/../lib/gcc/arm-eabi/4.5.1/../../../../arm-eabi/lib\libstdc++.a(fundamental_type_info.o)
 .group         0x00000000        0x8 d:/devkitpro/devkitarm/bin/../lib/gcc/arm-eabi/4.5.1/../../../../arm-eabi/lib\libstdc++.a(fundamental_type_info.o)
 .group         0x00000000        0x8 d:/devkitpro/devkitarm/bin/../lib/gcc/arm-eabi/4.5.1/../../../../arm-eabi/lib\libstdc++.a(fundamental_type_info.o)
 .group         0x00000000        0x8 d:/devkitpro/devkitarm/bin/../lib/gcc/arm-eabi/4.5.1/../../../../arm-eabi/lib\libstdc++.a(fundamental_type_info.o)
 .group         0x00000000        0x8 d:/devkitpro/devkitarm/bin/../lib/gcc/arm-eabi/4.5.1/../../../../arm-eabi/lib\libstdc++.a(fundamental_type_info.o)
 .group         0x00000000        0x8 d:/devkitpro/devkitarm/bin/../lib/gcc/arm-eabi/4.5.1/../../../../arm-eabi/lib\libstdc++.a(fundamental_type_info.o)
 .group         0x00000000        0x8 d:/devkitpro/devkitarm/bin/../lib/gcc/arm-eabi/4.5.1/../../../../arm-eabi/lib\libstdc++.a(fundamental_type_info.o)
 .group         0x00000000        0x8 d:/devkitpro/devkitarm/bin/../lib/gcc/arm-eabi/4.5.1/../../../../arm-eabi/lib\libstdc++.a(fundamental_type_info.o)
 .group         0x00000000        0x8 d:/devkitpro/devkitarm/bin/../lib/gcc/arm-eabi/4.5.1/../../../../arm-eabi/lib\libstdc++.a(fundamental_type_info.o)
 .group         0x00000000        0x8 d:/devkitpro/devkitarm/bin/../lib/gcc/arm-eabi/4.5.1/../../../../arm-eabi/lib\libstdc++.a(fundamental_type_info.o)
 .group         0x00000000        0x8 d:/devkitpro/devkitarm/bin/../lib/gcc/arm-eabi/4.5.1/../../../../arm-eabi/lib\libstdc++.a(fundamental_type_info.o)
 .group         0x00000000        0x8 d:/devkitpro/devkitarm/bin/../lib/gcc/arm-eabi/4.5.1/../../../../arm-eabi/lib\libstdc++.a(fundamental_type_info.o)
 .group         0x00000000        0x8 d:/devkitpro/devkitarm/bin/../lib/gcc/arm-eabi/4.5.1/../../../../arm-eabi/lib\libstdc++.a(fundamental_type_info.o)
 .group         0x00000000        0x8 d:/devkitpro/devkitarm/bin/../lib/gcc/arm-eabi/4.5.1/../../../../arm-eabi/lib\libstdc++.a(fundamental_type_info.o)
 .group         0x00000000        0x8 d:/devkitpro/devkitarm/bin/../lib/gcc/arm-eabi/4.5.1/../../../../arm-eabi/lib\libstdc++.a(fundamental_type_info.o)
 .group         0x00000000        0x8 d:/devkitpro/devkitarm/bin/../lib/gcc/arm-eabi/4.5.1/../../../../arm-eabi/lib\libstdc++.a(fundamental_type_info.o)
 .group         0x00000000        0x8 d:/devkitpro/devkitarm/bin/../lib/gcc/arm-eabi/4.5.1/../../../../arm-eabi/lib\libstdc++.a(fundamental_type_info.o)
 .group         0x00000000        0x8 d:/devkitpro/devkitarm/bin/../lib/gcc/arm-eabi/4.5.1/../../../../arm-eabi/lib\libstdc++.a(fundamental_type_info.o)
 .group         0x00000000        0x8 d:/devkitpro/devkitarm/bin/../lib/gcc/arm-eabi/4.5.1/../../../../arm-eabi/lib\libstdc++.a(fundamental_type_info.o)
 .group         0x00000000        0x8 d:/devkitpro/devkitarm/bin/../lib/gcc/arm-eabi/4.5.1/../../../../arm-eabi/lib\libstdc++.a(fundamental_type_info.o)
 .group         0x00000000        0x8 d:/devkitpro/devkitarm/bin/../lib/gcc/arm-eabi/4.5.1/../../../../arm-eabi/lib\libstdc++.a(fundamental_type_info.o)
 .group         0x00000000        0x8 d:/devkitpro/devkitarm/bin/../lib/gcc/arm-eabi/4.5.1/../../../../arm-eabi/lib\libstdc++.a(fundamental_type_info.o)
 .group         0x00000000        0x8 d:/devkitpro/devkitarm/bin/../lib/gcc/arm-eabi/4.5.1/../../../../arm-eabi/lib\libstdc++.a(fundamental_type_info.o)
 .group         0x00000000        0x8 d:/devkitpro/devkitarm/bin/../lib/gcc/arm-eabi/4.5.1/../../../../arm-eabi/lib\libstdc++.a(fundamental_type_info.o)
 .group         0x00000000        0x8 d:/devkitpro/devkitarm/bin/../lib/gcc/arm-eabi/4.5.1/../../../../arm-eabi/lib\libstdc++.a(fundamental_type_info.o)
 .group         0x00000000        0x8 d:/devkitpro/devkitarm/bin/../lib/gcc/arm-eabi/4.5.1/../../../../arm-eabi/lib\libstdc++.a(fundamental_type_info.o)
 .group         0x00000000        0x8 d:/devkitpro/devkitarm/bin/../lib/gcc/arm-eabi/4.5.1/../../../../arm-eabi/lib\libstdc++.a(fundamental_type_info.o)
 .group         0x00000000        0x8 d:/devkitpro/devkitarm/bin/../lib/gcc/arm-eabi/4.5.1/../../../../arm-eabi/lib\libstdc++.a(fundamental_type_info.o)
 .group         0x00000000        0x8 d:/devkitpro/devkitarm/bin/../lib/gcc/arm-eabi/4.5.1/../../../../arm-eabi/lib\libstdc++.a(fundamental_type_info.o)
 .group         0x00000000        0x8 d:/devkitpro/devkitarm/bin/../lib/gcc/arm-eabi/4.5.1/../../../../arm-eabi/lib\libstdc++.a(fundamental_type_info.o)
 .group         0x00000000        0x8 d:/devkitpro/devkitarm/bin/../lib/gcc/arm-eabi/4.5.1/../../../../arm-eabi/lib\libstdc++.a(fundamental_type_info.o)
 .group         0x00000000        0x8 d:/devkitpro/devkitarm/bin/../lib/gcc/arm-eabi/4.5.1/../../../../arm-eabi/lib\libstdc++.a(fundamental_type_info.o)
 .group         0x00000000        0x8 d:/devkitpro/devkitarm/bin/../lib/gcc/arm-eabi/4.5.1/../../../../arm-eabi/lib\libstdc++.a(fundamental_type_info.o)
 .group         0x00000000        0x8 d:/devkitpro/devkitarm/bin/../lib/gcc/arm-eabi/4.5.1/../../../../arm-eabi/lib\libstdc++.a(fundamental_type_info.o)
 .group         0x00000000        0x8 d:/devkitpro/devkitarm/bin/../lib/gcc/arm-eabi/4.5.1/../../../../arm-eabi/lib\libstdc++.a(fundamental_type_info.o)
 .group         0x00000000        0x8 d:/devkitpro/devkitarm/bin/../lib/gcc/arm-eabi/4.5.1/../../../../arm-eabi/lib\libstdc++.a(fundamental_type_info.o)
 .group         0x00000000        0x8 d:/devkitpro/devkitarm/bin/../lib/gcc/arm-eabi/4.5.1/../../../../arm-eabi/lib\libstdc++.a(fundamental_type_info.o)
 .group         0x00000000        0x8 d:/devkitpro/devkitarm/bin/../lib/gcc/arm-eabi/4.5.1/../../../../arm-eabi/lib\libstdc++.a(fundamental_type_info.o)
 .group         0x00000000        0x8 d:/devkitpro/devkitarm/bin/../lib/gcc/arm-eabi/4.5.1/../../../../arm-eabi/lib\libstdc++.a(fundamental_type_info.o)
 .group         0x00000000        0x8 d:/devkitpro/devkitarm/bin/../lib/gcc/arm-eabi/4.5.1/../../../../arm-eabi/lib\libstdc++.a(fundamental_type_info.o)
 .group         0x00000000        0x8 d:/devkitpro/devkitarm/bin/../lib/gcc/arm-eabi/4.5.1/../../../../arm-eabi/lib\libstdc++.a(fundamental_type_info.o)
 .group         0x00000000        0x8 d:/devkitpro/devkitarm/bin/../lib/gcc/arm-eabi/4.5.1/../../../../arm-eabi/lib\libstdc++.a(fundamental_type_info.o)
 .group         0x00000000        0x8 d:/devkitpro/devkitarm/bin/../lib/gcc/arm-eabi/4.5.1/../../../../arm-eabi/lib\libstdc++.a(fundamental_type_info.o)
 .group         0x00000000        0x8 d:/devkitpro/devkitarm/bin/../lib/gcc/arm-eabi/4.5.1/../../../../arm-eabi/lib\libstdc++.a(fundamental_type_info.o)
 .group         0x00000000        0x8 d:/devkitpro/devkitarm/bin/../lib/gcc/arm-eabi/4.5.1/../../../../arm-eabi/lib\libstdc++.a(fundamental_type_info.o)
 .group         0x00000000        0x8 d:/devkitpro/devkitarm/bin/../lib/gcc/arm-eabi/4.5.1/../../../../arm-eabi/lib\libstdc++.a(fundamental_type_info.o)
 .group         0x00000000        0x8 d:/devkitpro/devkitarm/bin/../lib/gcc/arm-eabi/4.5.1/../../../../arm-eabi/lib\libstdc++.a(fundamental_type_info.o)
 .group         0x00000000        0x8 d:/devkitpro/devkitarm/bin/../lib/gcc/arm-eabi/4.5.1/../../../../arm-eabi/lib\libstdc++.a(fundamental_type_info.o)
 .group         0x00000000        0x8 d:/devkitpro/devkitarm/bin/../lib/gcc/arm-eabi/4.5.1/../../../../arm-eabi/lib\libstdc++.a(fundamental_type_info.o)
 .group         0x00000000        0x8 d:/devkitpro/devkitarm/bin/../lib/gcc/arm-eabi/4.5.1/../../../../arm-eabi/lib\libstdc++.a(fundamental_type_info.o)
 .group         0x00000000        0x8 d:/devkitpro/devkitarm/bin/../lib/gcc/arm-eabi/4.5.1/../../../../arm-eabi/lib\libstdc++.a(fundamental_type_info.o)
 .group         0x00000000        0x8 d:/devkitpro/devkitarm/bin/../lib/gcc/arm-eabi/4.5.1/../../../../arm-eabi/lib\libstdc++.a(fundamental_type_info.o)
 .group         0x00000000        0x8 d:/devkitpro/devkitarm/bin/../lib/gcc/arm-eabi/4.5.1/../../../../arm-eabi/lib\libstdc++.a(fundamental_type_info.o)
 .group         0x00000000        0x8 d:/devkitpro/devkitarm/bin/../lib/gcc/arm-eabi/4.5.1/../../../../arm-eabi/lib\libstdc++.a(fundamental_type_info.o)
 .group         0x00000000        0x8 d:/devkitpro/devkitarm/bin/../lib/gcc/arm-eabi/4.5.1/../../../../arm-eabi/lib\libstdc++.a(fundamental_type_info.o)
 .group         0x00000000        0x8 d:/devkitpro/devkitarm/bin/../lib/gcc/arm-eabi/4.5.1/../../../../arm-eabi/lib\libstdc++.a(fundamental_type_info.o)
 .group         0x00000000        0x8 d:/devkitpro/devkitarm/bin/../lib/gcc/arm-eabi/4.5.1/../../../../arm-eabi/lib\libstdc++.a(fundamental_type_info.o)
 .group         0x00000000        0x8 d:/devkitpro/devkitarm/bin/../lib/gcc/arm-eabi/4.5.1/../../../../arm-eabi/lib\libstdc++.a(fundamental_type_info.o)
 .group         0x00000000        0x8 d:/devkitpro/devkitarm/bin/../lib/gcc/arm-eabi/4.5.1/../../../../arm-eabi/lib\libstdc++.a(fundamental_type_info.o)
 .group         0x00000000        0x8 d:/devkitpro/devkitarm/bin/../lib/gcc/arm-eabi/4.5.1/../../../../arm-eabi/lib\libstdc++.a(fundamental_type_info.o)
 .group         0x00000000        0x8 d:/devkitpro/devkitarm/bin/../lib/gcc/arm-eabi/4.5.1/../../../../arm-eabi/lib\libstdc++.a(fundamental_type_info.o)
 .group         0x00000000        0x8 d:/devkitpro/devkitarm/bin/../lib/gcc/arm-eabi/4.5.1/../../../../arm-eabi/lib\libstdc++.a(fundamental_type_info.o)
 .group         0x00000000        0x8 d:/devkitpro/devkitarm/bin/../lib/gcc/arm-eabi/4.5.1/../../../../arm-eabi/lib\libstdc++.a(fundamental_type_info.o)
 .group         0x00000000        0x8 d:/devkitpro/devkitarm/bin/../lib/gcc/arm-eabi/4.5.1/../../../../arm-eabi/lib\libstdc++.a(fundamental_type_info.o)
 .group         0x00000000        0x8 d:/devkitpro/devkitarm/bin/../lib/gcc/arm-eabi/4.5.1/../../../../arm-eabi/lib\libstdc++.a(fundamental_type_info.o)
 .group         0x00000000        0x8 d:/devkitpro/devkitarm/bin/../lib/gcc/arm-eabi/4.5.1/../../../../arm-eabi/lib\libstdc++.a(fundamental_type_info.o)
 .group         0x00000000        0x8 d:/devkitpro/devkitarm/bin/../lib/gcc/arm-eabi/4.5.1/../../../../arm-eabi/lib\libstdc++.a(fundamental_type_info.o)
 .group         0x00000000        0x8 d:/devkitpro/devkitarm/bin/../lib/gcc/arm-eabi/4.5.1/../../../../arm-eabi/lib\libstdc++.a(fundamental_type_info.o)
 .group         0x00000000        0x8 d:/devkitpro/devkitarm/bin/../lib/gcc/arm-eabi/4.5.1/../../../../arm-eabi/lib\libstdc++.a(fundamental_type_info.o)
 .group         0x00000000        0x8 d:/devkitpro/devkitarm/bin/../lib/gcc/arm-eabi/4.5.1/../../../../arm-eabi/lib\libstdc++.a(fundamental_type_info.o)
 .group         0x00000000        0x8 d:/devkitpro/devkitarm/bin/../lib/gcc/arm-eabi/4.5.1/../../../../arm-eabi/lib\libstdc++.a(fundamental_type_info.o)
 .group         0x00000000        0x8 d:/devkitpro/devkitarm/bin/../lib/gcc/arm-eabi/4.5.1/../../../../arm-eabi/lib\libstdc++.a(fundamental_type_info.o)
 .group         0x00000000        0x8 d:/devkitpro/devkitarm/bin/../lib/gcc/arm-eabi/4.5.1/../../../../arm-eabi/lib\libstdc++.a(fundamental_type_info.o)
 .group         0x00000000        0x8 d:/devkitpro/devkitarm/bin/../lib/gcc/arm-eabi/4.5.1/../../../../arm-eabi/lib\libstdc++.a(fundamental_type_info.o)
 .group         0x00000000        0x8 d:/devkitpro/devkitarm/bin/../lib/gcc/arm-eabi/4.5.1/../../../../arm-eabi/lib\libstdc++.a(fundamental_type_info.o)
 .group         0x00000000        0x8 d:/devkitpro/devkitarm/bin/../lib/gcc/arm-eabi/4.5.1/../../../../arm-eabi/lib\libstdc++.a(fundamental_type_info.o)
 .group         0x00000000        0x8 d:/devkitpro/devkitarm/bin/../lib/gcc/arm-eabi/4.5.1/../../../../arm-eabi/lib\libstdc++.a(fundamental_type_info.o)
 .group         0x00000000        0x8 d:/devkitpro/devkitarm/bin/../lib/gcc/arm-eabi/4.5.1/../../../../arm-eabi/lib\libstdc++.a(fundamental_type_info.o)
 .group         0x00000000        0x8 d:/devkitpro/devkitarm/bin/../lib/gcc/arm-eabi/4.5.1/../../../../arm-eabi/lib\libstdc++.a(fundamental_type_info.o)
 .group         0x00000000        0x8 d:/devkitpro/devkitarm/bin/../lib/gcc/arm-eabi/4.5.1/../../../../arm-eabi/lib\libstdc++.a(fundamental_type_info.o)
 .group         0x00000000        0x8 d:/devkitpro/devkitarm/bin/../lib/gcc/arm-eabi/4.5.1/../../../../arm-eabi/lib\libstdc++.a(fundamental_type_info.o)
 .group         0x00000000        0x8 d:/devkitpro/devkitarm/bin/../lib/gcc/arm-eabi/4.5.1/../../../../arm-eabi/lib\libstdc++.a(fundamental_type_info.o)
 .group         0x00000000        0x8 d:/devkitpro/devkitarm/bin/../lib/gcc/arm-eabi/4.5.1/../../../../arm-eabi/lib\libstdc++.a(fundamental_type_info.o)
 .group         0x00000000        0x8 d:/devkitpro/devkitarm/bin/../lib/gcc/arm-eabi/4.5.1/../../../../arm-eabi/lib\libstdc++.a(fundamental_type_info.o)
 .group         0x00000000        0x8 d:/devkitpro/devkitarm/bin/../lib/gcc/arm-eabi/4.5.1/../../../../arm-eabi/lib\libstdc++.a(fundamental_type_info.o)
 .group         0x00000000        0x8 d:/devkitpro/devkitarm/bin/../lib/gcc/arm-eabi/4.5.1/../../../../arm-eabi/lib\libstdc++.a(fundamental_type_info.o)
 .group         0x00000000        0x8 d:/devkitpro/devkitarm/bin/../lib/gcc/arm-eabi/4.5.1/../../../../arm-eabi/lib\libstdc++.a(fundamental_type_info.o)
 .group         0x00000000        0x8 d:/devkitpro/devkitarm/bin/../lib/gcc/arm-eabi/4.5.1/../../../../arm-eabi/lib\libstdc++.a(fundamental_type_info.o)
 .group         0x00000000        0x8 d:/devkitpro/devkitarm/bin/../lib/gcc/arm-eabi/4.5.1/../../../../arm-eabi/lib\libstdc++.a(fundamental_type_info.o)
 .group         0x00000000        0x8 d:/devkitpro/devkitarm/bin/../lib/gcc/arm-eabi/4.5.1/../../../../arm-eabi/lib\libstdc++.a(fundamental_type_info.o)
 .group         0x00000000        0x8 d:/devkitpro/devkitarm/bin/../lib/gcc/arm-eabi/4.5.1/../../../../arm-eabi/lib\libstdc++.a(fundamental_type_info.o)
 .group         0x00000000        0x8 d:/devkitpro/devkitarm/bin/../lib/gcc/arm-eabi/4.5.1/../../../../arm-eabi/lib\libstdc++.a(fundamental_type_info.o)
 .group         0x00000000        0x8 d:/devkitpro/devkitarm/bin/../lib/gcc/arm-eabi/4.5.1/../../../../arm-eabi/lib\libstdc++.a(fundamental_type_info.o)
 .group         0x00000000        0x8 d:/devkitpro/devkitarm/bin/../lib/gcc/arm-eabi/4.5.1/../../../../arm-eabi/lib\libstdc++.a(fundamental_type_info.o)
 .group         0x00000000        0x8 d:/devkitpro/devkitarm/bin/../lib/gcc/arm-eabi/4.5.1/../../../../arm-eabi/lib\libstdc++.a(fundamental_type_info.o)
 .group         0x00000000        0x8 d:/devkitpro/devkitarm/bin/../lib/gcc/arm-eabi/4.5.1/../../../../arm-eabi/lib\libstdc++.a(fundamental_type_info.o)
 .group         0x00000000        0x8 d:/devkitpro/devkitarm/bin/../lib/gcc/arm-eabi/4.5.1/../../../../arm-eabi/lib\libstdc++.a(fundamental_type_info.o)
 .group         0x00000000        0x8 d:/devkitpro/devkitarm/bin/../lib/gcc/arm-eabi/4.5.1/../../../../arm-eabi/lib\libstdc++.a(fundamental_type_info.o)
 .group         0x00000000        0x8 d:/devkitpro/devkitarm/bin/../lib/gcc/arm-eabi/4.5.1/../../../../arm-eabi/lib\libstdc++.a(fundamental_type_info.o)
 .group         0x00000000        0x8 d:/devkitpro/devkitarm/bin/../lib/gcc/arm-eabi/4.5.1/../../../../arm-eabi/lib\libstdc++.a(fundamental_type_info.o)
 .group         0x00000000        0x8 d:/devkitpro/devkitarm/bin/../lib/gcc/arm-eabi/4.5.1/../../../../arm-eabi/lib\libstdc++.a(fundamental_type_info.o)
 .group         0x00000000        0x8 d:/devkitpro/devkitarm/bin/../lib/gcc/arm-eabi/4.5.1/../../../../arm-eabi/lib\libstdc++.a(fundamental_type_info.o)
 .group         0x00000000        0x8 d:/devkitpro/devkitarm/bin/../lib/gcc/arm-eabi/4.5.1/../../../../arm-eabi/lib\libstdc++.a(fundamental_type_info.o)
 .group         0x00000000        0x8 d:/devkitpro/devkitarm/bin/../lib/gcc/arm-eabi/4.5.1/../../../../arm-eabi/lib\libstdc++.a(fundamental_type_info.o)
 .group         0x00000000        0x8 d:/devkitpro/devkitarm/bin/../lib/gcc/arm-eabi/4.5.1/../../../../arm-eabi/lib\libstdc++.a(fundamental_type_info.o)
 .group         0x00000000        0x8 d:/devkitpro/devkitarm/bin/../lib/gcc/arm-eabi/4.5.1/../../../../arm-eabi/lib\libstdc++.a(fundamental_type_info.o)
 .group         0x00000000        0x8 d:/devkitpro/devkitarm/bin/../lib/gcc/arm-eabi/4.5.1/../../../../arm-eabi/lib\libstdc++.a(fundamental_type_info.o)
 .group         0x00000000        0x8 d:/devkitpro/devkitarm/bin/../lib/gcc/arm-eabi/4.5.1/../../../../arm-eabi/lib\libstdc++.a(fundamental_type_info.o)
 .group         0x00000000        0x8 d:/devkitpro/devkitarm/bin/../lib/gcc/arm-eabi/4.5.1/../../../../arm-eabi/lib\libstdc++.a(fundamental_type_info.o)
 .group         0x00000000        0x8 d:/devkitpro/devkitarm/bin/../lib/gcc/arm-eabi/4.5.1/../../../../arm-eabi/lib\libstdc++.a(fundamental_type_info.o)
 .group         0x00000000        0x8 d:/devkitpro/devkitarm/bin/../lib/gcc/arm-eabi/4.5.1/../../../../arm-eabi/lib\libstdc++.a(fundamental_type_info.o)
 .group         0x00000000        0x8 d:/devkitpro/devkitarm/bin/../lib/gcc/arm-eabi/4.5.1/../../../../arm-eabi/lib\libstdc++.a(fundamental_type_info.o)
 .group         0x00000000        0x8 d:/devkitpro/devkitarm/bin/../lib/gcc/arm-eabi/4.5.1/../../../../arm-eabi/lib\libstdc++.a(fundamental_type_info.o)
 .group         0x00000000        0x8 d:/devkitpro/devkitarm/bin/../lib/gcc/arm-eabi/4.5.1/../../../../arm-eabi/lib\libstdc++.a(fundamental_type_info.o)
 .group         0x00000000        0x8 d:/devkitpro/devkitarm/bin/../lib/gcc/arm-eabi/4.5.1/../../../../arm-eabi/lib\libstdc++.a(fundamental_type_info.o)
 .group         0x00000000        0x8 d:/devkitpro/devkitarm/bin/../lib/gcc/arm-eabi/4.5.1/../../../../arm-eabi/lib\libstdc++.a(fundamental_type_info.o)
 .group         0x00000000       0x10 d:/devkitpro/devkitarm/bin/../lib/gcc/arm-eabi/4.5.1/../../../../arm-eabi/lib\libstdc++.a(pbase_type_info.o)

Memory Configuration

Name             Origin             Length             Attributes
rom              0x08000000         0x02000000
ewram            0x02000000         0x003ff000
dtcm             0x0b000000         0x00004000
vectors          0x01000000         0x00000100
itcm             0x01000100         0x00007f00
*default*        0x00000000         0xffffffff

Linker script and memory map

                0x01000000                __vectors_start = 0x1000000
                0x01000100                __itcm_start = 0x1000100
                0x023ff000                __ewram_end = 0x23ff000
                0x023ff000                __eheap_end = 0x23ff000
                0x0b000000                __dtcm_start = 0xb000000
                0x0b004000                __dtcm_top = 0xb004000
                0x0b003ff8                __irq_flags = (__dtcm_top - 0x8)
                0x0b003ffc                __irq_vector = (__dtcm_top - 0x4)
                0x0b003f00                __sp_svc = (__dtcm_top - 0x100)
                0x0b003e00                __sp_irq = (__sp_svc - 0x100)
                0x0b003d00                __sp_usr = (__sp_irq - 0x100)

.init           0x02000000      0x248
                0x02000000                __text_start = .
 *(.init)
 .init          0x02000000      0x230 d:/devkitpro/devkitarm/bin/../lib/gcc/arm-eabi/4.5.1/../../../../arm-eabi/lib/ds_arm9_crt0.o
                0x02000000                _start
 .init          0x02000230        0xc d:/devkitpro/devkitarm/bin/../lib/gcc/arm-eabi/4.5.1/crti.o
                0x02000230                _init
 .init          0x0200023c        0xc d:/devkitpro/devkitarm/bin/../lib/gcc/arm-eabi/4.5.1/crtn.o
                0x02000248                . = ALIGN (0x4)

.plt
 *(.plt)

.text           0x02000250    0x3f980
 *(EXCLUDE_FILE(*.itcm*) .text)
 .text          0x02000250        0x0 d:/devkitpro/devkitarm/bin/../lib/gcc/arm-eabi/4.5.1/../../../../arm-eabi/lib/ds_arm9_crt0.o
 .text          0x02000250        0x0 d:/devkitpro/devkitarm/bin/../lib/gcc/arm-eabi/4.5.1/crti.o
 .text          0x02000250       0x94 d:/devkitpro/devkitarm/bin/../lib/gcc/arm-eabi/4.5.1/crtbegin.o
 .text          0x020002e4        0x0 ball.png.o
 .text          0x020002e4      0x21c CBall.o
                0x020002e4                CBall::CBall(int, int, int, int)
                0x020002e4                CBall::CBall(int, int, int, int)
                0x02000388                CBall::~CBall()
                0x02000388                CBall::~CBall()
                0x020003bc                CBall::handle()
                0x02000488                CBall::draw(int)
                0x020004f8                CBall::setColor(unsigned short)
 .text          0x02000500      0x260 main.o
                0x02000500                main
 .text          0x02000760      0x15c d:/devkitPro/libnds/lib\libul.a(ulib.o)
                0x02000760                _initSinTables
                0x0200084c                ulInit
                0x02000884                ulTerminate
                0x02000888                ulGetPowerOf2Count
 .text          0x020008bc     0x148c d:/devkitPro/libnds/lib\libul.a(drawing.o)
                0x020008bc                ulInitGfx
                0x02000930                ulInitDualScreenMode
                0x02000a64                ulStopDualScreenMode
                0x02000a78                ulSetRegCapture
                0x02000adc                ulEndDrawing
                0x02000b0c                ulSetScreenWindow
                0x02000dac                ulSetScreenClipping
                0x02001050                ulResetScreenClipping
                0x020012b4                ulEndFrame
                0x020013e0                ulSyncFrame
                0x0200141c                ulResetScreenView
                0x02001660                ulStartDrawing2D
                0x02001714                ulMoveScreenView
                0x0200172c                ulScaleScreenView
                0x02001744                ulRotateScreenView
                0x020017a4                ulSetAlpha
                0x020017c4                ulRealizeImage
                0x02001928                ulSetTexture
                0x02001998                ulResetImageProperties
                0x020019e8                ulDeleteImage
                0x02001a68                ulCreateImage
                0x02001cd4                ulSetScreenBackgroundColor
                0x02001ce0                ulSetTransparentColor
 .text          0x02001d48      0xa58 d:/devkitPro/libnds/lib\libul.a(text.o)
                0x02001d48                ulDrawChar1BitToImage
                0x02001e9c                ulCreateFont
                0x020021a4                ulLoadFont
                0x0200234c                ulDeleteFont
                0x02002378                ulDrawTile
                0x02002470                ulDrawChar
                0x0200251c                ulDrawString
                0x020025f0                ulDrawTextBox
                0x02002758                ulSetTextColor
                0x02002768                ulInitText
 .text          0x020027a0      0x5fc d:/devkitPro/libnds/lib\libul.a(VirtualFile.o)
                0x020027a0                vfsMemClose
                0x020027a8                vfsMemGetc
                0x020027ec                vfsMemPutc
                0x02002838                vfsMemGets
                0x020029e4                vfsMemSeek
                0x02002a58                vfsMemEof
                0x02002a70                vfsMemPuts
                0x02002aac                vfsMemRead
                0x02002b00                vfsMemWrite
                0x02002b5c                VirtualFileRegisterSource
                0x02002b8c                VirtualFileOpen
                0x02002c28                VirtualFileClose
                0x02002c60                ulSetVirtualFilenameList
                0x02002c7c                ulFindFileInVirtualFilenameList
                0x02002d0c                vfsMemOpen
                0x02002d4c                VirtualFileInit
 .text          0x02002d9c      0x8c0 d:/devkitPro/libnds/lib\libul.a(texVramManager.o)
                0x02002d9c                ulTexVramInit
                0x02002dfc                ulTexVramAllocBlock
                0x02002f64                ulTexVramFreeBlock
                0x020030b4                ulTexImage2D
                0x020032b8                ulInitTextures
                0x0200330c                ulGetNextAvailableTexture
                0x020033f0                ulGenTextures
                0x02003448                ulFreeTextures
                0x020034ac                ulTexParameter
                0x020034e4                ulBindTexture
                0x0200350c                ulBindTextureToGl
                0x02003548                ulSetTexVramParameters
                0x020035e8                ulGetTexVramAvailMemory
                0x02003614                ulGetTexVramTotalMemory
                0x02003624                ulGetTexVramUsedMemory
 .text          0x0200365c      0x584 d:/devkitPro/libnds/lib\libul.a(texPalManager.o)
                0x0200365c                ulTexPalInit
                0x020036bc                ulTexPalAllocBlock
                0x020038cc                ulTexPalFreeBlock
                0x02003a1c                uluTexUnloadPal
                0x02003a24                ulTexLoadPal
                0x02003a70                uluTexLoadPal
                0x02003acc                ulSetTexPalVramParameters
                0x02003b6c                ulGetTexPalAvailMemory
                0x02003b98                ulGetTexPalTotalMemory
                0x02003ba8                ulGetTexPalUsedMemory
 .text          0x02003be0      0x190 d:/devkitPro/libnds/lib\libul.a(keys.o)
                0x02003be0                ulReadKeys
 .text          0x02003d70      0x348 d:/devkitPro/libnds/lib\libul.a(ulDrawImage.o)
                0x02003d70                ulDrawImage
 .text          0x020040b8       0xe8 d:/devkitPro/libnds/lib\libul.a(ulCreateImagePalette.o)
                0x020040b8                ulCreateImagePalette
 .text          0x020041a0       0xbc d:/devkitPro/libnds/lib\libul.a(ulDrawGradientRect.o)
                0x020041a0                ulDrawGradientRect
 .text          0x0200425c       0x68 d:/devkitPro/libnds/lib\libul.a(ulLoadImageFilePNG.o)
                0x0200425c                ulLoadImageFilePNG
 .text          0x020042c4      0xb64 d:/devkitPro/libnds/lib\libul.a(ulShowSplashScreen1.o)
                0x020042c4                ul_splash1_applyMask
                0x02004364                ul_splash1_createCircle
                0x02004420                ul_splash1_createMaskedImage
                0x02004530                ul_splash1_handleFade
                0x02004594                ul_splash1_drawFade
                0x020045f8                ul_splash1_fadeTerminated
                0x02004630                ul_splash1_drawBackText
                0x020046bc                ul_splash1_fillSecondScreen
                0x02004800                ulShowSplashScreen1
 .text          0x02004e28      0x65c d:/devkitPro/libnds/lib\libul.a(ulShowSplashScreen2.o)
                0x02004e28                ul_neoflashlogo_LogoDrawTiles
                0x02004f70                ulShowSplashScreen2
 .text          0x02005484       0x7c d:/devkitPro/libnds/lib\libul.a(glWrapper.o)
                0x02005484                ulChangeVramAllocation
 .text          0x02005500      0x97c d:/devkitPro/libnds/lib\libul.a(libLoadPng.o)
                0x020055e4                ulLoadImagePNG
 .text          0x02005e7c       0x94 d:/devkitPro/libnds/lib\libul.a(ulDrawFillRect.o)
                0x02005e7c                ulDrawFillRect
 .text          0x02005f10       0xb8 d:/devkitPro/libnds/lib\libul.a(ulSetImagePixel.o)
                0x02005f10                ulSetImagePixel
 .text          0x02005fc8       0xa8 d:/devkitPro/libnds/lib\libul.a(ulGetImagePixel.o)
                0x02005fc8                ulGetImagePixel
 .text          0x02006070      0x124 d:/devkitPro/libnds/lib\libul.a(textSize.o)
                0x02006070                ulGetStringWidth
                0x020060a4                ulGetTextBoxHeight
 .text          0x02006194        0x0 d:/devkitPro/libnds/lib\libul.a(loading_utility.o)
 .text          0x02006194       0x68 d:/devkitPro/libnds/lib\libul.a(ulLoadImageFileJPG.o)
                0x02006194                ulLoadImageFileJPG
 .text          0x020061fc       0x68 d:/devkitPro/libnds/lib\libul.a(ulLoadImageFileGIF.o)
                0x020061fc                ulLoadImageFileGIF
 .text          0x02006264       0xf8 d:/devkitPro/libnds/lib\libul.a(libLoadJpg.o)
                0x02006264                ulLoadImageJPG
 .text          0x0200635c      0x65c d:/devkitPro/libnds/lib\libul.a(libLoadGif.o)
                0x0200635c                fnGifReadFunc
                0x02006390                fnCopyLine
                0x020064c0                DGifGetLineByte
                0x02006508                ulLoadImageGIF
 .text          0x020069b8     0x1198 d:/devkitPro/libnds/lib\libul.a(dgif_lib.o)
                0x02006f18                DGifGetScreenDesc
                0x020070d4                DGifOpen
                0x020071fc                DGifGetRecordType
                0x020072bc                DGifGetImageDesc
                0x02007620                DGifGetExtensionNext
                0x020076ec                DGifGetExtension
                0x0200777c                DGifCloseFile
                0x02007840                DGifGetCodeNext
                0x02007914                DGifGetCode
                0x02007958                DGifGetPixel
                0x02007a04                DGifGetLine
                0x02007a9c                DGifGetLZCodes
 .text          0x02007b50       0x18 d:/devkitPro/libnds/lib\libul.a(gif_err.o)
                0x02007b50                GifLastError
 .text          0x02007b68      0x610 d:/devkitPro/libnds/lib\libul.a(gifalloc.o)
                0x02007b68                BitSize
                0x02007b8c                MakeMapObject
                0x02007bfc                FreeMapObject
                0x02007c1c                UnionColorMap
                0x02007df4                ApplyTranslation
                0x02007e2c                MakeExtension
                0x02007e34                AddExtensionBlock
                0x02007ee0                FreeExtension
                0x02007f34                FreeLastSavedImage
                0x02007fa0                MakeSavedImage
                0x020080f0                FreeSavedImages
 .text          0x02008178       0xc0 d:/devkitPro/libnds/lib\libul.a(ulReadEntireFileToMemory.o)
                0x02008178                ulReadEntireFileToMemory
 .text          0x02008238     0x198c d:/devkitPro/libnds/lib\libul.a(gba-jpeg-decode.o)
                0x02008c98                JPEG_IDCT
                0x02008cc0                JPEG_HuffmanTable_Read
                0x02008ed8                JPEG_HuffmanTable_Skip
                0x02008f08                JPEG_Decoder_ReadImage
                0x020096c4                JPEG_FrameHeader_Read
                0x0200977c                JPEG_ScanHeader_Read
                0x02009818                JPEG_Decoder_ReadHeaders
                0x02009b20                JPEG_DecompressImage
                0x02009b84                JPEG_Match
 .text          0x02009bc4      0xa58 d:/devkitPro/libnds/lib\libpng.a(png.o)
                0x02009bc4                png_data_freer
                0x02009bfc                png_get_io_ptr
                0x02009c08                png_init_io
                0x02009c14                png_get_copyright
                0x02009c20                png_get_libpng_ver
                0x02009c2c                png_get_header_ver
                0x02009c38                png_get_header_version
                0x02009c44                png_access_version_number
                0x02009c50                png_mmx_support
                0x02009c58                png_64bit_product
                0x02009ca4                png_check_cHRM_fixed
                0x02009da0                png_reset_zstream
                0x02009dc4                png_handle_as_unknown
                0x02009e2c                png_sig_cmp
                0x02009ea0                png_check_sig
                0x02009ec8                png_zalloc
                0x02009f1c                png_convert_to_rfc1123
                0x02009fe0                png_zfree
                0x02009ff8                png_free_data
                0x0200a42c                png_info_init_3
                0x0200a46c                png_info_destroy
                0x0200a4c8                png_info_init
                0x0200a4f0                png_destroy_info_struct
                0x0200a53c                png_create_info_struct
                0x0200a584                png_calculate_crc
                0x0200a5c8                png_reset_crc
                0x0200a5ec                png_set_sig_bytes
 .text          0x0200a61c     0x1a04 d:/devkitPro/libnds/lib\libpng.a(pngread.o)
                0x0200a61c                png_set_read_status_fn
                0x0200a628                png_read_destroy
                0x0200a874                png_destroy_read_struct
                0x0200a954                png_read_end
                0x0200adfc                png_start_read_image
                0x0200ae24                png_read_row
                0x0200b27c                png_read_image
                0x0200b2e0                png_read_rows
                0x0200b3ac                png_read_update_info
                0x0200b3e4                png_read_info
                0x0200b954                png_read_png
                0x0200bb24                png_read_init_3
                0x0200bc78                png_read_init_2
                0x0200bd40                png_read_init
                0x0200bd54                png_create_read_struct_2
                0x0200bff8                png_create_read_struct
 .text          0x0200c020       0xa0 d:/devkitPro/libnds/lib\libpng.a(pngrio.o)
                0x0200c020                png_set_read_fn
                0x0200c054                png_default_read_data
                0x0200c090                png_read_data
 .text          0x0200c0c0     0x5814 d:/devkitPro/libnds/lib\libpng.a(pngrtran.o)
                0x0200c0c0                png_set_crc_action
                0x0200c168                png_set_strip_16
                0x0200c17c                png_set_strip_alpha
                0x0200c190                png_set_gamma
                0x0200c24c                png_set_expand
                0x0200c274                png_set_palette_to_rgb
                0x0200c29c                png_set_expand_gray_1_2_4_to_8
                0x0200c2c0                png_set_gray_1_2_4_to_8
                0x0200c2d8                png_set_tRNS_to_alpha
                0x0200c2f8                png_set_gray_to_rgb
                0x0200c314                png_set_rgb_to_gray_fixed
                0x0200c414                png_set_rgb_to_gray
                0x0200c4b0                png_set_read_user_transform_fn
                0x0200c4c8                png_read_transform_info
                0x0200c720                png_do_unpack
                0x0200c870                png_do_unshift
                0x0200ca88                png_do_chop
                0x0200cae0                png_do_read_swap_alpha
                0x0200cc20                png_do_read_invert_alpha
                0x0200cd20                png_do_read_filler
                0x0200d018                png_do_gray_to_rgb
                0x0200d20c                png_do_rgb_to_gray
                0x0200d8a8                png_build_grayscale_palette
                0x0200d95c                png_do_gamma
                0x0200dda8                png_do_expand_palette
                0x0200e048                png_do_expand
                0x0200e4c4                png_do_dither
                0x0200e638                png_do_read_intrapixel
                0x0200e74c                png_build_gamma_table
                0x0200ee68                png_init_read_transformations
                0x0200fba0                png_do_background
                0x02010bd4                png_set_background
                0x02010c3c                png_do_read_transformations
                0x020110a8                png_set_dither
 .text          0x020118d4      0x270 d:/devkitPro/libnds/lib\libpng.a(pngmem.o)
                0x020118d4                png_set_mem_fn
                0x020118e8                png_get_mem_ptr
                0x020118f4                png_memset_check
                0x02011918                png_memcpy_check
                0x0201193c                png_free_default
                0x02011960                png_free
                0x020119a4                png_destroy_struct_2
                0x020119e8                png_destroy_struct
                0x020119f4                png_malloc_default
                0x02011a1c                png_malloc
                0x02011a80                png_malloc_warn
                0x02011ab4                png_create_struct_2
                0x02011b38                png_create_struct
 .text          0x02011b44      0x128 d:/devkitPro/libnds/lib\libpng.a(pngerror.o)
                0x02011b44                png_set_error_fn
                0x02011b58                png_get_error_ptr
                0x02011b64                png_set_strip_error_numbers
                0x02011b7c                png_err
 .text          0x02011c6c      0xb28 d:/devkitPro/libnds/lib\libpng.a(pngget.o)
                0x02011c6c                png_get_valid
                0x02011c88                png_get_rowbytes
                0x02011ca0                png_get_rows
                0x02011cb8                png_get_image_width
                0x02011cd0                png_get_image_height
                0x02011ce8                png_get_bit_depth
                0x02011d00                png_get_color_type
                0x02011d18                png_get_filter_type
                0x02011d30                png_get_interlace_type
                0x02011d48                png_get_compression_type
                0x02011d60                png_get_x_pixels_per_meter
                0x02011d90                png_get_y_pixels_per_meter
                0x02011dc0                png_get_pixels_per_meter
                0x02011dfc                png_get_pixel_aspect_ratio
                0x02011e5c                png_get_x_offset_microns
                0x02011e8c                png_get_y_offset_microns
                0x02011ebc                png_get_x_offset_pixels
                0x02011eec                png_get_y_offset_pixels
                0x02011f1c                png_get_channels
                0x02011f34                png_get_signature
                0x02011f4c                png_get_bKGD
                0x02011f84                png_get_cHRM
                0x02012080                png_get_cHRM_fixed
                0x02012124                png_get_gAMA
                0x02012170                png_get_gAMA_fixed
                0x020121a8                png_get_sRGB
                0x020121e0                png_get_iCCP
                0x02012254                png_get_sPLT
                0x0201227c                png_get_hIST
                0x020122b4                png_get_oFFs
                0x0201231c                png_get_pCAL
                0x020123c8                png_get_sCAL
                0x02012424                png_get_pHYs
                0x02012484                png_get_PLTE
                0x020124cc                png_get_sBIT
                0x02012504                png_get_text
                0x02012554                png_get_tIME
                0x0201258c                png_get_tRNS
                0x02012620                png_get_unknown_chunks
                0x02012648                png_get_rgb_to_gray_status
                0x02012654                png_get_user_chunk_ptr
                0x02012660                png_get_asm_flags
                0x02012668                png_get_asm_flagmask
                0x02012670                png_get_mmx_flagmask
                0x02012680                png_get_mmx_bitdepth_threshold
                0x02012688                png_get_mmx_rowbytes_threshold
                0x02012690                png_get_user_width_max
                0x0201269c                png_get_user_height_max
                0x020126a8                png_get_IHDR
 .text          0x02012794     0x32c0 d:/devkitPro/libnds/lib\libpng.a(pngrutil.o)
                0x02012794                png_get_uint_32
                0x020127b4                png_get_int_32
                0x020127d4                png_get_uint_16
                0x020127ec                png_read_filter_row
                0x020129b8                png_check_chunk_name
                0x02012a70                png_get_uint_31
                0x02012aa0                png_read_start_row
                0x02012db0                png_crc_error
                0x02012e38                png_do_read_interlace
                0x02013240                png_combine_row
                0x020134f8                png_decompress_chunk
                0x0201384c                png_crc_read
                0x0201387c                png_crc_finish
                0x02013904                png_handle_IEND
                0x02013944                png_read_finish_row
                0x02013b98                png_handle_unknown
                0x02013cfc                png_handle_zTXt
                0x02013e84                png_handle_tEXt
                0x02013fb8                png_handle_tIME
                0x02014098                png_handle_sCAL
                0x0201425c                png_handle_pCAL
                0x0201451c                png_handle_oFFs
                0x020145fc                png_handle_pHYs
                0x020146dc                png_handle_hIST
                0x020147cc                png_handle_bKGD
                0x02014970                png_handle_tRNS
                0x02014b08                png_handle_sPLT
                0x02014d60                png_handle_iCCP
                0x02014f10                png_handle_sRGB
                0x02015000                png_handle_cHRM
                0x020154d4                png_handle_sBIT
                0x020155e0                png_handle_gAMA
                0x02015724                png_handle_PLTE
                0x02015884                png_handle_IHDR
                0x020159dc                png_read_chunk_header
 .text          0x02015a54      0x704 d:/devkitPro/libnds/lib\libpng.a(pngtrans.o)
                0x02015a54                png_set_bgr
                0x02015a68                png_set_swap
                0x02015a88                png_set_packing
                0x02015ab0                png_set_packswap
                0x02015ad0                png_set_shift
                0x02015b08                png_set_interlace_handling
                0x02015b38                png_set_filler
                0x02015ba0                png_set_add_alpha
                0x02015bc4                png_set_swap_alpha
                0x02015bd8                png_set_invert_alpha
                0x02015bec                png_set_invert_mono
                0x02015c00                png_do_invert
                0x02015cbc                png_do_swap
                0x02015d00                png_do_packswap
                0x02015d60                png_do_strip_filler
                0x02016014                png_do_bgr
                0x02016138                png_set_user_transform_info
                0x0201614c                png_get_user_transform_ptr
 .text          0x02016158     0x1438 d:/devkitPro/libnds/lib\libpng.a(pngset.o)
                0x02016158                png_set_cHRM
                0x02016360                png_set_gAMA
                0x020163f8                png_set_gAMA_fixed
                0x02016450                png_set_oFFs
                0x02016480                png_set_sCAL
                0x020164c4                png_set_pHYs
                0x020164f4                png_set_sRGB
                0x02016510                png_set_unknown_chunk_location
                0x02016548                png_permit_empty_plte
                0x02016564                png_permit_mng_features
                0x02016578                png_set_read_user_chunk_fn
                0x02016588                png_set_invalid
                0x020165a0                png_set_asm_flags
                0x020165b0                png_set_mmx_thresholds
                0x020165b4                png_set_user_limits
                0x020165c4                png_set_rows
                0x02016620                png_set_tRNS
                0x020166d8                png_set_tIME
                0x0201671c                png_set_sBIT
                0x02016754                png_set_bKGD
                0x0201678c                png_set_keep_unknown_chunks
                0x02016888                png_set_unknown_chunks
                0x02016994                png_set_hIST
                0x02016a48                png_set_sPLT
                0x02016b90                png_set_text_2
                0x02016d70                png_set_iCCP
                0x02016e58                png_set_text
                0x02016e78                png_set_IHDR
                0x02017084                png_set_cHRM_fixed
                0x02017200                png_set_sRGB_gAMA_and_cHRM
                0x02017374                png_set_PLTE
                0x02017434                png_set_pCAL
 .text          0x02017590      0x934 d:/devkitPro/libnds/lib\libz.a(crc32.o)
                0x02017590                get_crc_table
                0x0201759c                crc32
                0x02017ce0                crc32_combine
 .text          0x02017ec4     0x1e8c d:/devkitPro/libnds/lib\libz.a(inflate.o)
                0x02017ec4                inflateReset
                0x02017f40                inflatePrime
                0x02017f9c                inflateInit2_
                0x020180b8                inflateInit_
                0x020180c8                inflateEnd
                0x02018130                inflateGetHeader
                0x0201816c                inflateSync
                0x02018310                inflateSyncPoint
                0x0201834c                inflateCopy
                0x02018614                inflateSetDictionary
                0x0201870c                inflate
 .text          0x02019d50      0x590 d:/devkitPro/libnds/lib\libz.a(inftrees.o)
                0x02019d50                inflate_table
 .text          0x0201a2e0      0x570 d:/devkitPro/libnds/lib\libz.a(inffast.o)
                0x0201a2e0                inflate_fast
 .text          0x0201a850      0x3fc d:/devkitPro/libnds/lib\libz.a(adler32.o)
                0x0201a850                adler32
                0x0201ab90                adler32_combine
 .text          0x0201ac4c       0x60 d:/devkitPro/libnds/lib\libz.a(zutil.o)
                0x0201ac4c                zlibVersion
                0x0201ac58                zlibCompileFlags
                0x0201ac60                zError
                0x0201ac74                zcfree
                0x0201ac90                zcalloc
 .text          0x0201acac       0x94 d:/devkitPro/libnds/lib\libnds9.a(dynamicArray.o)
                0x0201acac                DynamicArrayInit
                0x0201acc4                DynamicArrayDelete
                0x0201acd8                DynamicArrayGet
                0x0201acf4                DynamicArraySet
 .text          0x0201ad40       0xf8 d:/devkitPro/libnds/lib\libnds9.a(keys.o)
                0x0201ad40                scanKeys
                0x0201adb0                keysHeld
                0x0201adbc                keysDown
                0x0201adcc                keysDownRepeat
                0x0201addc                keysSetRepeat
                0x0201adf4                keysUp
                0x0201ae04                keysCurrent
 .text          0x0201ae38       0xf4 d:/devkitPro/libnds/lib\libnds9.a(system.o)
                0x0201ae38                systemMsgHandler
                0x0201ae7c                systemSleep
                0x0201ae94                powerValueHandler
                0x0201aea4                powerOn
                0x0201aed0                powerOff
                0x0201aef8                ledBlink
                0x0201af0c                getBatteryLevel
 .text          0x0201af2c       0x4c d:/devkitPro/libnds/lib\libnds9.a(touch.o)
                0x0201af2c                touchRead
                0x0201af54                touchReadXY
 .text          0x0201af78      0x238 d:/devkitPro/libnds/lib\libnds9.a(trig.o)
                0x0201af78                asinComp
                0x0201af9c                sinLutLookup
                0x0201afd8                sinLerp
                0x0201b00c                cosLerp
                0x0201b024                tanLutLookup
                0x0201b05c                tanLerp
                0x0201b10c                asinLerp
                0x0201b174                acosLerp
                0x0201b18c                atanComp
 .text          0x0201b1b0     0x14b8 d:/devkitPro/libnds/lib\libnds9.a(videoGL.o)
                0x0201b1b0                glGetGlobals
                0x0201b1b8                glRotatef32i
                0x0201b494                glMaterialf
                0x0201b504                glTexCoord2f32
                0x0201b578                vramBlock_init
                0x0201b5e4                vramBlock_Construct
                0x0201b60c                vramBlock_terminate
                0x0201b638                vramBlock_Deconstruct
                0x0201b64c                vramBlock__allocateBlock
                0x0201b7ac                vramBlock__deallocateBlock
                0x0201b8c4                vramBlock_examineSpecial
                0x0201bb00                vramBlock_allocateSpecial
                0x0201bb6c                vramBlock_allocateBlock
                0x0201bba4                vramBlock_deallocateBlock
                0x0201bbe8                vramBlock_deallocateAll
                0x0201bbf8                vramBlock_getAddr
                0x0201bc0c                vramBlock_getSize
                0x0201bc20                glInit_C
                0x0201bdc0                glResetTextures
                0x0201be48                removePaletteFromTexture
                0x0201beb8                glGenTextures
                0x0201bf54                glDeleteTextures
                0x0201c02c                vramGetBank
                0x0201c0ec                glBindTexture
                0x0201c150                glColorTableEXT
                0x0201c2b8                glAssignColorTable
                0x0201c32c                glTexParameter
                0x0201c364                glGetTexturePointer
                0x0201c384                glGetTexParameter
                0x0201c3a4                glTexImage2D
 .text          0x0201c668      0x14c d:/devkitPro/libnds/lib\libnds9.a(initSystem.o)
                0x0201c668                initSystem
 .text          0x0201c7b4      0xc98 d:/devkitPro/libnds/lib\libnds9.a(fifosystem.o)
                0x0201ca24                fifoSendAddress
                0x0201ca50                fifoSendValue32
                0x0201ca90                fifoSendDatamsg
                0x0201cb08                fifoGetAddress
                0x0201cb78                fifoSetAddressHandler
                0x0201cbec                fifoGetValue32
                0x0201cc58                fifoSetValue32Handler
                0x0201cccc                fifoGetDatamsg
                0x0201d15c                fifoSetDatamsgHandler
                0x0201d1f4                fifoCheckAddress
                0x0201d218                fifoCheckDatamsg
                0x0201d23c                fifoCheckValue32
                0x0201d260                fifoInit
 .text          0x0201d44c      0x1cc d:/devkitPro/libnds/lib\libnds9.a(interrupts.o)
                0x0201d44c                irqDummy
                0x0201d450                irqSet
                0x0201d4bc                irqInit
                0x0201d508                irqInitHandler
                0x0201d538                irqEnable
                0x0201d598                irqDisable
                0x0201d5ec                irqClear
 .text          0x0201d618       0x40 d:/devkitPro/libnds/lib\libnds9.a(libnds_exit.o)
                0x0201d618                systemErrorExit
                0x0201d61c                __libnds_exit
 .text          0x0201d658      0x1b4 d:/devkitPro/libnds/lib\libnds9.a(mpu_setup.o)
                0x0201d658                __libnds_mpu_setup
                0x0201d798                memCached
                0x0201d7b0                memUncached
 *fill*         0x0201d80c        0x4 ff
 .text          0x0201d810       0x70 d:/devkitPro/libnds/lib\libnds9.a(biosCalls.o)
                0x0201d810                swiDelay
                0x0201d814                swiIntrWait
                0x0201d818                swiWaitForVBlank
                0x0201d81c                swiSleep
                0x0201d820                swiChangeSoundBias
                0x0201d824                swiDivide
                0x0201d828                swiRemainder
                0x0201d82e                swiDivMod
                0x0201d83a                swiCopy
                0x0201d83e                swiFastCopy
                0x0201d842                swiSqrt
                0x0201d846                swiCRC16
                0x0201d84a                swiIsDebugger
                0x0201d84e                swiUnpackBits
                0x0201d852                swiDecompressLZSSWram
                0x0201d856                swiDecompressLZSSVramNTR
                0x0201d85a                swiDecompressLZSSVramTWL
                0x0201d85e                swiDecompressHuffman
                0x0201d862                swiDecompressRLEWram
                0x0201d866                swiDecompressRLEVram
                0x0201d86a                swiWaitForIRQ
                0x0201d86e                swiDecodeDelta8
                0x0201d872                swiDecodeDelta16
                0x0201d876                swiSetHaltCR
 .text          0x0201d880        0x0 d:/devkitPro/libnds/lib\libnds9.a(interruptDispatcher.o)
 .text          0x0201d880       0x30 d:/devkitPro/libnds/lib\libnds9.a(swiSoftReset.o)
                0x0201d880                swiSoftReset
 .text          0x0201d8b0      0x148 d:/devkitPro/libnds/lib\libnds9.a(video.o)
                0x0201d8b0                vramSetPrimaryBanks
                0x0201d8f4                vramSetMainBanks
                0x0201d938                vramSetBanks_EFG
                0x0201d970                vramRestorePrimaryBanks
                0x0201d97c                vramRestoreMainBanks
                0x0201d988                vramRestoreBanks_EFG
                0x0201d994                setBrightness
                0x0201d9d4                vramDefault
 .text          0x0201d9f8        0x0 d:/devkitpro/devkitarm/bin/../lib/gcc/arm-eabi/4.5.1/../../../../arm-eabi/lib\libstdc++.a(new_op.o)
 .text          0x0201d9f8        0x0 d:/devkitpro/devkitarm/bin/../lib/gcc/arm-eabi/4.5.1/../../../../arm-eabi/lib\libstdc++.a(eh_alloc.o)
 .text          0x0201d9f8       0x10 d:/devkitpro/devkitarm/bin/../lib/gcc/arm-eabi/4.5.1/../../../../arm-eabi/lib\libstdc++.a(eh_arm.o)
                0x0201d9f8                __cxa_end_cleanup
 .text          0x0201da08        0x0 d:/devkitpro/devkitarm/bin/../lib/gcc/arm-eabi/4.5.1/../../../../arm-eabi/lib\libstdc++.a(eh_aux_runtime.o)
 .text          0x0201da08        0x0 d:/devkitpro/devkitarm/bin/../lib/gcc/arm-eabi/4.5.1/../../../../arm-eabi/lib\libstdc++.a(eh_call.o)
 .text          0x0201da08        0x0 d:/devkitpro/devkitarm/bin/../lib/gcc/arm-eabi/4.5.1/../../../../arm-eabi/lib\libstdc++.a(eh_catch.o)
 .text          0x0201da08        0x0 d:/devkitpro/devkitarm/bin/../lib/gcc/arm-eabi/4.5.1/../../../../arm-eabi/lib\libstdc++.a(eh_exception.o)
 .text          0x0201da08        0x0 d:/devkitpro/devkitarm/bin/../lib/gcc/arm-eabi/4.5.1/../../../../arm-eabi/lib\libstdc++.a(eh_globals.o)
 .text          0x0201da08        0x0 d:/devkitpro/devkitarm/bin/../lib/gcc/arm-eabi/4.5.1/../../../../arm-eabi/lib\libstdc++.a(eh_personality.o)
 .text          0x0201da08        0x0 d:/devkitpro/devkitarm/bin/../lib/gcc/arm-eabi/4.5.1/../../../../arm-eabi/lib\libstdc++.a(eh_terminate.o)
 .text          0x0201da08        0x0 d:/devkitpro/devkitarm/bin/../lib/gcc/arm-eabi/4.5.1/../../../../arm-eabi/lib\libstdc++.a(eh_term_handler.o)
 .text          0x0201da08        0x0 d:/devkitpro/devkitarm/bin/../lib/gcc/arm-eabi/4.5.1/../../../../arm-eabi/lib\libstdc++.a(eh_throw.o)
 .text          0x0201da08        0x0 d:/devkitpro/devkitarm/bin/../lib/gcc/arm-eabi/4.5.1/../../../../arm-eabi/lib\libstdc++.a(eh_unex_handler.o)
 .text          0x0201da08        0x0 d:/devkitpro/devkitarm/bin/../lib/gcc/arm-eabi/4.5.1/../../../../arm-eabi/lib\libstdc++.a(fundamental_type_info.o)
 .text          0x0201da08        0x0 d:/devkitpro/devkitarm/bin/../lib/gcc/arm-eabi/4.5.1/../../../../arm-eabi/lib\libstdc++.a(new_handler.o)
 .text          0x0201da08        0x0 d:/devkitpro/devkitarm/bin/../lib/gcc/arm-eabi/4.5.1/../../../../arm-eabi/lib\libstdc++.a(pointer_type_info.o)
 .text          0x0201da08        0x0 d:/devkitpro/devkitarm/bin/../lib/gcc/arm-eabi/4.5.1/../../../../arm-eabi/lib\libstdc++.a(pure.o)
 .text          0x0201da08        0x0 d:/devkitpro/devkitarm/bin/../lib/gcc/arm-eabi/4.5.1/../../../../arm-eabi/lib\libstdc++.a(si_class_type_info.o)
 .text          0x0201da08        0x0 d:/devkitpro/devkitarm/bin/../lib/gcc/arm-eabi/4.5.1/../../../../arm-eabi/lib\libstdc++.a(tinfo.o)
 .text          0x0201da08        0x0 d:/devkitpro/devkitarm/bin/../lib/gcc/arm-eabi/4.5.1/../../../../arm-eabi/lib\libstdc++.a(vterminate.o)
 .text          0x0201da08        0x0 d:/devkitpro/devkitarm/bin/../lib/gcc/arm-eabi/4.5.1/../../../../arm-eabi/lib\libstdc++.a(bad_cast.o)
 .text          0x0201da08        0x0 d:/devkitpro/devkitarm/bin/../lib/gcc/arm-eabi/4.5.1/../../../../arm-eabi/lib\libstdc++.a(bad_typeid.o)
 .text          0x0201da08        0x0 d:/devkitpro/devkitarm/bin/../lib/gcc/arm-eabi/4.5.1/../../../../arm-eabi/lib\libstdc++.a(class_type_info.o)
 .text          0x0201da08     0x7138 d:/devkitpro/devkitarm/bin/../lib/gcc/arm-eabi/4.5.1/../../../../arm-eabi/lib\libstdc++.a(cp-demangle.o)
                0x020249c8                __cxa_demangle
                0x02024b10                __gcclibcxx_demangle_callback
 .text          0x02024b40        0x0 d:/devkitpro/devkitarm/bin/../lib/gcc/arm-eabi/4.5.1/../../../../arm-eabi/lib\libstdc++.a(del_op.o)
 .text          0x02024b40        0x0 d:/devkitpro/devkitarm/bin/../lib/gcc/arm-eabi/4.5.1/../../../../arm-eabi/lib\libstdc++.a(eh_type.o)
 .text          0x02024b40        0x0 d:/devkitpro/devkitarm/bin/../lib/gcc/arm-eabi/4.5.1/../../../../arm-eabi/lib\libstdc++.a(pbase_type_info.o)
 .text          0x02024b40      0x104 d:/devkitpro/devkitarm/bin/../lib/gcc/arm-eabi/4.5.1/../../../../arm-eabi/lib\libm.a(lib_a-s_cos.o)
                0x02024b40                cos
 .text          0x02024c44      0x110 d:/devkitpro/devkitarm/bin/../lib/gcc/arm-eabi/4.5.1/../../../../arm-eabi/lib\libm.a(lib_a-s_sin.o)
                0x02024c44                sin
 .text          0x02024d54      0x520 d:/devkitpro/devkitarm/bin/../lib/gcc/arm-eabi/4.5.1/../../../../arm-eabi/lib\libm.a(lib_a-w_pow.o)
                0x02024d54                pow
 *fill*         0x02025274        0x4 ff
 .text          0x02025278      0xff8 d:/devkitpro/devkitarm/bin/../lib/gcc/arm-eabi/4.5.1/../../../../arm-eabi/lib\libm.a(lib_a-e_pow.o)
                0x02025278                __ieee754_pow
 .text          0x02026270      0x678 d:/devkitpro/devkitarm/bin/../lib/gcc/arm-eabi/4.5.1/../../../../arm-eabi/lib\libm.a(lib_a-e_rem_pio2.o)
                0x02026270                __ieee754_rem_pio2
 .text          0x020268e8      0x238 d:/devkitpro/devkitarm/bin/../lib/gcc/arm-eabi/4.5.1/../../../../arm-eabi/lib\libm.a(lib_a-e_sqrt.o)
                0x020268e8                __ieee754_sqrt
 .text          0x02026b20      0x358 d:/devkitpro/devkitarm/bin/../lib/gcc/arm-eabi/4.5.1/../../../../arm-eabi/lib\libm.a(lib_a-k_cos.o)
                0x02026b20                __kernel_cos
 .text          0x02026e78      0xb08 d:/devkitpro/devkitarm/bin/../lib/gcc/arm-eabi/4.5.1/../../../../arm-eabi/lib\libm.a(lib_a-k_rem_pio2.o)
                0x02026e78                __kernel_rem_pio2
 .text          0x02027980      0x218 d:/devkitpro/devkitarm/bin/../lib/gcc/arm-eabi/4.5.1/../../../../arm-eabi/lib\libm.a(lib_a-k_sin.o)
                0x02027980                __kernel_sin
 .text          0x02027b98       0x14 d:/devkitpro/devkitarm/bin/../lib/gcc/arm-eabi/4.5.1/../../../../arm-eabi/lib\libm.a(lib_a-s_fabs.o)
                0x02027b98                fabs
 .text          0x02027bac       0x14 d:/devkitpro/devkitarm/bin/../lib/gcc/arm-eabi/4.5.1/../../../../arm-eabi/lib\libm.a(lib_a-s_finite.o)
                0x02027bac                finite
 .text          0x02027bc0      0x198 d:/devkitpro/devkitarm/bin/../lib/gcc/arm-eabi/4.5.1/../../../../arm-eabi/lib\libm.a(lib_a-s_floor.o)
                0x02027bc0                floor
 .text          0x02027d58       0x8c d:/devkitpro/devkitarm/bin/../lib/gcc/arm-eabi/4.5.1/../../../../arm-eabi/lib\libm.a(lib_a-s_fpclassify.o)
                0x02027d58                __fpclassifyd
 .text          0x02027de4        0x0 d:/devkitpro/devkitarm/bin/../lib/gcc/arm-eabi/4.5.1/../../../../arm-eabi/lib\libm.a(lib_a-s_lib_ver.o)
 .text          0x02027de4        0x8 d:/devkitpro/devkitarm/bin/../lib/gcc/arm-eabi/4.5.1/../../../../arm-eabi/lib\libm.a(lib_a-s_matherr.o)
                0x02027de4                matherr
 .text          0x02027dec       0x10 d:/devkitpro/devkitarm/bin/../lib/gcc/arm-eabi/4.5.1/../../../../arm-eabi/lib\libm.a(lib_a-s_nan.o)
                0x02027dec                nan
 .text          0x02027dfc      0x19c d:/devkitpro/devkitarm/bin/../lib/gcc/arm-eabi/4.5.1/../../../../arm-eabi/lib\libm.a(lib_a-s_rint.o)
                0x02027dfc                rint
 .text          0x02027f98      0x1a8 d:/devkitpro/devkitarm/bin/../lib/gcc/arm-eabi/4.5.1/../../../../arm-eabi/lib\libm.a(lib_a-s_scalbn.o)
                0x02027f98                scalbn
 .text          0x02028140       0x24 d:/devkitpro/devkitarm/bin/../lib/gcc/arm-eabi/4.5.1/../../../../arm-eabi/lib\libm.a(lib_a-s_copysign.o)
                0x02028140                copysign
 .text          0x02028164      0x114 d:/devkitpro/devkitarm/bin/../lib/gcc/arm-eabi/4.5.1\libgcc.a(_udivsi3.o)
                0x02028164                __aeabi_uidiv
                0x02028164                __udivsi3
                0x02028258                __aeabi_uidivmod
 .text          0x02028278      0x148 d:/devkitpro/devkitarm/bin/../lib/gcc/arm-eabi/4.5.1\libgcc.a(_divsi3.o)
                0x02028278                __divsi3
                0x02028278                __aeabi_idiv
                0x020283a0                __aeabi_idivmod
 .text          0x020283c0        0x4 d:/devkitpro/devkitarm/bin/../lib/gcc/arm-eabi/4.5.1\libgcc.a(_dvmd_tls.o)
                0x020283c0                __aeabi_idiv0
                0x020283c0                __aeabi_ldiv0
 .text          0x020283c4      0x41c d:/devkitpro/devkitarm/bin/../lib/gcc/arm-eabi/4.5.1\libgcc.a(_arm_addsubdf3.o)
                0x020283c4                __aeabi_drsub
                0x020283cc                __aeabi_dsub
                0x020283cc                __subdf3
                0x020283d0                __aeabi_dadd
                0x020283d0                __adddf3
                0x020286e0                __floatunsidf
                0x020286e0                __aeabi_ui2d
                0x02028704                __floatsidf
                0x02028704                __aeabi_i2d
                0x0202872c                __aeabi_f2d
                0x0202872c                __extendsfdf2
                0x0202876c                __floatundidf
                0x0202876c                __aeabi_ul2d
                0x02028780                __floatdidf
                0x02028780                __aeabi_l2d
 .text          0x020287e0      0x49c d:/devkitpro/devkitarm/bin/../lib/gcc/arm-eabi/4.5.1\libgcc.a(_arm_muldivdf3.o)
                0x020287e0                __aeabi_dmul
                0x020287e0                __muldf3
                0x02028a70                __divdf3
                0x02028a70                __aeabi_ddiv
 .text          0x02028c7c      0x144 d:/devkitpro/devkitarm/bin/../lib/gcc/arm-eabi/4.5.1\libgcc.a(_arm_cmpdf2.o)
                0x02028c7c                __gtdf2
                0x02028c7c                __gedf2
                0x02028c84                __ltdf2
                0x02028c84                __ledf2
                0x02028c8c                __nedf2
                0x02028c8c                __eqdf2
                0x02028c8c                __cmpdf2
                0x02028d14                __aeabi_cdrcmple
                0x02028d30                __aeabi_cdcmpeq
                0x02028d30                __aeabi_cdcmple
                0x02028d48                __aeabi_dcmpeq
                0x02028d60                __aeabi_dcmplt
                0x02028d78                __aeabi_dcmple
                0x02028d90                __aeabi_dcmpge
                0x02028da8                __aeabi_dcmpgt
 .text          0x02028dc0       0x5c d:/devkitpro/devkitarm/bin/../lib/gcc/arm-eabi/4.5.1\libgcc.a(_arm_fixdfsi.o)
                0x02028dc0                __aeabi_d2iz
                0x02028dc0                __fixdfsi
 .text          0x02028e1c       0x54 d:/devkitpro/devkitarm/bin/../lib/gcc/arm-eabi/4.5.1\libgcc.a(_arm_fixunsdfsi.o)
                0x02028e1c                __aeabi_d2uiz
                0x02028e1c                __fixunsdfsi
 .text          0x02028e70       0xa0 d:/devkitpro/devkitarm/bin/../lib/gcc/arm-eabi/4.5.1\libgcc.a(_arm_truncdfsf2.o)
                0x02028e70                __truncdfsf2
                0x02028e70                __aeabi_d2f
 .text          0x02028f10      0x2ac d:/devkitpro/devkitarm/bin/../lib/gcc/arm-eabi/4.5.1\libgcc.a(_arm_addsubsf3.o)
                0x02028f10                __aeabi_frsub
                0x02028f18                __subsf3
                0x02028f18                __aeabi_fsub
                0x02028f1c                __aeabi_fadd
                0x02028f1c                __addsf3
                0x020290d8                __aeabi_ui2f
                0x020290d8                __floatunsisf
                0x020290e0                __aeabi_i2f
                0x020290e0                __floatsisf
                0x02029100                __aeabi_ul2f
                0x02029100                __floatundisf
                0x02029110                __aeabi_l2f
                0x02029110                __floatdisf
 .text          0x020291bc      0x2f8 d:/devkitpro/devkitarm/bin/../lib/gcc/arm-eabi/4.5.1\libgcc.a(_arm_muldivsf3.o)
                0x020291bc                __mulsf3
                0x020291bc                __aeabi_fmul
                0x02029354                __aeabi_fdiv
                0x02029354                __divsf3
 .text          0x020294b4      0x114 d:/devkitpro/devkitarm/bin/../lib/gcc/arm-eabi/4.5.1\libgcc.a(_arm_cmpsf2.o)
                0x020294b4                __gesf2
                0x020294b4                __gtsf2
                0x020294bc                __lesf2
                0x020294bc                __ltsf2
                0x020294c4                __nesf2
                0x020294c4                __eqsf2
                0x020294c4                __cmpsf2
                0x02029528                __aeabi_cfrcmple
                0x02029538                __aeabi_cfcmpeq
                0x02029538                __aeabi_cfcmple
                0x02029550                __aeabi_fcmpeq
                0x02029568                __aeabi_fcmplt
                0x02029580                __aeabi_fcmple
                0x02029598                __aeabi_fcmpge
                0x020295b0                __aeabi_fcmpgt
 .text          0x020295c8       0x5c d:/devkitpro/devkitarm/bin/../lib/gcc/arm-eabi/4.5.1\libgcc.a(_arm_fixsfsi.o)
                0x020295c8                __aeabi_f2iz
                0x020295c8                __fixsfsi
 .text          0x02029624       0x54 d:/devkitpro/devkitarm/bin/../lib/gcc/arm-eabi/4.5.1\libgcc.a(_arm_fixunssfsi.o)
                0x02029624                __fixunssfsi
                0x02029624                __aeabi_f2uiz
 .text          0x02029678       0x48 d:/devkitpro/devkitarm/bin/../lib/gcc/arm-eabi/4.5.1\libgcc.a(_muldi3.o)
                0x02029678                __muldi3
                0x02029678                __aeabi_lmul
 .text          0x020296c0      0xf3c d:/devkitpro/devkitarm/bin/../lib/gcc/arm-eabi/4.5.1\libgcc.a(unwind-arm.o)
                0x02029af8                _Unwind_VRS_Get
                0x02029b6c                _Unwind_VRS_Set
                0x02029fd8                __aeabi_unwind_cpp_pr2
                0x02029fe0                __aeabi_unwind_cpp_pr1
                0x02029fe8                __aeabi_unwind_cpp_pr0
                0x02029ff0                _Unwind_VRS_Pop
                0x0202a38c                _Unwind_GetCFA
                0x0202a394                __gnu_Unwind_RaiseException
                0x0202a448                __gnu_Unwind_ForcedUnwind
                0x0202a46c                __gnu_Unwind_Resume
                0x0202a4d8                __gnu_Unwind_Resume_or_Rethrow
                0x0202a4f8                _Unwind_Complete
                0x0202a4fc                _Unwind_DeleteException
                0x0202a520                __gnu_Unwind_Backtrace
 .text          0x0202a5fc      0x1b0 d:/devkitpro/devkitarm/bin/../lib/gcc/arm-eabi/4.5.1\libgcc.a(libunwind.o)
                0x0202a5fc                __restore_core_regs
                0x0202a5fc                restore_core_regs
                0x0202a618                __gnu_Unwind_Restore_VFP
                0x0202a620                __gnu_Unwind_Save_VFP
                0x0202a628                __gnu_Unwind_Restore_VFP_D
                0x0202a630                __gnu_Unwind_Save_VFP_D
                0x0202a638                __gnu_Unwind_Restore_VFP_D_16_to_31
                0x0202a640                __gnu_Unwind_Save_VFP_D_16_to_31
                0x0202a648                __gnu_Unwind_Restore_WMMXD
                0x0202a68c                __gnu_Unwind_Save_WMMXD
                0x0202a6d0                __gnu_Unwind_Restore_WMMXC
                0x0202a6e4                __gnu_Unwind_Save_WMMXC
                0x0202a6f8                ___Unwind_RaiseException
                0x0202a6f8                _Unwind_RaiseException
                0x0202a71c                _Unwind_Resume
                0x0202a71c                ___Unwind_Resume
                0x0202a740                _Unwind_Resume_or_Rethrow
                0x0202a740                ___Unwind_Resume_or_Rethrow
                0x0202a764                _Unwind_ForcedUnwind
                0x0202a764                ___Unwind_ForcedUnwind
                0x0202a788                ___Unwind_Backtrace
                0x0202a788                _Unwind_Backtrace
 .text          0x0202a7ac      0x554 d:/devkitpro/devkitarm/bin/../lib/gcc/arm-eabi/4.5.1\libgcc.a(pr-support.o)
                0x0202a84c                __gnu_unwind_execute
                0x0202ac74                __gnu_unwind_frame
                0x0202acbc                _Unwind_GetRegionStart
                0x0202acd0                _Unwind_GetLanguageSpecificData
                0x0202acf0                _Unwind_GetDataRelBase
                0x0202acf8                _Unwind_GetTextRelBase
 .text          0x0202ad00       0x14 d:/devkitpro/devkitarm/bin/../lib/gcc/arm-eabi/4.5.1/../../../../arm-eabi/lib\libg.a(lib_a-abort.o)
                0x0202ad00                abort
 .text          0x0202ad14       0x7c d:/devkitpro/devkitarm/bin/../lib/gcc/arm-eabi/4.5.1/../../../../arm-eabi/lib\libg.a(lib_a-bsearch.o)
                0x0202ad14                bsearch
 .text          0x0202ad90       0x28 d:/devkitpro/devkitarm/bin/../lib/gcc/arm-eabi/4.5.1/../../../../arm-eabi/lib\libg.a(lib_a-calloc.o)
                0x0202ad90                calloc
 .text          0x0202adb8       0x9c d:/devkitpro/devkitarm/bin/../lib/gcc/arm-eabi/4.5.1/../../../../arm-eabi/lib\libg.a(lib_a-callocr.o)
                0x0202adb8                _calloc_r
 .text          0x0202ae54       0x10 d:/devkitpro/devkitarm/bin/../lib/gcc/arm-eabi/4.5.1/../../../../arm-eabi/lib\libg.a(lib_a-errno.o)
                0x0202ae54                __errno
 .text          0x0202ae64      0x10c d:/devkitpro/devkitarm/bin/../lib/gcc/arm-eabi/4.5.1/../../../../arm-eabi/lib\libg.a(lib_a-fclose.o)
                0x0202ae64                _fclose_r
                0x0202af5c                fclose
 .text          0x0202af70      0x298 d:/devkitpro/devkitarm/bin/../lib/gcc/arm-eabi/4.5.1/../../../../arm-eabi/lib\libg.a(lib_a-fflush.o)
                0x0202af70                _fflush_r
                0x0202b1c8                fflush
 .text          0x0202b208      0x334 d:/devkitpro/devkitarm/bin/../lib/gcc/arm-eabi/4.5.1/../../../../arm-eabi/lib\libg.a(lib_a-findfp.o)
                0x0202b218                _cleanup_r
                0x0202b230                __sfmoreglue
                0x0202b278                _cleanup
                0x0202b288                __sinit
                0x0202b3f0                __sfp
                0x0202b4e4                __sfp_lock_acquire
                0x0202b4e8                __sfp_lock_release
                0x0202b4ec                __sinit_lock_acquire
                0x0202b4f0                __sinit_lock_release
                0x0202b4f4                __fp_lock_all
                0x0202b518                __fp_unlock_all
 .text          0x0202b53c       0x70 d:/devkitpro/devkitarm/bin/../lib/gcc/arm-eabi/4.5.1/../../../../arm-eabi/lib\libg.a(lib_a-fprintf.o)
                0x0202b53c                _fprintf_r
                0x0202b56c                fprintf
 .text          0x0202b5ac       0x94 d:/devkitpro/devkitarm/bin/../lib/gcc/arm-eabi/4.5.1/../../../../arm-eabi/lib\libg.a(lib_a-fputc.o)
                0x0202b5ac                _fputc_r
                0x0202b5f0                fputc
 .text          0x0202b640       0xa8 d:/devkitpro/devkitarm/bin/../lib/gcc/arm-eabi/4.5.1/../../../../arm-eabi/lib\libg.a(lib_a-fputs.o)
                0x0202b640                _fputs_r
                0x0202b6cc                fputs
 .text          0x0202b6e8      0x270 d:/devkitpro/devkitarm/bin/../lib/gcc/arm-eabi/4.5.1/../../../../arm-eabi/lib\libg.a(lib_a-fread.o)
                0x0202b6e8                _fread_r
                0x0202b914                fread
 .text          0x0202b958      0x360 d:/devkitpro/devkitarm/bin/../lib/gcc/arm-eabi/4.5.1/../../../../arm-eabi/lib\libg.a(lib_a-freer.o)
                0x0202b958                _malloc_trim_r
                0x0202ba54                _free_r
 .text          0x0202bcb8      0x4ac d:/devkitpro/devkitarm/bin/../lib/gcc/arm-eabi/4.5.1/../../../../arm-eabi/lib\libg.a(lib_a-fvwrite.o)
                0x0202bcb8                __sfvwrite_r
 .text          0x0202c164      0x10c d:/devkitpro/devkitarm/bin/../lib/gcc/arm-eabi/4.5.1/../../../../arm-eabi/lib\libg.a(lib_a-fwalk.o)
                0x0202c164                _fwalk
                0x0202c1e8                _fwalk_reent
 .text          0x0202c270       0xec d:/devkitpro/devkitarm/bin/../lib/gcc/arm-eabi/4.5.1/../../../../arm-eabi/lib\libg.a(lib_a-fwrite.o)
                0x0202c270                _fwrite_r
                0x0202c318                fwrite
 .text          0x0202c35c        0x0 d:/devkitpro/devkitarm/bin/../lib/gcc/arm-eabi/4.5.1/../../../../arm-eabi/lib\libg.a(lib_a-impure.o)
 .text          0x0202c35c       0xc4 d:/devkitpro/devkitarm/bin/../lib/gcc/arm-eabi/4.5.1/../../../../arm-eabi/lib\libg.a(lib_a-init.o)
                0x0202c35c                __libc_init_array
                0x0202c3dc                __libc_fini_array
 .text          0x0202c420       0x40 d:/devkitpro/devkitarm/bin/../lib/gcc/arm-eabi/4.5.1/../../../../arm-eabi/lib\libg.a(lib_a-malloc.o)
                0x0202c420                malloc
                0x0202c440                free
 .text          0x0202c460      0x710 d:/devkitpro/devkitarm/bin/../lib/gcc/arm-eabi/4.5.1/../../../../arm-eabi/lib\libg.a(lib_a-mallocr.o)
                0x0202c460                _malloc_r
 .text          0x0202cb70      0x108 d:/devkitpro/devkitarm/bin/../lib/gcc/arm-eabi/4.5.1/../../../../arm-eabi/lib\libg.a(lib_a-memchr.o)
                0x0202cb70                memchr
 .text          0x0202cc78       0xa8 d:/devkitpro/devkitarm/bin/../lib/gcc/arm-eabi/4.5.1/../../../../arm-eabi/lib\libg.a(lib_a-memcmp.o)
                0x0202cc78                memcmp
 .text          0x0202cd20       0xf8 d:/devkitpro/devkitarm/bin/../lib/gcc/arm-eabi/4.5.1/../../../../arm-eabi/lib\libg.a(lib_a-memcpy.o)
                0x0202cd20                memcpy
 .text          0x0202ce18      0x138 d:/devkitpro/devkitarm/bin/../lib/gcc/arm-eabi/4.5.1/../../../../arm-eabi/lib\libg.a(lib_a-memmove.o)
                0x0202ce18                memmove
 .text          0x0202cf50      0x100 d:/devkitpro/devkitarm/bin/../lib/gcc/arm-eabi/4.5.1/../../../../arm-eabi/lib\libg.a(lib_a-memset.o)
                0x0202cf50                memset
 .text          0x0202d050        0x8 d:/devkitpro/devkitarm/bin/../lib/gcc/arm-eabi/4.5.1/../../../../arm-eabi/lib\libg.a(lib_a-mlock.o)
                0x0202d050                __malloc_lock
                0x0202d054                __malloc_unlock
 .text          0x0202d058      0x168 d:/devkitpro/devkitarm/bin/../lib/gcc/arm-eabi/4.5.1/../../../../arm-eabi/lib\libg.a(lib_a-putc.o)
                0x0202d058                _putc_r
                0x0202d104                putc
 .text          0x0202d1c0       0x78 d:/devkitpro/devkitarm/bin/../lib/gcc/arm-eabi/4.5.1/../../../../arm-eabi/lib\libg.a(lib_a-rand.o)
                0x0202d1c0                srand
                0x0202d1dc                rand
 .text          0x0202d238       0x28 d:/devkitpro/devkitarm/bin/../lib/gcc/arm-eabi/4.5.1/../../../../arm-eabi/lib\libg.a(lib_a-realloc.o)
                0x0202d238                realloc
 .text          0x0202d260      0x5c0 d:/devkitpro/devkitarm/bin/../lib/gcc/arm-eabi/4.5.1/../../../../arm-eabi/lib\libg.a(lib_a-reallocr.o)
                0x0202d260                _realloc_r
 .text          0x0202d820      0x1d0 d:/devkitpro/devkitarm/bin/../lib/gcc/arm-eabi/4.5.1/../../../../arm-eabi/lib\libg.a(lib_a-refill.o)
                0x0202d848                __srefill_r
 .text          0x0202d9f0       0x2c d:/devkitpro/devkitarm/bin/../lib/gcc/arm-eabi/4.5.1/../../../../arm-eabi/lib\libg.a(lib_a-setjmp.o)
                0x0202d9f0                setjmp
                0x0202da04                longjmp
 .text          0x0202da1c      0x238 d:/devkitpro/devkitarm/bin/../lib/gcc/arm-eabi/4.5.1/../../../../arm-eabi/lib\libg.a(lib_a-signal.o)
                0x0202da1c                _init_signal_r
                0x0202da70                _signal_r
                0x0202dad8                _raise_r
                0x0202db6c                __sigtramp_r
                0x0202dc00                raise
                0x0202dc14                signal
                0x0202dc30                _init_signal
                0x0202dc40                __sigtramp
 .text          0x0202dc54      0x130 d:/devkitpro/devkitarm/bin/../lib/gcc/arm-eabi/4.5.1/../../../../arm-eabi/lib\libg.a(lib_a-snprintf.o)
                0x0202dc54                _snprintf_r
                0x0202dce8                snprintf
 .text          0x0202dd84       0xdc d:/devkitpro/devkitarm/bin/../lib/gcc/arm-eabi/4.5.1/../../../../arm-eabi/lib\libg.a(lib_a-sprintf.o)
                0x0202dd84                _sprintf_r
                0x0202ddec                sprintf
 .text          0x0202de60       0xe0 d:/devkitpro/devkitarm/bin/../lib/gcc/arm-eabi/4.5.1/../../../../arm-eabi/lib\libg.a(lib_a-stdio.o)
                0x0202de60                __sread
                0x0202de94                __seofread
                0x0202de9c                __swrite
                0x0202def4                __sseek
                0x0202df2c                __sclose
 .text          0x0202df40      0x230 d:/devkitpro/devkitarm/bin/../lib/gcc/arm-eabi/4.5.1/../../../../arm-eabi/lib\libg.a(lib_a-strcmp.o)
                0x0202df40                strcmp
 .text          0x0202e170       0xf0 d:/devkitpro/devkitarm/bin/../lib/gcc/arm-eabi/4.5.1/../../../../arm-eabi/lib\libg.a(lib_a-strcpy.o)
                0x0202e170                strcpy
 .text          0x0202e260       0x60 d:/devkitpro/devkitarm/bin/../lib/gcc/arm-eabi/4.5.1/../../../../arm-eabi/lib\libg.a(lib_a-strlen.o)
                0x0202e260                strlen
 .text          0x0202e2c0      0x170 d:/devkitpro/devkitarm/bin/../lib/gcc/arm-eabi/4.5.1/../../../../arm-eabi/lib\libg.a(lib_a-strncmp.o)
                0x0202e2c0                strncmp
 .text          0x0202e430     0x16a0 d:/devkitpro/devkitarm/bin/../lib/gcc/arm-eabi/4.5.1/../../../../arm-eabi/lib\libg.a(lib_a-strtod.o)
                0x0202e478                _strtod_r
                0x0202fa64                strtod
                0x0202fa80                strtof
 .text          0x0202fad0     0x233c d:/devkitpro/devkitarm/bin/../lib/gcc/arm-eabi/4.5.1/../../../../arm-eabi/lib\libg.a(lib_a-svfprintf.o)
                0x0202fad0                _svfprintf_r
 .text          0x02031e0c       0x30 d:/devkitpro/devkitarm/bin/../lib/gcc/arm-eabi/4.5.1/../../../../arm-eabi/lib\libg.a(lib_a-syswrite.o)
                0x02031e0c                write
 .text          0x02031e3c     0x2588 d:/devkitpro/devkitarm/bin/../lib/gcc/arm-eabi/4.5.1/../../../../arm-eabi/lib\libg.a(lib_a-vfprintf.o)
                0x02031e3c                _vfprintf_r
                0x02034398                vfprintf
 .text          0x020343c4      0x15c d:/devkitpro/devkitarm/bin/../lib/gcc/arm-eabi/4.5.1/../../../../arm-eabi/lib\libg.a(lib_a-wbuf.o)
                0x020343c4                __swbuf_r
                0x02034504                __swbuf
 .text          0x02034520      0x14c d:/devkitpro/devkitarm/bin/../lib/gcc/arm-eabi/4.5.1/../../../../arm-eabi/lib\libg.a(lib_a-wcrtomb.o)
                0x02034520                _wcrtomb_r
                0x020345bc                wcrtomb
 .text          0x0203466c       0x68 d:/devkitpro/devkitarm/bin/../lib/gcc/arm-eabi/4.5.1/../../../../arm-eabi/lib\libg.a(lib_a-wcsrtombs.o)
                0x0203466c                _wcsrtombs_r
                0x02034694                wcsrtombs
 .text          0x020346d4      0x3a8 d:/devkitpro/devkitarm/bin/../lib/gcc/arm-eabi/4.5.1/../../../../arm-eabi/lib\libg.a(lib_a-wctomb_r.o)
                0x020346d4                __utf8_wctomb
                0x020347f0                _wctomb_r
                0x02034840                __ascii_wctomb
                0x0203486c                __sjis_wctomb
                0x020348ec                __eucjp_wctomb
                0x020349a4                __jis_wctomb
 .text          0x02034a7c      0x134 d:/devkitpro/devkitarm/bin/../lib/gcc/arm-eabi/4.5.1/../../../../arm-eabi/lib\libg.a(lib_a-wsetup.o)
                0x02034a7c                __swsetup_r
 .text          0x02034bb0     0x1810 d:/devkitpro/devkitarm/bin/../lib/gcc/arm-eabi/4.5.1/../../../../arm-eabi/lib\libg.a(lib_a-dtoa.o)
                0x02034d80                _dtoa_r
 .text          0x020363c0      0x9b4 d:/devkitpro/devkitarm/bin/../lib/gcc/arm-eabi/4.5.1/../../../../arm-eabi/lib\libg.a(lib_a-gdtoa-gethex.o)
                0x0203649c                __hexdig_init
                0x02036520                __gethex
 .text          0x02036d74      0x2bc d:/devkitpro/devkitarm/bin/../lib/gcc/arm-eabi/4.5.1/../../../../arm-eabi/lib\libg.a(lib_a-gdtoa-hexnan.o)
                0x02036d74                __hexnan
 .text          0x02037030      0xbb0 d:/devkitpro/devkitarm/bin/../lib/gcc/arm-eabi/4.5.1/../../../../arm-eabi/lib\libg.a(lib_a-locale.o)
                0x02037848                _setlocale_r
                0x02037b84                __locale_charset
                0x02037b90                __locale_msgcharset
                0x02037b9c                __locale_cjk_lang
                0x02037bac                _localeconv_r
                0x02037bb8                setlocale
                0x02037bd4                localeconv
 .text          0x02037be0      0x164 d:/devkitpro/devkitarm/bin/../lib/gcc/arm-eabi/4.5.1/../../../../arm-eabi/lib\libg.a(lib_a-makebuf.o)
                0x02037be0                __smakebuf_r
 .text          0x02037d44      0x720 d:/devkitpro/devkitarm/bin/../lib/gcc/arm-eabi/4.5.1/../../../../arm-eabi/lib\libg.a(lib_a-mbtowc_r.o)
                0x02037d44                __utf8_mbtowc
                0x02038048                _mbtowc_r
                0x0203809c                __ascii_mbtowc
                0x020380e0                __sjis_mbtowc
                0x020381b4                __eucjp_mbtowc
                0x020382e0                __jis_mbtowc
 .text          0x02038464      0xd3c d:/devkitpro/devkitarm/bin/../lib/gcc/arm-eabi/4.5.1/../../../../arm-eabi/lib\libg.a(lib_a-mprec.o)
                0x02038464                _Balloc
                0x020384ec                _Bfree
                0x02038508                __multadd
                0x020385e4                __s2b
                0x020386d4                __hi0bits
                0x02038724                __lo0bits
                0x020387b4                __i2b
                0x020387d8                __multiply
                0x020389c8                __pow5mult
                0x02038ac0                __lshift
                0x02038bc4                __mcmp
                0x02038c24                __mdiff
                0x02038d7c                __ulp
                0x02038ddc                __b2d
                0x02038ea4                __d2b
                0x02038fb0                __ratio
                0x02039050                _mprec_log10
                0x020390a4                __copybits
                0x02039118                __any_on
 .text          0x020391a0        0xc d:/devkitpro/devkitarm/bin/../lib/gcc/arm-eabi/4.5.1/../../../../arm-eabi/lib\libg.a(lib_a-sf_nan.o)
                0x020391a0                nanf
 .text          0x020391ac       0x64 d:/devkitpro/devkitarm/bin/../lib/gcc/arm-eabi/4.5.1/../../../../arm-eabi/lib\libg.a(lib_a-strcasecmp.o)
                0x020391ac                strcasecmp
 .text          0x02039210       0xb0 d:/devkitpro/devkitarm/bin/../lib/gcc/arm-eabi/4.5.1/../../../../arm-eabi/lib\libg.a(lib_a-strcat.o)
                0x02039210                strcat
 .text          0x020392c0      0x23c d:/devkitpro/devkitarm/bin/../lib/gcc/arm-eabi/4.5.1/../../../../arm-eabi/lib\libg.a(lib_a-strchr.o)
                0x020392c0                strchr
 .text          0x020394fc       0x7c d:/devkitpro/devkitarm/bin/../lib/gcc/arm-eabi/4.5.1/../../../../arm-eabi/lib\libg.a(lib_a-strlcpy.o)
                0x020394fc                strlcpy
 .text          0x02039578       0x7c d:/devkitpro/devkitarm/bin/../lib/gcc/arm-eabi/4.5.1/../../../../arm-eabi/lib\libg.a(lib_a-strncasecmp.o)
                0x02039578                strncasecmp
 .text          0x020395f4       0xec d:/devkitpro/devkitarm/bin/../lib/gcc/arm-eabi/4.5.1/../../../../arm-eabi/lib\libg.a(lib_a-strncpy.o)
                0x020395f4                strncpy
 .text          0x020396e0      0x1f4 d:/devkitpro/devkitarm/bin/../lib/gcc/arm-eabi/4.5.1/../../../../arm-eabi/lib\libg.a(lib_a-strtol.o)
                0x020396e0                _strtol_r
                0x020398a8                strtol
 .text          0x020398d4     0x16b4 d:/devkitpro/devkitarm/bin/../lib/gcc/arm-eabi/4.5.1/../../../../arm-eabi/lib\libg.a(lib_a-svfiprintf.o)
                0x020398d4                __ssprint_r
                0x02039a68                _svfiprintf_r
 .text          0x0203af88     0x16dc d:/devkitpro/devkitarm/bin/../lib/gcc/arm-eabi/4.5.1/../../../../arm-eabi/lib\libg.a(lib_a-vfiprintf.o)
                0x0203af88                __sprint_r
                0x0203b048                _vfiprintf_r
                0x0203c638                vfiprintf
 .text          0x0203c664      0x1dc d:/devkitpro/devkitarm/bin/../lib/gcc/arm-eabi/4.5.1/../../../../arm-eabi/lib\libg.a(lib_a-wcsnrtombs.o)
                0x0203c664                _wcsnrtombs_r
                0x0203c7f4                wcsnrtombs
 .text          0x0203c840       0x18 d:/devkitpro/devkitarm/bin/../lib/gcc/arm-eabi/4.5.1/../../../../arm-eabi/lib\libg.a(lib_a-ctype_.o)
                0x0203c840                __set_ctype
 .text          0x0203c858      0x1c0 d:/devkitpro/devkitarm/bin/../lib/gcc/arm-eabi/4.5.1/../../../../arm-eabi/lib\libg.a(lib_a-fputwc.o)
                0x0203c858                _fputwc_r
                0x0203c9cc                fputwc
 .text          0x0203ca18      0x100 d:/devkitpro/devkitarm/bin/../lib/gcc/arm-eabi/4.5.1/../../../../arm-eabi/lib\libg.a(lib_a-getenv_r.o)
                0x0203ca18                _findenv_r
                0x0203cafc                _getenv_r
 .text          0x0203cb18        0x0 d:/devkitpro/devkitarm/bin/../lib/gcc/arm-eabi/4.5.1/../../../../arm-eabi/lib\libg.a(lib_a-environ.o)
 .text          0x0203cb18        0x8 d:/devkitpro/devkitarm/bin/../lib/gcc/arm-eabi/4.5.1/../../../../arm-eabi/lib\libg.a(lib_a-envlock.o)
                0x0203cb18                __env_lock
                0x0203cb1c                __env_unlock
 .text          0x0203cb20       0x78 d:/devkitpro/devkitarm/bin/../lib/gcc/arm-eabi/4.5.1/../../../../arm-eabi/lib\libsysbase.a(close.o)
                0x0203cb20                _close_r
 .text          0x0203cb98       0x88 d:/devkitpro/devkitarm/bin/../lib/gcc/arm-eabi/4.5.1/../../../../arm-eabi/lib\libsysbase.a(fstat.o)
                0x0203cb98                _fstat_r
 .text          0x0203cc20       0x10 d:/devkitpro/devkitarm/bin/../lib/gcc/arm-eabi/4.5.1/../../../../arm-eabi/lib\libsysbase.a(getpid.o)
                0x0203cc20                _getpid_r
 .text          0x0203cc30        0x8 d:/devkitpro/devkitarm/bin/../lib/gcc/arm-eabi/4.5.1/../../../../arm-eabi/lib\libsysbase.a(isatty.o)
                0x0203cc30                _isatty_r
 .text          0x0203cc38       0x10 d:/devkitpro/devkitarm/bin/../lib/gcc/arm-eabi/4.5.1/../../../../arm-eabi/lib\libsysbase.a(kill.o)
                0x0203cc38                _kill_r
 .text          0x0203cc48       0x8c d:/devkitpro/devkitarm/bin/../lib/gcc/arm-eabi/4.5.1/../../../../arm-eabi/lib\libsysbase.a(lseek.o)
                0x0203cc48                _lseek_r
 .text          0x0203ccd4       0x8c d:/devkitpro/devkitarm/bin/../lib/gcc/arm-eabi/4.5.1/../../../../arm-eabi/lib\libsysbase.a(read.o)
                0x0203ccd4                _read_r
 .text          0x0203cd60       0x78 d:/devkitpro/devkitarm/bin/../lib/gcc/arm-eabi/4.5.1/../../../../arm-eabi/lib\libsysbase.a(sbrk.o)
                0x0203cd60                _sbrk_r
 .text          0x0203cdd8       0x68 d:/devkitpro/devkitarm/bin/../lib/gcc/arm-eabi/4.5.1/../../../../arm-eabi/lib\libsysbase.a(times.o)
                0x0203cdd8                _times
                0x0203cdf4                _times_r
                0x0203cdfc                _gettimeofday_r
 .text          0x0203ce40       0x8c d:/devkitpro/devkitarm/bin/../lib/gcc/arm-eabi/4.5.1/../../../../arm-eabi/lib\libsysbase.a(write.o)
                0x0203ce40                _write_r
 .text          0x0203cecc       0x20 d:/devkitpro/devkitarm/bin/../lib/gcc/arm-eabi/4.5.1/../../../../arm-eabi/lib\libsysbase.a(_exit.o)
                0x0203cecc                _exit
 .text          0x0203ceec        0x0 d:/devkitpro/devkitarm/bin/../lib/gcc/arm-eabi/4.5.1/../../../../arm-eabi/lib\libsysbase.a(malloc_vars.o)
 .text          0x0203ceec       0x84 d:/devkitpro/devkitarm/bin/../lib/gcc/arm-eabi/4.5.1/../../../../arm-eabi/lib\libsysbase.a(build_argv.o)
                0x0203ceec                build_argv
 .text          0x0203cf70        0x0 d:/devkitpro/devkitarm/bin/../lib/gcc/arm-eabi/4.5.1/../../../../arm-eabi/lib\libsysbase.a(syscall_support.o)
 .text          0x0203cf70       0xac d:/devkitpro/devkitarm/bin/../lib/gcc/arm-eabi/4.5.1/../../../../arm-eabi/lib\libsysbase.a(handle_manager.o)
                0x0203cf70                __release_handle
                0x0203cfa8                __alloc_handle
                0x0203d000                __get_handle
 .text          0x0203d01c      0x1b4 d:/devkitpro/devkitarm/bin/../lib/gcc/arm-eabi/4.5.1/../../../../arm-eabi/lib\libsysbase.a(iosupport.o)
                0x0203d01c                setDefaultDevice
                0x0203d034                FindDevice
                0x0203d0e0                RemoveDevice
                0x0203d110                AddDevice
                0x0203d1a8                GetDeviceOpTab
 .text          0x0203d1d0       0x3c d:/devkitpro/devkitarm/bin/../lib/gcc/arm-eabi/4.5.1\libgcc.a(_aeabi_uldivmod.o)
                0x0203d1d0                __aeabi_uldivmod
 .text          0x0203d20c       0x80 d:/devkitpro/devkitarm/bin/../lib/gcc/arm-eabi/4.5.1\libgcc.a(bpabi.o)
                0x0203d20c                __gnu_ldivmod_helper
                0x0203d24c                __gnu_uldivmod_helper
 .text          0x0203d28c      0x4b8 d:/devkitpro/devkitarm/bin/../lib/gcc/arm-eabi/4.5.1\libgcc.a(_divdi3.o)
                0x0203d28c                __divdi3
 .text          0x0203d744      0x44c d:/devkitpro/devkitarm/bin/../lib/gcc/arm-eabi/4.5.1\libgcc.a(_udivdi3.o)
                0x0203d744                __udivdi3
 .text          0x0203db90       0x48 d:/devkitpro/devkitarm/bin/../lib/gcc/arm-eabi/4.5.1\libgcc.a(_clzsi2.o)
                0x0203db90                __clzsi2
 .text          0x0203dbd8        0x0 d:/devkitpro/devkitarm/bin/../lib/gcc/arm-eabi/4.5.1/crtend.o
 .text          0x0203dbd8        0x0 d:/devkitpro/devkitarm/bin/../lib/gcc/arm-eabi/4.5.1/crtn.o
 *(.text.*)
 .text._Znwj    0x0203dbd8       0x98 d:/devkitpro/devkitarm/bin/../lib/gcc/arm-eabi/4.5.1/../../../../arm-eabi/lib\libstdc++.a(new_op.o)
                0x0203dbd8                operator new(unsigned int)
 .text.__cxa_allocate_exception
                0x0203dc70       0x9c d:/devkitpro/devkitarm/bin/../lib/gcc/arm-eabi/4.5.1/../../../../arm-eabi/lib\libstdc++.a(eh_alloc.o)
                0x0203dc70                __cxa_allocate_exception
 .text.__cxa_free_exception
                0x0203dd0c       0x54 d:/devkitpro/devkitarm/bin/../lib/gcc/arm-eabi/4.5.1/../../../../arm-eabi/lib\libstdc++.a(eh_alloc.o)
                0x0203dd0c                __cxa_free_exception
 .text.__cxa_allocate_dependent_exception
                0x0203dd60       0x98 d:/devkitpro/devkitarm/bin/../lib/gcc/arm-eabi/4.5.1/../../../../arm-eabi/lib\libstdc++.a(eh_alloc.o)
                0x0203dd60                __cxa_allocate_dependent_exception
 .text.__cxa_free_dependent_exception
                0x0203ddf8       0x5c d:/devkitpro/devkitarm/bin/../lib/gcc/arm-eabi/4.5.1/../../../../arm-eabi/lib\libstdc++.a(eh_alloc.o)
                0x0203ddf8                __cxa_free_dependent_exception
 .text._GLOBAL__I___cxa_allocate_exception
                0x0203de54        0x4 d:/devkitpro/devkitarm/bin/../lib/gcc/arm-eabi/4.5.1/../../../../arm-eabi/lib\libstdc++.a(eh_alloc.o)
 .text.__cxa_type_match
                0x0203de58      0x19c d:/devkitpro/devkitarm/bin/../lib/gcc/arm-eabi/4.5.1/../../../../arm-eabi/lib\libstdc++.a(eh_arm.o)
                0x0203de58                __cxa_type_match
 .text.__cxa_begin_cleanup
                0x0203dff4       0xb0 d:/devkitpro/devkitarm/bin/../lib/gcc/arm-eabi/4.5.1/../../../../arm-eabi/lib\libstdc++.a(eh_arm.o)
                0x0203dff4                __cxa_begin_cleanup
 .text.__gnu_end_cleanup
                0x0203e0a4       0xb0 d:/devkitpro/devkitarm/bin/../lib/gcc/arm-eabi/4.5.1/../../../../arm-eabi/lib\libstdc++.a(eh_arm.o)
                0x0203e0a4                __gnu_end_cleanup
 .text.__cxa_bad_cast
                0x0203e154       0x2c d:/devkitpro/devkitarm/bin/../lib/gcc/arm-eabi/4.5.1/../../../../arm-eabi/lib\libstdc++.a(eh_aux_runtime.o)
                0x0203e154                __cxa_bad_cast
 .text.__cxa_bad_typeid
                0x0203e180       0x2c d:/devkitpro/devkitarm/bin/../lib/gcc/arm-eabi/4.5.1/../../../../arm-eabi/lib\libstdc++.a(eh_aux_runtime.o)
                0x0203e180                __cxa_bad_typeid
 .text.__cxa_call_terminate
                0x0203e1ac       0x7c d:/devkitpro/devkitarm/bin/../lib/gcc/arm-eabi/4.5.1/../../../../arm-eabi/lib\libstdc++.a(eh_call.o)
                0x0203e1ac                __cxa_call_terminate
 .text.__cxa_call_unexpected
                0x0203e228      0x1a0 d:/devkitpro/devkitarm/bin/../lib/gcc/arm-eabi/4.5.1/../../../../arm-eabi/lib\libstdc++.a(eh_call.o)
                0x0203e228                __cxa_call_unexpected
 .text.__cxa_get_exception_ptr
                0x0203e3c8        0x8 d:/devkitpro/devkitarm/bin/../lib/gcc/arm-eabi/4.5.1/../../../../arm-eabi/lib\libstdc++.a(eh_catch.o)
                0x0203e3c8                __cxa_get_exception_ptr
 .text.__cxa_begin_catch
                0x0203e3d0       0xdc d:/devkitpro/devkitarm/bin/../lib/gcc/arm-eabi/4.5.1/../../../../arm-eabi/lib\libstdc++.a(eh_catch.o)
                0x0203e3d0                __cxa_begin_catch
 .text.__cxa_end_catch
                0x0203e4ac       0xe4 d:/devkitpro/devkitarm/bin/../lib/gcc/arm-eabi/4.5.1/../../../../arm-eabi/lib\libstdc++.a(eh_catch.o)
                0x0203e4ac                __cxa_end_catch
 .text._ZSt18uncaught_exceptionv
                0x0203e590       0x1c d:/devkitpro/devkitarm/bin/../lib/gcc/arm-eabi/4.5.1/../../../../arm-eabi/lib\libstdc++.a(eh_catch.o)
                0x0203e590                std::uncaught_exception()
 .text._ZNSt9exceptionD2Ev
                0x0203e5ac       0x10 d:/devkitpro/devkitarm/bin/../lib/gcc/arm-eabi/4.5.1/../../../../arm-eabi/lib\libstdc++.a(eh_exception.o)
                0x0203e5ac                std::exception::~exception()
                0x0203e5ac                std::exception::~exception()
 .text._ZNSt13bad_exceptionD2Ev
                0x0203e5bc       0x10 d:/devkitpro/devkitarm/bin/../lib/gcc/arm-eabi/4.5.1/../../../../arm-eabi/lib\libstdc++.a(eh_exception.o)
                0x0203e5bc                std::bad_exception::~bad_exception()
                0x0203e5bc                std::bad_exception::~bad_exception()
 .text._ZN10__cxxabiv115__forced_unwindD2Ev
                0x0203e5cc       0x10 d:/devkitpro/devkitarm/bin/../lib/gcc/arm-eabi/4.5.1/../../../../arm-eabi/lib\libstdc++.a(eh_exception.o)
                0x0203e5cc                __cxxabiv1::__forced_unwind::~__forced_unwind()
                0x0203e5cc                __cxxabiv1::__forced_unwind::~__forced_unwind()
 .text._ZN10__cxxabiv119__foreign_exceptionD2Ev
                0x0203e5dc       0x10 d:/devkitpro/devkitarm/bin/../lib/gcc/arm-eabi/4.5.1/../../../../arm-eabi/lib\libstdc++.a(eh_exception.o)
                0x0203e5dc                __cxxabiv1::__foreign_exception::~__foreign_exception()
                0x0203e5dc                __cxxabiv1::__foreign_exception::~__foreign_exception()
 .text._ZNKSt9exception4whatEv
                0x0203e5ec        0xc d:/devkitpro/devkitarm/bin/../lib/gcc/arm-eabi/4.5.1/../../../../arm-eabi/lib\libstdc++.a(eh_exception.o)
                0x0203e5ec                std::exception::what() const
 .text._ZNKSt13bad_exception4whatEv
                0x0203e5f8        0xc d:/devkitpro/devkitarm/bin/../lib/gcc/arm-eabi/4.5.1/../../../../arm-eabi/lib\libstdc++.a(eh_exception.o)
                0x0203e5f8                std::bad_exception::what() const
 .text._ZN10__cxxabiv119__foreign_exceptionD0Ev
                0x0203e604       0x24 d:/devkitpro/devkitarm/bin/../lib/gcc/arm-eabi/4.5.1/../../../../arm-eabi/lib\libstdc++.a(eh_exception.o)
                0x0203e604                __cxxabiv1::__foreign_exception::~__foreign_exception()
 .text._ZN10__cxxabiv115__forced_unwindD0Ev
                0x0203e628       0x24 d:/devkitpro/devkitarm/bin/../lib/gcc/arm-eabi/4.5.1/../../../../arm-eabi/lib\libstdc++.a(eh_exception.o)
                0x0203e628                __cxxabiv1::__forced_unwind::~__forced_unwind()
 .text._ZNSt13bad_exceptionD0Ev
                0x0203e64c       0x24 d:/devkitpro/devkitarm/bin/../lib/gcc/arm-eabi/4.5.1/../../../../arm-eabi/lib\libstdc++.a(eh_exception.o)
                0x0203e64c                std::bad_exception::~bad_exception()
 .text._ZNSt9exceptionD0Ev
                0x0203e670       0x24 d:/devkitpro/devkitarm/bin/../lib/gcc/arm-eabi/4.5.1/../../../../arm-eabi/lib\libstdc++.a(eh_exception.o)
                0x0203e670                std::exception::~exception()
 .text.__cxa_get_globals_fast
                0x0203e694        0xc d:/devkitpro/devkitarm/bin/../lib/gcc/arm-eabi/4.5.1/../../../../arm-eabi/lib\libstdc++.a(eh_globals.o)
                0x0203e694                __cxa_get_globals_fast
 .text.__cxa_get_globals
                0x0203e6a0        0xc d:/devkitpro/devkitarm/bin/../lib/gcc/arm-eabi/4.5.1/../../../../arm-eabi/lib\libstdc++.a(eh_globals.o)
                0x0203e6a0                __cxa_get_globals
 .text._ZL12read_sleb128PKhPl
                0x0203e6ac       0x4c d:/devkitpro/devkitarm/bin/../lib/gcc/arm-eabi/4.5.1/../../../../arm-eabi/lib\libstdc++.a(eh_personality.o)
 .text._ZL28read_encoded_value_with_basehjPKhPj
                0x0203e6f8      0x164 d:/devkitpro/devkitarm/bin/../lib/gcc/arm-eabi/4.5.1/../../../../arm-eabi/lib\libstdc++.a(eh_personality.o)
 .text._ZL21base_of_encoded_valuehP15_Unwind_Context
                0x0203e85c       0x7c d:/devkitpro/devkitarm/bin/../lib/gcc/arm-eabi/4.5.1/../../../../arm-eabi/lib\libstdc++.a(eh_personality.o)
 .text._ZL17parse_lsda_headerP15_Unwind_ContextPKhP16lsda_header_info
                0x0203e8d8       0xcc d:/devkitpro/devkitarm/bin/../lib/gcc/arm-eabi/4.5.1/../../../../arm-eabi/lib\libstdc++.a(eh_personality.o)
 .text.__gxx_personality_v0
                0x0203e9a4      0x61c d:/devkitpro/devkitarm/bin/../lib/gcc/arm-eabi/4.5.1/../../../../arm-eabi/lib\libstdc++.a(eh_personality.o)
                0x0203e9a4                __gxx_personality_v0
 .text._ZN10__cxxabiv111__terminateEPFvvE
                0x0203efc0       0x3c d:/devkitpro/devkitarm/bin/../lib/gcc/arm-eabi/4.5.1/../../../../arm-eabi/lib\libstdc++.a(eh_terminate.o)
                0x0203efc0                __cxxabiv1::__terminate(void (*)())
 .text._ZSt9terminatev
                0x0203effc       0x14 d:/devkitpro/devkitarm/bin/../lib/gcc/arm-eabi/4.5.1/../../../../arm-eabi/lib\libstdc++.a(eh_terminate.o)
                0x0203effc                std::terminate()
 .text._ZN10__cxxabiv112__unexpectedEPFvvE
                0x0203f010       0x10 d:/devkitpro/devkitarm/bin/../lib/gcc/arm-eabi/4.5.1/../../../../arm-eabi/lib\libstdc++.a(eh_terminate.o)
                0x0203f010                __cxxabiv1::__unexpected(void (*)())
 .text._ZSt10unexpectedv
                0x0203f020       0x1c d:/devkitpro/devkitarm/bin/../lib/gcc/arm-eabi/4.5.1/../../../../arm-eabi/lib\libstdc++.a(eh_terminate.o)
                0x0203f020                std::unexpected()
 .text._ZSt13set_terminatePFvvE
                0x0203f03c       0x18 d:/devkitpro/devkitarm/bin/../lib/gcc/arm-eabi/4.5.1/../../../../arm-eabi/lib\libstdc++.a(eh_terminate.o)
                0x0203f03c                std::set_terminate(void (*)())
 .text._ZSt14set_unexpectedPFvvE
                0x0203f054       0x18 d:/devkitpro/devkitarm/bin/../lib/gcc/arm-eabi/4.5.1/../../../../arm-eabi/lib\libstdc++.a(eh_terminate.o)
                0x0203f054                std::set_unexpected(void (*)())
 .text._ZL23__gxx_exception_cleanup19_Unwind_Reason_CodeP21_Unwind_Control_Block
                0x0203f06c       0x44 d:/devkitpro/devkitarm/bin/../lib/gcc/arm-eabi/4.5.1/../../../../arm-eabi/lib\libstdc++.a(eh_throw.o)
 .text.__cxa_throw
                0x0203f0b0       0x94 d:/devkitpro/devkitarm/bin/../lib/gcc/arm-eabi/4.5.1/../../../../arm-eabi/lib\libstdc++.a(eh_throw.o)
                0x0203f0b0                __cxa_throw
 .text.__cxa_rethrow
                0x0203f144       0xb0 d:/devkitpro/devkitarm/bin/../lib/gcc/arm-eabi/4.5.1/../../../../arm-eabi/lib\libstdc++.a(eh_throw.o)
                0x0203f144                __cxa_rethrow
 .text._ZN10__cxxabiv123__fundamental_type_infoD2Ev
                0x0203f1f4       0x24 d:/devkitpro/devkitarm/bin/../lib/gcc/arm-eabi/4.5.1/../../../../arm-eabi/lib\libstdc++.a(fundamental_type_info.o)
                0x0203f1f4                __cxxabiv1::__fundamental_type_info::~__fundamental_type_info()
                0x0203f1f4                __cxxabiv1::__fundamental_type_info::~__fundamental_type_info()
 .text._ZN10__cxxabiv123__fundamental_type_infoD0Ev
                0x0203f218       0x2c d:/devkitpro/devkitarm/bin/../lib/gcc/arm-eabi/4.5.1/../../../../arm-eabi/lib\libstdc++.a(fundamental_type_info.o)
                0x0203f218                __cxxabiv1::__fundamental_type_info::~__fundamental_type_info()
 .text._ZNKSt9bad_alloc4whatEv
                0x0203f244        0xc d:/devkitpro/devkitarm/bin/../lib/gcc/arm-eabi/4.5.1/../../../../arm-eabi/lib\libstdc++.a(new_handler.o)
                0x0203f244                std::bad_alloc::what() const
 .text._ZNSt9bad_allocD2Ev
                0x0203f250       0x24 d:/devkitpro/devkitarm/bin/../lib/gcc/arm-eabi/4.5.1/../../../../arm-eabi/lib\libstdc++.a(new_handler.o)
                0x0203f250                std::bad_alloc::~bad_alloc()
                0x0203f250                std::bad_alloc::~bad_alloc()
 .text._ZNSt9bad_allocD0Ev
                0x0203f274       0x2c d:/devkitpro/devkitarm/bin/../lib/gcc/arm-eabi/4.5.1/../../../../arm-eabi/lib\libstdc++.a(new_handler.o)
                0x0203f274                std::bad_alloc::~bad_alloc()
 .text._ZSt15set_new_handlerPFvvE
                0x0203f2a0       0x18 d:/devkitpro/devkitarm/bin/../lib/gcc/arm-eabi/4.5.1/../../../../arm-eabi/lib\libstdc++.a(new_handler.o)
                0x0203f2a0                std::set_new_handler(void (*)())
 .text._ZNK10__cxxabiv119__pointer_type_info14__is_pointer_pEv
                0x0203f2b8        0x8 d:/devkitpro/devkitarm/bin/../lib/gcc/arm-eabi/4.5.1/../../../../arm-eabi/lib\libstdc++.a(pointer_type_info.o)
                0x0203f2b8                __cxxabiv1::__pointer_type_info::__is_pointer_p() const
 .text._ZNK10__cxxabiv119__pointer_type_info15__pointer_catchEPKNS_17__pbase_type_infoEPPvj
                0x0203f2c0       0x88 d:/devkitpro/devkitarm/bin/../lib/gcc/arm-eabi/4.5.1/../../../../arm-eabi/lib\libstdc++.a(pointer_type_info.o)
                0x0203f2c0                __cxxabiv1::__pointer_type_info::__pointer_catch(__cxxabiv1::__pbase_type_info const*, void**, unsigned int) const
 .text._ZN10__cxxabiv119__pointer_type_infoD2Ev
                0x0203f348       0x24 d:/devkitpro/devkitarm/bin/../lib/gcc/arm-eabi/4.5.1/../../../../arm-eabi/lib\libstdc++.a(pointer_type_info.o)
                0x0203f348                __cxxabiv1::__pointer_type_info::~__pointer_type_info()
                0x0203f348                __cxxabiv1::__pointer_type_info::~__pointer_type_info()
 .text._ZN10__cxxabiv119__pointer_type_infoD0Ev
                0x0203f36c       0x2c d:/devkitpro/devkitarm/bin/../lib/gcc/arm-eabi/4.5.1/../../../../arm-eabi/lib\libstdc++.a(pointer_type_info.o)
                0x0203f36c                __cxxabiv1::__pointer_type_info::~__pointer_type_info()
 .text.__cxa_pure_virtual
                0x0203f398       0x1c d:/devkitpro/devkitarm/bin/../lib/gcc/arm-eabi/4.5.1/../../../../arm-eabi/lib\libstdc++.a(pure.o)
                0x0203f398                __cxa_pure_virtual
 .text._ZNK10__cxxabiv120__si_class_type_info11__do_upcastEPKNS_17__class_type_infoEPKvRNS1_15__upcast_resultE
                0x0203f3b4       0x4c d:/devkitpro/devkitarm/bin/../lib/gcc/arm-eabi/4.5.1/../../../../arm-eabi/lib\libstdc++.a(si_class_type_info.o)
                0x0203f3b4                __cxxabiv1::__si_class_type_info::__do_upcast(__cxxabiv1::__class_type_info const*, void const*, __cxxabiv1::__class_type_info::__upcast_result&) const
 .text._ZNK10__cxxabiv120__si_class_type_info12__do_dyncastEiNS_17__class_type_info10__sub_kindEPKS1_PKvS4_S6_RNS1_16__dyncast_resultE
                0x0203f400       0xe0 d:/devkitpro/devkitarm/bin/../lib/gcc/arm-eabi/4.5.1/../../../../arm-eabi/lib\libstdc++.a(si_class_type_info.o)
                0x0203f400                __cxxabiv1::__si_class_type_info::__do_dyncast(int, __cxxabiv1::__class_type_info::__sub_kind, __cxxabiv1::__class_type_info const*, void const*, __cxxabiv1::__class_type_info const*, void const*, __cxxabiv1::__class_type_info::__dyncast_result&) const
 .text._ZNK10__cxxabiv120__si_class_type_info20__do_find_public_srcEiPKvPKNS_17__class_type_infoES2_
                0x0203f4e0       0x6c d:/devkitpro/devkitarm/bin/../lib/gcc/arm-eabi/4.5.1/../../../../arm-eabi/lib\libstdc++.a(si_class_type_info.o)
                0x0203f4e0                __cxxabiv1::__si_class_type_info::__do_find_public_src(int, void const*, __cxxabiv1::__class_type_info const*, void const*) const
 .text._ZN10__cxxabiv120__si_class_type_infoD2Ev
                0x0203f54c       0x24 d:/devkitpro/devkitarm/bin/../lib/gcc/arm-eabi/4.5.1/../../../../arm-eabi/lib\libstdc++.a(si_class_type_info.o)
                0x0203f54c                __cxxabiv1::__si_class_type_info::~__si_class_type_info()
                0x0203f54c                __cxxabiv1::__si_class_type_info::~__si_class_type_info()
 .text._ZN10__cxxabiv120__si_class_type_infoD0Ev
                0x0203f570       0x2c d:/devkitpro/devkitarm/bin/../lib/gcc/arm-eabi/4.5.1/../../../../arm-eabi/lib\libstdc++.a(si_class_type_info.o)
                0x0203f570                __cxxabiv1::__si_class_type_info::~__si_class_type_info()
 .text._ZNSt9type_infoD2Ev
                0x0203f59c       0x10 d:/devkitpro/devkitarm/bin/../lib/gcc/arm-eabi/4.5.1/../../../../arm-eabi/lib\libstdc++.a(tinfo.o)
                0x0203f59c                std::type_info::~type_info()
                0x0203f59c                std::type_info::~type_info()
 .text._ZNKSt9type_info14__is_pointer_pEv
                0x0203f5ac        0x8 d:/devkitpro/devkitarm/bin/../lib/gcc/arm-eabi/4.5.1/../../../../arm-eabi/lib\libstdc++.a(tinfo.o)
                0x0203f5ac                std::type_info::__is_pointer_p() const
 .text._ZNKSt9type_info15__is_function_pEv
                0x0203f5b4        0x8 d:/devkitpro/devkitarm/bin/../lib/gcc/arm-eabi/4.5.1/../../../../arm-eabi/lib\libstdc++.a(tinfo.o)
                0x0203f5b4                std::type_info::__is_function_p() const
 .text._ZNKSt9type_info11__do_upcastEPKN10__cxxabiv117__class_type_infoEPPv
                0x0203f5bc        0x8 d:/devkitpro/devkitarm/bin/../lib/gcc/arm-eabi/4.5.1/../../../../arm-eabi/lib\libstdc++.a(tinfo.o)
                0x0203f5bc                std::type_info::__do_upcast(__cxxabiv1::__class_type_info const*, void**) const
 .text._ZNSt9type_infoD0Ev
                0x0203f5c4       0x24 d:/devkitpro/devkitarm/bin/../lib/gcc/arm-eabi/4.5.1/../../../../arm-eabi/lib\libstdc++.a(tinfo.o)
                0x0203f5c4                std::type_info::~type_info()
 .text._ZNKSt9type_infoeqERKS_
                0x0203f5e8       0x58 d:/devkitpro/devkitarm/bin/../lib/gcc/arm-eabi/4.5.1/../../../../arm-eabi/lib\libstdc++.a(tinfo.o)
                0x0203f5e8                std::type_info::operator==(std::type_info const&) const
 .text._ZNKSt9type_info10__do_catchEPKS_PPvj
                0x0203f640        0x4 d:/devkitpro/devkitarm/bin/../lib/gcc/arm-eabi/4.5.1/../../../../arm-eabi/lib\libstdc++.a(tinfo.o)
                0x0203f640                std::type_info::__do_catch(std::type_info const*, void**, unsigned int) const
 .text._ZN9__gnu_cxx27__verbose_terminate_handlerEv
                0x0203f644      0x1ac d:/devkitpro/devkitarm/bin/../lib/gcc/arm-eabi/4.5.1/../../../../arm-eabi/lib\libstdc++.a(vterminate.o)
                0x0203f644                __gnu_cxx::__verbose_terminate_handler()
 .text._ZNKSt8bad_cast4whatEv
                0x0203f7f0        0xc d:/devkitpro/devkitarm/bin/../lib/gcc/arm-eabi/4.5.1/../../../../arm-eabi/lib\libstdc++.a(bad_cast.o)
                0x0203f7f0                std::bad_cast::what() const
 .text._ZNSt8bad_castD2Ev
                0x0203f7fc       0x24 d:/devkitpro/devkitarm/bin/../lib/gcc/arm-eabi/4.5.1/../../../../arm-eabi/lib\libstdc++.a(bad_cast.o)
                0x0203f7fc                std::bad_cast::~bad_cast()
                0x0203f7fc                std::bad_cast::~bad_cast()
 .text._ZNSt8bad_castD0Ev
                0x0203f820       0x2c d:/devkitpro/devkitarm/bin/../lib/gcc/arm-eabi/4.5.1/../../../../arm-eabi/lib\libstdc++.a(bad_cast.o)
                0x0203f820                std::bad_cast::~bad_cast()
 .text._ZNKSt10bad_typeid4whatEv
                0x0203f84c        0xc d:/devkitpro/devkitarm/bin/../lib/gcc/arm-eabi/4.5.1/../../../../arm-eabi/lib\libstdc++.a(bad_typeid.o)
                0x0203f84c                std::bad_typeid::what() const
 .text._ZNSt10bad_typeidD2Ev
                0x0203f858       0x24 d:/devkitpro/devkitarm/bin/../lib/gcc/arm-eabi/4.5.1/../../../../arm-eabi/lib\libstdc++.a(bad_typeid.o)
                0x0203f858                std::bad_typeid::~bad_typeid()
                0x0203f858                std::bad_typeid::~bad_typeid()
 .text._ZNSt10bad_typeidD0Ev
                0x0203f87c       0x2c d:/devkitpro/devkitarm/bin/../lib/gcc/arm-eabi/4.5.1/../../../../arm-eabi/lib\libstdc++.a(bad_typeid.o)
                0x0203f87c                std::bad_typeid::~bad_typeid()
 .text._ZNK10__cxxabiv117__class_type_info11__do_upcastEPKS0_PPv
                0x0203f8a8       0x64 d:/devkitpro/devkitarm/bin/../lib/gcc/arm-eabi/4.5.1/../../../../arm-eabi/lib\libstdc++.a(class_type_info.o)
                0x0203f8a8                __cxxabiv1::__class_type_info::__do_upcast(__cxxabiv1::__class_type_info const*, void**) const
 .text._ZNK10__cxxabiv117__class_type_info20__do_find_public_srcEiPKvPKS0_S2_
                0x0203f90c       0x14 d:/devkitpro/devkitarm/bin/../lib/gcc/arm-eabi/4.5.1/../../../../arm-eabi/lib\libstdc++.a(class_type_info.o)
                0x0203f90c                __cxxabiv1::__class_type_info::__do_find_public_src(int, void const*, __cxxabiv1::__class_type_info const*, void const*) const
 .text._ZNK10__cxxabiv117__class_type_info11__do_upcastEPKS0_PKvRNS0_15__upcast_resultE
                0x0203f920       0x38 d:/devkitpro/devkitarm/bin/../lib/gcc/arm-eabi/4.5.1/../../../../arm-eabi/lib\libstdc++.a(class_type_info.o)
                0x0203f920                __cxxabiv1::__class_type_info::__do_upcast(__cxxabiv1::__class_type_info const*, void const*, __cxxabiv1::__class_type_info::__upcast_result&) const
 .text._ZNK10__cxxabiv117__class_type_info12__do_dyncastEiNS0_10__sub_kindEPKS0_PKvS3_S5_RNS0_16__dyncast_resultE
                0x0203f958       0x74 d:/devkitpro/devkitarm/bin/../lib/gcc/arm-eabi/4.5.1/../../../../arm-eabi/lib\libstdc++.a(class_type_info.o)
                0x0203f958                __cxxabiv1::__class_type_info::__do_dyncast(int, __cxxabiv1::__class_type_info::__sub_kind, __cxxabiv1::__class_type_info const*, void const*, __cxxabiv1::__class_type_info const*, void const*, __cxxabiv1::__class_type_info::__dyncast_result&) const
 .text._ZNK10__cxxabiv117__class_type_info10__do_catchEPKSt9type_infoPPvj
                0x0203f9cc       0x54 d:/devkitpro/devkitarm/bin/../lib/gcc/arm-eabi/4.5.1/../../../../arm-eabi/lib\libstdc++.a(class_type_info.o)
                0x0203f9cc                __cxxabiv1::__class_type_info::__do_catch(std::type_info const*, void**, unsigned int) const
 .text._ZN10__cxxabiv117__class_type_infoD2Ev
                0x0203fa20       0x24 d:/devkitpro/devkitarm/bin/../lib/gcc/arm-eabi/4.5.1/../../../../arm-eabi/lib\libstdc++.a(class_type_info.o)
                0x0203fa20                __cxxabiv1::__class_type_info::~__class_type_info()
                0x0203fa20                __cxxabiv1::__class_type_info::~__class_type_info()
 .text._ZN10__cxxabiv117__class_type_infoD0Ev
                0x0203fa44       0x2c d:/devkitpro/devkitarm/bin/../lib/gcc/arm-eabi/4.5.1/../../../../arm-eabi/lib\libstdc++.a(class_type_info.o)
                0x0203fa44                __cxxabiv1::__class_type_info::~__class_type_info()
 .text._ZdlPv   0x0203fa70       0x14 d:/devkitpro/devkitarm/bin/../lib/gcc/arm-eabi/4.5.1/../../../../arm-eabi/lib\libstdc++.a(del_op.o)
                0x0203fa70                operator delete(void*)
 .text.__cxa_current_exception_type
                0x0203fa84       0x30 d:/devkitpro/devkitarm/bin/../lib/gcc/arm-eabi/4.5.1/../../../../arm-eabi/lib\libstdc++.a(eh_type.o)
                0x0203fa84                __cxa_current_exception_type
 .text._ZNK10__cxxabiv117__pbase_type_info15__pointer_catchEPKS0_PPvj
                0x0203fab4       0x28 d:/devkitpro/devkitarm/bin/../lib/gcc/arm-eabi/4.5.1/../../../../arm-eabi/lib\libstdc++.a(pbase_type_info.o)
                0x0203fab4                __cxxabiv1::__pbase_type_info::__pointer_catch(__cxxabiv1::__pbase_type_info const*, void**, unsigned int) const
 .text._ZNK10__cxxabiv117__pbase_type_info10__do_catchEPKSt9type_infoPPvj
                0x0203fadc       0x9c d:/devkitpro/devkitarm/bin/../lib/gcc/arm-eabi/4.5.1/../../../../arm-eabi/lib\libstdc++.a(pbase_type_info.o)
                0x0203fadc                __cxxabiv1::__pbase_type_info::__do_catch(std::type_info const*, void**, unsigned int) const
 .text._ZN10__cxxabiv117__pbase_type_infoD2Ev
                0x0203fb78       0x24 d:/devkitpro/devkitarm/bin/../lib/gcc/arm-eabi/4.5.1/../../../../arm-eabi/lib\libstdc++.a(pbase_type_info.o)
                0x0203fb78                __cxxabiv1::__pbase_type_info::~__pbase_type_info()
                0x0203fb78                __cxxabiv1::__pbase_type_info::~__pbase_type_info()
 .text._ZN10__cxxabiv117__pbase_type_infoD0Ev
                0x0203fb9c       0x2c d:/devkitpro/devkitarm/bin/../lib/gcc/arm-eabi/4.5.1/../../../../arm-eabi/lib\libstdc++.a(pbase_type_info.o)
                0x0203fb9c                __cxxabiv1::__pbase_type_info::~__pbase_type_info()
 .text._ZN10__cxxabiv117__pbase_type_infoD0Ev.stub
                0x0203fbc8        0x8 linker stubs
 *(.stub)
 *(.gnu.warning)
 *(.gnu.linkonce.t*)
 *(.glue_7)
 .glue_7        0x00000000        0x0 linker stubs
 *(.glue_7t)
 .glue_7t       0x00000000        0x0 linker stubs
                0x0203fbd0                . = ALIGN (0x4)

.vfp11_veneer   0x00000000        0x0 load address 0x0203fbd0
 .vfp11_veneer  0x00000000        0x0 linker stubs

.v4_bx          0x00000000        0x0 load address 0x0203fbd0
 .v4_bx         0x00000000        0x0 linker stubs

.fini           0x0203fbd0       0x18
 *(.fini)
 .fini          0x0203fbd0        0xc d:/devkitpro/devkitarm/bin/../lib/gcc/arm-eabi/4.5.1/crti.o
                0x0203fbd0                _fini
 .fini          0x0203fbdc        0xc d:/devkitpro/devkitarm/bin/../lib/gcc/arm-eabi/4.5.1/crtn.o
                0x0203fbe8                __text_end = .

.rodata         0x0203fbe8    0x12b0c
 *(.rodata)
 .rodata        0x0203fbe8       0xb4 ball.png.o
                0x0203fbe8                ball_png
                0x0203fc96                ball_png_end
                0x0203fc98                ball_png_size
 .rodata        0x0203fc9c       0x48 d:/devkitPro/libnds/lib\libul.a(drawing.o)
                0x0203fc9c                ul_pixelSizes
                0x0203fca8                ul_pixelWidth
                0x0203fccc                ul_paletteSizes
                0x0203fcd8                ul_pixelsPerByte
 .rodata        0x0203fce4      0x810 d:/devkitPro/libnds/lib\libul.a(text.o)
                0x0203fcf4                ul_lcdFont_data
 .rodata        0x020404f4     0x246c d:/devkitPro/libnds/lib\libul.a(ulShowSplashScreen1.o)
                0x020404f4                ul_logo_msk
                0x02040cdc                ul_logo_base
                0x020418d0                ul_logo
                0x020423ec                ul_circle_mask
                0x02042950                ul_circle_mask_size
                0x02042954                ul_logo_size
                0x02042958                ul_logo_base_size
                0x0204295c                ul_logo_msk_size
 .rodata        0x02042960     0xa62c d:/devkitPro/libnds/lib\libul.a(ulShowSplashScreen2.o)
                0x02042960                ul_neoflashlogo
                0x0204cf88                ul_neoflashlogo_size
 .rodata        0x0204cf8c       0x10 d:/devkitPro/libnds/lib\libul.a(libLoadGif.o)
                0x0204cf8c                InterlacedOffset
                0x0204cf94                InterlacedJumps
 .rodata        0x0204cf9c       0x1c d:/devkitPro/libnds/lib\libul.a(dgif_lib.o)
 .rodata        0x0204cfb8      0x1a0 d:/devkitPro/libnds/lib\libul.a(gba-jpeg-decode.o)
                0x0204cfb8                JPEG_ToZigZag
                0x0204cff8                JPEG_ComponentRange
                0x0204d058                JPEG_AANScaleFactor
 .rodata        0x0204d158       0xfc d:/devkitPro/libnds/lib\libpng.a(png.o)
                0x0204d158                png_libpng_ver
                0x0204d16a                png_sig
                0x0204d174                png_pass_start
                0x0204d190                png_pass_inc
                0x0204d1ac                png_pass_ystart
                0x0204d1c8                png_pass_yinc
                0x0204d1e4                png_pass_mask
                0x0204d200                png_pass_dsp_mask
 .rodata        0x0204d254       0x24 d:/devkitPro/libnds/lib\libpng.a(pngrtran.o)
 .rodata        0x0204d278       0x1f d:/devkitPro/libnds/lib\libpng.a(pngrutil.o)
 .rodata        0x0204d297      0x300 d:/devkitPro/libnds/lib\libpng.a(pngtrans.o)
 *fill*         0x0204d597        0x1 ff
 .rodata        0x0204d598     0x2000 d:/devkitPro/libnds/lib\libz.a(crc32.o)
 .rodata        0x0204f598      0x8a6 d:/devkitPro/libnds/lib\libz.a(inflate.o)
 .rodata        0x0204fe3e      0x12c d:/devkitPro/libnds/lib\libz.a(inftrees.o)
                0x0204fe3e                inflate_copyright
 *fill*         0x0204ff6a        0x2 ff
 .rodata        0x0204ff6c       0x28 d:/devkitPro/libnds/lib\libz.a(zutil.o)
                0x0204ff6c                z_errmsg
 .rodata        0x0204ff94      0x308 d:/devkitPro/libnds/lib\libnds9.a(trig.o)
                0x0204ff94                SIN_LUT
                0x02050098                TAN_LUT
 .rodata        0x0205029c       0x68 d:/devkitPro/libnds/lib\libnds9.a(videoGL.o)
 .rodata        0x02050304      0x694 d:/devkitpro/devkitarm/bin/../lib/gcc/arm-eabi/4.5.1/../../../../arm-eabi/lib\libstdc++.a(cp-demangle.o)
 .rodata        0x02050998       0x30 d:/devkitpro/devkitarm/bin/../lib/gcc/arm-eabi/4.5.1/../../../../arm-eabi/lib\libm.a(lib_a-e_pow.o)
 .rodata        0x020509c8      0x188 d:/devkitpro/devkitarm/bin/../lib/gcc/arm-eabi/4.5.1/../../../../arm-eabi/lib\libm.a(lib_a-e_rem_pio2.o)
 .rodata        0x02050b50       0x50 d:/devkitpro/devkitarm/bin/../lib/gcc/arm-eabi/4.5.1/../../../../arm-eabi/lib\libm.a(lib_a-k_rem_pio2.o)
 .rodata        0x02050ba0       0x10 d:/devkitpro/devkitarm/bin/../lib/gcc/arm-eabi/4.5.1/../../../../arm-eabi/lib\libm.a(lib_a-s_rint.o)
 .rodata        0x02050bb0        0x4 d:/devkitpro/devkitarm/bin/../lib/gcc/arm-eabi/4.5.1/../../../../arm-eabi/lib\libg.a(lib_a-impure.o)
                0x02050bb0                _global_impure_ptr
 *fill*         0x02050bb4        0x4 ff
 .rodata        0x02050bb8       0x28 d:/devkitpro/devkitarm/bin/../lib/gcc/arm-eabi/4.5.1/../../../../arm-eabi/lib\libg.a(lib_a-strtod.o)
 .rodata        0x02050be0       0x20 d:/devkitpro/devkitarm/bin/../lib/gcc/arm-eabi/4.5.1/../../../../arm-eabi/lib\libg.a(lib_a-svfprintf.o)
 .rodata        0x02050c00       0x20 d:/devkitpro/devkitarm/bin/../lib/gcc/arm-eabi/4.5.1/../../../../arm-eabi/lib\libg.a(lib_a-vfprintf.o)
 .rodata        0x02050c20       0x54 d:/devkitpro/devkitarm/bin/../lib/gcc/arm-eabi/4.5.1/../../../../arm-eabi/lib\libg.a(lib_a-locale.o)
 .rodata        0x02050c74       0x90 d:/devkitpro/devkitarm/bin/../lib/gcc/arm-eabi/4.5.1/../../../../arm-eabi/lib\libg.a(lib_a-mbtowc_r.o)
 *fill*         0x02050d04        0x4 ff
 .rodata        0x02050d08      0x128 d:/devkitpro/devkitarm/bin/../lib/gcc/arm-eabi/4.5.1/../../../../arm-eabi/lib\libg.a(lib_a-mprec.o)
                0x02050d18                __mprec_tens
                0x02050de0                __mprec_bigtens
                0x02050e08                __mprec_tinytens
 .rodata        0x02050e30       0x20 d:/devkitpro/devkitarm/bin/../lib/gcc/arm-eabi/4.5.1/../../../../arm-eabi/lib\libg.a(lib_a-svfiprintf.o)
 .rodata        0x02050e50       0x20 d:/devkitpro/devkitarm/bin/../lib/gcc/arm-eabi/4.5.1/../../../../arm-eabi/lib\libg.a(lib_a-vfiprintf.o)
 .rodata        0x02050e70      0x104 d:/devkitpro/devkitarm/bin/../lib/gcc/arm-eabi/4.5.1/../../../../arm-eabi/lib\libg.a(lib_a-ctype_.o)
                0x02050e70                _ctype_
 .rodata        0x02050f74       0x64 d:/devkitpro/devkitarm/bin/../lib/gcc/arm-eabi/4.5.1/../../../../arm-eabi/lib\libsysbase.a(iosupport.o)
                0x02050f74                dotab_stdnull
 *all.rodata*(*)
 *(.roda)
 *(.rodata.*)
 .rodata.str1.4
                0x02050fd8       0x10 main.o
 .rodata.str1.4
                0x02050fe8        0xc d:/devkitPro/libnds/lib\libul.a(text.o)
 .rodata.str1.4
                0x02050ff4       0x3f d:/devkitPro/libnds/lib\libul.a(ulShowSplashScreen1.o)
                                 0x40 (size before relaxing)
 .rodata.str1.1
                0x02051033        0x6 d:/devkitPro/libnds/lib\libul.a(libLoadPng.o)
 .rodata.str1.1
                0x02051039      0x117 d:/devkitPro/libnds/lib\libpng.a(png.o)
 .rodata.str1.1
                0x02051150       0x83 d:/devkitPro/libnds/lib\libpng.a(pngread.o)
 .rodata.str1.1
                0x020511d3       0x25 d:/devkitPro/libnds/lib\libpng.a(pngrtran.o)
 .rodata.str1.1
                0x020511f8       0x48 d:/devkitPro/libnds/lib\libpng.a(pngerror.o)
 .rodata.str1.1
                0x02051240      0x119 d:/devkitPro/libnds/lib\libpng.a(pngrutil.o)
 .rodata.str1.1
                0x02051359      0x1a8 d:/devkitPro/libnds/lib\libz.a(inflate.o)
 .rodata.str1.1
                0x00000000       0x50 d:/devkitPro/libnds/lib\libz.a(inffast.o)
 .rodata.str1.1
                0x02051501       0x74 d:/devkitPro/libnds/lib\libz.a(zutil.o)
                                 0x7b (size before relaxing)
 *fill*         0x02051575        0x3 ff
 .rodata._ZTVN10__cxxabiv115__forced_unwindE
                0x02051578       0x18 d:/devkitpro/devkitarm/bin/../lib/gcc/arm-eabi/4.5.1/../../../../arm-eabi/lib\libstdc++.a(eh_exception.o)
                0x02051578                vtable for __cxxabiv1::__forced_unwind
 .rodata._ZTISt9exception
                0x02051590        0x8 d:/devkitpro/devkitarm/bin/../lib/gcc/arm-eabi/4.5.1/../../../../arm-eabi/lib\libstdc++.a(eh_exception.o)
                0x02051590                typeinfo for std::exception
 .rodata._ZTVSt9exception
                0x02051598       0x18 d:/devkitpro/devkitarm/bin/../lib/gcc/arm-eabi/4.5.1/../../../../arm-eabi/lib\libstdc++.a(eh_exception.o)
                0x02051598                vtable for std::exception
 .rodata._ZTIN10__cxxabiv115__forced_unwindE
                0x020515b0        0x8 d:/devkitpro/devkitarm/bin/../lib/gcc/arm-eabi/4.5.1/../../../../arm-eabi/lib\libstdc++.a(eh_exception.o)
                0x020515b0                typeinfo for __cxxabiv1::__forced_unwind
 .rodata._ZTSSt13bad_exception
                0x020515b8       0x14 d:/devkitpro/devkitarm/bin/../lib/gcc/arm-eabi/4.5.1/../../../../arm-eabi/lib\libstdc++.a(eh_exception.o)
                0x020515b8                typeinfo name for std::bad_exception
 .rodata._ZTSN10__cxxabiv119__foreign_exceptionE
                0x020515cc       0x24 d:/devkitpro/devkitarm/bin/../lib/gcc/arm-eabi/4.5.1/../../../../arm-eabi/lib\libstdc++.a(eh_exception.o)
                0x020515cc                typeinfo name for __cxxabiv1::__foreign_exception
 .rodata.str1.4
                0x020515f0       0x23 d:/devkitpro/devkitarm/bin/../lib/gcc/arm-eabi/4.5.1/../../../../arm-eabi/lib\libstdc++.a(eh_exception.o)
                                 0x24 (size before relaxing)
 *fill*         0x02051613        0x1 ff
 .rodata._ZTIN10__cxxabiv119__foreign_exceptionE
                0x02051614        0x8 d:/devkitpro/devkitarm/bin/../lib/gcc/arm-eabi/4.5.1/../../../../arm-eabi/lib\libstdc++.a(eh_exception.o)
                0x02051614                typeinfo for __cxxabiv1::__foreign_exception
 *fill*         0x0205161c        0x4 ff
 .rodata._ZTVSt13bad_exception
                0x02051620       0x18 d:/devkitpro/devkitarm/bin/../lib/gcc/arm-eabi/4.5.1/../../../../arm-eabi/lib\libstdc++.a(eh_exception.o)
                0x02051620                vtable for std::bad_exception
 .rodata._ZTSSt9exception
                0x02051638       0x10 d:/devkitpro/devkitarm/bin/../lib/gcc/arm-eabi/4.5.1/../../../../arm-eabi/lib\libstdc++.a(eh_exception.o)
                0x02051638                typeinfo name for std::exception
 .rodata._ZTVN10__cxxabiv119__foreign_exceptionE
                0x02051648       0x18 d:/devkitpro/devkitarm/bin/../lib/gcc/arm-eabi/4.5.1/../../../../arm-eabi/lib\libstdc++.a(eh_exception.o)
                0x02051648                vtable for __cxxabiv1::__foreign_exception
 .rodata._ZTSN10__cxxabiv115__forced_unwindE
                0x02051660       0x20 d:/devkitpro/devkitarm/bin/../lib/gcc/arm-eabi/4.5.1/../../../../arm-eabi/lib\libstdc++.a(eh_exception.o)
                0x02051660                typeinfo name for __cxxabiv1::__forced_unwind
 .rodata._ZTISt13bad_exception
                0x02051680        0xc d:/devkitpro/devkitarm/bin/../lib/gcc/arm-eabi/4.5.1/../../../../arm-eabi/lib\libstdc++.a(eh_exception.o)
                0x02051680                typeinfo for std::bad_exception
 .rodata._ZTIPKDe
                0x0205168c       0x10 d:/devkitpro/devkitarm/bin/../lib/gcc/arm-eabi/4.5.1/../../../../arm-eabi/lib\libstdc++.a(fundamental_type_info.o)
                0x0205168c                typeinfo for decimal128 const*
 .rodata._ZTIPDe
                0x0205169c       0x10 d:/devkitpro/devkitarm/bin/../lib/gcc/arm-eabi/4.5.1/../../../../arm-eabi/lib\libstdc++.a(fundamental_type_info.o)
                0x0205169c                typeinfo for decimal128*
 .rodata._ZTIDe
                0x020516ac        0x8 d:/devkitpro/devkitarm/bin/../lib/gcc/arm-eabi/4.5.1/../../../../arm-eabi/lib\libstdc++.a(fundamental_type_info.o)
                0x020516ac                typeinfo for decimal128
 .rodata._ZTIPKDd
                0x020516b4       0x10 d:/devkitpro/devkitarm/bin/../lib/gcc/arm-eabi/4.5.1/../../../../arm-eabi/lib\libstdc++.a(fundamental_type_info.o)
                0x020516b4                typeinfo for decimal64 const*
 .rodata._ZTIPDd
                0x020516c4       0x10 d:/devkitpro/devkitarm/bin/../lib/gcc/arm-eabi/4.5.1/../../../../arm-eabi/lib\libstdc++.a(fundamental_type_info.o)
                0x020516c4                typeinfo for decimal64*
 .rodata._ZTIDd
                0x020516d4        0x8 d:/devkitpro/devkitarm/bin/../lib/gcc/arm-eabi/4.5.1/../../../../arm-eabi/lib\libstdc++.a(fundamental_type_info.o)
                0x020516d4                typeinfo for decimal64
 .rodata._ZTIPKDf
                0x020516dc       0x10 d:/devkitpro/devkitarm/bin/../lib/gcc/arm-eabi/4.5.1/../../../../arm-eabi/lib\libstdc++.a(fundamental_type_info.o)
                0x020516dc                typeinfo for decimal32 const*
 .rodata._ZTIPDf
                0x020516ec       0x10 d:/devkitpro/devkitarm/bin/../lib/gcc/arm-eabi/4.5.1/../../../../arm-eabi/lib\libstdc++.a(fundamental_type_info.o)
                0x020516ec                typeinfo for decimal32*
 .rodata._ZTIDf
                0x020516fc        0x8 d:/devkitpro/devkitarm/bin/../lib/gcc/arm-eabi/4.5.1/../../../../arm-eabi/lib\libstdc++.a(fundamental_type_info.o)
                0x020516fc                typeinfo for decimal32
 .rodata._ZTIPKe
                0x02051704       0x10 d:/devkitpro/devkitarm/bin/../lib/gcc/arm-eabi/4.5.1/../../../../arm-eabi/lib\libstdc++.a(fundamental_type_info.o)
                0x02051704                typeinfo for long double const*
 .rodata._ZTIPe
                0x02051714       0x10 d:/devkitpro/devkitarm/bin/../lib/gcc/arm-eabi/4.5.1/../../../../arm-eabi/lib\libstdc++.a(fundamental_type_info.o)
                0x02051714                typeinfo for long double*
 .rodata._ZTIe  0x02051724        0x8 d:/devkitpro/devkitarm/bin/../lib/gcc/arm-eabi/4.5.1/../../../../arm-eabi/lib\libstdc++.a(fundamental_type_info.o)
                0x02051724                typeinfo for long double
 .rodata._ZTIPKd
                0x0205172c       0x10 d:/devkitpro/devkitarm/bin/../lib/gcc/arm-eabi/4.5.1/../../../../arm-eabi/lib\libstdc++.a(fundamental_type_info.o)
                0x0205172c                typeinfo for double const*
 .rodata._ZTIPd
                0x0205173c       0x10 d:/devkitpro/devkitarm/bin/../lib/gcc/arm-eabi/4.5.1/../../../../arm-eabi/lib\libstdc++.a(fundamental_type_info.o)
                0x0205173c                typeinfo for double*
 .rodata._ZTId  0x0205174c        0x8 d:/devkitpro/devkitarm/bin/../lib/gcc/arm-eabi/4.5.1/../../../../arm-eabi/lib\libstdc++.a(fundamental_type_info.o)
                0x0205174c                typeinfo for double
 .rodata._ZTIPKf
                0x02051754       0x10 d:/devkitpro/devkitarm/bin/../lib/gcc/arm-eabi/4.5.1/../../../../arm-eabi/lib\libstdc++.a(fundamental_type_info.o)
                0x02051754                typeinfo for float const*
 .rodata._ZTIPf
                0x02051764       0x10 d:/devkitpro/devkitarm/bin/../lib/gcc/arm-eabi/4.5.1/../../../../arm-eabi/lib\libstdc++.a(fundamental_type_info.o)
                0x02051764                typeinfo for float*
 .rodata._ZTIf  0x02051774        0x8 d:/devkitpro/devkitarm/bin/../lib/gcc/arm-eabi/4.5.1/../../../../arm-eabi/lib\libstdc++.a(fundamental_type_info.o)
                0x02051774                typeinfo for float
 .rodata._ZTIPKy
                0x0205177c       0x10 d:/devkitpro/devkitarm/bin/../lib/gcc/arm-eabi/4.5.1/../../../../arm-eabi/lib\libstdc++.a(fundamental_type_info.o)
                0x0205177c                typeinfo for unsigned long long const*
 .rodata._ZTIPy
                0x0205178c       0x10 d:/devkitpro/devkitarm/bin/../lib/gcc/arm-eabi/4.5.1/../../../../arm-eabi/lib\libstdc++.a(fundamental_type_info.o)
                0x0205178c                typeinfo for unsigned long long*
 .rodata._ZTIy  0x0205179c        0x8 d:/devkitpro/devkitarm/bin/../lib/gcc/arm-eabi/4.5.1/../../../../arm-eabi/lib\libstdc++.a(fundamental_type_info.o)
                0x0205179c                typeinfo for unsigned long long
 .rodata._ZTIPKx
                0x020517a4       0x10 d:/devkitpro/devkitarm/bin/../lib/gcc/arm-eabi/4.5.1/../../../../arm-eabi/lib\libstdc++.a(fundamental_type_info.o)
                0x020517a4                typeinfo for long long const*
 .rodata._ZTIPx
                0x020517b4       0x10 d:/devkitpro/devkitarm/bin/../lib/gcc/arm-eabi/4.5.1/../../../../arm-eabi/lib\libstdc++.a(fundamental_type_info.o)
                0x020517b4                typeinfo for long long*
 .rodata._ZTIx  0x020517c4        0x8 d:/devkitpro/devkitarm/bin/../lib/gcc/arm-eabi/4.5.1/../../../../arm-eabi/lib\libstdc++.a(fundamental_type_info.o)
                0x020517c4                typeinfo for long long
 .rodata._ZTIPKm
                0x020517cc       0x10 d:/devkitpro/devkitarm/bin/../lib/gcc/arm-eabi/4.5.1/../../../../arm-eabi/lib\libstdc++.a(fundamental_type_info.o)
                0x020517cc                typeinfo for unsigned long const*
 .rodata._ZTIPm
                0x020517dc       0x10 d:/devkitpro/devkitarm/bin/../lib/gcc/arm-eabi/4.5.1/../../../../arm-eabi/lib\libstdc++.a(fundamental_type_info.o)
                0x020517dc                typeinfo for unsigned long*
 .rodata._ZTIm  0x020517ec        0x8 d:/devkitpro/devkitarm/bin/../lib/gcc/arm-eabi/4.5.1/../../../../arm-eabi/lib\libstdc++.a(fundamental_type_info.o)
                0x020517ec                typeinfo for unsigned long
 .rodata._ZTIPKl
                0x020517f4       0x10 d:/devkitpro/devkitarm/bin/../lib/gcc/arm-eabi/4.5.1/../../../../arm-eabi/lib\libstdc++.a(fundamental_type_info.o)
                0x020517f4                typeinfo for long const*
 .rodata._ZTIPl
                0x02051804       0x10 d:/devkitpro/devkitarm/bin/../lib/gcc/arm-eabi/4.5.1/../../../../arm-eabi/lib\libstdc++.a(fundamental_type_info.o)
                0x02051804                typeinfo for long*
 .rodata._ZTIl  0x02051814        0x8 d:/devkitpro/devkitarm/bin/../lib/gcc/arm-eabi/4.5.1/../../../../arm-eabi/lib\libstdc++.a(fundamental_type_info.o)
                0x02051814                typeinfo for long
 .rodata._ZTIPKj
                0x0205181c       0x10 d:/devkitpro/devkitarm/bin/../lib/gcc/arm-eabi/4.5.1/../../../../arm-eabi/lib\libstdc++.a(fundamental_type_info.o)
                0x0205181c                typeinfo for unsigned int const*
 .rodata._ZTIPj
                0x0205182c       0x10 d:/devkitpro/devkitarm/bin/../lib/gcc/arm-eabi/4.5.1/../../../../arm-eabi/lib\libstdc++.a(fundamental_type_info.o)
                0x0205182c                typeinfo for unsigned int*
 .rodata._ZTIj  0x0205183c        0x8 d:/devkitpro/devkitarm/bin/../lib/gcc/arm-eabi/4.5.1/../../../../arm-eabi/lib\libstdc++.a(fundamental_type_info.o)
                0x0205183c                typeinfo for unsigned int
 .rodata._ZTIPKi
                0x02051844       0x10 d:/devkitpro/devkitarm/bin/../lib/gcc/arm-eabi/4.5.1/../../../../arm-eabi/lib\libstdc++.a(fundamental_type_info.o)
                0x02051844                typeinfo for int const*
 .rodata._ZTIPi
                0x02051854       0x10 d:/devkitpro/devkitarm/bin/../lib/gcc/arm-eabi/4.5.1/../../../../arm-eabi/lib\libstdc++.a(fundamental_type_info.o)
                0x02051854                typeinfo for int*
 .rodata._ZTIi  0x02051864        0x8 d:/devkitpro/devkitarm/bin/../lib/gcc/arm-eabi/4.5.1/../../../../arm-eabi/lib\libstdc++.a(fundamental_type_info.o)
                0x02051864                typeinfo for int
 .rodata._ZTIPKt
                0x0205186c       0x10 d:/devkitpro/devkitarm/bin/../lib/gcc/arm-eabi/4.5.1/../../../../arm-eabi/lib\libstdc++.a(fundamental_type_info.o)
                0x0205186c                typeinfo for unsigned short const*
 .rodata._ZTIPt
                0x0205187c       0x10 d:/devkitpro/devkitarm/bin/../lib/gcc/arm-eabi/4.5.1/../../../../arm-eabi/lib\libstdc++.a(fundamental_type_info.o)
                0x0205187c                typeinfo for unsigned short*
 .rodata._ZTIt  0x0205188c        0x8 d:/devkitpro/devkitarm/bin/../lib/gcc/arm-eabi/4.5.1/../../../../arm-eabi/lib\libstdc++.a(fundamental_type_info.o)
                0x0205188c                typeinfo for unsigned short
 .rodata._ZTIPKs
                0x02051894       0x10 d:/devkitpro/devkitarm/bin/../lib/gcc/arm-eabi/4.5.1/../../../../arm-eabi/lib\libstdc++.a(fundamental_type_info.o)
                0x02051894                typeinfo for short const*
 .rodata._ZTIPs
                0x020518a4       0x10 d:/devkitpro/devkitarm/bin/../lib/gcc/arm-eabi/4.5.1/../../../../arm-eabi/lib\libstdc++.a(fundamental_type_info.o)
                0x020518a4                typeinfo for short*
 .rodata._ZTIs  0x020518b4        0x8 d:/devkitpro/devkitarm/bin/../lib/gcc/arm-eabi/4.5.1/../../../../arm-eabi/lib\libstdc++.a(fundamental_type_info.o)
                0x020518b4                typeinfo for short
 .rodata._ZTIPKh
                0x020518bc       0x10 d:/devkitpro/devkitarm/bin/../lib/gcc/arm-eabi/4.5.1/../../../../arm-eabi/lib\libstdc++.a(fundamental_type_info.o)
                0x020518bc                typeinfo for unsigned char const*
 .rodata._ZTIPh
                0x020518cc       0x10 d:/devkitpro/devkitarm/bin/../lib/gcc/arm-eabi/4.5.1/../../../../arm-eabi/lib\libstdc++.a(fundamental_type_info.o)
                0x020518cc                typeinfo for unsigned char*
 .rodata._ZTIh  0x020518dc        0x8 d:/devkitpro/devkitarm/bin/../lib/gcc/arm-eabi/4.5.1/../../../../arm-eabi/lib\libstdc++.a(fundamental_type_info.o)
                0x020518dc                typeinfo for unsigned char
 .rodata._ZTIPKa
                0x020518e4       0x10 d:/devkitpro/devkitarm/bin/../lib/gcc/arm-eabi/4.5.1/../../../../arm-eabi/lib\libstdc++.a(fundamental_type_info.o)
                0x020518e4                typeinfo for signed char const*
 .rodata._ZTIPa
                0x020518f4       0x10 d:/devkitpro/devkitarm/bin/../lib/gcc/arm-eabi/4.5.1/../../../../arm-eabi/lib\libstdc++.a(fundamental_type_info.o)
                0x020518f4                typeinfo for signed char*
 .rodata._ZTIa  0x02051904        0x8 d:/devkitpro/devkitarm/bin/../lib/gcc/arm-eabi/4.5.1/../../../../arm-eabi/lib\libstdc++.a(fundamental_type_info.o)
                0x02051904                typeinfo for signed char
 .rodata._ZTIPKc
                0x0205190c       0x10 d:/devkitpro/devkitarm/bin/../lib/gcc/arm-eabi/4.5.1/../../../../arm-eabi/lib\libstdc++.a(fundamental_type_info.o)
                0x0205190c                typeinfo for char const*
 .rodata._ZTIPc
                0x0205191c       0x10 d:/devkitpro/devkitarm/bin/../lib/gcc/arm-eabi/4.5.1/../../../../arm-eabi/lib\libstdc++.a(fundamental_type_info.o)
                0x0205191c                typeinfo for char*
 .rodata._ZTIc  0x0205192c        0x8 d:/devkitpro/devkitarm/bin/../lib/gcc/arm-eabi/4.5.1/../../../../arm-eabi/lib\libstdc++.a(fundamental_type_info.o)
                0x0205192c                typeinfo for char
 .rodata._ZTIPKDi
                0x02051934       0x10 d:/devkitpro/devkitarm/bin/../lib/gcc/arm-eabi/4.5.1/../../../../arm-eabi/lib\libstdc++.a(fundamental_type_info.o)
                0x02051934                typeinfo for char32_t const*
 .rodata._ZTIPDi
                0x02051944       0x10 d:/devkitpro/devkitarm/bin/../lib/gcc/arm-eabi/4.5.1/../../../../arm-eabi/lib\libstdc++.a(fundamental_type_info.o)
                0x02051944                typeinfo for char32_t*
 .rodata._ZTIDi
                0x02051954        0x8 d:/devkitpro/devkitarm/bin/../lib/gcc/arm-eabi/4.5.1/../../../../arm-eabi/lib\libstdc++.a(fundamental_type_info.o)
                0x02051954                typeinfo for char32_t
 .rodata._ZTIPKDs
                0x0205195c       0x10 d:/devkitpro/devkitarm/bin/../lib/gcc/arm-eabi/4.5.1/../../../../arm-eabi/lib\libstdc++.a(fundamental_type_info.o)
                0x0205195c                typeinfo for char16_t const*
 .rodata._ZTIPDs
                0x0205196c       0x10 d:/devkitpro/devkitarm/bin/../lib/gcc/arm-eabi/4.5.1/../../../../arm-eabi/lib\libstdc++.a(fundamental_type_info.o)
                0x0205196c                typeinfo for char16_t*
 .rodata._ZTIDs
                0x0205197c        0x8 d:/devkitpro/devkitarm/bin/../lib/gcc/arm-eabi/4.5.1/../../../../arm-eabi/lib\libstdc++.a(fundamental_type_info.o)
                0x0205197c                typeinfo for char16_t
 .rodata._ZTIPKw
                0x02051984       0x10 d:/devkitpro/devkitarm/bin/../lib/gcc/arm-eabi/4.5.1/../../../../arm-eabi/lib\libstdc++.a(fundamental_type_info.o)
                0x02051984                typeinfo for wchar_t const*
 .rodata._ZTIPw
                0x02051994       0x10 d:/devkitpro/devkitarm/bin/../lib/gcc/arm-eabi/4.5.1/../../../../arm-eabi/lib\libstdc++.a(fundamental_type_info.o)
                0x02051994                typeinfo for wchar_t*
 .rodata._ZTIw  0x020519a4        0x8 d:/devkitpro/devkitarm/bin/../lib/gcc/arm-eabi/4.5.1/../../../../arm-eabi/lib\libstdc++.a(fundamental_type_info.o)
                0x020519a4                typeinfo for wchar_t
 .rodata._ZTIPKb
                0x020519ac       0x10 d:/devkitpro/devkitarm/bin/../lib/gcc/arm-eabi/4.5.1/../../../../arm-eabi/lib\libstdc++.a(fundamental_type_info.o)
                0x020519ac                typeinfo for bool const*
 .rodata._ZTIPb
                0x020519bc       0x10 d:/devkitpro/devkitarm/bin/../lib/gcc/arm-eabi/4.5.1/../../../../arm-eabi/lib\libstdc++.a(fundamental_type_info.o)
                0x020519bc                typeinfo for bool*
 .rodata._ZTIb  0x020519cc        0x8 d:/devkitpro/devkitarm/bin/../lib/gcc/arm-eabi/4.5.1/../../../../arm-eabi/lib\libstdc++.a(fundamental_type_info.o)
                0x020519cc                typeinfo for bool
 .rodata._ZTIPKv
                0x020519d4       0x10 d:/devkitpro/devkitarm/bin/../lib/gcc/arm-eabi/4.5.1/../../../../arm-eabi/lib\libstdc++.a(fundamental_type_info.o)
                0x020519d4                typeinfo for void const*
 .rodata._ZTIPv
                0x020519e4       0x10 d:/devkitpro/devkitarm/bin/../lib/gcc/arm-eabi/4.5.1/../../../../arm-eabi/lib\libstdc++.a(fundamental_type_info.o)
                0x020519e4                typeinfo for void*
 .rodata._ZTIv  0x020519f4        0x8 d:/devkitpro/devkitarm/bin/../lib/gcc/arm-eabi/4.5.1/../../../../arm-eabi/lib\libstdc++.a(fundamental_type_info.o)
                0x020519f4                typeinfo for void
 .rodata._ZTSPKDe
                0x020519fc        0x8 d:/devkitpro/devkitarm/bin/../lib/gcc/arm-eabi/4.5.1/../../../../arm-eabi/lib\libstdc++.a(fundamental_type_info.o)
                0x020519fc                typeinfo name for decimal128 const*
 .rodata._ZTSPDe
                0x02051a04        0x4 d:/devkitpro/devkitarm/bin/../lib/gcc/arm-eabi/4.5.1/../../../../arm-eabi/lib\libstdc++.a(fundamental_type_info.o)
                0x02051a04                typeinfo name for decimal128*
 .rodata._ZTSDe
                0x02051a08        0x4 d:/devkitpro/devkitarm/bin/../lib/gcc/arm-eabi/4.5.1/../../../../arm-eabi/lib\libstdc++.a(fundamental_type_info.o)
                0x02051a08                typeinfo name for decimal128
 .rodata._ZTSPKDd
                0x02051a0c        0x8 d:/devkitpro/devkitarm/bin/../lib/gcc/arm-eabi/4.5.1/../../../../arm-eabi/lib\libstdc++.a(fundamental_type_info.o)
                0x02051a0c                typeinfo name for decimal64 const*
 .rodata._ZTSPDd
                0x02051a14        0x4 d:/devkitpro/devkitarm/bin/../lib/gcc/arm-eabi/4.5.1/../../../../arm-eabi/lib\libstdc++.a(fundamental_type_info.o)
                0x02051a14                typeinfo name for decimal64*
 .rodata._ZTSDd
                0x02051a18        0x4 d:/devkitpro/devkitarm/bin/../lib/gcc/arm-eabi/4.5.1/../../../../arm-eabi/lib\libstdc++.a(fundamental_type_info.o)
                0x02051a18                typeinfo name for decimal64
 .rodata._ZTSPKDf
                0x02051a1c        0x8 d:/devkitpro/devkitarm/bin/../lib/gcc/arm-eabi/4.5.1/../../../../arm-eabi/lib\libstdc++.a(fundamental_type_info.o)
                0x02051a1c                typeinfo name for decimal32 const*
 .rodata._ZTSPDf
                0x02051a24        0x4 d:/devkitpro/devkitarm/bin/../lib/gcc/arm-eabi/4.5.1/../../../../arm-eabi/lib\libstdc++.a(fundamental_type_info.o)
                0x02051a24                typeinfo name for decimal32*
 .rodata._ZTSDf
                0x02051a28        0x4 d:/devkitpro/devkitarm/bin/../lib/gcc/arm-eabi/4.5.1/../../../../arm-eabi/lib\libstdc++.a(fundamental_type_info.o)
                0x02051a28                typeinfo name for decimal32
 .rodata._ZTSPKe
                0x02051a2c        0x4 d:/devkitpro/devkitarm/bin/../lib/gcc/arm-eabi/4.5.1/../../../../arm-eabi/lib\libstdc++.a(fundamental_type_info.o)
                0x02051a2c                typeinfo name for long double const*
 .rodata._ZTSPe
                0x02051a30        0x4 d:/devkitpro/devkitarm/bin/../lib/gcc/arm-eabi/4.5.1/../../../../arm-eabi/lib\libstdc++.a(fundamental_type_info.o)
                0x02051a30                typeinfo name for long double*
 .rodata._ZTSe  0x02051a34        0x4 d:/devkitpro/devkitarm/bin/../lib/gcc/arm-eabi/4.5.1/../../../../arm-eabi/lib\libstdc++.a(fundamental_type_info.o)
                0x02051a34                typeinfo name for long double
 .rodata._ZTSPKd
                0x02051a38        0x4 d:/devkitpro/devkitarm/bin/../lib/gcc/arm-eabi/4.5.1/../../../../arm-eabi/lib\libstdc++.a(fundamental_type_info.o)
                0x02051a38                typeinfo name for double const*
 .rodata._ZTSPd
                0x02051a3c        0x4 d:/devkitpro/devkitarm/bin/../lib/gcc/arm-eabi/4.5.1/../../../../arm-eabi/lib\libstdc++.a(fundamental_type_info.o)
                0x02051a3c                typeinfo name for double*
 .rodata._ZTSd  0x02051a40        0x4 d:/devkitpro/devkitarm/bin/../lib/gcc/arm-eabi/4.5.1/../../../../arm-eabi/lib\libstdc++.a(fundamental_type_info.o)
                0x02051a40                typeinfo name for double
 .rodata._ZTSPKf
                0x02051a44        0x4 d:/devkitpro/devkitarm/bin/../lib/gcc/arm-eabi/4.5.1/../../../../arm-eabi/lib\libstdc++.a(fundamental_type_info.o)
                0x02051a44                typeinfo name for float const*
 .rodata._ZTSPf
                0x02051a48        0x4 d:/devkitpro/devkitarm/bin/../lib/gcc/arm-eabi/4.5.1/../../../../arm-eabi/lib\libstdc++.a(fundamental_type_info.o)
                0x02051a48                typeinfo name for float*
 .rodata._ZTSf  0x02051a4c        0x4 d:/devkitpro/devkitarm/bin/../lib/gcc/arm-eabi/4.5.1/../../../../arm-eabi/lib\libstdc++.a(fundamental_type_info.o)
                0x02051a4c                typeinfo name for float
 .rodata._ZTSPKy
                0x02051a50        0x4 d:/devkitpro/devkitarm/bin/../lib/gcc/arm-eabi/4.5.1/../../../../arm-eabi/lib\libstdc++.a(fundamental_type_info.o)
                0x02051a50                typeinfo name for unsigned long long const*
 .rodata._ZTSPy
                0x02051a54        0x4 d:/devkitpro/devkitarm/bin/../lib/gcc/arm-eabi/4.5.1/../../../../arm-eabi/lib\libstdc++.a(fundamental_type_info.o)
                0x02051a54                typeinfo name for unsigned long long*
 .rodata._ZTSy  0x02051a58        0x4 d:/devkitpro/devkitarm/bin/../lib/gcc/arm-eabi/4.5.1/../../../../arm-eabi/lib\libstdc++.a(fundamental_type_info.o)
                0x02051a58                typeinfo name for unsigned long long
 .rodata._ZTSPKx
                0x02051a5c        0x4 d:/devkitpro/devkitarm/bin/../lib/gcc/arm-eabi/4.5.1/../../../../arm-eabi/lib\libstdc++.a(fundamental_type_info.o)
                0x02051a5c                typeinfo name for long long const*
 .rodata._ZTSPx
                0x02051a60        0x4 d:/devkitpro/devkitarm/bin/../lib/gcc/arm-eabi/4.5.1/../../../../arm-eabi/lib\libstdc++.a(fundamental_type_info.o)
                0x02051a60                typeinfo name for long long*
 .rodata._ZTSx  0x02051a64        0x4 d:/devkitpro/devkitarm/bin/../lib/gcc/arm-eabi/4.5.1/../../../../arm-eabi/lib\libstdc++.a(fundamental_type_info.o)
                0x02051a64                typeinfo name for long long
 .rodata._ZTSPKm
                0x02051a68        0x4 d:/devkitpro/devkitarm/bin/../lib/gcc/arm-eabi/4.5.1/../../../../arm-eabi/lib\libstdc++.a(fundamental_type_info.o)
                0x02051a68                typeinfo name for unsigned long const*
 .rodata._ZTSPm
                0x02051a6c        0x4 d:/devkitpro/devkitarm/bin/../lib/gcc/arm-eabi/4.5.1/../../../../arm-eabi/lib\libstdc++.a(fundamental_type_info.o)
                0x02051a6c                typeinfo name for unsigned long*
 .rodata._ZTSm  0x02051a70        0x4 d:/devkitpro/devkitarm/bin/../lib/gcc/arm-eabi/4.5.1/../../../../arm-eabi/lib\libstdc++.a(fundamental_type_info.o)
                0x02051a70                typeinfo name for unsigned long
 .rodata._ZTSPKl
                0x02051a74        0x4 d:/devkitpro/devkitarm/bin/../lib/gcc/arm-eabi/4.5.1/../../../../arm-eabi/lib\libstdc++.a(fundamental_type_info.o)
                0x02051a74                typeinfo name for long const*
 .rodata._ZTSPl
                0x02051a78        0x4 d:/devkitpro/devkitarm/bin/../lib/gcc/arm-eabi/4.5.1/../../../../arm-eabi/lib\libstdc++.a(fundamental_type_info.o)
                0x02051a78                typeinfo name for long*
 .rodata._ZTSl  0x02051a7c        0x4 d:/devkitpro/devkitarm/bin/../lib/gcc/arm-eabi/4.5.1/../../../../arm-eabi/lib\libstdc++.a(fundamental_type_info.o)
                0x02051a7c                typeinfo name for long
 .rodata._ZTSPKj
                0x02051a80        0x4 d:/devkitpro/devkitarm/bin/../lib/gcc/arm-eabi/4.5.1/../../../../arm-eabi/lib\libstdc++.a(fundamental_type_info.o)
                0x02051a80                typeinfo name for unsigned int const*
 .rodata._ZTSPj
                0x02051a84        0x4 d:/devkitpro/devkitarm/bin/../lib/gcc/arm-eabi/4.5.1/../../../../arm-eabi/lib\libstdc++.a(fundamental_type_info.o)
                0x02051a84                typeinfo name for unsigned int*
 .rodata._ZTSj  0x02051a88        0x4 d:/devkitpro/devkitarm/bin/../lib/gcc/arm-eabi/4.5.1/../../../../arm-eabi/lib\libstdc++.a(fundamental_type_info.o)
                0x02051a88                typeinfo name for unsigned int
 .rodata._ZTSPKi
                0x02051a8c        0x4 d:/devkitpro/devkitarm/bin/../lib/gcc/arm-eabi/4.5.1/../../../../arm-eabi/lib\libstdc++.a(fundamental_type_info.o)
                0x02051a8c                typeinfo name for int const*
 .rodata._ZTSPi
                0x02051a90        0x4 d:/devkitpro/devkitarm/bin/../lib/gcc/arm-eabi/4.5.1/../../../../arm-eabi/lib\libstdc++.a(fundamental_type_info.o)
                0x02051a90                typeinfo name for int*
 .rodata._ZTSi  0x02051a94        0x4 d:/devkitpro/devkitarm/bin/../lib/gcc/arm-eabi/4.5.1/../../../../arm-eabi/lib\libstdc++.a(fundamental_type_info.o)
                0x02051a94                typeinfo name for int
 .rodata._ZTSPKt
                0x02051a98        0x4 d:/devkitpro/devkitarm/bin/../lib/gcc/arm-eabi/4.5.1/../../../../arm-eabi/lib\libstdc++.a(fundamental_type_info.o)
                0x02051a98                typeinfo name for unsigned short const*
 .rodata._ZTSPt
                0x02051a9c        0x4 d:/devkitpro/devkitarm/bin/../lib/gcc/arm-eabi/4.5.1/../../../../arm-eabi/lib\libstdc++.a(fundamental_type_info.o)
                0x02051a9c                typeinfo name for unsigned short*
 .rodata._ZTSt  0x02051aa0        0x4 d:/devkitpro/devkitarm/bin/../lib/gcc/arm-eabi/4.5.1/../../../../arm-eabi/lib\libstdc++.a(fundamental_type_info.o)
                0x02051aa0                typeinfo name for unsigned short
 .rodata._ZTSPKs
                0x02051aa4        0x4 d:/devkitpro/devkitarm/bin/../lib/gcc/arm-eabi/4.5.1/../../../../arm-eabi/lib\libstdc++.a(fundamental_type_info.o)
                0x02051aa4                typeinfo name for short const*
 .rodata._ZTSPs
                0x02051aa8        0x4 d:/devkitpro/devkitarm/bin/../lib/gcc/arm-eabi/4.5.1/../../../../arm-eabi/lib\libstdc++.a(fundamental_type_info.o)
                0x02051aa8                typeinfo name for short*
 .rodata._ZTSs  0x02051aac        0x4 d:/devkitpro/devkitarm/bin/../lib/gcc/arm-eabi/4.5.1/../../../../arm-eabi/lib\libstdc++.a(fundamental_type_info.o)
                0x02051aac                typeinfo name for short
 .rodata._ZTSPKh
                0x02051ab0        0x4 d:/devkitpro/devkitarm/bin/../lib/gcc/arm-eabi/4.5.1/../../../../arm-eabi/lib\libstdc++.a(fundamental_type_info.o)
                0x02051ab0                typeinfo name for unsigned char const*
 .rodata._ZTSPh
                0x02051ab4        0x4 d:/devkitpro/devkitarm/bin/../lib/gcc/arm-eabi/4.5.1/../../../../arm-eabi/lib\libstdc++.a(fundamental_type_info.o)
                0x02051ab4                typeinfo name for unsigned char*
 .rodata._ZTSh  0x02051ab8        0x4 d:/devkitpro/devkitarm/bin/../lib/gcc/arm-eabi/4.5.1/../../../../arm-eabi/lib\libstdc++.a(fundamental_type_info.o)
                0x02051ab8                typeinfo name for unsigned char
 .rodata._ZTSPKa
                0x02051abc        0x4 d:/devkitpro/devkitarm/bin/../lib/gcc/arm-eabi/4.5.1/../../../../arm-eabi/lib\libstdc++.a(fundamental_type_info.o)
                0x02051abc                typeinfo name for signed char const*
 .rodata._ZTSPa
                0x02051ac0        0x4 d:/devkitpro/devkitarm/bin/../lib/gcc/arm-eabi/4.5.1/../../../../arm-eabi/lib\libstdc++.a(fundamental_type_info.o)
                0x02051ac0                typeinfo name for signed char*
 .rodata._ZTSa  0x02051ac4        0x4 d:/devkitpro/devkitarm/bin/../lib/gcc/arm-eabi/4.5.1/../../../../arm-eabi/lib\libstdc++.a(fundamental_type_info.o)
                0x02051ac4                typeinfo name for signed char
 .rodata._ZTSPKc
                0x02051ac8        0x4 d:/devkitpro/devkitarm/bin/../lib/gcc/arm-eabi/4.5.1/../../../../arm-eabi/lib\libstdc++.a(fundamental_type_info.o)
                0x02051ac8                typeinfo name for char const*
 .rodata._ZTSPc
                0x02051acc        0x4 d:/devkitpro/devkitarm/bin/../lib/gcc/arm-eabi/4.5.1/../../../../arm-eabi/lib\libstdc++.a(fundamental_type_info.o)
                0x02051acc                typeinfo name for char*
 .rodata._ZTSc  0x02051ad0        0x4 d:/devkitpro/devkitarm/bin/../lib/gcc/arm-eabi/4.5.1/../../../../arm-eabi/lib\libstdc++.a(fundamental_type_info.o)
                0x02051ad0                typeinfo name for char
 .rodata._ZTSPKDi
                0x02051ad4        0x8 d:/devkitpro/devkitarm/bin/../lib/gcc/arm-eabi/4.5.1/../../../../arm-eabi/lib\libstdc++.a(fundamental_type_info.o)
                0x02051ad4                typeinfo name for char32_t const*
 .rodata._ZTSPDi
                0x02051adc        0x4 d:/devkitpro/devkitarm/bin/../lib/gcc/arm-eabi/4.5.1/../../../../arm-eabi/lib\libstdc++.a(fundamental_type_info.o)
                0x02051adc                typeinfo name for char32_t*
 .rodata._ZTSDi
                0x02051ae0        0x4 d:/devkitpro/devkitarm/bin/../lib/gcc/arm-eabi/4.5.1/../../../../arm-eabi/lib\libstdc++.a(fundamental_type_info.o)
                0x02051ae0                typeinfo name for char32_t
 .rodata._ZTSPKDs
                0x02051ae4        0x8 d:/devkitpro/devkitarm/bin/../lib/gcc/arm-eabi/4.5.1/../../../../arm-eabi/lib\libstdc++.a(fundamental_type_info.o)
                0x02051ae4                typeinfo name for char16_t const*
 .rodata._ZTSPDs
                0x02051aec        0x4 d:/devkitpro/devkitarm/bin/../lib/gcc/arm-eabi/4.5.1/../../../../arm-eabi/lib\libstdc++.a(fundamental_type_info.o)
                0x02051aec                typeinfo name for char16_t*
 .rodata._ZTSDs
                0x02051af0        0x4 d:/devkitpro/devkitarm/bin/../lib/gcc/arm-eabi/4.5.1/../../../../arm-eabi/lib\libstdc++.a(fundamental_type_info.o)
                0x02051af0                typeinfo name for char16_t
 .rodata._ZTSPKw
                0x02051af4        0x4 d:/devkitpro/devkitarm/bin/../lib/gcc/arm-eabi/4.5.1/../../../../arm-eabi/lib\libstdc++.a(fundamental_type_info.o)
                0x02051af4                typeinfo name for wchar_t const*
 .rodata._ZTSPw
                0x02051af8        0x4 d:/devkitpro/devkitarm/bin/../lib/gcc/arm-eabi/4.5.1/../../../../arm-eabi/lib\libstdc++.a(fundamental_type_info.o)
                0x02051af8                typeinfo name for wchar_t*
 .rodata._ZTSw  0x02051afc        0x4 d:/devkitpro/devkitarm/bin/../lib/gcc/arm-eabi/4.5.1/../../../../arm-eabi/lib\libstdc++.a(fundamental_type_info.o)
                0x02051afc                typeinfo name for wchar_t
 .rodata._ZTSPKb
                0x02051b00        0x4 d:/devkitpro/devkitarm/bin/../lib/gcc/arm-eabi/4.5.1/../../../../arm-eabi/lib\libstdc++.a(fundamental_type_info.o)
                0x02051b00                typeinfo name for bool const*
 .rodata._ZTSPb
                0x02051b04        0x4 d:/devkitpro/devkitarm/bin/../lib/gcc/arm-eabi/4.5.1/../../../../arm-eabi/lib\libstdc++.a(fundamental_type_info.o)
                0x02051b04                typeinfo name for bool*
 .rodata._ZTSb  0x02051b08        0x4 d:/devkitpro/devkitarm/bin/../lib/gcc/arm-eabi/4.5.1/../../../../arm-eabi/lib\libstdc++.a(fundamental_type_info.o)
                0x02051b08                typeinfo name for bool
 .rodata._ZTSPKv
                0x02051b0c        0x4 d:/devkitpro/devkitarm/bin/../lib/gcc/arm-eabi/4.5.1/../../../../arm-eabi/lib\libstdc++.a(fundamental_type_info.o)
                0x02051b0c                typeinfo name for void const*
 .rodata._ZTSPv
                0x02051b10        0x4 d:/devkitpro/devkitarm/bin/../lib/gcc/arm-eabi/4.5.1/../../../../arm-eabi/lib\libstdc++.a(fundamental_type_info.o)
                0x02051b10                typeinfo name for void*
 .rodata._ZTSv  0x02051b14        0x4 d:/devkitpro/devkitarm/bin/../lib/gcc/arm-eabi/4.5.1/../../../../arm-eabi/lib\libstdc++.a(fundamental_type_info.o)
                0x02051b14                typeinfo name for void
 .rodata._ZTIN10__cxxabiv123__fundamental_type_infoE
                0x02051b18        0xc d:/devkitpro/devkitarm/bin/../lib/gcc/arm-eabi/4.5.1/../../../../arm-eabi/lib\libstdc++.a(fundamental_type_info.o)
                0x02051b18                typeinfo for __cxxabiv1::__fundamental_type_info
 .rodata._ZTSN10__cxxabiv123__fundamental_type_infoE
                0x02051b24       0x28 d:/devkitpro/devkitarm/bin/../lib/gcc/arm-eabi/4.5.1/../../../../arm-eabi/lib\libstdc++.a(fundamental_type_info.o)
                0x02051b24                typeinfo name for __cxxabiv1::__fundamental_type_info
 *fill*         0x02051b4c        0x4 ff
 .rodata._ZTVN10__cxxabiv123__fundamental_type_infoE
                0x02051b50       0x20 d:/devkitpro/devkitarm/bin/../lib/gcc/arm-eabi/4.5.1/../../../../arm-eabi/lib\libstdc++.a(fundamental_type_info.o)
                0x02051b50                vtable for __cxxabiv1::__fundamental_type_info
 .rodata._ZTVSt9bad_alloc
                0x02051b70       0x18 d:/devkitpro/devkitarm/bin/../lib/gcc/arm-eabi/4.5.1/../../../../arm-eabi/lib\libstdc++.a(new_handler.o)
                0x02051b70                vtable for std::bad_alloc
 .rodata._ZTSSt9bad_alloc
                0x02051b88       0x10 d:/devkitpro/devkitarm/bin/../lib/gcc/arm-eabi/4.5.1/../../../../arm-eabi/lib\libstdc++.a(new_handler.o)
                0x02051b88                typeinfo name for std::bad_alloc
 .rodata._ZTISt9bad_alloc
                0x02051b98        0xc d:/devkitpro/devkitarm/bin/../lib/gcc/arm-eabi/4.5.1/../../../../arm-eabi/lib\libstdc++.a(new_handler.o)
                0x02051b98                typeinfo for std::bad_alloc
 .rodata.str1.4
                0x02051ba4        0xf d:/devkitpro/devkitarm/bin/../lib/gcc/arm-eabi/4.5.1/../../../../arm-eabi/lib\libstdc++.a(new_handler.o)
                                 0x10 (size before relaxing)
 *fill*         0x02051bb3        0x1 ff
 .rodata._ZSt7nothrow
                0x02051bb4        0x4 d:/devkitpro/devkitarm/bin/../lib/gcc/arm-eabi/4.5.1/../../../../arm-eabi/lib\libstdc++.a(new_handler.o)
                0x02051bb4                std::nothrow
 .rodata._ZTSN10__cxxabiv119__pointer_type_infoE
                0x02051bb8       0x24 d:/devkitpro/devkitarm/bin/../lib/gcc/arm-eabi/4.5.1/../../../../arm-eabi/lib\libstdc++.a(pointer_type_info.o)
                0x02051bb8                typeinfo name for __cxxabiv1::__pointer_type_info
 .rodata._ZTIN10__cxxabiv119__pointer_type_infoE
                0x02051bdc        0xc d:/devkitpro/devkitarm/bin/../lib/gcc/arm-eabi/4.5.1/../../../../arm-eabi/lib\libstdc++.a(pointer_type_info.o)
                0x02051bdc                typeinfo for __cxxabiv1::__pointer_type_info
 .rodata._ZTVN10__cxxabiv119__pointer_type_infoE
                0x02051be8       0x28 d:/devkitpro/devkitarm/bin/../lib/gcc/arm-eabi/4.5.1/../../../../arm-eabi/lib\libstdc++.a(pointer_type_info.o)
                0x02051be8                vtable for __cxxabiv1::__pointer_type_info
 .rodata.str1.4
                0x02051c10       0x1c d:/devkitpro/devkitarm/bin/../lib/gcc/arm-eabi/4.5.1/../../../../arm-eabi/lib\libstdc++.a(pure.o)
 *fill*         0x02051c2c        0x4 ff
 .rodata._ZTVN10__cxxabiv120__si_class_type_infoE
                0x02051c30       0x30 d:/devkitpro/devkitarm/bin/../lib/gcc/arm-eabi/4.5.1/../../../../arm-eabi/lib\libstdc++.a(si_class_type_info.o)
                0x02051c30                vtable for __cxxabiv1::__si_class_type_info
 .rodata._ZTIN10__cxxabiv120__si_class_type_infoE
                0x02051c60        0xc d:/devkitpro/devkitarm/bin/../lib/gcc/arm-eabi/4.5.1/../../../../arm-eabi/lib\libstdc++.a(si_class_type_info.o)
                0x02051c60                typeinfo for __cxxabiv1::__si_class_type_info
 .rodata._ZTSN10__cxxabiv120__si_class_type_infoE
                0x02051c6c       0x28 d:/devkitpro/devkitarm/bin/../lib/gcc/arm-eabi/4.5.1/../../../../arm-eabi/lib\libstdc++.a(si_class_type_info.o)
                0x02051c6c                typeinfo name for __cxxabiv1::__si_class_type_info
 .rodata._ZTISt9type_info
                0x02051c94        0x8 d:/devkitpro/devkitarm/bin/../lib/gcc/arm-eabi/4.5.1/../../../../arm-eabi/lib\libstdc++.a(tinfo.o)
                0x02051c94                typeinfo for std::type_info
 .rodata._ZTSSt9type_info
                0x02051c9c       0x10 d:/devkitpro/devkitarm/bin/../lib/gcc/arm-eabi/4.5.1/../../../../arm-eabi/lib\libstdc++.a(tinfo.o)
                0x02051c9c                typeinfo name for std::type_info
 *fill*         0x02051cac        0x4 ff
 .rodata._ZTVSt9type_info
                0x02051cb0       0x20 d:/devkitpro/devkitarm/bin/../lib/gcc/arm-eabi/4.5.1/../../../../arm-eabi/lib\libstdc++.a(tinfo.o)
                0x02051cb0                vtable for std::type_info
 .rodata.str1.4
                0x02051cd0       0x94 d:/devkitpro/devkitarm/bin/../lib/gcc/arm-eabi/4.5.1/../../../../arm-eabi/lib\libstdc++.a(vterminate.o)
 .rodata._ZTISt8bad_cast
                0x02051d64        0xc d:/devkitpro/devkitarm/bin/../lib/gcc/arm-eabi/4.5.1/../../../../arm-eabi/lib\libstdc++.a(bad_cast.o)
                0x02051d64                typeinfo for std::bad_cast
 .rodata._ZTSSt8bad_cast
                0x02051d70        0xc d:/devkitpro/devkitarm/bin/../lib/gcc/arm-eabi/4.5.1/../../../../arm-eabi/lib\libstdc++.a(bad_cast.o)
                0x02051d70                typeinfo name for std::bad_cast
 *fill*         0x02051d7c        0x4 ff
 .rodata._ZTVSt8bad_cast
                0x02051d80       0x18 d:/devkitpro/devkitarm/bin/../lib/gcc/arm-eabi/4.5.1/../../../../arm-eabi/lib\libstdc++.a(bad_cast.o)
                0x02051d80                vtable for std::bad_cast
 .rodata.str1.4
                0x02051d98        0xe d:/devkitpro/devkitarm/bin/../lib/gcc/arm-eabi/4.5.1/../../../../arm-eabi/lib\libstdc++.a(bad_cast.o)
                                 0x10 (size before relaxing)
 *fill*         0x02051da6        0x2 ff
 .rodata._ZTVSt10bad_typeid
                0x02051da8       0x18 d:/devkitpro/devkitarm/bin/../lib/gcc/arm-eabi/4.5.1/../../../../arm-eabi/lib\libstdc++.a(bad_typeid.o)
                0x02051da8                vtable for std::bad_typeid
 .rodata._ZTISt10bad_typeid
                0x02051dc0        0xc d:/devkitpro/devkitarm/bin/../lib/gcc/arm-eabi/4.5.1/../../../../arm-eabi/lib\libstdc++.a(bad_typeid.o)
                0x02051dc0                typeinfo for std::bad_typeid
 .rodata.str1.4
                0x02051dcc       0x10 d:/devkitpro/devkitarm/bin/../lib/gcc/arm-eabi/4.5.1/../../../../arm-eabi/lib\libstdc++.a(bad_typeid.o)
 .rodata._ZTSSt10bad_typeid
                0x02051ddc       0x10 d:/devkitpro/devkitarm/bin/../lib/gcc/arm-eabi/4.5.1/../../../../arm-eabi/lib\libstdc++.a(bad_typeid.o)
                0x02051ddc                typeinfo name for std::bad_typeid
 *fill*         0x02051dec        0x4 ff
 .rodata._ZTVN10__cxxabiv117__class_type_infoE
                0x02051df0       0x30 d:/devkitpro/devkitarm/bin/../lib/gcc/arm-eabi/4.5.1/../../../../arm-eabi/lib\libstdc++.a(class_type_info.o)
                0x02051df0                vtable for __cxxabiv1::__class_type_info
 .rodata._ZTIN10__cxxabiv117__class_type_infoE
                0x02051e20        0xc d:/devkitpro/devkitarm/bin/../lib/gcc/arm-eabi/4.5.1/../../../../arm-eabi/lib\libstdc++.a(class_type_info.o)
                0x02051e20                typeinfo for __cxxabiv1::__class_type_info
 .rodata._ZTSN10__cxxabiv117__class_type_infoE
                0x02051e2c       0x24 d:/devkitpro/devkitarm/bin/../lib/gcc/arm-eabi/4.5.1/../../../../arm-eabi/lib\libstdc++.a(class_type_info.o)
                0x02051e2c                typeinfo name for __cxxabiv1::__class_type_info
 .rodata.str1.4
                0x02051e50      0x6db d:/devkitpro/devkitarm/bin/../lib/gcc/arm-eabi/4.5.1/../../../../arm-eabi/lib\libstdc++.a(cp-demangle.o)
                                0x710 (size before relaxing)
 *fill*         0x0205252b        0x1 ff
 .rodata._ZTIN10__cxxabiv117__pbase_type_infoE
                0x0205252c        0xc d:/devkitpro/devkitarm/bin/../lib/gcc/arm-eabi/4.5.1/../../../../arm-eabi/lib\libstdc++.a(pbase_type_info.o)
                0x0205252c                typeinfo for __cxxabiv1::__pbase_type_info
 .rodata._ZTSN10__cxxabiv117__pbase_type_infoE
                0x02052538       0x24 d:/devkitpro/devkitarm/bin/../lib/gcc/arm-eabi/4.5.1/../../../../arm-eabi/lib\libstdc++.a(pbase_type_info.o)
                0x02052538                typeinfo name for __cxxabiv1::__pbase_type_info
 *fill*         0x0205255c        0x4 ff
 .rodata._ZTVN10__cxxabiv117__pbase_type_infoE
                0x02052560       0x28 d:/devkitpro/devkitarm/bin/../lib/gcc/arm-eabi/4.5.1/../../../../arm-eabi/lib\libstdc++.a(pbase_type_info.o)
                0x02052560                vtable for __cxxabiv1::__pbase_type_info
 .rodata.str1.4
                0x02052588        0x4 d:/devkitpro/devkitarm/bin/../lib/gcc/arm-eabi/4.5.1/../../../../arm-eabi/lib\libm.a(lib_a-w_pow.o)
 .rodata.str1.4
                0x00000000        0x4 d:/devkitpro/devkitarm/bin/../lib/gcc/arm-eabi/4.5.1/../../../../arm-eabi/lib\libm.a(lib_a-e_pow.o)
 .rodata.str1.4
                0x0205258c        0x2 d:/devkitpro/devkitarm/bin/../lib/gcc/arm-eabi/4.5.1/../../../../arm-eabi/lib\libg.a(lib_a-impure.o)
                                  0x4 (size before relaxing)
 *fill*         0x0205258e        0x2 ff
 .rodata.str1.4
                0x02052590        0xa d:/devkitpro/devkitarm/bin/../lib/gcc/arm-eabi/4.5.1/../../../../arm-eabi/lib\libg.a(lib_a-strtod.o)
                                 0x10 (size before relaxing)
 *fill*         0x0205259a        0x2 ff
 .rodata.str1.4
                0x0205259c       0x42 d:/devkitpro/devkitarm/bin/../lib/gcc/arm-eabi/4.5.1/../../../../arm-eabi/lib\libg.a(lib_a-svfprintf.o)
                                 0x44 (size before relaxing)
 .rodata.str1.4
                0x00000000       0x44 d:/devkitpro/devkitarm/bin/../lib/gcc/arm-eabi/4.5.1/../../../../arm-eabi/lib\libg.a(lib_a-vfprintf.o)
 *fill*         0x020525de        0x2 ff
 .rodata.str1.4
                0x020525e0       0x10 d:/devkitpro/devkitarm/bin/../lib/gcc/arm-eabi/4.5.1/../../../../arm-eabi/lib\libg.a(lib_a-dtoa.o)
                                 0x14 (size before relaxing)
 .rodata.str1.4
                0x020525f0       0x1b d:/devkitpro/devkitarm/bin/../lib/gcc/arm-eabi/4.5.1/../../../../arm-eabi/lib\libg.a(lib_a-gdtoa-gethex.o)
                                 0x1c (size before relaxing)
 *fill*         0x0205260b        0x1 ff
 .rodata.str1.4
                0x0205260c       0xe0 d:/devkitpro/devkitarm/bin/../lib/gcc/arm-eabi/4.5.1/../../../../arm-eabi/lib\libg.a(lib_a-locale.o)
                                 0xf0 (size before relaxing)
 .rodata.str1.4
                0x00000000       0x30 d:/devkitpro/devkitarm/bin/../lib/gcc/arm-eabi/4.5.1/../../../../arm-eabi/lib\libg.a(lib_a-svfiprintf.o)
 .rodata.str1.4
                0x00000000       0x30 d:/devkitpro/devkitarm/bin/../lib/gcc/arm-eabi/4.5.1/../../../../arm-eabi/lib\libg.a(lib_a-vfiprintf.o)
 .rodata.str1.4
                0x020526ec        0x8 d:/devkitpro/devkitarm/bin/../lib/gcc/arm-eabi/4.5.1/../../../../arm-eabi/lib\libsysbase.a(iosupport.o)
 *(.gnu.linkonce.r*)
                0x020526f4                . = ALIGN (0x4)

.ARM.extab      0x020526f4      0x18c
 *(.ARM.extab* .gnu.linkonce.armextab.*)
 .ARM.extab.text._Znwj
                0x020526f4       0x20 d:/devkitpro/devkitarm/bin/../lib/gcc/arm-eabi/4.5.1/../../../../arm-eabi/lib\libstdc++.a(new_op.o)
 .ARM.extab.text.__cxa_allocate_exception
                0x02052714        0x0 d:/devkitpro/devkitarm/bin/../lib/gcc/arm-eabi/4.5.1/../../../../arm-eabi/lib\libstdc++.a(eh_alloc.o)
 .ARM.extab.text.__cxa_free_exception
                0x02052714        0x0 d:/devkitpro/devkitarm/bin/../lib/gcc/arm-eabi/4.5.1/../../../../arm-eabi/lib\libstdc++.a(eh_alloc.o)
 .ARM.extab.text.__cxa_allocate_dependent_exception
                0x02052714        0x0 d:/devkitpro/devkitarm/bin/../lib/gcc/arm-eabi/4.5.1/../../../../arm-eabi/lib\libstdc++.a(eh_alloc.o)
 .ARM.extab.text.__cxa_free_dependent_exception
                0x02052714        0x0 d:/devkitpro/devkitarm/bin/../lib/gcc/arm-eabi/4.5.1/../../../../arm-eabi/lib\libstdc++.a(eh_alloc.o)
 .ARM.extab.text._GLOBAL__I___cxa_allocate_exception
                0x02052714        0x0 d:/devkitpro/devkitarm/bin/../lib/gcc/arm-eabi/4.5.1/../../../../arm-eabi/lib\libstdc++.a(eh_alloc.o)
 .ARM.extab.text.__cxa_type_match
                0x02052714        0x0 d:/devkitpro/devkitarm/bin/../lib/gcc/arm-eabi/4.5.1/../../../../arm-eabi/lib\libstdc++.a(eh_arm.o)
 .ARM.extab.text.__cxa_begin_cleanup
                0x02052714        0x0 d:/devkitpro/devkitarm/bin/../lib/gcc/arm-eabi/4.5.1/../../../../arm-eabi/lib\libstdc++.a(eh_arm.o)
 .ARM.extab.text.__gnu_end_cleanup
                0x02052714        0x0 d:/devkitpro/devkitarm/bin/../lib/gcc/arm-eabi/4.5.1/../../../../arm-eabi/lib\libstdc++.a(eh_arm.o)
 .ARM.extab.text.__cxa_bad_cast
                0x02052714        0xc d:/devkitpro/devkitarm/bin/../lib/gcc/arm-eabi/4.5.1/../../../../arm-eabi/lib\libstdc++.a(eh_aux_runtime.o)
 .ARM.extab.text.__cxa_bad_typeid
                0x02052720        0xc d:/devkitpro/devkitarm/bin/../lib/gcc/arm-eabi/4.5.1/../../../../arm-eabi/lib\libstdc++.a(eh_aux_runtime.o)
 .ARM.extab.text.__cxa_call_terminate
                0x0205272c        0x0 d:/devkitpro/devkitarm/bin/../lib/gcc/arm-eabi/4.5.1/../../../../arm-eabi/lib\libstdc++.a(eh_call.o)
 .ARM.extab.text.__cxa_call_unexpected
                0x0205272c       0x30 d:/devkitpro/devkitarm/bin/../lib/gcc/arm-eabi/4.5.1/../../../../arm-eabi/lib\libstdc++.a(eh_call.o)
 .ARM.extab.text.__cxa_get_exception_ptr
                0x0205275c        0x0 d:/devkitpro/devkitarm/bin/../lib/gcc/arm-eabi/4.5.1/../../../../arm-eabi/lib\libstdc++.a(eh_catch.o)
 .ARM.extab.text.__cxa_begin_catch
                0x0205275c       0x20 d:/devkitpro/devkitarm/bin/../lib/gcc/arm-eabi/4.5.1/../../../../arm-eabi/lib\libstdc++.a(eh_catch.o)
 .ARM.extab.text.__cxa_end_catch
                0x0205277c        0xc d:/devkitpro/devkitarm/bin/../lib/gcc/arm-eabi/4.5.1/../../../../arm-eabi/lib\libstdc++.a(eh_catch.o)
 .ARM.extab.text._ZSt18uncaught_exceptionv
                0x02052788        0x0 d:/devkitpro/devkitarm/bin/../lib/gcc/arm-eabi/4.5.1/../../../../arm-eabi/lib\libstdc++.a(eh_catch.o)
 .ARM.extab.text._ZNSt9exceptionD2Ev
                0x02052788        0x0 d:/devkitpro/devkitarm/bin/../lib/gcc/arm-eabi/4.5.1/../../../../arm-eabi/lib\libstdc++.a(eh_exception.o)
 .ARM.extab.text._ZNSt13bad_exceptionD2Ev
                0x02052788        0x0 d:/devkitpro/devkitarm/bin/../lib/gcc/arm-eabi/4.5.1/../../../../arm-eabi/lib\libstdc++.a(eh_exception.o)
 .ARM.extab.text._ZN10__cxxabiv115__forced_unwindD2Ev
                0x02052788        0x0 d:/devkitpro/devkitarm/bin/../lib/gcc/arm-eabi/4.5.1/../../../../arm-eabi/lib\libstdc++.a(eh_exception.o)
 .ARM.extab.text._ZN10__cxxabiv119__foreign_exceptionD2Ev
                0x02052788        0x0 d:/devkitpro/devkitarm/bin/../lib/gcc/arm-eabi/4.5.1/../../../../arm-eabi/lib\libstdc++.a(eh_exception.o)
 .ARM.extab.text._ZNKSt9exception4whatEv
                0x02052788        0x0 d:/devkitpro/devkitarm/bin/../lib/gcc/arm-eabi/4.5.1/../../../../arm-eabi/lib\libstdc++.a(eh_exception.o)
 .ARM.extab.text._ZNKSt13bad_exception4whatEv
                0x02052788        0x0 d:/devkitpro/devkitarm/bin/../lib/gcc/arm-eabi/4.5.1/../../../../arm-eabi/lib\libstdc++.a(eh_exception.o)
 .ARM.extab.text._ZN10__cxxabiv119__foreign_exceptionD0Ev
                0x02052788        0x0 d:/devkitpro/devkitarm/bin/../lib/gcc/arm-eabi/4.5.1/../../../../arm-eabi/lib\libstdc++.a(eh_exception.o)
 .ARM.extab.text._ZN10__cxxabiv115__forced_unwindD0Ev
                0x02052788        0x0 d:/devkitpro/devkitarm/bin/../lib/gcc/arm-eabi/4.5.1/../../../../arm-eabi/lib\libstdc++.a(eh_exception.o)
 .ARM.extab.text._ZNSt13bad_exceptionD0Ev
                0x02052788        0x0 d:/devkitpro/devkitarm/bin/../lib/gcc/arm-eabi/4.5.1/../../../../arm-eabi/lib\libstdc++.a(eh_exception.o)
 .ARM.extab.text._ZNSt9exceptionD0Ev
                0x02052788        0x0 d:/devkitpro/devkitarm/bin/../lib/gcc/arm-eabi/4.5.1/../../../../arm-eabi/lib\libstdc++.a(eh_exception.o)
 .ARM.extab.text.__cxa_get_globals_fast
                0x02052788        0x0 d:/devkitpro/devkitarm/bin/../lib/gcc/arm-eabi/4.5.1/../../../../arm-eabi/lib\libstdc++.a(eh_globals.o)
 .ARM.extab.text.__cxa_get_globals
                0x02052788        0x0 d:/devkitpro/devkitarm/bin/../lib/gcc/arm-eabi/4.5.1/../../../../arm-eabi/lib\libstdc++.a(eh_globals.o)
 .ARM.extab.text._ZL12read_sleb128PKhPl
                0x02052788        0x0 d:/devkitpro/devkitarm/bin/../lib/gcc/arm-eabi/4.5.1/../../../../arm-eabi/lib\libstdc++.a(eh_personality.o)
 .ARM.extab.text._ZL28read_encoded_value_with_basehjPKhPj
                0x02052788        0x0 d:/devkitpro/devkitarm/bin/../lib/gcc/arm-eabi/4.5.1/../../../../arm-eabi/lib\libstdc++.a(eh_personality.o)
 .ARM.extab.text._ZL21base_of_encoded_valuehP15_Unwind_Context
                0x02052788        0xc d:/devkitpro/devkitarm/bin/../lib/gcc/arm-eabi/4.5.1/../../../../arm-eabi/lib\libstdc++.a(eh_personality.o)
 .ARM.extab.text._ZL17parse_lsda_headerP15_Unwind_ContextPKhP16lsda_header_info
                0x02052794        0x0 d:/devkitpro/devkitarm/bin/../lib/gcc/arm-eabi/4.5.1/../../../../arm-eabi/lib\libstdc++.a(eh_personality.o)
 .ARM.extab.text.__gxx_personality_v0
                0x02052794       0x24 d:/devkitpro/devkitarm/bin/../lib/gcc/arm-eabi/4.5.1/../../../../arm-eabi/lib\libstdc++.a(eh_personality.o)
 .ARM.extab.text._ZN10__cxxabiv111__terminateEPFvvE
                0x020527b8       0x28 d:/devkitpro/devkitarm/bin/../lib/gcc/arm-eabi/4.5.1/../../../../arm-eabi/lib\libstdc++.a(eh_terminate.o)
 .ARM.extab.text._ZSt9terminatev
                0x020527e0        0x0 d:/devkitpro/devkitarm/bin/../lib/gcc/arm-eabi/4.5.1/../../../../arm-eabi/lib\libstdc++.a(eh_terminate.o)
 .ARM.extab.text._ZN10__cxxabiv112__unexpectedEPFvvE
                0x020527e0        0xc d:/devkitpro/devkitarm/bin/../lib/gcc/arm-eabi/4.5.1/../../../../arm-eabi/lib\libstdc++.a(eh_terminate.o)
 .ARM.extab.text._ZSt10unexpectedv
                0x020527ec        0xc d:/devkitpro/devkitarm/bin/../lib/gcc/arm-eabi/4.5.1/../../../../arm-eabi/lib\libstdc++.a(eh_terminate.o)
 .ARM.extab.text._ZSt13set_terminatePFvvE
                0x020527f8        0x0 d:/devkitpro/devkitarm/bin/../lib/gcc/arm-eabi/4.5.1/../../../../arm-eabi/lib\libstdc++.a(eh_terminate.o)
 .ARM.extab.text._ZSt14set_unexpectedPFvvE
                0x020527f8        0x0 d:/devkitpro/devkitarm/bin/../lib/gcc/arm-eabi/4.5.1/../../../../arm-eabi/lib\libstdc++.a(eh_terminate.o)
 .ARM.extab.text._ZL23__gxx_exception_cleanup19_Unwind_Reason_CodeP21_Unwind_Control_Block
                0x020527f8        0x0 d:/devkitpro/devkitarm/bin/../lib/gcc/arm-eabi/4.5.1/../../../../arm-eabi/lib\libstdc++.a(eh_throw.o)
 .ARM.extab.text.__cxa_throw
                0x020527f8        0x0 d:/devkitpro/devkitarm/bin/../lib/gcc/arm-eabi/4.5.1/../../../../arm-eabi/lib\libstdc++.a(eh_throw.o)
 .ARM.extab.text.__cxa_rethrow
                0x020527f8        0x0 d:/devkitpro/devkitarm/bin/../lib/gcc/arm-eabi/4.5.1/../../../../arm-eabi/lib\libstdc++.a(eh_throw.o)
 .ARM.extab.text._ZN10__cxxabiv123__fundamental_type_infoD2Ev
                0x020527f8        0x0 d:/devkitpro/devkitarm/bin/../lib/gcc/arm-eabi/4.5.1/../../../../arm-eabi/lib\libstdc++.a(fundamental_type_info.o)
 .ARM.extab.text._ZN10__cxxabiv123__fundamental_type_infoD0Ev
                0x020527f8        0x0 d:/devkitpro/devkitarm/bin/../lib/gcc/arm-eabi/4.5.1/../../../../arm-eabi/lib\libstdc++.a(fundamental_type_info.o)
 .ARM.extab.text._ZNKSt9bad_alloc4whatEv
                0x020527f8        0x0 d:/devkitpro/devkitarm/bin/../lib/gcc/arm-eabi/4.5.1/../../../../arm-eabi/lib\libstdc++.a(new_handler.o)
 .ARM.extab.text._ZNSt9bad_allocD2Ev
                0x020527f8        0x0 d:/devkitpro/devkitarm/bin/../lib/gcc/arm-eabi/4.5.1/../../../../arm-eabi/lib\libstdc++.a(new_handler.o)
 .ARM.extab.text._ZNSt9bad_allocD0Ev
                0x020527f8        0x0 d:/devkitpro/devkitarm/bin/../lib/gcc/arm-eabi/4.5.1/../../../../arm-eabi/lib\libstdc++.a(new_handler.o)
 .ARM.extab.text._ZSt15set_new_handlerPFvvE
                0x020527f8        0x0 d:/devkitpro/devkitarm/bin/../lib/gcc/arm-eabi/4.5.1/../../../../arm-eabi/lib\libstdc++.a(new_handler.o)
 .ARM.extab.text._ZNK10__cxxabiv119__pointer_type_info14__is_pointer_pEv
                0x020527f8        0x0 d:/devkitpro/devkitarm/bin/../lib/gcc/arm-eabi/4.5.1/../../../../arm-eabi/lib\libstdc++.a(pointer_type_info.o)
 .ARM.extab.text._ZNK10__cxxabiv119__pointer_type_info15__pointer_catchEPKNS_17__pbase_type_infoEPPvj
                0x020527f8        0x0 d:/devkitpro/devkitarm/bin/../lib/gcc/arm-eabi/4.5.1/../../../../arm-eabi/lib\libstdc++.a(pointer_type_info.o)
 .ARM.extab.text._ZN10__cxxabiv119__pointer_type_infoD2Ev
                0x020527f8        0x0 d:/devkitpro/devkitarm/bin/../lib/gcc/arm-eabi/4.5.1/../../../../arm-eabi/lib\libstdc++.a(pointer_type_info.o)
 .ARM.extab.text._ZN10__cxxabiv119__pointer_type_infoD0Ev
                0x020527f8        0x0 d:/devkitpro/devkitarm/bin/../lib/gcc/arm-eabi/4.5.1/../../../../arm-eabi/lib\libstdc++.a(pointer_type_info.o)
 .ARM.extab.text.__cxa_pure_virtual
                0x020527f8        0xc d:/devkitpro/devkitarm/bin/../lib/gcc/arm-eabi/4.5.1/../../../../arm-eabi/lib\libstdc++.a(pure.o)
 .ARM.extab.text._ZNK10__cxxabiv120__si_class_type_info11__do_upcastEPKNS_17__class_type_infoEPKvRNS1_15__upcast_resultE
                0x02052804        0x0 d:/devkitpro/devkitarm/bin/../lib/gcc/arm-eabi/4.5.1/../../../../arm-eabi/lib\libstdc++.a(si_class_type_info.o)
 .ARM.extab.text._ZNK10__cxxabiv120__si_class_type_info12__do_dyncastEiNS_17__class_type_info10__sub_kindEPKS1_PKvS4_S6_RNS1_16__dyncast_resultE
                0x02052804        0x0 d:/devkitpro/devkitarm/bin/../lib/gcc/arm-eabi/4.5.1/../../../../arm-eabi/lib\libstdc++.a(si_class_type_info.o)
 .ARM.extab.text._ZNK10__cxxabiv120__si_class_type_info20__do_find_public_srcEiPKvPKNS_17__class_type_infoES2_
                0x02052804        0x0 d:/devkitpro/devkitarm/bin/../lib/gcc/arm-eabi/4.5.1/../../../../arm-eabi/lib\libstdc++.a(si_class_type_info.o)
 .ARM.extab.text._ZN10__cxxabiv120__si_class_type_infoD2Ev
                0x02052804        0x0 d:/devkitpro/devkitarm/bin/../lib/gcc/arm-eabi/4.5.1/../../../../arm-eabi/lib\libstdc++.a(si_class_type_info.o)
 .ARM.extab.text._ZN10__cxxabiv120__si_class_type_infoD0Ev
                0x02052804        0x0 d:/devkitpro/devkitarm/bin/../lib/gcc/arm-eabi/4.5.1/../../../../arm-eabi/lib\libstdc++.a(si_class_type_info.o)
 .ARM.extab.text._ZNSt9type_infoD2Ev
                0x02052804        0x0 d:/devkitpro/devkitarm/bin/../lib/gcc/arm-eabi/4.5.1/../../../../arm-eabi/lib\libstdc++.a(tinfo.o)
 .ARM.extab.text._ZNKSt9type_info14__is_pointer_pEv
                0x02052804        0x0 d:/devkitpro/devkitarm/bin/../lib/gcc/arm-eabi/4.5.1/../../../../arm-eabi/lib\libstdc++.a(tinfo.o)
 .ARM.extab.text._ZNKSt9type_info15__is_function_pEv
                0x02052804        0x0 d:/devkitpro/devkitarm/bin/../lib/gcc/arm-eabi/4.5.1/../../../../arm-eabi/lib\libstdc++.a(tinfo.o)
 .ARM.extab.text._ZNKSt9type_info11__do_upcastEPKN10__cxxabiv117__class_type_infoEPPv
                0x02052804        0x0 d:/devkitpro/devkitarm/bin/../lib/gcc/arm-eabi/4.5.1/../../../../arm-eabi/lib\libstdc++.a(tinfo.o)
 .ARM.extab.text._ZNSt9type_infoD0Ev
                0x02052804        0x0 d:/devkitpro/devkitarm/bin/../lib/gcc/arm-eabi/4.5.1/../../../../arm-eabi/lib\libstdc++.a(tinfo.o)
 .ARM.extab.text._ZNKSt9type_infoeqERKS_
                0x02052804        0x0 d:/devkitpro/devkitarm/bin/../lib/gcc/arm-eabi/4.5.1/../../../../arm-eabi/lib\libstdc++.a(tinfo.o)
 .ARM.extab.text._ZNKSt9type_info10__do_catchEPKS_PPvj
                0x02052804        0x0 d:/devkitpro/devkitarm/bin/../lib/gcc/arm-eabi/4.5.1/../../../../arm-eabi/lib\libstdc++.a(tinfo.o)
 .ARM.extab.text._ZN9__gnu_cxx27__verbose_terminate_handlerEv
                0x02052804       0x40 d:/devkitpro/devkitarm/bin/../lib/gcc/arm-eabi/4.5.1/../../../../arm-eabi/lib\libstdc++.a(vterminate.o)
 .ARM.extab.text._ZNKSt8bad_cast4whatEv
                0x02052844        0x0 d:/devkitpro/devkitarm/bin/../lib/gcc/arm-eabi/4.5.1/../../../../arm-eabi/lib\libstdc++.a(bad_cast.o)
 .ARM.extab.text._ZNSt8bad_castD2Ev
                0x02052844        0x0 d:/devkitpro/devkitarm/bin/../lib/gcc/arm-eabi/4.5.1/../../../../arm-eabi/lib\libstdc++.a(bad_cast.o)
 .ARM.extab.text._ZNSt8bad_castD0Ev
                0x02052844        0x0 d:/devkitpro/devkitarm/bin/../lib/gcc/arm-eabi/4.5.1/../../../../arm-eabi/lib\libstdc++.a(bad_cast.o)
 .ARM.extab.text._ZNKSt10bad_typeid4whatEv
                0x02052844        0x0 d:/devkitpro/devkitarm/bin/../lib/gcc/arm-eabi/4.5.1/../../../../arm-eabi/lib\libstdc++.a(bad_typeid.o)
 .ARM.extab.text._ZNSt10bad_typeidD2Ev
                0x02052844        0x0 d:/devkitpro/devkitarm/bin/../lib/gcc/arm-eabi/4.5.1/../../../../arm-eabi/lib\libstdc++.a(bad_typeid.o)
 .ARM.extab.text._ZNSt10bad_typeidD0Ev
                0x02052844        0x0 d:/devkitpro/devkitarm/bin/../lib/gcc/arm-eabi/4.5.1/../../../../arm-eabi/lib\libstdc++.a(bad_typeid.o)
 .ARM.extab.text._ZNK10__cxxabiv117__class_type_info11__do_upcastEPKS0_PPv
                0x02052844        0x0 d:/devkitpro/devkitarm/bin/../lib/gcc/arm-eabi/4.5.1/../../../../arm-eabi/lib\libstdc++.a(class_type_info.o)
 .ARM.extab.text._ZNK10__cxxabiv117__class_type_info20__do_find_public_srcEiPKvPKS0_S2_
                0x02052844        0x0 d:/devkitpro/devkitarm/bin/../lib/gcc/arm-eabi/4.5.1/../../../../arm-eabi/lib\libstdc++.a(class_type_info.o)
 .ARM.extab.text._ZNK10__cxxabiv117__class_type_info11__do_upcastEPKS0_PKvRNS0_15__upcast_resultE
                0x02052844        0x0 d:/devkitpro/devkitarm/bin/../lib/gcc/arm-eabi/4.5.1/../../../../arm-eabi/lib\libstdc++.a(class_type_info.o)
 .ARM.extab.text._ZNK10__cxxabiv117__class_type_info12__do_dyncastEiNS0_10__sub_kindEPKS0_PKvS3_S5_RNS0_16__dyncast_resultE
                0x02052844        0x0 d:/devkitpro/devkitarm/bin/../lib/gcc/arm-eabi/4.5.1/../../../../arm-eabi/lib\libstdc++.a(class_type_info.o)
 .ARM.extab.text._ZNK10__cxxabiv117__class_type_info10__do_catchEPKSt9type_infoPPvj
                0x02052844        0x0 d:/devkitpro/devkitarm/bin/../lib/gcc/arm-eabi/4.5.1/../../../../arm-eabi/lib\libstdc++.a(class_type_info.o)
 .ARM.extab.text._ZN10__cxxabiv117__class_type_infoD2Ev
                0x02052844        0x0 d:/devkitpro/devkitarm/bin/../lib/gcc/arm-eabi/4.5.1/../../../../arm-eabi/lib\libstdc++.a(class_type_info.o)
 .ARM.extab.text._ZN10__cxxabiv117__class_type_infoD0Ev
                0x02052844        0x0 d:/devkitpro/devkitarm/bin/../lib/gcc/arm-eabi/4.5.1/../../../../arm-eabi/lib\libstdc++.a(class_type_info.o)
 .ARM.extab.text._ZdlPv
                0x02052844        0x0 d:/devkitpro/devkitarm/bin/../lib/gcc/arm-eabi/4.5.1/../../../../arm-eabi/lib\libstdc++.a(del_op.o)
 .ARM.extab.text.__cxa_current_exception_type
                0x02052844        0x0 d:/devkitpro/devkitarm/bin/../lib/gcc/arm-eabi/4.5.1/../../../../arm-eabi/lib\libstdc++.a(eh_type.o)
 .ARM.extab.text._ZNK10__cxxabiv117__pbase_type_info15__pointer_catchEPKS0_PPvj
                0x02052844        0xc d:/devkitpro/devkitarm/bin/../lib/gcc/arm-eabi/4.5.1/../../../../arm-eabi/lib\libstdc++.a(pbase_type_info.o)
 .ARM.extab.text._ZNK10__cxxabiv117__pbase_type_info10__do_catchEPKSt9type_infoPPvj
                0x02052850        0x0 d:/devkitpro/devkitarm/bin/../lib/gcc/arm-eabi/4.5.1/../../../../arm-eabi/lib\libstdc++.a(pbase_type_info.o)
 .ARM.extab.text._ZN10__cxxabiv117__pbase_type_infoD2Ev
                0x02052850        0x0 d:/devkitpro/devkitarm/bin/../lib/gcc/arm-eabi/4.5.1/../../../../arm-eabi/lib\libstdc++.a(pbase_type_info.o)
 .ARM.extab.text._ZN10__cxxabiv117__pbase_type_infoD0Ev
                0x02052850        0x0 d:/devkitpro/devkitarm/bin/../lib/gcc/arm-eabi/4.5.1/../../../../arm-eabi/lib\libstdc++.a(pbase_type_info.o)
 .ARM.extab     0x02052850       0x18 d:/devkitpro/devkitarm/bin/../lib/gcc/arm-eabi/4.5.1\libgcc.a(unwind-arm.o)
 .ARM.extab     0x02052868       0x18 d:/devkitpro/devkitarm/bin/../lib/gcc/arm-eabi/4.5.1\libgcc.a(pr-support.o)
 .ARM.extab     0x02052880        0x0 d:/devkitpro/devkitarm/bin/../lib/gcc/arm-eabi/4.5.1\libgcc.a(bpabi.o)
 .ARM.extab     0x02052880        0x0 d:/devkitpro/devkitarm/bin/../lib/gcc/arm-eabi/4.5.1\libgcc.a(_divdi3.o)
 .ARM.extab     0x02052880        0x0 d:/devkitpro/devkitarm/bin/../lib/gcc/arm-eabi/4.5.1\libgcc.a(_udivdi3.o)
                0x02052880                __exidx_start = .

.ARM.exidx      0x02052880      0x250
 *(.ARM.exidx* .gnu.linkonce.armexidx.*)
 .ARM.exidx.text._Znwj
                0x02052960        0x8 d:/devkitpro/devkitarm/bin/../lib/gcc/arm-eabi/4.5.1/../../../../arm-eabi/lib\libstdc++.a(new_op.o)
 .ARM.exidx.text.__cxa_allocate_exception
                0x02052968        0x8 d:/devkitpro/devkitarm/bin/../lib/gcc/arm-eabi/4.5.1/../../../../arm-eabi/lib\libstdc++.a(eh_alloc.o)
 .ARM.exidx.text.__cxa_free_exception
                0x02052970        0x0 d:/devkitpro/devkitarm/bin/../lib/gcc/arm-eabi/4.5.1/../../../../arm-eabi/lib\libstdc++.a(eh_alloc.o)
                                  0x8 (size before relaxing)
 .ARM.exidx.text.__cxa_allocate_dependent_exception
                0x02052970        0x0 d:/devkitpro/devkitarm/bin/../lib/gcc/arm-eabi/4.5.1/../../../../arm-eabi/lib\libstdc++.a(eh_alloc.o)
                                  0x8 (size before relaxing)
 .ARM.exidx.text.__cxa_free_dependent_exception
                0x02052970        0x0 d:/devkitpro/devkitarm/bin/../lib/gcc/arm-eabi/4.5.1/../../../../arm-eabi/lib\libstdc++.a(eh_alloc.o)
                                  0x8 (size before relaxing)
 .ARM.exidx.text._GLOBAL__I___cxa_allocate_exception
                0x02052970        0x0 d:/devkitpro/devkitarm/bin/../lib/gcc/arm-eabi/4.5.1/../../../../arm-eabi/lib\libstdc++.a(eh_alloc.o)
                                  0x8 (size before relaxing)
 .ARM.exidx.text.__cxa_type_match
                0x02052970        0x8 d:/devkitpro/devkitarm/bin/../lib/gcc/arm-eabi/4.5.1/../../../../arm-eabi/lib\libstdc++.a(eh_arm.o)
 .ARM.exidx.text.__cxa_begin_cleanup
                0x02052978        0x8 d:/devkitpro/devkitarm/bin/../lib/gcc/arm-eabi/4.5.1/../../../../arm-eabi/lib\libstdc++.a(eh_arm.o)
 .ARM.exidx.text.__gnu_end_cleanup
                0x02052980        0x0 d:/devkitpro/devkitarm/bin/../lib/gcc/arm-eabi/4.5.1/../../../../arm-eabi/lib\libstdc++.a(eh_arm.o)
                                  0x8 (size before relaxing)
 .ARM.exidx.text.__cxa_bad_cast
                0x02052980        0x8 d:/devkitpro/devkitarm/bin/../lib/gcc/arm-eabi/4.5.1/../../../../arm-eabi/lib\libstdc++.a(eh_aux_runtime.o)
 .ARM.exidx.text.__cxa_bad_typeid
                0x02052988        0x8 d:/devkitpro/devkitarm/bin/../lib/gcc/arm-eabi/4.5.1/../../../../arm-eabi/lib\libstdc++.a(eh_aux_runtime.o)
 .ARM.exidx.text.__cxa_call_terminate
                0x02052990        0x8 d:/devkitpro/devkitarm/bin/../lib/gcc/arm-eabi/4.5.1/../../../../arm-eabi/lib\libstdc++.a(eh_call.o)
 .ARM.exidx.text.__cxa_call_unexpected
                0x02052998        0x8 d:/devkitpro/devkitarm/bin/../lib/gcc/arm-eabi/4.5.1/../../../../arm-eabi/lib\libstdc++.a(eh_call.o)
 .ARM.exidx.text.__cxa_get_exception_ptr
                0x020529a0        0x8 d:/devkitpro/devkitarm/bin/../lib/gcc/arm-eabi/4.5.1/../../../../arm-eabi/lib\libstdc++.a(eh_catch.o)
 .ARM.exidx.text.__cxa_begin_catch
                0x020529a8        0x8 d:/devkitpro/devkitarm/bin/../lib/gcc/arm-eabi/4.5.1/../../../../arm-eabi/lib\libstdc++.a(eh_catch.o)
 .ARM.exidx.text.__cxa_end_catch
                0x020529b0        0x8 d:/devkitpro/devkitarm/bin/../lib/gcc/arm-eabi/4.5.1/../../../../arm-eabi/lib\libstdc++.a(eh_catch.o)
 .ARM.exidx.text._ZSt18uncaught_exceptionv
                0x020529b8        0x8 d:/devkitpro/devkitarm/bin/../lib/gcc/arm-eabi/4.5.1/../../../../arm-eabi/lib\libstdc++.a(eh_catch.o)
 .ARM.exidx.text._ZNSt9exceptionD2Ev
                0x020529c0        0x0 d:/devkitpro/devkitarm/bin/../lib/gcc/arm-eabi/4.5.1/../../../../arm-eabi/lib\libstdc++.a(eh_exception.o)
                                  0x8 (size before relaxing)
 .ARM.exidx.text._ZNSt13bad_exceptionD2Ev
                0x020529c0        0x0 d:/devkitpro/devkitarm/bin/../lib/gcc/arm-eabi/4.5.1/../../../../arm-eabi/lib\libstdc++.a(eh_exception.o)
                                  0x8 (size before relaxing)
 .ARM.exidx.text._ZN10__cxxabiv115__forced_unwindD2Ev
                0x020529c0        0x0 d:/devkitpro/devkitarm/bin/../lib/gcc/arm-eabi/4.5.1/../../../../arm-eabi/lib\libstdc++.a(eh_exception.o)
                                  0x8 (size before relaxing)
 .ARM.exidx.text._ZN10__cxxabiv119__foreign_exceptionD2Ev
                0x020529c0        0x0 d:/devkitpro/devkitarm/bin/../lib/gcc/arm-eabi/4.5.1/../../../../arm-eabi/lib\libstdc++.a(eh_exception.o)
                                  0x8 (size before relaxing)
 .ARM.exidx.text._ZNKSt9exception4whatEv
                0x020529c0        0x0 d:/devkitpro/devkitarm/bin/../lib/gcc/arm-eabi/4.5.1/../../../../arm-eabi/lib\libstdc++.a(eh_exception.o)
                                  0x8 (size before relaxing)
 .ARM.exidx.text._ZNKSt13bad_exception4whatEv
                0x020529c0        0x0 d:/devkitpro/devkitarm/bin/../lib/gcc/arm-eabi/4.5.1/../../../../arm-eabi/lib\libstdc++.a(eh_exception.o)
                                  0x8 (size before relaxing)
 .ARM.exidx.text._ZN10__cxxabiv119__foreign_exceptionD0Ev
                0x020529c0        0x0 d:/devkitpro/devkitarm/bin/../lib/gcc/arm-eabi/4.5.1/../../../../arm-eabi/lib\libstdc++.a(eh_exception.o)
                                  0x8 (size before relaxing)
 .ARM.exidx.text._ZN10__cxxabiv115__forced_unwindD0Ev
                0x020529c0        0x0 d:/devkitpro/devkitarm/bin/../lib/gcc/arm-eabi/4.5.1/../../../../arm-eabi/lib\libstdc++.a(eh_exception.o)
                                  0x8 (size before relaxing)
 .ARM.exidx.text._ZNSt13bad_exceptionD0Ev
                0x020529c0        0x0 d:/devkitpro/devkitarm/bin/../lib/gcc/arm-eabi/4.5.1/../../../../arm-eabi/lib\libstdc++.a(eh_exception.o)
                                  0x8 (size before relaxing)
 .ARM.exidx.text._ZNSt9exceptionD0Ev
                0x020529c0        0x0 d:/devkitpro/devkitarm/bin/../lib/gcc/arm-eabi/4.5.1/../../../../arm-eabi/lib\libstdc++.a(eh_exception.o)
                                  0x8 (size before relaxing)
 .ARM.exidx.text.__cxa_get_globals_fast
                0x020529c0        0x0 d:/devkitpro/devkitarm/bin/../lib/gcc/arm-eabi/4.5.1/../../../../arm-eabi/lib\libstdc++.a(eh_globals.o)
                                  0x8 (size before relaxing)
 .ARM.exidx.text.__cxa_get_globals
                0x020529c0        0x0 d:/devkitpro/devkitarm/bin/../lib/gcc/arm-eabi/4.5.1/../../../../arm-eabi/lib\libstdc++.a(eh_globals.o)
                                  0x8 (size before relaxing)
 .ARM.exidx.text._ZL12read_sleb128PKhPl
                0x020529c0        0x0 d:/devkitpro/devkitarm/bin/../lib/gcc/arm-eabi/4.5.1/../../../../arm-eabi/lib\libstdc++.a(eh_personality.o)
                                  0x8 (size before relaxing)
 .ARM.exidx.text._ZL28read_encoded_value_with_basehjPKhPj
                0x020529c0        0x8 d:/devkitpro/devkitarm/bin/../lib/gcc/arm-eabi/4.5.1/../../../../arm-eabi/lib\libstdc++.a(eh_personality.o)
 .ARM.exidx.text._ZL21base_of_encoded_valuehP15_Unwind_Context
                0x020529c8        0x8 d:/devkitpro/devkitarm/bin/../lib/gcc/arm-eabi/4.5.1/../../../../arm-eabi/lib\libstdc++.a(eh_personality.o)
 .ARM.exidx.text._ZL17parse_lsda_headerP15_Unwind_ContextPKhP16lsda_header_info
                0x020529d0        0x8 d:/devkitpro/devkitarm/bin/../lib/gcc/arm-eabi/4.5.1/../../../../arm-eabi/lib\libstdc++.a(eh_personality.o)
 .ARM.exidx.text.__gxx_personality_v0
                0x020529d8        0x8 d:/devkitpro/devkitarm/bin/../lib/gcc/arm-eabi/4.5.1/../../../../arm-eabi/lib\libstdc++.a(eh_personality.o)
 .ARM.exidx.text._ZN10__cxxabiv111__terminateEPFvvE
                0x020529e0        0x8 d:/devkitpro/devkitarm/bin/../lib/gcc/arm-eabi/4.5.1/../../../../arm-eabi/lib\libstdc++.a(eh_terminate.o)
 .ARM.exidx.text._ZSt9terminatev
                0x020529e8        0x8 d:/devkitpro/devkitarm/bin/../lib/gcc/arm-eabi/4.5.1/../../../../arm-eabi/lib\libstdc++.a(eh_terminate.o)
 .ARM.exidx.text._ZN10__cxxabiv112__unexpectedEPFvvE
                0x020529f0        0x8 d:/devkitpro/devkitarm/bin/../lib/gcc/arm-eabi/4.5.1/../../../../arm-eabi/lib\libstdc++.a(eh_terminate.o)
 .ARM.exidx.text._ZSt10unexpectedv
                0x020529f8        0x8 d:/devkitpro/devkitarm/bin/../lib/gcc/arm-eabi/4.5.1/../../../../arm-eabi/lib\libstdc++.a(eh_terminate.o)
 .ARM.exidx.text._ZSt13set_terminatePFvvE
                0x02052a00        0x8 d:/devkitpro/devkitarm/bin/../lib/gcc/arm-eabi/4.5.1/../../../../arm-eabi/lib\libstdc++.a(eh_terminate.o)
 .ARM.exidx.text._ZSt14set_unexpectedPFvvE
                0x02052a08        0x0 d:/devkitpro/devkitarm/bin/../lib/gcc/arm-eabi/4.5.1/../../../../arm-eabi/lib\libstdc++.a(eh_terminate.o)
                                  0x8 (size before relaxing)
 .ARM.exidx.text._ZL23__gxx_exception_cleanup19_Unwind_Reason_CodeP21_Unwind_Control_Block
                0x02052a08        0x8 d:/devkitpro/devkitarm/bin/../lib/gcc/arm-eabi/4.5.1/../../../../arm-eabi/lib\libstdc++.a(eh_throw.o)
 .ARM.exidx.text.__cxa_throw
                0x02052a10        0x8 d:/devkitpro/devkitarm/bin/../lib/gcc/arm-eabi/4.5.1/../../../../arm-eabi/lib\libstdc++.a(eh_throw.o)
 .ARM.exidx.text.__cxa_rethrow
                0x02052a18        0x8 d:/devkitpro/devkitarm/bin/../lib/gcc/arm-eabi/4.5.1/../../../../arm-eabi/lib\libstdc++.a(eh_throw.o)
 .ARM.exidx.text._ZN10__cxxabiv123__fundamental_type_infoD2Ev
                0x02052a20        0x0 d:/devkitpro/devkitarm/bin/../lib/gcc/arm-eabi/4.5.1/../../../../arm-eabi/lib\libstdc++.a(fundamental_type_info.o)
                                  0x8 (size before relaxing)
 .ARM.exidx.text._ZN10__cxxabiv123__fundamental_type_infoD0Ev
                0x02052a20        0x0 d:/devkitpro/devkitarm/bin/../lib/gcc/arm-eabi/4.5.1/../../../../arm-eabi/lib\libstdc++.a(fundamental_type_info.o)
                                  0x8 (size before relaxing)
 .ARM.exidx.text._ZNKSt9bad_alloc4whatEv
                0x02052a20        0x8 d:/devkitpro/devkitarm/bin/../lib/gcc/arm-eabi/4.5.1/../../../../arm-eabi/lib\libstdc++.a(new_handler.o)
 .ARM.exidx.text._ZNSt9bad_allocD2Ev
                0x02052a28        0x0 d:/devkitpro/devkitarm/bin/../lib/gcc/arm-eabi/4.5.1/../../../../arm-eabi/lib\libstdc++.a(new_handler.o)
                                  0x8 (size before relaxing)
 .ARM.exidx.text._ZNSt9bad_allocD0Ev
                0x02052a28        0x0 d:/devkitpro/devkitarm/bin/../lib/gcc/arm-eabi/4.5.1/../../../../arm-eabi/lib\libstdc++.a(new_handler.o)
                                  0x8 (size before relaxing)
 .ARM.exidx.text._ZSt15set_new_handlerPFvvE
                0x02052a28        0x0 d:/devkitpro/devkitarm/bin/../lib/gcc/arm-eabi/4.5.1/../../../../arm-eabi/lib\libstdc++.a(new_handler.o)
                                  0x8 (size before relaxing)
 .ARM.exidx.text._ZNK10__cxxabiv119__pointer_type_info14__is_pointer_pEv
                0x02052a28        0x0 d:/devkitpro/devkitarm/bin/../lib/gcc/arm-eabi/4.5.1/../../../../arm-eabi/lib\libstdc++.a(pointer_type_info.o)
                                  0x8 (size before relaxing)
 .ARM.exidx.text._ZNK10__cxxabiv119__pointer_type_info15__pointer_catchEPKNS_17__pbase_type_infoEPPvj
                0x02052a28        0x8 d:/devkitpro/devkitarm/bin/../lib/gcc/arm-eabi/4.5.1/../../../../arm-eabi/lib\libstdc++.a(pointer_type_info.o)
 .ARM.exidx.text._ZN10__cxxabiv119__pointer_type_infoD2Ev
                0x02052a30        0x8 d:/devkitpro/devkitarm/bin/../lib/gcc/arm-eabi/4.5.1/../../../../arm-eabi/lib\libstdc++.a(pointer_type_info.o)
 .ARM.exidx.text._ZN10__cxxabiv119__pointer_type_infoD0Ev
                0x02052a38        0x0 d:/devkitpro/devkitarm/bin/../lib/gcc/arm-eabi/4.5.1/../../../../arm-eabi/lib\libstdc++.a(pointer_type_info.o)
                                  0x8 (size before relaxing)
 .ARM.exidx.text.__cxa_pure_virtual
                0x02052a38        0x8 d:/devkitpro/devkitarm/bin/../lib/gcc/arm-eabi/4.5.1/../../../../arm-eabi/lib\libstdc++.a(pure.o)
 .ARM.exidx.text._ZNK10__cxxabiv120__si_class_type_info11__do_upcastEPKNS_17__class_type_infoEPKvRNS1_15__upcast_resultE
                0x02052a40        0x8 d:/devkitpro/devkitarm/bin/../lib/gcc/arm-eabi/4.5.1/../../../../arm-eabi/lib\libstdc++.a(si_class_type_info.o)
 .ARM.exidx.text._ZNK10__cxxabiv120__si_class_type_info12__do_dyncastEiNS_17__class_type_info10__sub_kindEPKS1_PKvS4_S6_RNS1_16__dyncast_resultE
                0x02052a48        0x8 d:/devkitpro/devkitarm/bin/../lib/gcc/arm-eabi/4.5.1/../../../../arm-eabi/lib\libstdc++.a(si_class_type_info.o)
 .ARM.exidx.text._ZNK10__cxxabiv120__si_class_type_info20__do_find_public_srcEiPKvPKNS_17__class_type_infoES2_
                0x02052a50        0x8 d:/devkitpro/devkitarm/bin/../lib/gcc/arm-eabi/4.5.1/../../../../arm-eabi/lib\libstdc++.a(si_class_type_info.o)
 .ARM.exidx.text._ZN10__cxxabiv120__si_class_type_infoD2Ev
                0x02052a58        0x8 d:/devkitpro/devkitarm/bin/../lib/gcc/arm-eabi/4.5.1/../../../../arm-eabi/lib\libstdc++.a(si_class_type_info.o)
 .ARM.exidx.text._ZN10__cxxabiv120__si_class_type_infoD0Ev
                0x02052a60        0x0 d:/devkitpro/devkitarm/bin/../lib/gcc/arm-eabi/4.5.1/../../../../arm-eabi/lib\libstdc++.a(si_class_type_info.o)
                                  0x8 (size before relaxing)
 .ARM.exidx.text._ZNSt9type_infoD2Ev
                0x02052a60        0x8 d:/devkitpro/devkitarm/bin/../lib/gcc/arm-eabi/4.5.1/../../../../arm-eabi/lib\libstdc++.a(tinfo.o)
 .ARM.exidx.text._ZNKSt9type_info14__is_pointer_pEv
                0x02052a68        0x0 d:/devkitpro/devkitarm/bin/../lib/gcc/arm-eabi/4.5.1/../../../../arm-eabi/lib\libstdc++.a(tinfo.o)
                                  0x8 (size before relaxing)
 .ARM.exidx.text._ZNKSt9type_info15__is_function_pEv
                0x02052a68        0x0 d:/devkitpro/devkitarm/bin/../lib/gcc/arm-eabi/4.5.1/../../../../arm-eabi/lib\libstdc++.a(tinfo.o)
                                  0x8 (size before relaxing)
 .ARM.exidx.text._ZNKSt9type_info11__do_upcastEPKN10__cxxabiv117__class_type_infoEPPv
                0x02052a68        0x0 d:/devkitpro/devkitarm/bin/../lib/gcc/arm-eabi/4.5.1/../../../../arm-eabi/lib\libstdc++.a(tinfo.o)
                                  0x8 (size before relaxing)
 .ARM.exidx.text._ZNSt9type_infoD0Ev
                0x02052a68        0x0 d:/devkitpro/devkitarm/bin/../lib/gcc/arm-eabi/4.5.1/../../../../arm-eabi/lib\libstdc++.a(tinfo.o)
                                  0x8 (size before relaxing)
 .ARM.exidx.text._ZNKSt9type_infoeqERKS_
                0x02052a68        0x0 d:/devkitpro/devkitarm/bin/../lib/gcc/arm-eabi/4.5.1/../../../../arm-eabi/lib\libstdc++.a(tinfo.o)
                                  0x8 (size before relaxing)
 .ARM.exidx.text._ZNKSt9type_info10__do_catchEPKS_PPvj
                0x02052a68        0x0 d:/devkitpro/devkitarm/bin/../lib/gcc/arm-eabi/4.5.1/../../../../arm-eabi/lib\libstdc++.a(tinfo.o)
                                  0x8 (size before relaxing)
 .ARM.exidx.text._ZN9__gnu_cxx27__verbose_terminate_handlerEv
                0x02052a68        0x8 d:/devkitpro/devkitarm/bin/../lib/gcc/arm-eabi/4.5.1/../../../../arm-eabi/lib\libstdc++.a(vterminate.o)
 .ARM.exidx.text._ZNKSt8bad_cast4whatEv
                0x02052a70        0x8 d:/devkitpro/devkitarm/bin/../lib/gcc/arm-eabi/4.5.1/../../../../arm-eabi/lib\libstdc++.a(bad_cast.o)
 .ARM.exidx.text._ZNSt8bad_castD2Ev
                0x02052a78        0x0 d:/devkitpro/devkitarm/bin/../lib/gcc/arm-eabi/4.5.1/../../../../arm-eabi/lib\libstdc++.a(bad_cast.o)
                                  0x8 (size before relaxing)
 .ARM.exidx.text._ZNSt8bad_castD0Ev
                0x02052a78        0x0 d:/devkitpro/devkitarm/bin/../lib/gcc/arm-eabi/4.5.1/../../../../arm-eabi/lib\libstdc++.a(bad_cast.o)
                                  0x8 (size before relaxing)
 .ARM.exidx.text._ZNKSt10bad_typeid4whatEv
                0x02052a78        0x0 d:/devkitpro/devkitarm/bin/../lib/gcc/arm-eabi/4.5.1/../../../../arm-eabi/lib\libstdc++.a(bad_typeid.o)
                                  0x8 (size before relaxing)
 .ARM.exidx.text._ZNSt10bad_typeidD2Ev
                0x02052a78        0x0 d:/devkitpro/devkitarm/bin/../lib/gcc/arm-eabi/4.5.1/../../../../arm-eabi/lib\libstdc++.a(bad_typeid.o)
                                  0x8 (size before relaxing)
 .ARM.exidx.text._ZNSt10bad_typeidD0Ev
                0x02052a78        0x0 d:/devkitpro/devkitarm/bin/../lib/gcc/arm-eabi/4.5.1/../../../../arm-eabi/lib\libstdc++.a(bad_typeid.o)
                                  0x8 (size before relaxing)
 .ARM.exidx.text._ZNK10__cxxabiv117__class_type_info11__do_upcastEPKS0_PPv
                0x02052a78        0x8 d:/devkitpro/devkitarm/bin/../lib/gcc/arm-eabi/4.5.1/../../../../arm-eabi/lib\libstdc++.a(class_type_info.o)
 .ARM.exidx.text._ZNK10__cxxabiv117__class_type_info20__do_find_public_srcEiPKvPKS0_S2_
                0x02052a80        0x8 d:/devkitpro/devkitarm/bin/../lib/gcc/arm-eabi/4.5.1/../../../../arm-eabi/lib\libstdc++.a(class_type_info.o)
 .ARM.exidx.text._ZNK10__cxxabiv117__class_type_info11__do_upcastEPKS0_PKvRNS0_15__upcast_resultE
                0x02052a88        0x8 d:/devkitpro/devkitarm/bin/../lib/gcc/arm-eabi/4.5.1/../../../../arm-eabi/lib\libstdc++.a(class_type_info.o)
 .ARM.exidx.text._ZNK10__cxxabiv117__class_type_info12__do_dyncastEiNS0_10__sub_kindEPKS0_PKvS3_S5_RNS0_16__dyncast_resultE
                0x02052a90        0x8 d:/devkitpro/devkitarm/bin/../lib/gcc/arm-eabi/4.5.1/../../../../arm-eabi/lib\libstdc++.a(class_type_info.o)
 .ARM.exidx.text._ZNK10__cxxabiv117__class_type_info10__do_catchEPKSt9type_infoPPvj
                0x02052a98        0x8 d:/devkitpro/devkitarm/bin/../lib/gcc/arm-eabi/4.5.1/../../../../arm-eabi/lib\libstdc++.a(class_type_info.o)
 .ARM.exidx.text._ZN10__cxxabiv117__class_type_infoD2Ev
                0x02052aa0        0x8 d:/devkitpro/devkitarm/bin/../lib/gcc/arm-eabi/4.5.1/../../../../arm-eabi/lib\libstdc++.a(class_type_info.o)
 .ARM.exidx.text._ZN10__cxxabiv117__class_type_infoD0Ev
                0x02052aa8        0x0 d:/devkitpro/devkitarm/bin/../lib/gcc/arm-eabi/4.5.1/../../../../arm-eabi/lib\libstdc++.a(class_type_info.o)
                                  0x8 (size before relaxing)
 .ARM.exidx.text._ZdlPv
                0x02052aa8        0x8 d:/devkitpro/devkitarm/bin/../lib/gcc/arm-eabi/4.5.1/../../../../arm-eabi/lib\libstdc++.a(del_op.o)
 .ARM.exidx.text.__cxa_current_exception_type
                0x02052ab0        0x0 d:/devkitpro/devkitarm/bin/../lib/gcc/arm-eabi/4.5.1/../../../../arm-eabi/lib\libstdc++.a(eh_type.o)
                                  0x8 (size before relaxing)
 .ARM.exidx.text._ZNK10__cxxabiv117__pbase_type_info15__pointer_catchEPKS0_PPvj
                0x02052ab0        0x8 d:/devkitpro/devkitarm/bin/../lib/gcc/arm-eabi/4.5.1/../../../../arm-eabi/lib\libstdc++.a(pbase_type_info.o)
 .ARM.exidx.text._ZNK10__cxxabiv117__pbase_type_info10__do_catchEPKSt9type_infoPPvj
                0x02052ab8        0x8 d:/devkitpro/devkitarm/bin/../lib/gcc/arm-eabi/4.5.1/../../../../arm-eabi/lib\libstdc++.a(pbase_type_info.o)
 .ARM.exidx.text._ZN10__cxxabiv117__pbase_type_infoD2Ev
                0x02052ac0        0x8 d:/devkitpro/devkitarm/bin/../lib/gcc/arm-eabi/4.5.1/../../../../arm-eabi/lib\libstdc++.a(pbase_type_info.o)
 .ARM.exidx.text._ZN10__cxxabiv117__pbase_type_infoD0Ev
                0x02052ac8        0x8 d:/devkitpro/devkitarm/bin/../lib/gcc/arm-eabi/4.5.1/../../../../arm-eabi/lib\libstdc++.a(pbase_type_info.o)
 .ARM.exidx     0x02052880       0x88 d:/devkitpro/devkitarm/bin/../lib/gcc/arm-eabi/4.5.1\libgcc.a(unwind-arm.o)
                                 0xc0 (size before relaxing)
 .ARM.exidx     0x02052908       0x38 d:/devkitpro/devkitarm/bin/../lib/gcc/arm-eabi/4.5.1\libgcc.a(pr-support.o)
                                 0x48 (size before relaxing)
 .ARM.exidx     0x02052940        0x8 d:/devkitpro/devkitarm/bin/../lib/gcc/arm-eabi/4.5.1\libgcc.a(bpabi.o)
                                 0x10 (size before relaxing)
 .ARM.exidx     0x02052948        0x8 d:/devkitpro/devkitarm/bin/../lib/gcc/arm-eabi/4.5.1\libgcc.a(_divdi3.o)
 .ARM.exidx     0x02052950       0x10 d:/devkitpro/devkitarm/bin/../lib/gcc/arm-eabi/4.5.1\libgcc.a(_udivdi3.o)
                                  0x8 (size before relaxing)
                0x02052ad0                __exidx_end = .
                0x02052ad0                . = ALIGN (0x4)
                0x02052ad0                PROVIDE (__preinit_array_start, .)

.preinit_array
 *(.preinit_array)
                0x02052ad0                PROVIDE (__preinit_array_end, .)
                0x02052ad0                PROVIDE (__init_array_start, .)

.init_array     0x02052ad0        0x8
 *(SORT(.init_array.*))
 *(.init_array)
 .init_array    0x02052ad0        0x4 d:/devkitpro/devkitarm/bin/../lib/gcc/arm-eabi/4.5.1/crtbegin.o
 .init_array    0x02052ad4        0x4 d:/devkitpro/devkitarm/bin/../lib/gcc/arm-eabi/4.5.1/../../../../arm-eabi/lib\libstdc++.a(eh_alloc.o)
                0x02052ad8                PROVIDE (__init_array_end, .)
                0x02052ad8                PROVIDE (__fini_array_start, .)

.fini_array     0x02052ad8        0x4
 *(.fini_array)
 .fini_array    0x02052ad8        0x4 d:/devkitpro/devkitarm/bin/../lib/gcc/arm-eabi/4.5.1/crtbegin.o
 *(SORT(.fini_array.*))
                0x02052adc                PROVIDE (__fini_array_end, .)

.ctors          0x02052adc        0x0
 *crtbegin.o(.ctors)
 *(EXCLUDE_FILE(*crtend.o) .ctors)
 *(SORT(.ctors.*))
 *(.ctors)
                0x02052adc                . = ALIGN (0x4)

.dtors          0x02052adc        0x0
 *crtbegin.o(.dtors)
 *(EXCLUDE_FILE(*crtend.o) .dtors)
 *(SORT(.dtors.*))
 *(.dtors)
                0x02052adc                . = ALIGN (0x4)

.eh_frame       0x02052adc        0x4
 *(.eh_frame)
 .eh_frame      0x02052adc        0x0 d:/devkitpro/devkitarm/bin/../lib/gcc/arm-eabi/4.5.1/crtbegin.o
 .eh_frame      0x02052adc        0x4 d:/devkitpro/devkitarm/bin/../lib/gcc/arm-eabi/4.5.1/crtend.o
                0x02052ae0                . = ALIGN (0x4)

.gcc_except_table
                0x02052ae0        0x0
 *(.gcc_except_table)
                0x02052ae0                . = ALIGN (0x4)

.jcr            0x02052ae0        0x4
 *(.jcr)
 .jcr           0x02052ae0        0x0 d:/devkitpro/devkitarm/bin/../lib/gcc/arm-eabi/4.5.1/crtbegin.o
 .jcr           0x02052ae0        0x4 d:/devkitpro/devkitarm/bin/../lib/gcc/arm-eabi/4.5.1/crtend.o

.got
 *(.got.plt)
 *(.got)
 *(.rel.got)

.ewram          0x02052ae4        0x0
                0x02052ae4                __ewram_start = ABSOLUTE (.)
 *(.ewram)
 *ewram.*(.text)
                0x02052ae4                . = ALIGN (0x4)

.data           0x02052ae4      0xb2c
                0x02052ae4                __data_start = ABSOLUTE (.)
 *(.data)
 .data          0x02052ae4        0x0 d:/devkitpro/devkitarm/bin/../lib/gcc/arm-eabi/4.5.1/../../../../arm-eabi/lib/ds_arm9_crt0.o
 .data          0x02052ae4        0x0 d:/devkitpro/devkitarm/bin/../lib/gcc/arm-eabi/4.5.1/crti.o
 .data          0x02052ae4        0x4 d:/devkitpro/devkitarm/bin/../lib/gcc/arm-eabi/4.5.1/crtbegin.o
                0x02052ae4                __dso_handle
 .data          0x02052ae8        0x0 ball.png.o
 .data          0x02052ae8        0x0 CBall.o
 .data          0x02052ae8        0x0 main.o
 .data          0x02052ae8        0x0 d:/devkitPro/libnds/lib\libul.a(ulib.o)
 .data          0x02052ae8        0x0 d:/devkitPro/libnds/lib\libul.a(drawing.o)
 .data          0x02052ae8       0x28 d:/devkitPro/libnds/lib\libul.a(text.o)
                0x02052ae8                ul_curTextColor
                0x02052aec                ul_lcdFontInfo
 .data          0x02052b10       0x2c d:/devkitPro/libnds/lib\libul.a(VirtualFile.o)
                0x02052b10                VF_MEMORY
                0x02052b14                vfsMemory
 .data          0x02052b3c       0x10 d:/devkitPro/libnds/lib\libul.a(texVramManager.o)
                0x02052b3c                ul_texVramSize
                0x02052b40                ul_optimizeTextureSize
                0x02052b44                ul_texVramBase
                0x02052b48                ul_texVramBanks
                0x02052b4a                ul_initTexturesToZero
 .data          0x02052b4c        0xc d:/devkitPro/libnds/lib\libul.a(texPalManager.o)
                0x02052b4c                ul_texPalVramSize
                0x02052b50                ul_texPalVramBanks
                0x02052b54                ul_texPalVramBase
 .data          0x02052b58       0x28 d:/devkitPro/libnds/lib\libul.a(keys.o)
                0x02052b58                ul_keys
 .data          0x02052b80        0x0 d:/devkitPro/libnds/lib\libul.a(ulDrawImage.o)
 .data          0x02052b80        0x0 d:/devkitPro/libnds/lib\libul.a(ulCreateImagePalette.o)
 .data          0x02052b80        0x0 d:/devkitPro/libnds/lib\libul.a(ulDrawGradientRect.o)
 .data          0x02052b80        0x0 d:/devkitPro/libnds/lib\libul.a(ulLoadImageFilePNG.o)
 .data          0x02052b80        0x0 d:/devkitPro/libnds/lib\libul.a(ulShowSplashScreen1.o)
 .data          0x02052b80        0x0 d:/devkitPro/libnds/lib\libul.a(ulShowSplashScreen2.o)
 .data          0x02052b80        0x0 d:/devkitPro/libnds/lib\libul.a(glWrapper.o)
 .data          0x02052b80        0x0 d:/devkitPro/libnds/lib\libul.a(libLoadPng.o)
 .data          0x02052b80        0x0 d:/devkitPro/libnds/lib\libul.a(ulDrawFillRect.o)
 .data          0x02052b80        0x0 d:/devkitPro/libnds/lib\libul.a(ulSetImagePixel.o)
 .data          0x02052b80        0x0 d:/devkitPro/libnds/lib\libul.a(ulGetImagePixel.o)
 .data          0x02052b80        0x0 d:/devkitPro/libnds/lib\libul.a(textSize.o)
 .data          0x02052b80        0x4 d:/devkitPro/libnds/lib\libul.a(loading_utility.o)
                0x02052b80                ul_loadUtilActiveSource
 .data          0x02052b84        0x0 d:/devkitPro/libnds/lib\libul.a(ulLoadImageFileJPG.o)
 .data          0x02052b84        0x0 d:/devkitPro/libnds/lib\libul.a(ulLoadImageFileGIF.o)
 .data          0x02052b84        0x0 d:/devkitPro/libnds/lib\libul.a(libLoadJpg.o)
 .data          0x02052b84        0x0 d:/devkitPro/libnds/lib\libul.a(libLoadGif.o)
 .data          0x02052b84        0x0 d:/devkitPro/libnds/lib\libul.a(dgif_lib.o)
 .data          0x02052b84        0x0 d:/devkitPro/libnds/lib\libul.a(gif_err.o)
 .data          0x02052b84        0x0 d:/devkitPro/libnds/lib\libul.a(gifalloc.o)
 .data          0x02052b84        0x0 d:/devkitPro/libnds/lib\libul.a(ulReadEntireFileToMemory.o)
 .data          0x02052b84        0x0 d:/devkitPro/libnds/lib\libul.a(gba-jpeg-decode.o)
 .data          0x02052b84       0x69 d:/devkitPro/libnds/lib\libpng.a(png.o)
                0x02052b84                png_IHDR
                0x02052b89                png_IDAT
                0x02052b8e                png_IEND
                0x02052b93                png_PLTE
                0x02052b98                png_bKGD
                0x02052b9d                png_cHRM
                0x02052ba2                png_gAMA
                0x02052ba7                png_hIST
                0x02052bac                png_iCCP
                0x02052bb1                png_iTXt
                0x02052bb6                png_oFFs
                0x02052bbb                png_pCAL
                0x02052bc0                png_sCAL
                0x02052bc5                png_pHYs
                0x02052bca                png_sBIT
                0x02052bcf                png_sPLT
                0x02052bd4                png_sRGB
                0x02052bd9                png_tEXt
                0x02052bde                png_tIME
                0x02052be3                png_tRNS
                0x02052be8                png_zTXt
 .data          0x02052bed        0x0 d:/devkitPro/libnds/lib\libpng.a(pngread.o)
 .data          0x02052bed        0x0 d:/devkitPro/libnds/lib\libpng.a(pngrio.o)
 .data          0x02052bed        0x0 d:/devkitPro/libnds/lib\libpng.a(pngrtran.o)
 .data          0x02052bed        0x0 d:/devkitPro/libnds/lib\libpng.a(pngmem.o)
 .data          0x02052bed        0x0 d:/devkitPro/libnds/lib\libpng.a(pngerror.o)
 .data          0x02052bed        0x0 d:/devkitPro/libnds/lib\libpng.a(pngget.o)
 .data          0x02052bed        0x0 d:/devkitPro/libnds/lib\libpng.a(pngrutil.o)
 .data          0x02052bed        0x0 d:/devkitPro/libnds/lib\libpng.a(pngtrans.o)
 .data          0x02052bed        0x0 d:/devkitPro/libnds/lib\libpng.a(pngset.o)
 .data          0x02052bed        0x0 d:/devkitPro/libnds/lib\libz.a(crc32.o)
 .data          0x02052bed        0x0 d:/devkitPro/libnds/lib\libz.a(inflate.o)
 .data          0x02052bed        0x0 d:/devkitPro/libnds/lib\libz.a(inftrees.o)
 .data          0x02052bed        0x0 d:/devkitPro/libnds/lib\libz.a(inffast.o)
 .data          0x02052bed        0x0 d:/devkitPro/libnds/lib\libz.a(adler32.o)
 .data          0x02052bed        0x0 d:/devkitPro/libnds/lib\libz.a(zutil.o)
 .data          0x02052bed        0x0 d:/devkitPro/libnds/lib\libnds9.a(dynamicArray.o)
 .data          0x02052bed        0x3 d:/devkitPro/libnds/lib\libnds9.a(keys.o)
 .data          0x02052bf0        0x0 d:/devkitPro/libnds/lib\libnds9.a(system.o)
 .data          0x02052bf0        0x0 d:/devkitPro/libnds/lib\libnds9.a(touch.o)
 .data          0x02052bf0        0x0 d:/devkitPro/libnds/lib\libnds9.a(trig.o)
 .data          0x02052bf0        0x4 d:/devkitPro/libnds/lib\libnds9.a(videoGL.o)
 .data          0x02052bf4        0x0 d:/devkitPro/libnds/lib\libnds9.a(initSystem.o)
 .data          0x02052bf4       0x10 d:/devkitPro/libnds/lib\libnds9.a(fifosystem.o)
                0x02052bf4                fifo_freewords
                0x02052bf8                fifo_buffer_free
                0x02052bfc                fifo_send_queue
                0x02052c00                fifo_receive_queue
 .data          0x02052c04        0x0 d:/devkitPro/libnds/lib\libnds9.a(interrupts.o)
 .data          0x02052c04        0x0 d:/devkitPro/libnds/lib\libnds9.a(libnds_exit.o)
 .data          0x02052c04        0x0 d:/devkitPro/libnds/lib\libnds9.a(mpu_setup.o)
 .data          0x02052c04        0x0 d:/devkitPro/libnds/lib\libnds9.a(biosCalls.o)
 .data          0x02052c04        0x0 d:/devkitPro/libnds/lib\libnds9.a(interruptDispatcher.o)
 .data          0x02052c04        0x0 d:/devkitPro/libnds/lib\libnds9.a(swiSoftReset.o)
 .data          0x02052c04        0x0 d:/devkitPro/libnds/lib\libnds9.a(video.o)
 .data          0x02052c04        0x0 d:/devkitpro/devkitarm/bin/../lib/gcc/arm-eabi/4.5.1/../../../../arm-eabi/lib\libstdc++.a(new_op.o)
 .data          0x02052c04        0x0 d:/devkitpro/devkitarm/bin/../lib/gcc/arm-eabi/4.5.1/../../../../arm-eabi/lib\libstdc++.a(eh_alloc.o)
 .data          0x02052c04        0x0 d:/devkitpro/devkitarm/bin/../lib/gcc/arm-eabi/4.5.1/../../../../arm-eabi/lib\libstdc++.a(eh_arm.o)
 .data          0x02052c04        0x0 d:/devkitpro/devkitarm/bin/../lib/gcc/arm-eabi/4.5.1/../../../../arm-eabi/lib\libstdc++.a(eh_aux_runtime.o)
 .data          0x02052c04        0x0 d:/devkitpro/devkitarm/bin/../lib/gcc/arm-eabi/4.5.1/../../../../arm-eabi/lib\libstdc++.a(eh_call.o)
 .data          0x02052c04        0x0 d:/devkitpro/devkitarm/bin/../lib/gcc/arm-eabi/4.5.1/../../../../arm-eabi/lib\libstdc++.a(eh_catch.o)
 .data          0x02052c04        0x0 d:/devkitpro/devkitarm/bin/../lib/gcc/arm-eabi/4.5.1/../../../../arm-eabi/lib\libstdc++.a(eh_exception.o)
 .data          0x02052c04        0x0 d:/devkitpro/devkitarm/bin/../lib/gcc/arm-eabi/4.5.1/../../../../arm-eabi/lib\libstdc++.a(eh_globals.o)
 .data          0x02052c04        0x0 d:/devkitpro/devkitarm/bin/../lib/gcc/arm-eabi/4.5.1/../../../../arm-eabi/lib\libstdc++.a(eh_personality.o)
 .data          0x02052c04        0x0 d:/devkitpro/devkitarm/bin/../lib/gcc/arm-eabi/4.5.1/../../../../arm-eabi/lib\libstdc++.a(eh_terminate.o)
 .data          0x02052c04        0x0 d:/devkitpro/devkitarm/bin/../lib/gcc/arm-eabi/4.5.1/../../../../arm-eabi/lib\libstdc++.a(eh_term_handler.o)
 .data          0x02052c04        0x0 d:/devkitpro/devkitarm/bin/../lib/gcc/arm-eabi/4.5.1/../../../../arm-eabi/lib\libstdc++.a(eh_throw.o)
 .data          0x02052c04        0x0 d:/devkitpro/devkitarm/bin/../lib/gcc/arm-eabi/4.5.1/../../../../arm-eabi/lib\libstdc++.a(eh_unex_handler.o)
 .data          0x02052c04        0x0 d:/devkitpro/devkitarm/bin/../lib/gcc/arm-eabi/4.5.1/../../../../arm-eabi/lib\libstdc++.a(fundamental_type_info.o)
 .data          0x02052c04        0x0 d:/devkitpro/devkitarm/bin/../lib/gcc/arm-eabi/4.5.1/../../../../arm-eabi/lib\libstdc++.a(new_handler.o)
 .data          0x02052c04        0x0 d:/devkitpro/devkitarm/bin/../lib/gcc/arm-eabi/4.5.1/../../../../arm-eabi/lib\libstdc++.a(pointer_type_info.o)
 .data          0x02052c04        0x0 d:/devkitpro/devkitarm/bin/../lib/gcc/arm-eabi/4.5.1/../../../../arm-eabi/lib\libstdc++.a(pure.o)
 .data          0x02052c04        0x0 d:/devkitpro/devkitarm/bin/../lib/gcc/arm-eabi/4.5.1/../../../../arm-eabi/lib\libstdc++.a(si_class_type_info.o)
 .data          0x02052c04        0x0 d:/devkitpro/devkitarm/bin/../lib/gcc/arm-eabi/4.5.1/../../../../arm-eabi/lib\libstdc++.a(tinfo.o)
 .data          0x02052c04        0x0 d:/devkitpro/devkitarm/bin/../lib/gcc/arm-eabi/4.5.1/../../../../arm-eabi/lib\libstdc++.a(vterminate.o)
 .data          0x02052c04        0x0 d:/devkitpro/devkitarm/bin/../lib/gcc/arm-eabi/4.5.1/../../../../arm-eabi/lib\libstdc++.a(bad_cast.o)
 .data          0x02052c04        0x0 d:/devkitpro/devkitarm/bin/../lib/gcc/arm-eabi/4.5.1/../../../../arm-eabi/lib\libstdc++.a(bad_typeid.o)
 .data          0x02052c04        0x0 d:/devkitpro/devkitarm/bin/../lib/gcc/arm-eabi/4.5.1/../../../../arm-eabi/lib\libstdc++.a(class_type_info.o)
 .data          0x02052c04        0x0 d:/devkitpro/devkitarm/bin/../lib/gcc/arm-eabi/4.5.1/../../../../arm-eabi/lib\libstdc++.a(cp-demangle.o)
 .data          0x02052c04        0x0 d:/devkitpro/devkitarm/bin/../lib/gcc/arm-eabi/4.5.1/../../../../arm-eabi/lib\libstdc++.a(del_op.o)
 .data          0x02052c04        0x0 d:/devkitpro/devkitarm/bin/../lib/gcc/arm-eabi/4.5.1/../../../../arm-eabi/lib\libstdc++.a(eh_type.o)
 .data          0x02052c04        0x0 d:/devkitpro/devkitarm/bin/../lib/gcc/arm-eabi/4.5.1/../../../../arm-eabi/lib\libstdc++.a(pbase_type_info.o)
 .data          0x02052c04        0x0 d:/devkitpro/devkitarm/bin/../lib/gcc/arm-eabi/4.5.1/../../../../arm-eabi/lib\libm.a(lib_a-s_cos.o)
 .data          0x02052c04        0x0 d:/devkitpro/devkitarm/bin/../lib/gcc/arm-eabi/4.5.1/../../../../arm-eabi/lib\libm.a(lib_a-s_sin.o)
 .data          0x02052c04        0x0 d:/devkitpro/devkitarm/bin/../lib/gcc/arm-eabi/4.5.1/../../../../arm-eabi/lib\libm.a(lib_a-w_pow.o)
 .data          0x02052c04        0x0 d:/devkitpro/devkitarm/bin/../lib/gcc/arm-eabi/4.5.1/../../../../arm-eabi/lib\libm.a(lib_a-e_pow.o)
 .data          0x02052c04        0x0 d:/devkitpro/devkitarm/bin/../lib/gcc/arm-eabi/4.5.1/../../../../arm-eabi/lib\libm.a(lib_a-e_rem_pio2.o)
 .data          0x02052c04        0x0 d:/devkitpro/devkitarm/bin/../lib/gcc/arm-eabi/4.5.1/../../../../arm-eabi/lib\libm.a(lib_a-e_sqrt.o)
 .data          0x02052c04        0x0 d:/devkitpro/devkitarm/bin/../lib/gcc/arm-eabi/4.5.1/../../../../arm-eabi/lib\libm.a(lib_a-k_cos.o)
 .data          0x02052c04        0x0 d:/devkitpro/devkitarm/bin/../lib/gcc/arm-eabi/4.5.1/../../../../arm-eabi/lib\libm.a(lib_a-k_rem_pio2.o)
 .data          0x02052c04        0x0 d:/devkitpro/devkitarm/bin/../lib/gcc/arm-eabi/4.5.1/../../../../arm-eabi/lib\libm.a(lib_a-k_sin.o)
 .data          0x02052c04        0x0 d:/devkitpro/devkitarm/bin/../lib/gcc/arm-eabi/4.5.1/../../../../arm-eabi/lib\libm.a(lib_a-s_fabs.o)
 .data          0x02052c04        0x0 d:/devkitpro/devkitarm/bin/../lib/gcc/arm-eabi/4.5.1/../../../../arm-eabi/lib\libm.a(lib_a-s_finite.o)
 .data          0x02052c04        0x0 d:/devkitpro/devkitarm/bin/../lib/gcc/arm-eabi/4.5.1/../../../../arm-eabi/lib\libm.a(lib_a-s_floor.o)
 .data          0x02052c04        0x0 d:/devkitpro/devkitarm/bin/../lib/gcc/arm-eabi/4.5.1/../../../../arm-eabi/lib\libm.a(lib_a-s_fpclassify.o)
 .data          0x02052c04        0x1 d:/devkitpro/devkitarm/bin/../lib/gcc/arm-eabi/4.5.1/../../../../arm-eabi/lib\libm.a(lib_a-s_lib_ver.o)
                0x02052c04                __fdlib_version
 .data          0x02052c05        0x0 d:/devkitpro/devkitarm/bin/../lib/gcc/arm-eabi/4.5.1/../../../../arm-eabi/lib\libm.a(lib_a-s_matherr.o)
 .data          0x02052c05        0x0 d:/devkitpro/devkitarm/bin/../lib/gcc/arm-eabi/4.5.1/../../../../arm-eabi/lib\libm.a(lib_a-s_nan.o)
 .data          0x02052c05        0x0 d:/devkitpro/devkitarm/bin/../lib/gcc/arm-eabi/4.5.1/../../../../arm-eabi/lib\libm.a(lib_a-s_rint.o)
 .data          0x02052c05        0x0 d:/devkitpro/devkitarm/bin/../lib/gcc/arm-eabi/4.5.1/../../../../arm-eabi/lib\libm.a(lib_a-s_scalbn.o)
 .data          0x02052c05        0x0 d:/devkitpro/devkitarm/bin/../lib/gcc/arm-eabi/4.5.1/../../../../arm-eabi/lib\libm.a(lib_a-s_copysign.o)
 .data          0x02052c05        0x0 d:/devkitpro/devkitarm/bin/../lib/gcc/arm-eabi/4.5.1\libgcc.a(_udivsi3.o)
 .data          0x02052c05        0x0 d:/devkitpro/devkitarm/bin/../lib/gcc/arm-eabi/4.5.1\libgcc.a(_divsi3.o)
 .data          0x02052c05        0x0 d:/devkitpro/devkitarm/bin/../lib/gcc/arm-eabi/4.5.1\libgcc.a(_dvmd_tls.o)
 .data          0x02052c05        0x0 d:/devkitpro/devkitarm/bin/../lib/gcc/arm-eabi/4.5.1\libgcc.a(_arm_addsubdf3.o)
 .data          0x02052c05        0x0 d:/devkitpro/devkitarm/bin/../lib/gcc/arm-eabi/4.5.1\libgcc.a(_arm_muldivdf3.o)
 .data          0x02052c05        0x0 d:/devkitpro/devkitarm/bin/../lib/gcc/arm-eabi/4.5.1\libgcc.a(_arm_cmpdf2.o)
 .data          0x02052c05        0x0 d:/devkitpro/devkitarm/bin/../lib/gcc/arm-eabi/4.5.1\libgcc.a(_arm_fixdfsi.o)
 .data          0x02052c05        0x0 d:/devkitpro/devkitarm/bin/../lib/gcc/arm-eabi/4.5.1\libgcc.a(_arm_fixunsdfsi.o)
 .data          0x02052c05        0x0 d:/devkitpro/devkitarm/bin/../lib/gcc/arm-eabi/4.5.1\libgcc.a(_arm_truncdfsf2.o)
 .data          0x02052c05        0x0 d:/devkitpro/devkitarm/bin/../lib/gcc/arm-eabi/4.5.1\libgcc.a(_arm_addsubsf3.o)
 .data          0x02052c05        0x0 d:/devkitpro/devkitarm/bin/../lib/gcc/arm-eabi/4.5.1\libgcc.a(_arm_muldivsf3.o)
 .data          0x02052c05        0x0 d:/devkitpro/devkitarm/bin/../lib/gcc/arm-eabi/4.5.1\libgcc.a(_arm_cmpsf2.o)
 .data          0x02052c05        0x0 d:/devkitpro/devkitarm/bin/../lib/gcc/arm-eabi/4.5.1\libgcc.a(_arm_fixsfsi.o)
 .data          0x02052c05        0x0 d:/devkitpro/devkitarm/bin/../lib/gcc/arm-eabi/4.5.1\libgcc.a(_arm_fixunssfsi.o)
 .data          0x02052c05        0x0 d:/devkitpro/devkitarm/bin/../lib/gcc/arm-eabi/4.5.1\libgcc.a(_muldi3.o)
 .data          0x02052c05        0x0 d:/devkitpro/devkitarm/bin/../lib/gcc/arm-eabi/4.5.1\libgcc.a(unwind-arm.o)
 .data          0x02052c05        0x0 d:/devkitpro/devkitarm/bin/../lib/gcc/arm-eabi/4.5.1\libgcc.a(libunwind.o)
 .data          0x02052c05        0x0 d:/devkitpro/devkitarm/bin/../lib/gcc/arm-eabi/4.5.1\libgcc.a(pr-support.o)
 .data          0x02052c05        0x0 d:/devkitpro/devkitarm/bin/../lib/gcc/arm-eabi/4.5.1/../../../../arm-eabi/lib\libg.a(lib_a-abort.o)
 .data          0x02052c05        0x0 d:/devkitpro/devkitarm/bin/../lib/gcc/arm-eabi/4.5.1/../../../../arm-eabi/lib\libg.a(lib_a-bsearch.o)
 .data          0x02052c05        0x0 d:/devkitpro/devkitarm/bin/../lib/gcc/arm-eabi/4.5.1/../../../../arm-eabi/lib\libg.a(lib_a-calloc.o)
 .data          0x02052c05        0x0 d:/devkitpro/devkitarm/bin/../lib/gcc/arm-eabi/4.5.1/../../../../arm-eabi/lib\libg.a(lib_a-callocr.o)
 .data          0x02052c05        0x0 d:/devkitpro/devkitarm/bin/../lib/gcc/arm-eabi/4.5.1/../../../../arm-eabi/lib\libg.a(lib_a-errno.o)
 .data          0x02052c05        0x0 d:/devkitpro/devkitarm/bin/../lib/gcc/arm-eabi/4.5.1/../../../../arm-eabi/lib\libg.a(lib_a-fclose.o)
 .data          0x02052c05        0x0 d:/devkitpro/devkitarm/bin/../lib/gcc/arm-eabi/4.5.1/../../../../arm-eabi/lib\libg.a(lib_a-fflush.o)
 .data          0x02052c05        0x0 d:/devkitpro/devkitarm/bin/../lib/gcc/arm-eabi/4.5.1/../../../../arm-eabi/lib\libg.a(lib_a-findfp.o)
 .data          0x02052c05        0x0 d:/devkitpro/devkitarm/bin/../lib/gcc/arm-eabi/4.5.1/../../../../arm-eabi/lib\libg.a(lib_a-fprintf.o)
 .data          0x02052c05        0x0 d:/devkitpro/devkitarm/bin/../lib/gcc/arm-eabi/4.5.1/../../../../arm-eabi/lib\libg.a(lib_a-fputc.o)
 .data          0x02052c05        0x0 d:/devkitpro/devkitarm/bin/../lib/gcc/arm-eabi/4.5.1/../../../../arm-eabi/lib\libg.a(lib_a-fputs.o)
 .data          0x02052c05        0x0 d:/devkitpro/devkitarm/bin/../lib/gcc/arm-eabi/4.5.1/../../../../arm-eabi/lib\libg.a(lib_a-fread.o)
 .data          0x02052c05        0x0 d:/devkitpro/devkitarm/bin/../lib/gcc/arm-eabi/4.5.1/../../../../arm-eabi/lib\libg.a(lib_a-freer.o)
 .data          0x02052c05        0x0 d:/devkitpro/devkitarm/bin/../lib/gcc/arm-eabi/4.5.1/../../../../arm-eabi/lib\libg.a(lib_a-fvwrite.o)
 .data          0x02052c05        0x0 d:/devkitpro/devkitarm/bin/../lib/gcc/arm-eabi/4.5.1/../../../../arm-eabi/lib\libg.a(lib_a-fwalk.o)
 .data          0x02052c05        0x0 d:/devkitpro/devkitarm/bin/../lib/gcc/arm-eabi/4.5.1/../../../../arm-eabi/lib\libg.a(lib_a-fwrite.o)
 *fill*         0x02052c05        0x3 ff
 .data          0x02052c08      0x430 d:/devkitpro/devkitarm/bin/../lib/gcc/arm-eabi/4.5.1/../../../../arm-eabi/lib\libg.a(lib_a-impure.o)
                0x02052c08                _impure_ptr
 .data          0x02053038        0x0 d:/devkitpro/devkitarm/bin/../lib/gcc/arm-eabi/4.5.1/../../../../arm-eabi/lib\libg.a(lib_a-init.o)
 .data          0x02053038        0x0 d:/devkitpro/devkitarm/bin/../lib/gcc/arm-eabi/4.5.1/../../../../arm-eabi/lib\libg.a(lib_a-malloc.o)
 .data          0x02053038      0x410 d:/devkitpro/devkitarm/bin/../lib/gcc/arm-eabi/4.5.1/../../../../arm-eabi/lib\libg.a(lib_a-mallocr.o)
                0x02053038                __malloc_av_
                0x02053440                __malloc_sbrk_base
                0x02053444                __malloc_trim_threshold
 .data          0x02053448        0x0 d:/devkitpro/devkitarm/bin/../lib/gcc/arm-eabi/4.5.1/../../../../arm-eabi/lib\libg.a(lib_a-memchr.o)
 .data          0x02053448        0x0 d:/devkitpro/devkitarm/bin/../lib/gcc/arm-eabi/4.5.1/../../../../arm-eabi/lib\libg.a(lib_a-memcmp.o)
 .data          0x02053448        0x0 d:/devkitpro/devkitarm/bin/../lib/gcc/arm-eabi/4.5.1/../../../../arm-eabi/lib\libg.a(lib_a-memcpy.o)
 .data          0x02053448        0x0 d:/devkitpro/devkitarm/bin/../lib/gcc/arm-eabi/4.5.1/../../../../arm-eabi/lib\libg.a(lib_a-memmove.o)
 .data          0x02053448        0x0 d:/devkitpro/devkitarm/bin/../lib/gcc/arm-eabi/4.5.1/../../../../arm-eabi/lib\libg.a(lib_a-memset.o)
 .data          0x02053448        0x0 d:/devkitpro/devkitarm/bin/../lib/gcc/arm-eabi/4.5.1/../../../../arm-eabi/lib\libg.a(lib_a-mlock.o)
 .data          0x02053448        0x0 d:/devkitpro/devkitarm/bin/../lib/gcc/arm-eabi/4.5.1/../../../../arm-eabi/lib\libg.a(lib_a-putc.o)
 .data          0x02053448        0x0 d:/devkitpro/devkitarm/bin/../lib/gcc/arm-eabi/4.5.1/../../../../arm-eabi/lib\libg.a(lib_a-rand.o)
 .data          0x02053448        0x0 d:/devkitpro/devkitarm/bin/../lib/gcc/arm-eabi/4.5.1/../../../../arm-eabi/lib\libg.a(lib_a-realloc.o)
 .data          0x02053448        0x0 d:/devkitpro/devkitarm/bin/../lib/gcc/arm-eabi/4.5.1/../../../../arm-eabi/lib\libg.a(lib_a-reallocr.o)
 .data          0x02053448        0x0 d:/devkitpro/devkitarm/bin/../lib/gcc/arm-eabi/4.5.1/../../../../arm-eabi/lib\libg.a(lib_a-refill.o)
 .data          0x02053448        0x0 d:/devkitpro/devkitarm/bin/../lib/gcc/arm-eabi/4.5.1/../../../../arm-eabi/lib\libg.a(lib_a-setjmp.o)
 .data          0x02053448        0x0 d:/devkitpro/devkitarm/bin/../lib/gcc/arm-eabi/4.5.1/../../../../arm-eabi/lib\libg.a(lib_a-signal.o)
 .data          0x02053448        0x0 d:/devkitpro/devkitarm/bin/../lib/gcc/arm-eabi/4.5.1/../../../../arm-eabi/lib\libg.a(lib_a-snprintf.o)
 .data          0x02053448        0x0 d:/devkitpro/devkitarm/bin/../lib/gcc/arm-eabi/4.5.1/../../../../arm-eabi/lib\libg.a(lib_a-sprintf.o)
 .data          0x02053448        0x0 d:/devkitpro/devkitarm/bin/../lib/gcc/arm-eabi/4.5.1/../../../../arm-eabi/lib\libg.a(lib_a-stdio.o)
 .data          0x02053448        0x0 d:/devkitpro/devkitarm/bin/../lib/gcc/arm-eabi/4.5.1/../../../../arm-eabi/lib\libg.a(lib_a-strcmp.o)
 .data          0x02053448        0x0 d:/devkitpro/devkitarm/bin/../lib/gcc/arm-eabi/4.5.1/../../../../arm-eabi/lib\libg.a(lib_a-strcpy.o)
 .data          0x02053448        0x0 d:/devkitpro/devkitarm/bin/../lib/gcc/arm-eabi/4.5.1/../../../../arm-eabi/lib\libg.a(lib_a-strlen.o)
 .data          0x02053448        0x0 d:/devkitpro/devkitarm/bin/../lib/gcc/arm-eabi/4.5.1/../../../../arm-eabi/lib\libg.a(lib_a-strncmp.o)
 .data          0x02053448       0x28 d:/devkitpro/devkitarm/bin/../lib/gcc/arm-eabi/4.5.1/../../../../arm-eabi/lib\libg.a(lib_a-strtod.o)
 .data          0x02053470        0x0 d:/devkitpro/devkitarm/bin/../lib/gcc/arm-eabi/4.5.1/../../../../arm-eabi/lib\libg.a(lib_a-svfprintf.o)
 .data          0x02053470        0x0 d:/devkitpro/devkitarm/bin/../lib/gcc/arm-eabi/4.5.1/../../../../arm-eabi/lib\libg.a(lib_a-syswrite.o)
 .data          0x02053470        0x0 d:/devkitpro/devkitarm/bin/../lib/gcc/arm-eabi/4.5.1/../../../../arm-eabi/lib\libg.a(lib_a-vfprintf.o)
 .data          0x02053470        0x0 d:/devkitpro/devkitarm/bin/../lib/gcc/arm-eabi/4.5.1/../../../../arm-eabi/lib\libg.a(lib_a-wbuf.o)
 .data          0x02053470        0x0 d:/devkitpro/devkitarm/bin/../lib/gcc/arm-eabi/4.5.1/../../../../arm-eabi/lib\libg.a(lib_a-wcrtomb.o)
 .data          0x02053470        0x0 d:/devkitpro/devkitarm/bin/../lib/gcc/arm-eabi/4.5.1/../../../../arm-eabi/lib\libg.a(lib_a-wcsrtombs.o)
 .data          0x02053470        0x4 d:/devkitpro/devkitarm/bin/../lib/gcc/arm-eabi/4.5.1/../../../../arm-eabi/lib\libg.a(lib_a-wctomb_r.o)
                0x02053470                __wctomb
 .data          0x02053474        0x0 d:/devkitpro/devkitarm/bin/../lib/gcc/arm-eabi/4.5.1/../../../../arm-eabi/lib\libg.a(lib_a-wsetup.o)
 .data          0x02053474        0x0 d:/devkitpro/devkitarm/bin/../lib/gcc/arm-eabi/4.5.1/../../../../arm-eabi/lib\libg.a(lib_a-dtoa.o)
 .data          0x02053474        0x0 d:/devkitpro/devkitarm/bin/../lib/gcc/arm-eabi/4.5.1/../../../../arm-eabi/lib\libg.a(lib_a-gdtoa-gethex.o)
 .data          0x02053474        0x0 d:/devkitpro/devkitarm/bin/../lib/gcc/arm-eabi/4.5.1/../../../../arm-eabi/lib\libg.a(lib_a-gdtoa-hexnan.o)
 .data          0x02053474      0x144 d:/devkitpro/devkitarm/bin/../lib/gcc/arm-eabi/4.5.1/../../../../arm-eabi/lib\libg.a(lib_a-locale.o)
                0x02053474                __default_locale
                0x020534b4                __mb_cur_max
 .data          0x020535b8        0x0 d:/devkitpro/devkitarm/bin/../lib/gcc/arm-eabi/4.5.1/../../../../arm-eabi/lib\libg.a(lib_a-makebuf.o)
 .data          0x020535b8        0x4 d:/devkitpro/devkitarm/bin/../lib/gcc/arm-eabi/4.5.1/../../../../arm-eabi/lib\libg.a(lib_a-mbtowc_r.o)
                0x020535b8                __mbtowc
 .data          0x020535bc        0x0 d:/devkitpro/devkitarm/bin/../lib/gcc/arm-eabi/4.5.1/../../../../arm-eabi/lib\libg.a(lib_a-mprec.o)
 .data          0x020535bc        0x0 d:/devkitpro/devkitarm/bin/../lib/gcc/arm-eabi/4.5.1/../../../../arm-eabi/lib\libg.a(lib_a-sf_nan.o)
 .data          0x020535bc        0x0 d:/devkitpro/devkitarm/bin/../lib/gcc/arm-eabi/4.5.1/../../../../arm-eabi/lib\libg.a(lib_a-strcasecmp.o)
 .data          0x020535bc        0x0 d:/devkitpro/devkitarm/bin/../lib/gcc/arm-eabi/4.5.1/../../../../arm-eabi/lib\libg.a(lib_a-strcat.o)
 .data          0x020535bc        0x0 d:/devkitpro/devkitarm/bin/../lib/gcc/arm-eabi/4.5.1/../../../../arm-eabi/lib\libg.a(lib_a-strchr.o)
 .data          0x020535bc        0x0 d:/devkitpro/devkitarm/bin/../lib/gcc/arm-eabi/4.5.1/../../../../arm-eabi/lib\libg.a(lib_a-strlcpy.o)
 .data          0x020535bc        0x0 d:/devkitpro/devkitarm/bin/../lib/gcc/arm-eabi/4.5.1/../../../../arm-eabi/lib\libg.a(lib_a-strncasecmp.o)
 .data          0x020535bc        0x0 d:/devkitpro/devkitarm/bin/../lib/gcc/arm-eabi/4.5.1/../../../../arm-eabi/lib\libg.a(lib_a-strncpy.o)
 .data          0x020535bc        0x0 d:/devkitpro/devkitarm/bin/../lib/gcc/arm-eabi/4.5.1/../../../../arm-eabi/lib\libg.a(lib_a-strtol.o)
 .data          0x020535bc        0x0 d:/devkitpro/devkitarm/bin/../lib/gcc/arm-eabi/4.5.1/../../../../arm-eabi/lib\libg.a(lib_a-svfiprintf.o)
 .data          0x020535bc        0x0 d:/devkitpro/devkitarm/bin/../lib/gcc/arm-eabi/4.5.1/../../../../arm-eabi/lib\libg.a(lib_a-vfiprintf.o)
 .data          0x020535bc        0x0 d:/devkitpro/devkitarm/bin/../lib/gcc/arm-eabi/4.5.1/../../../../arm-eabi/lib\libg.a(lib_a-wcsnrtombs.o)
 .data          0x020535bc        0x4 d:/devkitpro/devkitarm/bin/../lib/gcc/arm-eabi/4.5.1/../../../../arm-eabi/lib\libg.a(lib_a-ctype_.o)
                0x020535bc                __ctype_ptr__
 .data          0x020535c0        0x0 d:/devkitpro/devkitarm/bin/../lib/gcc/arm-eabi/4.5.1/../../../../arm-eabi/lib\libg.a(lib_a-fputwc.o)
 .data          0x020535c0        0x0 d:/devkitpro/devkitarm/bin/../lib/gcc/arm-eabi/4.5.1/../../../../arm-eabi/lib\libg.a(lib_a-getenv_r.o)
 .data          0x020535c0        0x4 d:/devkitpro/devkitarm/bin/../lib/gcc/arm-eabi/4.5.1/../../../../arm-eabi/lib\libg.a(lib_a-environ.o)
                0x020535c0                environ
 .data          0x020535c4        0x0 d:/devkitpro/devkitarm/bin/../lib/gcc/arm-eabi/4.5.1/../../../../arm-eabi/lib\libg.a(lib_a-envlock.o)
 .data          0x020535c4        0x0 d:/devkitpro/devkitarm/bin/../lib/gcc/arm-eabi/4.5.1/../../../../arm-eabi/lib\libsysbase.a(close.o)
 .data          0x020535c4        0x0 d:/devkitpro/devkitarm/bin/../lib/gcc/arm-eabi/4.5.1/../../../../arm-eabi/lib\libsysbase.a(fstat.o)
 .data          0x020535c4        0x0 d:/devkitpro/devkitarm/bin/../lib/gcc/arm-eabi/4.5.1/../../../../arm-eabi/lib\libsysbase.a(getpid.o)
 .data          0x020535c4        0x0 d:/devkitpro/devkitarm/bin/../lib/gcc/arm-eabi/4.5.1/../../../../arm-eabi/lib\libsysbase.a(isatty.o)
 .data          0x020535c4        0x0 d:/devkitpro/devkitarm/bin/../lib/gcc/arm-eabi/4.5.1/../../../../arm-eabi/lib\libsysbase.a(kill.o)
 .data          0x020535c4        0x0 d:/devkitpro/devkitarm/bin/../lib/gcc/arm-eabi/4.5.1/../../../../arm-eabi/lib\libsysbase.a(lseek.o)
 .data          0x020535c4        0x0 d:/devkitpro/devkitarm/bin/../lib/gcc/arm-eabi/4.5.1/../../../../arm-eabi/lib\libsysbase.a(read.o)
 .data          0x020535c4        0x0 d:/devkitpro/devkitarm/bin/../lib/gcc/arm-eabi/4.5.1/../../../../arm-eabi/lib\libsysbase.a(sbrk.o)
 .data          0x020535c4        0x0 d:/devkitpro/devkitarm/bin/../lib/gcc/arm-eabi/4.5.1/../../../../arm-eabi/lib\libsysbase.a(times.o)
 .data          0x020535c4        0x0 d:/devkitpro/devkitarm/bin/../lib/gcc/arm-eabi/4.5.1/../../../../arm-eabi/lib\libsysbase.a(write.o)
 .data          0x020535c4        0x0 d:/devkitpro/devkitarm/bin/../lib/gcc/arm-eabi/4.5.1/../../../../arm-eabi/lib\libsysbase.a(_exit.o)
 .data          0x020535c4        0x0 d:/devkitpro/devkitarm/bin/../lib/gcc/arm-eabi/4.5.1/../../../../arm-eabi/lib\libsysbase.a(malloc_vars.o)
 .data          0x020535c4        0x0 d:/devkitpro/devkitarm/bin/../lib/gcc/arm-eabi/4.5.1/../../../../arm-eabi/lib\libsysbase.a(build_argv.o)
 .data          0x020535c4        0x0 d:/devkitpro/devkitarm/bin/../lib/gcc/arm-eabi/4.5.1/../../../../arm-eabi/lib\libsysbase.a(syscall_support.o)
 .data          0x020535c4        0x0 d:/devkitpro/devkitarm/bin/../lib/gcc/arm-eabi/4.5.1/../../../../arm-eabi/lib\libsysbase.a(handle_manager.o)
 .data          0x020535c4       0x44 d:/devkitpro/devkitarm/bin/../lib/gcc/arm-eabi/4.5.1/../../../../arm-eabi/lib\libsysbase.a(iosupport.o)
                0x020535c8                devoptab_list
 .data          0x02053608        0x0 d:/devkitpro/devkitarm/bin/../lib/gcc/arm-eabi/4.5.1\libgcc.a(_aeabi_uldivmod.o)
 .data          0x02053608        0x0 d:/devkitpro/devkitarm/bin/../lib/gcc/arm-eabi/4.5.1\libgcc.a(bpabi.o)
 .data          0x02053608        0x0 d:/devkitpro/devkitarm/bin/../lib/gcc/arm-eabi/4.5.1\libgcc.a(_divdi3.o)
 .data          0x02053608        0x0 d:/devkitpro/devkitarm/bin/../lib/gcc/arm-eabi/4.5.1\libgcc.a(_udivdi3.o)
 .data          0x02053608        0x0 d:/devkitpro/devkitarm/bin/../lib/gcc/arm-eabi/4.5.1\libgcc.a(_clzsi2.o)
 .data          0x02053608        0x0 d:/devkitpro/devkitarm/bin/../lib/gcc/arm-eabi/4.5.1/crtend.o
 .data          0x02053608        0x0 d:/devkitpro/devkitarm/bin/../lib/gcc/arm-eabi/4.5.1/crtn.o
 *(.data.*)
 .data._ZN10__cxxabiv119__terminate_handlerE
                0x02053608        0x4 d:/devkitpro/devkitarm/bin/../lib/gcc/arm-eabi/4.5.1/../../../../arm-eabi/lib\libstdc++.a(eh_term_handler.o)
                0x02053608                __cxxabiv1::__terminate_handler
 .data._ZN10__cxxabiv120__unexpected_handlerE
                0x0205360c        0x4 d:/devkitpro/devkitarm/bin/../lib/gcc/arm-eabi/4.5.1/../../../../arm-eabi/lib\libstdc++.a(eh_unex_handler.o)
                0x0205360c                __cxxabiv1::__unexpected_handler
 *(.gnu.linkonce.d*)
                0x02053610                . = ALIGN (0x4)
                0x02053610                __data_end = ABSOLUTE (.)
                0x02053610                __dtcm_lma = .
                0x02053610                __bss_vma = .

.dtcm           0x0b000000        0x0 load address 0x02053610
 *(.dtcm)
 *(.dtcm.*)
                0x0b000000                . = ALIGN (0x4)
                0x0b000000                __dtcm_end = ABSOLUTE (.)
                0x02053610                __itcm_lma = (__dtcm_lma + SIZEOF (.dtcm))

.itcm           0x01000100      0x194 load address 0x02053610
 *(.itcm)
 .itcm          0x01000100       0xc8 d:/devkitPro/libnds/lib\libnds9.a(interrupts.o)
                0x01000100                irqTable
 .itcm          0x010001c8       0xcc d:/devkitPro/libnds/lib\libnds9.a(interruptDispatcher.o)
                0x010001c8                IntrMain
 *itcm.*(.text)
                0x01000294                . = ALIGN (0x4)
                0x01000294                __itcm_end = ABSOLUTE (.)
                0x020537a4                __vectors_lma = (__itcm_lma + SIZEOF (.itcm))

.vectors        0x01000000        0x0 load address 0x020537a4
 *(.vectors)
 *vectors.*(.text)
                0x01000000                . = ALIGN (0x4)
                0x01000000                __vectors_end = ABSOLUTE (.)

.sbss           0x0b000000        0x0
                0x0b000000                __sbss_start = ABSOLUTE (.)
                0x0b000000                __sbss_start__ = ABSOLUTE (.)
 *(.sbss)
                0x0b000000                . = ALIGN (0x4)
                0x0b000000                __sbss_end = ABSOLUTE (.)

.bss            0x02053610     0x4988
                0x02053610                __bss_start = ABSOLUTE (.)
                0x02053610                __bss_start__ = ABSOLUTE (.)
 *(.dynbss)
 *(.gnu.linkonce.b*)
 *(.bss*)
 .bss           0x02053610        0x0 d:/devkitpro/devkitarm/bin/../lib/gcc/arm-eabi/4.5.1/../../../../arm-eabi/lib/ds_arm9_crt0.o
 .bss           0x02053610        0x0 d:/devkitpro/devkitarm/bin/../lib/gcc/arm-eabi/4.5.1/crti.o
 .bss           0x02053610       0x1c d:/devkitpro/devkitarm/bin/../lib/gcc/arm-eabi/4.5.1/crtbegin.o
 .bss           0x0205362c        0x0 ball.png.o
 .bss           0x0205362c        0x8 CBall.o
                0x0205362c                CBall::nInstances
                0x02053630                CBall::imgBall
 .bss           0x02053634        0x0 main.o
 .bss           0x02053634        0x4 d:/devkitPro/libnds/lib\libul.a(ulib.o)
                0x02053634                ul_isConsoleInited
 .bss           0x02053638        0x3 d:/devkitPro/libnds/lib\libul.a(drawing.o)
                0x02053638                ul_drawingStarted
                0x02053639                ul_screenClippingChanged
                0x0205363a                ul_firstPaletteColorOpaque
 *fill*         0x0205363b        0x1 00
 .bss           0x0205363c        0x8 d:/devkitPro/libnds/lib\libul.a(text.o)
                0x0205363c                ul_curFont
                0x02053640                ul_lcdFont
 .bss           0x02053644        0x8 d:/devkitPro/libnds/lib\libul.a(VirtualFile.o)
                0x02053644                VirtualFileSourcesNb
                0x02053648                ul_virtualFileListNumber
 .bss           0x0205364c        0x0 d:/devkitPro/libnds/lib\libul.a(texVramManager.o)
 .bss           0x0205364c        0x0 d:/devkitPro/libnds/lib\libul.a(texPalManager.o)
 .bss           0x0205364c        0x0 d:/devkitPro/libnds/lib\libul.a(keys.o)
 .bss           0x0205364c        0x0 d:/devkitPro/libnds/lib\libul.a(ulDrawImage.o)
 .bss           0x0205364c        0x0 d:/devkitPro/libnds/lib\libul.a(ulCreateImagePalette.o)
 .bss           0x0205364c        0x0 d:/devkitPro/libnds/lib\libul.a(ulDrawGradientRect.o)
 .bss           0x0205364c        0x0 d:/devkitPro/libnds/lib\libul.a(ulLoadImageFilePNG.o)
 .bss           0x0205364c        0x0 d:/devkitPro/libnds/lib\libul.a(ulShowSplashScreen1.o)
 .bss           0x0205364c        0x0 d:/devkitPro/libnds/lib\libul.a(ulShowSplashScreen2.o)
 .bss           0x0205364c        0x0 d:/devkitPro/libnds/lib\libul.a(glWrapper.o)
 .bss           0x0205364c        0x0 d:/devkitPro/libnds/lib\libul.a(libLoadPng.o)
 .bss           0x0205364c        0x0 d:/devkitPro/libnds/lib\libul.a(ulDrawFillRect.o)
 .bss           0x0205364c        0x0 d:/devkitPro/libnds/lib\libul.a(ulSetImagePixel.o)
 .bss           0x0205364c        0x0 d:/devkitPro/libnds/lib\libul.a(ulGetImagePixel.o)
 .bss           0x0205364c        0x0 d:/devkitPro/libnds/lib\libul.a(textSize.o)
 .bss           0x0205364c        0x0 d:/devkitPro/libnds/lib\libul.a(loading_utility.o)
 .bss           0x0205364c        0x0 d:/devkitPro/libnds/lib\libul.a(ulLoadImageFileJPG.o)
 .bss           0x0205364c        0x0 d:/devkitPro/libnds/lib\libul.a(ulLoadImageFileGIF.o)
 .bss           0x0205364c        0x0 d:/devkitPro/libnds/lib\libul.a(libLoadJpg.o)
 .bss           0x0205364c        0x0 d:/devkitPro/libnds/lib\libul.a(libLoadGif.o)
 .bss           0x0205364c        0x0 d:/devkitPro/libnds/lib\libul.a(dgif_lib.o)
 .bss           0x0205364c        0x4 d:/devkitPro/libnds/lib\libul.a(gif_err.o)
                0x0205364c                _GifError
 .bss           0x02053650        0x0 d:/devkitPro/libnds/lib\libul.a(gifalloc.o)
 .bss           0x02053650        0x0 d:/devkitPro/libnds/lib\libul.a(ulReadEntireFileToMemory.o)
 .bss           0x02053650        0x0 d:/devkitPro/libnds/lib\libul.a(gba-jpeg-decode.o)
 .bss           0x02053650        0x0 d:/devkitPro/libnds/lib\libpng.a(png.o)
 .bss           0x02053650        0x0 d:/devkitPro/libnds/lib\libpng.a(pngread.o)
 .bss           0x02053650        0x0 d:/devkitPro/libnds/lib\libpng.a(pngrio.o)
 .bss           0x02053650        0x0 d:/devkitPro/libnds/lib\libpng.a(pngrtran.o)
 .bss           0x02053650        0x0 d:/devkitPro/libnds/lib\libpng.a(pngmem.o)
 .bss           0x02053650        0x0 d:/devkitPro/libnds/lib\libpng.a(pngerror.o)
 .bss           0x02053650        0x0 d:/devkitPro/libnds/lib\libpng.a(pngget.o)
 .bss           0x02053650        0x0 d:/devkitPro/libnds/lib\libpng.a(pngrutil.o)
 .bss           0x02053650        0x0 d:/devkitPro/libnds/lib\libpng.a(pngtrans.o)
 .bss           0x02053650        0x0 d:/devkitPro/libnds/lib\libpng.a(pngset.o)
 .bss           0x02053650        0x0 d:/devkitPro/libnds/lib\libz.a(crc32.o)
 .bss           0x02053650        0x0 d:/devkitPro/libnds/lib\libz.a(inflate.o)
 .bss           0x02053650        0x0 d:/devkitPro/libnds/lib\libz.a(inftrees.o)
 .bss           0x02053650        0x0 d:/devkitPro/libnds/lib\libz.a(inffast.o)
 .bss           0x02053650        0x0 d:/devkitPro/libnds/lib\libz.a(adler32.o)
 .bss           0x02053650        0x0 d:/devkitPro/libnds/lib\libz.a(zutil.o)
 .bss           0x02053650        0x0 d:/devkitPro/libnds/lib\libnds9.a(dynamicArray.o)
 .bss           0x02053650        0x6 d:/devkitPro/libnds/lib\libnds9.a(keys.o)
 .bss           0x02053656        0x0 d:/devkitPro/libnds/lib\libnds9.a(system.o)
 .bss           0x02053656        0x0 d:/devkitPro/libnds/lib\libnds9.a(touch.o)
 .bss           0x02053656        0x0 d:/devkitPro/libnds/lib\libnds9.a(trig.o)
 *fill*         0x02053656        0x2 00
 .bss           0x02053658        0x8 d:/devkitPro/libnds/lib\libnds9.a(videoGL.o)
 .bss           0x02053660        0x0 d:/devkitPro/libnds/lib\libnds9.a(initSystem.o)
 .bss           0x02053660        0x8 d:/devkitPro/libnds/lib\libnds9.a(fifosystem.o)
                0x02053664                processing
 .bss           0x02053668        0x0 d:/devkitPro/libnds/lib\libnds9.a(interrupts.o)
 .bss           0x02053668        0x0 d:/devkitPro/libnds/lib\libnds9.a(libnds_exit.o)
 .bss           0x02053668        0x0 d:/devkitPro/libnds/lib\libnds9.a(mpu_setup.o)
 .bss           0x02053668        0x0 d:/devkitPro/libnds/lib\libnds9.a(biosCalls.o)
 .bss           0x02053668        0x0 d:/devkitPro/libnds/lib\libnds9.a(interruptDispatcher.o)
 .bss           0x02053668        0x0 d:/devkitPro/libnds/lib\libnds9.a(swiSoftReset.o)
 .bss           0x02053668        0x0 d:/devkitPro/libnds/lib\libnds9.a(video.o)
 .bss           0x02053668        0x0 d:/devkitpro/devkitarm/bin/../lib/gcc/arm-eabi/4.5.1/../../../../arm-eabi/lib\libstdc++.a(new_op.o)
 .bss           0x02053668        0x0 d:/devkitpro/devkitarm/bin/../lib/gcc/arm-eabi/4.5.1/../../../../arm-eabi/lib\libstdc++.a(eh_alloc.o)
 .bss._ZL15dependents_used
                0x02053668        0x4 d:/devkitpro/devkitarm/bin/../lib/gcc/arm-eabi/4.5.1/../../../../arm-eabi/lib\libstdc++.a(eh_alloc.o)
 *fill*         0x0205366c        0x4 00
 .bss._ZL17dependents_buffer
                0x02053670      0x1e0 d:/devkitpro/devkitarm/bin/../lib/gcc/arm-eabi/4.5.1/../../../../arm-eabi/lib\libstdc++.a(eh_alloc.o)
 .bss._ZL14emergency_used
                0x02053850        0x4 d:/devkitpro/devkitarm/bin/../lib/gcc/arm-eabi/4.5.1/../../../../arm-eabi/lib\libstdc++.a(eh_alloc.o)
 *fill*         0x02053854        0x4 00
 .bss._ZL16emergency_buffer
                0x02053858      0x800 d:/devkitpro/devkitarm/bin/../lib/gcc/arm-eabi/4.5.1/../../../../arm-eabi/lib\libstdc++.a(eh_alloc.o)
 .bss           0x02054058        0x0 d:/devkitpro/devkitarm/bin/../lib/gcc/arm-eabi/4.5.1/../../../../arm-eabi/lib\libstdc++.a(eh_arm.o)
 .bss           0x02054058        0x0 d:/devkitpro/devkitarm/bin/../lib/gcc/arm-eabi/4.5.1/../../../../arm-eabi/lib\libstdc++.a(eh_aux_runtime.o)
 .bss           0x02054058        0x0 d:/devkitpro/devkitarm/bin/../lib/gcc/arm-eabi/4.5.1/../../../../arm-eabi/lib\libstdc++.a(eh_call.o)
 .bss           0x02054058        0x0 d:/devkitpro/devkitarm/bin/../lib/gcc/arm-eabi/4.5.1/../../../../arm-eabi/lib\libstdc++.a(eh_catch.o)
 .bss           0x02054058        0x0 d:/devkitpro/devkitarm/bin/../lib/gcc/arm-eabi/4.5.1/../../../../arm-eabi/lib\libstdc++.a(eh_exception.o)
 .bss           0x02054058        0x0 d:/devkitpro/devkitarm/bin/../lib/gcc/arm-eabi/4.5.1/../../../../arm-eabi/lib\libstdc++.a(eh_globals.o)
 .bss._ZL10eh_globals
                0x02054058        0xc d:/devkitpro/devkitarm/bin/../lib/gcc/arm-eabi/4.5.1/../../../../arm-eabi/lib\libstdc++.a(eh_globals.o)
 .bss           0x02054064        0x0 d:/devkitpro/devkitarm/bin/../lib/gcc/arm-eabi/4.5.1/../../../../arm-eabi/lib\libstdc++.a(eh_personality.o)
 .bss           0x02054064        0x0 d:/devkitpro/devkitarm/bin/../lib/gcc/arm-eabi/4.5.1/../../../../arm-eabi/lib\libstdc++.a(eh_terminate.o)
 .bss           0x02054064        0x0 d:/devkitpro/devkitarm/bin/../lib/gcc/arm-eabi/4.5.1/../../../../arm-eabi/lib\libstdc++.a(eh_term_handler.o)
 .bss           0x02054064        0x0 d:/devkitpro/devkitarm/bin/../lib/gcc/arm-eabi/4.5.1/../../../../arm-eabi/lib\libstdc++.a(eh_throw.o)
 .bss           0x02054064        0x0 d:/devkitpro/devkitarm/bin/../lib/gcc/arm-eabi/4.5.1/../../../../arm-eabi/lib\libstdc++.a(eh_unex_handler.o)
 .bss           0x02054064        0x0 d:/devkitpro/devkitarm/bin/../lib/gcc/arm-eabi/4.5.1/../../../../arm-eabi/lib\libstdc++.a(fundamental_type_info.o)
 .bss           0x02054064        0x0 d:/devkitpro/devkitarm/bin/../lib/gcc/arm-eabi/4.5.1/../../../../arm-eabi/lib\libstdc++.a(new_handler.o)
 .bss.__new_handler
                0x02054064        0x4 d:/devkitpro/devkitarm/bin/../lib/gcc/arm-eabi/4.5.1/../../../../arm-eabi/lib\libstdc++.a(new_handler.o)
                0x02054064                __new_handler
 .bss           0x02054068        0x0 d:/devkitpro/devkitarm/bin/../lib/gcc/arm-eabi/4.5.1/../../../../arm-eabi/lib\libstdc++.a(pointer_type_info.o)
 .bss           0x02054068        0x0 d:/devkitpro/devkitarm/bin/../lib/gcc/arm-eabi/4.5.1/../../../../arm-eabi/lib\libstdc++.a(pure.o)
 .bss           0x02054068        0x0 d:/devkitpro/devkitarm/bin/../lib/gcc/arm-eabi/4.5.1/../../../../arm-eabi/lib\libstdc++.a(si_class_type_info.o)
 .bss           0x02054068        0x0 d:/devkitpro/devkitarm/bin/../lib/gcc/arm-eabi/4.5.1/../../../../arm-eabi/lib\libstdc++.a(tinfo.o)
 .bss           0x02054068        0x0 d:/devkitpro/devkitarm/bin/../lib/gcc/arm-eabi/4.5.1/../../../../arm-eabi/lib\libstdc++.a(vterminate.o)
 .bss._ZZN9__gnu_cxx27__verbose_terminate_handlerEvE11terminating
                0x02054068        0x1 d:/devkitpro/devkitarm/bin/../lib/gcc/arm-eabi/4.5.1/../../../../arm-eabi/lib\libstdc++.a(vterminate.o)
 .bss           0x02054069        0x0 d:/devkitpro/devkitarm/bin/../lib/gcc/arm-eabi/4.5.1/../../../../arm-eabi/lib\libstdc++.a(bad_cast.o)
 .bss           0x02054069        0x0 d:/devkitpro/devkitarm/bin/../lib/gcc/arm-eabi/4.5.1/../../../../arm-eabi/lib\libstdc++.a(bad_typeid.o)
 .bss           0x02054069        0x0 d:/devkitpro/devkitarm/bin/../lib/gcc/arm-eabi/4.5.1/../../../../arm-eabi/lib\libstdc++.a(class_type_info.o)
 .bss           0x02054069        0x0 d:/devkitpro/devkitarm/bin/../lib/gcc/arm-eabi/4.5.1/../../../../arm-eabi/lib\libstdc++.a(cp-demangle.o)
 .bss           0x02054069        0x0 d:/devkitpro/devkitarm/bin/../lib/gcc/arm-eabi/4.5.1/../../../../arm-eabi/lib\libstdc++.a(del_op.o)
 .bss           0x02054069        0x0 d:/devkitpro/devkitarm/bin/../lib/gcc/arm-eabi/4.5.1/../../../../arm-eabi/lib\libstdc++.a(eh_type.o)
 .bss           0x02054069        0x0 d:/devkitpro/devkitarm/bin/../lib/gcc/arm-eabi/4.5.1/../../../../arm-eabi/lib\libstdc++.a(pbase_type_info.o)
 .bss           0x02054069        0x0 d:/devkitpro/devkitarm/bin/../lib/gcc/arm-eabi/4.5.1/../../../../arm-eabi/lib\libm.a(lib_a-s_cos.o)
 .bss           0x02054069        0x0 d:/devkitpro/devkitarm/bin/../lib/gcc/arm-eabi/4.5.1/../../../../arm-eabi/lib\libm.a(lib_a-s_sin.o)
 .bss           0x02054069        0x0 d:/devkitpro/devkitarm/bin/../lib/gcc/arm-eabi/4.5.1/../../../../arm-eabi/lib\libm.a(lib_a-w_pow.o)
 .bss           0x02054069        0x0 d:/devkitpro/devkitarm/bin/../lib/gcc/arm-eabi/4.5.1/../../../../arm-eabi/lib\libm.a(lib_a-e_pow.o)
 .bss           0x02054069        0x0 d:/devkitpro/devkitarm/bin/../lib/gcc/arm-eabi/4.5.1/../../../../arm-eabi/lib\libm.a(lib_a-e_rem_pio2.o)
 .bss           0x02054069        0x0 d:/devkitpro/devkitarm/bin/../lib/gcc/arm-eabi/4.5.1/../../../../arm-eabi/lib\libm.a(lib_a-e_sqrt.o)
 .bss           0x02054069        0x0 d:/devkitpro/devkitarm/bin/../lib/gcc/arm-eabi/4.5.1/../../../../arm-eabi/lib\libm.a(lib_a-k_cos.o)
 .bss           0x02054069        0x0 d:/devkitpro/devkitarm/bin/../lib/gcc/arm-eabi/4.5.1/../../../../arm-eabi/lib\libm.a(lib_a-k_rem_pio2.o)
 .bss           0x02054069        0x0 d:/devkitpro/devkitarm/bin/../lib/gcc/arm-eabi/4.5.1/../../../../arm-eabi/lib\libm.a(lib_a-k_sin.o)
 .bss           0x02054069        0x0 d:/devkitpro/devkitarm/bin/../lib/gcc/arm-eabi/4.5.1/../../../../arm-eabi/lib\libm.a(lib_a-s_fabs.o)
 .bss           0x02054069        0x0 d:/devkitpro/devkitarm/bin/../lib/gcc/arm-eabi/4.5.1/../../../../arm-eabi/lib\libm.a(lib_a-s_finite.o)
 .bss           0x02054069        0x0 d:/devkitpro/devkitarm/bin/../lib/gcc/arm-eabi/4.5.1/../../../../arm-eabi/lib\libm.a(lib_a-s_floor.o)
 .bss           0x02054069        0x0 d:/devkitpro/devkitarm/bin/../lib/gcc/arm-eabi/4.5.1/../../../../arm-eabi/lib\libm.a(lib_a-s_fpclassify.o)
 .bss           0x02054069        0x0 d:/devkitpro/devkitarm/bin/../lib/gcc/arm-eabi/4.5.1/../../../../arm-eabi/lib\libm.a(lib_a-s_lib_ver.o)
 .bss           0x02054069        0x0 d:/devkitpro/devkitarm/bin/../lib/gcc/arm-eabi/4.5.1/../../../../arm-eabi/lib\libm.a(lib_a-s_matherr.o)
 .bss           0x02054069        0x0 d:/devkitpro/devkitarm/bin/../lib/gcc/arm-eabi/4.5.1/../../../../arm-eabi/lib\libm.a(lib_a-s_nan.o)
 .bss           0x02054069        0x0 d:/devkitpro/devkitarm/bin/../lib/gcc/arm-eabi/4.5.1/../../../../arm-eabi/lib\libm.a(lib_a-s_rint.o)
 .bss           0x02054069        0x0 d:/devkitpro/devkitarm/bin/../lib/gcc/arm-eabi/4.5.1/../../../../arm-eabi/lib\libm.a(lib_a-s_scalbn.o)
 .bss           0x02054069        0x0 d:/devkitpro/devkitarm/bin/../lib/gcc/arm-eabi/4.5.1/../../../../arm-eabi/lib\libm.a(lib_a-s_copysign.o)
 .bss           0x02054069        0x0 d:/devkitpro/devkitarm/bin/../lib/gcc/arm-eabi/4.5.1\libgcc.a(_udivsi3.o)
 .bss           0x02054069        0x0 d:/devkitpro/devkitarm/bin/../lib/gcc/arm-eabi/4.5.1\libgcc.a(_divsi3.o)
 .bss           0x02054069        0x0 d:/devkitpro/devkitarm/bin/../lib/gcc/arm-eabi/4.5.1\libgcc.a(_dvmd_tls.o)
 .bss           0x02054069        0x0 d:/devkitpro/devkitarm/bin/../lib/gcc/arm-eabi/4.5.1\libgcc.a(_arm_addsubdf3.o)
 .bss           0x02054069        0x0 d:/devkitpro/devkitarm/bin/../lib/gcc/arm-eabi/4.5.1\libgcc.a(_arm_muldivdf3.o)
 .bss           0x02054069        0x0 d:/devkitpro/devkitarm/bin/../lib/gcc/arm-eabi/4.5.1\libgcc.a(_arm_cmpdf2.o)
 .bss           0x02054069        0x0 d:/devkitpro/devkitarm/bin/../lib/gcc/arm-eabi/4.5.1\libgcc.a(_arm_fixdfsi.o)
 .bss           0x02054069        0x0 d:/devkitpro/devkitarm/bin/../lib/gcc/arm-eabi/4.5.1\libgcc.a(_arm_fixunsdfsi.o)
 .bss           0x02054069        0x0 d:/devkitpro/devkitarm/bin/../lib/gcc/arm-eabi/4.5.1\libgcc.a(_arm_truncdfsf2.o)
 .bss           0x02054069        0x0 d:/devkitpro/devkitarm/bin/../lib/gcc/arm-eabi/4.5.1\libgcc.a(_arm_addsubsf3.o)
 .bss           0x02054069        0x0 d:/devkitpro/devkitarm/bin/../lib/gcc/arm-eabi/4.5.1\libgcc.a(_arm_muldivsf3.o)
 .bss           0x02054069        0x0 d:/devkitpro/devkitarm/bin/../lib/gcc/arm-eabi/4.5.1\libgcc.a(_arm_cmpsf2.o)
 .bss           0x02054069        0x0 d:/devkitpro/devkitarm/bin/../lib/gcc/arm-eabi/4.5.1\libgcc.a(_arm_fixsfsi.o)
 .bss           0x02054069        0x0 d:/devkitpro/devkitarm/bin/../lib/gcc/arm-eabi/4.5.1\libgcc.a(_arm_fixunssfsi.o)
 .bss           0x02054069        0x0 d:/devkitpro/devkitarm/bin/../lib/gcc/arm-eabi/4.5.1\libgcc.a(_muldi3.o)
 .bss           0x02054069        0x0 d:/devkitpro/devkitarm/bin/../lib/gcc/arm-eabi/4.5.1\libgcc.a(unwind-arm.o)
 .bss           0x02054069        0x0 d:/devkitpro/devkitarm/bin/../lib/gcc/arm-eabi/4.5.1\libgcc.a(libunwind.o)
 .bss           0x02054069        0x0 d:/devkitpro/devkitarm/bin/../lib/gcc/arm-eabi/4.5.1\libgcc.a(pr-support.o)
 .bss           0x02054069        0x0 d:/devkitpro/devkitarm/bin/../lib/gcc/arm-eabi/4.5.1/../../../../arm-eabi/lib\libg.a(lib_a-abort.o)
 .bss           0x02054069        0x0 d:/devkitpro/devkitarm/bin/../lib/gcc/arm-eabi/4.5.1/../../../../arm-eabi/lib\libg.a(lib_a-bsearch.o)
 .bss           0x02054069        0x0 d:/devkitpro/devkitarm/bin/../lib/gcc/arm-eabi/4.5.1/../../../../arm-eabi/lib\libg.a(lib_a-calloc.o)
 .bss           0x02054069        0x0 d:/devkitpro/devkitarm/bin/../lib/gcc/arm-eabi/4.5.1/../../../../arm-eabi/lib\libg.a(lib_a-callocr.o)
 .bss           0x02054069        0x0 d:/devkitpro/devkitarm/bin/../lib/gcc/arm-eabi/4.5.1/../../../../arm-eabi/lib\libg.a(lib_a-errno.o)
 .bss           0x02054069        0x0 d:/devkitpro/devkitarm/bin/../lib/gcc/arm-eabi/4.5.1/../../../../arm-eabi/lib\libg.a(lib_a-fclose.o)
 .bss           0x02054069        0x0 d:/devkitpro/devkitarm/bin/../lib/gcc/arm-eabi/4.5.1/../../../../arm-eabi/lib\libg.a(lib_a-fflush.o)
 .bss           0x02054069        0x0 d:/devkitpro/devkitarm/bin/../lib/gcc/arm-eabi/4.5.1/../../../../arm-eabi/lib\libg.a(lib_a-findfp.o)
 .bss           0x02054069        0x0 d:/devkitpro/devkitarm/bin/../lib/gcc/arm-eabi/4.5.1/../../../../arm-eabi/lib\libg.a(lib_a-fprintf.o)
 .bss           0x02054069        0x0 d:/devkitpro/devkitarm/bin/../lib/gcc/arm-eabi/4.5.1/../../../../arm-eabi/lib\libg.a(lib_a-fputc.o)
 .bss           0x02054069        0x0 d:/devkitpro/devkitarm/bin/../lib/gcc/arm-eabi/4.5.1/../../../../arm-eabi/lib\libg.a(lib_a-fputs.o)
 .bss           0x02054069        0x0 d:/devkitpro/devkitarm/bin/../lib/gcc/arm-eabi/4.5.1/../../../../arm-eabi/lib\libg.a(lib_a-fread.o)
 .bss           0x02054069        0x0 d:/devkitpro/devkitarm/bin/../lib/gcc/arm-eabi/4.5.1/../../../../arm-eabi/lib\libg.a(lib_a-freer.o)
 .bss           0x02054069        0x0 d:/devkitpro/devkitarm/bin/../lib/gcc/arm-eabi/4.5.1/../../../../arm-eabi/lib\libg.a(lib_a-fvwrite.o)
 .bss           0x02054069        0x0 d:/devkitpro/devkitarm/bin/../lib/gcc/arm-eabi/4.5.1/../../../../arm-eabi/lib\libg.a(lib_a-fwalk.o)
 .bss           0x02054069        0x0 d:/devkitpro/devkitarm/bin/../lib/gcc/arm-eabi/4.5.1/../../../../arm-eabi/lib\libg.a(lib_a-fwrite.o)
 .bss           0x02054069        0x0 d:/devkitpro/devkitarm/bin/../lib/gcc/arm-eabi/4.5.1/../../../../arm-eabi/lib\libg.a(lib_a-impure.o)
 .bss           0x02054069        0x0 d:/devkitpro/devkitarm/bin/../lib/gcc/arm-eabi/4.5.1/../../../../arm-eabi/lib\libg.a(lib_a-init.o)
 .bss           0x02054069        0x0 d:/devkitpro/devkitarm/bin/../lib/gcc/arm-eabi/4.5.1/../../../../arm-eabi/lib\libg.a(lib_a-malloc.o)
 *fill*         0x02054069        0x3 00
 .bss           0x0205406c       0x34 d:/devkitpro/devkitarm/bin/../lib/gcc/arm-eabi/4.5.1/../../../../arm-eabi/lib\libg.a(lib_a-mallocr.o)
                0x0205406c                __malloc_top_pad
                0x02054070                __malloc_current_mallinfo
                0x02054098                __malloc_max_sbrked_mem
                0x0205409c                __malloc_max_total_mem
 .bss           0x020540a0        0x0 d:/devkitpro/devkitarm/bin/../lib/gcc/arm-eabi/4.5.1/../../../../arm-eabi/lib\libg.a(lib_a-memchr.o)
 .bss           0x020540a0        0x0 d:/devkitpro/devkitarm/bin/../lib/gcc/arm-eabi/4.5.1/../../../../arm-eabi/lib\libg.a(lib_a-memcmp.o)
 .bss           0x020540a0        0x0 d:/devkitpro/devkitarm/bin/../lib/gcc/arm-eabi/4.5.1/../../../../arm-eabi/lib\libg.a(lib_a-memcpy.o)
 .bss           0x020540a0        0x0 d:/devkitpro/devkitarm/bin/../lib/gcc/arm-eabi/4.5.1/../../../../arm-eabi/lib\libg.a(lib_a-memmove.o)
 .bss           0x020540a0        0x0 d:/devkitpro/devkitarm/bin/../lib/gcc/arm-eabi/4.5.1/../../../../arm-eabi/lib\libg.a(lib_a-memset.o)
 .bss           0x020540a0        0x0 d:/devkitpro/devkitarm/bin/../lib/gcc/arm-eabi/4.5.1/../../../../arm-eabi/lib\libg.a(lib_a-mlock.o)
 .bss           0x020540a0        0x0 d:/devkitpro/devkitarm/bin/../lib/gcc/arm-eabi/4.5.1/../../../../arm-eabi/lib\libg.a(lib_a-putc.o)
 .bss           0x020540a0        0x0 d:/devkitpro/devkitarm/bin/../lib/gcc/arm-eabi/4.5.1/../../../../arm-eabi/lib\libg.a(lib_a-rand.o)
 .bss           0x020540a0        0x0 d:/devkitpro/devkitarm/bin/../lib/gcc/arm-eabi/4.5.1/../../../../arm-eabi/lib\libg.a(lib_a-realloc.o)
 .bss           0x020540a0        0x0 d:/devkitpro/devkitarm/bin/../lib/gcc/arm-eabi/4.5.1/../../../../arm-eabi/lib\libg.a(lib_a-reallocr.o)
 .bss           0x020540a0        0x0 d:/devkitpro/devkitarm/bin/../lib/gcc/arm-eabi/4.5.1/../../../../arm-eabi/lib\libg.a(lib_a-refill.o)
 .bss           0x020540a0        0x0 d:/devkitpro/devkitarm/bin/../lib/gcc/arm-eabi/4.5.1/../../../../arm-eabi/lib\libg.a(lib_a-setjmp.o)
 .bss           0x020540a0        0x0 d:/devkitpro/devkitarm/bin/../lib/gcc/arm-eabi/4.5.1/../../../../arm-eabi/lib\libg.a(lib_a-signal.o)
 .bss           0x020540a0        0x0 d:/devkitpro/devkitarm/bin/../lib/gcc/arm-eabi/4.5.1/../../../../arm-eabi/lib\libg.a(lib_a-snprintf.o)
 .bss           0x020540a0        0x0 d:/devkitpro/devkitarm/bin/../lib/gcc/arm-eabi/4.5.1/../../../../arm-eabi/lib\libg.a(lib_a-sprintf.o)
 .bss           0x020540a0        0x0 d:/devkitpro/devkitarm/bin/../lib/gcc/arm-eabi/4.5.1/../../../../arm-eabi/lib\libg.a(lib_a-stdio.o)
 .bss           0x020540a0        0x0 d:/devkitpro/devkitarm/bin/../lib/gcc/arm-eabi/4.5.1/../../../../arm-eabi/lib\libg.a(lib_a-strcmp.o)
 .bss           0x020540a0        0x0 d:/devkitpro/devkitarm/bin/../lib/gcc/arm-eabi/4.5.1/../../../../arm-eabi/lib\libg.a(lib_a-strcpy.o)
 .bss           0x020540a0        0x0 d:/devkitpro/devkitarm/bin/../lib/gcc/arm-eabi/4.5.1/../../../../arm-eabi/lib\libg.a(lib_a-strlen.o)
 .bss           0x020540a0        0x0 d:/devkitpro/devkitarm/bin/../lib/gcc/arm-eabi/4.5.1/../../../../arm-eabi/lib\libg.a(lib_a-strncmp.o)
 .bss           0x020540a0        0x0 d:/devkitpro/devkitarm/bin/../lib/gcc/arm-eabi/4.5.1/../../../../arm-eabi/lib\libg.a(lib_a-strtod.o)
 .bss           0x020540a0        0x0 d:/devkitpro/devkitarm/bin/../lib/gcc/arm-eabi/4.5.1/../../../../arm-eabi/lib\libg.a(lib_a-svfprintf.o)
 .bss           0x020540a0        0x0 d:/devkitpro/devkitarm/bin/../lib/gcc/arm-eabi/4.5.1/../../../../arm-eabi/lib\libg.a(lib_a-syswrite.o)
 .bss           0x020540a0        0x0 d:/devkitpro/devkitarm/bin/../lib/gcc/arm-eabi/4.5.1/../../../../arm-eabi/lib\libg.a(lib_a-vfprintf.o)
 .bss           0x020540a0        0x0 d:/devkitpro/devkitarm/bin/../lib/gcc/arm-eabi/4.5.1/../../../../arm-eabi/lib\libg.a(lib_a-wbuf.o)
 .bss           0x020540a0        0x0 d:/devkitpro/devkitarm/bin/../lib/gcc/arm-eabi/4.5.1/../../../../arm-eabi/lib\libg.a(lib_a-wcrtomb.o)
 .bss           0x020540a0        0x0 d:/devkitpro/devkitarm/bin/../lib/gcc/arm-eabi/4.5.1/../../../../arm-eabi/lib\libg.a(lib_a-wcsrtombs.o)
 .bss           0x020540a0        0x0 d:/devkitpro/devkitarm/bin/../lib/gcc/arm-eabi/4.5.1/../../../../arm-eabi/lib\libg.a(lib_a-wctomb_r.o)
 .bss           0x020540a0        0x0 d:/devkitpro/devkitarm/bin/../lib/gcc/arm-eabi/4.5.1/../../../../arm-eabi/lib\libg.a(lib_a-wsetup.o)
 .bss           0x020540a0        0x0 d:/devkitpro/devkitarm/bin/../lib/gcc/arm-eabi/4.5.1/../../../../arm-eabi/lib\libg.a(lib_a-dtoa.o)
 .bss           0x020540a0        0x0 d:/devkitpro/devkitarm/bin/../lib/gcc/arm-eabi/4.5.1/../../../../arm-eabi/lib\libg.a(lib_a-gdtoa-gethex.o)
 .bss           0x020540a0        0x0 d:/devkitpro/devkitarm/bin/../lib/gcc/arm-eabi/4.5.1/../../../../arm-eabi/lib\libg.a(lib_a-gdtoa-hexnan.o)
 .bss           0x020540a0      0x2b8 d:/devkitpro/devkitarm/bin/../lib/gcc/arm-eabi/4.5.1/../../../../arm-eabi/lib\libg.a(lib_a-locale.o)
                0x0205434c                __nlocale_changed
                0x02054350                __mlocale_changed
                0x02054354                _PathLocale
 .bss           0x02054358        0x0 d:/devkitpro/devkitarm/bin/../lib/gcc/arm-eabi/4.5.1/../../../../arm-eabi/lib\libg.a(lib_a-makebuf.o)
 .bss           0x02054358        0x0 d:/devkitpro/devkitarm/bin/../lib/gcc/arm-eabi/4.5.1/../../../../arm-eabi/lib\libg.a(lib_a-mbtowc_r.o)
 .bss           0x02054358        0x0 d:/devkitpro/devkitarm/bin/../lib/gcc/arm-eabi/4.5.1/../../../../arm-eabi/lib\libg.a(lib_a-mprec.o)
 .bss           0x02054358        0x0 d:/devkitpro/devkitarm/bin/../lib/gcc/arm-eabi/4.5.1/../../../../arm-eabi/lib\libg.a(lib_a-sf_nan.o)
 .bss           0x02054358        0x0 d:/devkitpro/devkitarm/bin/../lib/gcc/arm-eabi/4.5.1/../../../../arm-eabi/lib\libg.a(lib_a-strcasecmp.o)
 .bss           0x02054358        0x0 d:/devkitpro/devkitarm/bin/../lib/gcc/arm-eabi/4.5.1/../../../../arm-eabi/lib\libg.a(lib_a-strcat.o)
 .bss           0x02054358        0x0 d:/devkitpro/devkitarm/bin/../lib/gcc/arm-eabi/4.5.1/../../../../arm-eabi/lib\libg.a(lib_a-strchr.o)
 .bss           0x02054358        0x0 d:/devkitpro/devkitarm/bin/../lib/gcc/arm-eabi/4.5.1/../../../../arm-eabi/lib\libg.a(lib_a-strlcpy.o)
 .bss           0x02054358        0x0 d:/devkitpro/devkitarm/bin/../lib/gcc/arm-eabi/4.5.1/../../../../arm-eabi/lib\libg.a(lib_a-strncasecmp.o)
 .bss           0x02054358        0x0 d:/devkitpro/devkitarm/bin/../lib/gcc/arm-eabi/4.5.1/../../../../arm-eabi/lib\libg.a(lib_a-strncpy.o)
 .bss           0x02054358        0x0 d:/devkitpro/devkitarm/bin/../lib/gcc/arm-eabi/4.5.1/../../../../arm-eabi/lib\libg.a(lib_a-strtol.o)
 .bss           0x02054358        0x0 d:/devkitpro/devkitarm/bin/../lib/gcc/arm-eabi/4.5.1/../../../../arm-eabi/lib\libg.a(lib_a-svfiprintf.o)
 .bss           0x02054358        0x0 d:/devkitpro/devkitarm/bin/../lib/gcc/arm-eabi/4.5.1/../../../../arm-eabi/lib\libg.a(lib_a-vfiprintf.o)
 .bss           0x02054358        0x0 d:/devkitpro/devkitarm/bin/../lib/gcc/arm-eabi/4.5.1/../../../../arm-eabi/lib\libg.a(lib_a-wcsnrtombs.o)
 .bss           0x02054358        0x0 d:/devkitpro/devkitarm/bin/../lib/gcc/arm-eabi/4.5.1/../../../../arm-eabi/lib\libg.a(lib_a-ctype_.o)
 .bss           0x02054358        0x0 d:/devkitpro/devkitarm/bin/../lib/gcc/arm-eabi/4.5.1/../../../../arm-eabi/lib\libg.a(lib_a-fputwc.o)
 .bss           0x02054358        0x0 d:/devkitpro/devkitarm/bin/../lib/gcc/arm-eabi/4.5.1/../../../../arm-eabi/lib\libg.a(lib_a-getenv_r.o)
 .bss           0x02054358        0x4 d:/devkitpro/devkitarm/bin/../lib/gcc/arm-eabi/4.5.1/../../../../arm-eabi/lib\libg.a(lib_a-environ.o)
 .bss           0x0205435c        0x0 d:/devkitpro/devkitarm/bin/../lib/gcc/arm-eabi/4.5.1/../../../../arm-eabi/lib\libg.a(lib_a-envlock.o)
 .bss           0x0205435c        0x0 d:/devkitpro/devkitarm/bin/../lib/gcc/arm-eabi/4.5.1/../../../../arm-eabi/lib\libsysbase.a(close.o)
 .bss           0x0205435c        0x0 d:/devkitpro/devkitarm/bin/../lib/gcc/arm-eabi/4.5.1/../../../../arm-eabi/lib\libsysbase.a(fstat.o)
 .bss           0x0205435c        0x0 d:/devkitpro/devkitarm/bin/../lib/gcc/arm-eabi/4.5.1/../../../../arm-eabi/lib\libsysbase.a(getpid.o)
 .bss           0x0205435c        0x0 d:/devkitpro/devkitarm/bin/../lib/gcc/arm-eabi/4.5.1/../../../../arm-eabi/lib\libsysbase.a(isatty.o)
 .bss           0x0205435c        0x0 d:/devkitpro/devkitarm/bin/../lib/gcc/arm-eabi/4.5.1/../../../../arm-eabi/lib\libsysbase.a(kill.o)
 .bss           0x0205435c        0x0 d:/devkitpro/devkitarm/bin/../lib/gcc/arm-eabi/4.5.1/../../../../arm-eabi/lib\libsysbase.a(lseek.o)
 .bss           0x0205435c        0x0 d:/devkitpro/devkitarm/bin/../lib/gcc/arm-eabi/4.5.1/../../../../arm-eabi/lib\libsysbase.a(read.o)
 .bss           0x0205435c        0x4 d:/devkitpro/devkitarm/bin/../lib/gcc/arm-eabi/4.5.1/../../../../arm-eabi/lib\libsysbase.a(sbrk.o)
 .bss           0x02054360        0x0 d:/devkitpro/devkitarm/bin/../lib/gcc/arm-eabi/4.5.1/../../../../arm-eabi/lib\libsysbase.a(times.o)
 .bss           0x02054360        0x0 d:/devkitpro/devkitarm/bin/../lib/gcc/arm-eabi/4.5.1/../../../../arm-eabi/lib\libsysbase.a(write.o)
 .bss           0x02054360        0x0 d:/devkitpro/devkitarm/bin/../lib/gcc/arm-eabi/4.5.1/../../../../arm-eabi/lib\libsysbase.a(_exit.o)
 .bss           0x02054360        0x8 d:/devkitpro/devkitarm/bin/../lib/gcc/arm-eabi/4.5.1/../../../../arm-eabi/lib\libsysbase.a(malloc_vars.o)
                0x02054360                fake_heap_end
                0x02054364                fake_heap_start
 .bss           0x02054368        0x0 d:/devkitpro/devkitarm/bin/../lib/gcc/arm-eabi/4.5.1/../../../../arm-eabi/lib\libsysbase.a(build_argv.o)
 .bss           0x02054368        0x8 d:/devkitpro/devkitarm/bin/../lib/gcc/arm-eabi/4.5.1/../../../../arm-eabi/lib\libsysbase.a(syscall_support.o)
                0x02054368                __syscalls
 .bss           0x02054370     0x1000 d:/devkitpro/devkitarm/bin/../lib/gcc/arm-eabi/4.5.1/../../../../arm-eabi/lib\libsysbase.a(handle_manager.o)
 .bss           0x02055370        0x0 d:/devkitpro/devkitarm/bin/../lib/gcc/arm-eabi/4.5.1/../../../../arm-eabi/lib\libsysbase.a(iosupport.o)
 .bss           0x02055370        0x0 d:/devkitpro/devkitarm/bin/../lib/gcc/arm-eabi/4.5.1\libgcc.a(_aeabi_uldivmod.o)
 .bss           0x02055370        0x0 d:/devkitpro/devkitarm/bin/../lib/gcc/arm-eabi/4.5.1\libgcc.a(bpabi.o)
 .bss           0x02055370        0x0 d:/devkitpro/devkitarm/bin/../lib/gcc/arm-eabi/4.5.1\libgcc.a(_divdi3.o)
 .bss           0x02055370        0x0 d:/devkitpro/devkitarm/bin/../lib/gcc/arm-eabi/4.5.1\libgcc.a(_udivdi3.o)
 .bss           0x02055370        0x0 d:/devkitpro/devkitarm/bin/../lib/gcc/arm-eabi/4.5.1\libgcc.a(_clzsi2.o)
 .bss           0x02055370        0x0 d:/devkitpro/devkitarm/bin/../lib/gcc/arm-eabi/4.5.1/crtend.o
 .bss           0x02055370        0x0 d:/devkitpro/devkitarm/bin/../lib/gcc/arm-eabi/4.5.1/crtn.o
 *(COMMON)
 COMMON         0x02055370      0x800 d:/devkitPro/libnds/lib\libul.a(ulib.o)
                0x02055370                ul_cos
                0x02055770                ul_sin
 COMMON         0x02055b70      0x411 d:/devkitPro/libnds/lib\libul.a(drawing.o)
                0x02055b70                ul_colorKeyValue32
                0x02055b74                ul_colorKeyValue
                0x02055b78                ulDualScreenSprites
                0x02055f78                ul_autoDepth
                0x02055f79                ul_dualScreenMode
                0x02055f7a                ul_frameNumber
                0x02055f7c                ul_currentDepth
                0x02055f80                ul_colorKeyEnabled
 *fill*         0x02055f81        0x3 00
 COMMON         0x02055f84       0x44 d:/devkitPro/libnds/lib\libul.a(VirtualFile.o)
                0x02055f84                VirtualFileSources
                0x02055fc4                ul_virtualFileList
 COMMON         0x02055fc8       0x1c d:/devkitPro/libnds/lib\libul.a(texVramManager.o)
                0x02055fc8                ulTextureMax
                0x02055fcc                ulTextureParams
                0x02055fd0                ulTexRamBlocksNb
                0x02055fd4                ulTextureNb
                0x02055fd8                ulTexRamBlocksMax
                0x02055fdc                ulTexRamBlocks
                0x02055fe0                ulTextureActive
 COMMON         0x02055fe4        0xc d:/devkitPro/libnds/lib\libul.a(texPalManager.o)
                0x02055fe4                ulTexPalBlocksNb
                0x02055fe8                ulTexPalBlocks
                0x02055fec                ulTexPalBlocksMax
 COMMON         0x02055ff0        0x8 d:/devkitPro/libnds/lib\libul.a(ulShowSplashScreen1.o)
                0x02055ff0                ul_splash1_fadeDir
                0x02055ff4                ul_splash1_fade
 COMMON         0x02055ff8      0xc00 d:/devkitPro/libnds/lib\libul.a(ulShowSplashScreen2.o)
                0x02055ff8                ul_neoflashlogo_positions
 COMMON         0x02056bf8      0x804 d:/devkitPro/libnds/lib\libul.a(libLoadGif.o)
                0x02056bf8                temppalette
                0x02056bfc                LineBuf
 COMMON         0x020573fc        0x8 d:/devkitPro/libnds/lib\libul.a(gba-jpeg-decode.o)
                0x020573fc                JPG_outEnd
                0x02057400                JPG_outBegin
 COMMON         0x02057404       0x4c d:/devkitPro/libnds/lib\libnds9.a(videoGL.o)
                0x02057404                glGlobalData
 COMMON         0x02057450        0x1 d:/devkitPro/libnds/lib\libnds9.a(initSystem.o)
                0x02057450                __dsimode
 *fill*         0x02057451        0x3 00
 COMMON         0x02057454      0xa40 d:/devkitPro/libnds/lib\libnds9.a(fifosystem.o)
                0x02057454                fifo_datamsg_data
                0x02057494                fifo_buffer
                0x02057c94                fifo_value32_func
                0x02057cd4                fifo_address_func
                0x02057d14                fifo_value32_data
                0x02057d54                fifo_value32_queue
                0x02057d94                fifo_data_queue
                0x02057dd4                fifo_address_data
                0x02057e14                fifo_datamsg_func
                0x02057e54                fifo_address_queue
 COMMON         0x02057e94      0x100 d:/devkitpro/devkitarm/bin/../lib/gcc/arm-eabi/4.5.1/../../../../arm-eabi/lib\libg.a(lib_a-gdtoa-gethex.o)
                0x02057e94                __hexdig
 COMMON         0x02057f94        0x4 d:/devkitpro/devkitarm/bin/../lib/gcc/arm-eabi/4.5.1/../../../../arm-eabi/lib\libsysbase.a(times.o)
                0x02057f94                punixTime
                0x02057f98                . = ALIGN (0x4)
                0x02057f98                __bss_end = ABSOLUTE (.)
                0x02057f98                __bss_end__ = __bss_end
                0x02057f98                _end = __bss_end__
                0x02057f98                __end__ = __bss_end__

.stab
 *(.stab)

.stabstr
 *(.stabstr)

.stab.excl
 *(.stab.excl)

.stab.exclstr
 *(.stab.exclstr)

.stab.index
 *(.stab.index)

.stab.indexstr
 *(.stab.indexstr)

.ARM.attributes
                0x00000000       0x2d load address 0x02053610
 .ARM.attributes
                0x00000000       0x21 d:/devkitpro/devkitarm/bin/../lib/gcc/arm-eabi/4.5.1/../../../../arm-eabi/lib/ds_arm9_crt0.o
 .ARM.attributes
                0x00000021       0x20 d:/devkitpro/devkitarm/bin/../lib/gcc/arm-eabi/4.5.1/crti.o
 .ARM.attributes
                0x00000041       0x30 d:/devkitpro/devkitarm/bin/../lib/gcc/arm-eabi/4.5.1/crtbegin.o
 .ARM.attributes
                0x00000071       0x14 ball.png.o
 .ARM.attributes
                0x00000085       0x27 CBall.o
 .ARM.attributes
                0x000000ac       0x27 main.o
 .ARM.attributes
                0x000000d3       0x2d d:/devkitPro/libnds/lib\libul.a(ulib.o)
 .ARM.attributes
                0x00000100       0x2d d:/devkitPro/libnds/lib\libul.a(drawing.o)
 .ARM.attributes
                0x0000012d       0x2d d:/devkitPro/libnds/lib\libul.a(text.o)
 .ARM.attributes
                0x0000015a       0x2d d:/devkitPro/libnds/lib\libul.a(VirtualFile.o)
 .ARM.attributes
                0x00000187       0x2d d:/devkitPro/libnds/lib\libul.a(texVramManager.o)
 .ARM.attributes
                0x000001b4       0x2d d:/devkitPro/libnds/lib\libul.a(texPalManager.o)
 .ARM.attributes
                0x000001e1       0x2d d:/devkitPro/libnds/lib\libul.a(keys.o)
 .ARM.attributes
                0x0000020e       0x2d d:/devkitPro/libnds/lib\libul.a(ulDrawImage.o)
 .ARM.attributes
                0x0000023b       0x2d d:/devkitPro/libnds/lib\libul.a(ulCreateImagePalette.o)
 .ARM.attributes
                0x00000268       0x2d d:/devkitPro/libnds/lib\libul.a(ulDrawGradientRect.o)
 .ARM.attributes
                0x00000295       0x2d d:/devkitPro/libnds/lib\libul.a(ulLoadImageFilePNG.o)
 .ARM.attributes
                0x000002c2       0x2d d:/devkitPro/libnds/lib\libul.a(ulShowSplashScreen1.o)
 .ARM.attributes
                0x000002ef       0x2d d:/devkitPro/libnds/lib\libul.a(ulShowSplashScreen2.o)
 .ARM.attributes
                0x0000031c       0x2d d:/devkitPro/libnds/lib\libul.a(glWrapper.o)
 .ARM.attributes
                0x00000349       0x2d d:/devkitPro/libnds/lib\libul.a(libLoadPng.o)
 .ARM.attributes
                0x00000376       0x2d d:/devkitPro/libnds/lib\libul.a(ulDrawFillRect.o)
 .ARM.attributes
                0x000003a3       0x2d d:/devkitPro/libnds/lib\libul.a(ulSetImagePixel.o)
 .ARM.attributes
                0x000003d0       0x2d d:/devkitPro/libnds/lib\libul.a(ulGetImagePixel.o)
 .ARM.attributes
                0x000003fd       0x2d d:/devkitPro/libnds/lib\libul.a(textSize.o)
 .ARM.attributes
                0x0000042a       0x2d d:/devkitPro/libnds/lib\libul.a(loading_utility.o)
 .ARM.attributes
                0x00000457       0x2d d:/devkitPro/libnds/lib\libul.a(ulLoadImageFileJPG.o)
 .ARM.attributes
                0x00000484       0x2d d:/devkitPro/libnds/lib\libul.a(ulLoadImageFileGIF.o)
 .ARM.attributes
                0x000004b1       0x2d d:/devkitPro/libnds/lib\libul.a(libLoadJpg.o)
 .ARM.attributes
                0x000004de       0x2d d:/devkitPro/libnds/lib\libul.a(libLoadGif.o)
 .ARM.attributes
                0x0000050b       0x2d d:/devkitPro/libnds/lib\libul.a(dgif_lib.o)
 .ARM.attributes
                0x00000538       0x2d d:/devkitPro/libnds/lib\libul.a(gif_err.o)
 .ARM.attributes
                0x00000565       0x2d d:/devkitPro/libnds/lib\libul.a(gifalloc.o)
 .ARM.attributes
                0x00000592       0x2d d:/devkitPro/libnds/lib\libul.a(ulReadEntireFileToMemory.o)
 .ARM.attributes
                0x000005bf       0x2d d:/devkitPro/libnds/lib\libul.a(gba-jpeg-decode.o)
 .ARM.attributes
                0x000005ec       0x2e d:/devkitPro/libnds/lib\libpng.a(png.o)
 .ARM.attributes
                0x0000061a       0x2e d:/devkitPro/libnds/lib\libpng.a(pngread.o)
 .ARM.attributes
                0x00000648       0x2e d:/devkitPro/libnds/lib\libpng.a(pngrio.o)
 .ARM.attributes
                0x00000676       0x2e d:/devkitPro/libnds/lib\libpng.a(pngrtran.o)
 .ARM.attributes
                0x000006a4       0x2e d:/devkitPro/libnds/lib\libpng.a(pngmem.o)
 .ARM.attributes
                0x000006d2       0x2e d:/devkitPro/libnds/lib\libpng.a(pngerror.o)
 .ARM.attributes
                0x00000700       0x2e d:/devkitPro/libnds/lib\libpng.a(pngget.o)
 .ARM.attributes
                0x0000072e       0x2e d:/devkitPro/libnds/lib\libpng.a(pngrutil.o)
 .ARM.attributes
                0x0000075c       0x2e d:/devkitPro/libnds/lib\libpng.a(pngtrans.o)
 .ARM.attributes
                0x0000078a       0x2e d:/devkitPro/libnds/lib\libpng.a(pngset.o)
 .ARM.attributes
                0x000007b8       0x2e d:/devkitPro/libnds/lib\libz.a(crc32.o)
 .ARM.attributes
                0x000007e6       0x2e d:/devkitPro/libnds/lib\libz.a(inflate.o)
 .ARM.attributes
                0x00000814       0x2e d:/devkitPro/libnds/lib\libz.a(inftrees.o)
 .ARM.attributes
                0x00000842       0x2e d:/devkitPro/libnds/lib\libz.a(inffast.o)
 .ARM.attributes
                0x00000870       0x2e d:/devkitPro/libnds/lib\libz.a(adler32.o)
 .ARM.attributes
                0x0000089e       0x2e d:/devkitPro/libnds/lib\libz.a(zutil.o)
 .ARM.attributes
                0x000008cc       0x27 d:/devkitPro/libnds/lib\libnds9.a(dynamicArray.o)
 .ARM.attributes
                0x000008f3       0x27 d:/devkitPro/libnds/lib\libnds9.a(keys.o)
 .ARM.attributes
                0x0000091a       0x27 d:/devkitPro/libnds/lib\libnds9.a(system.o)
 .ARM.attributes
                0x00000941       0x27 d:/devkitPro/libnds/lib\libnds9.a(touch.o)
 .ARM.attributes
                0x00000968       0x27 d:/devkitPro/libnds/lib\libnds9.a(trig.o)
 .ARM.attributes
                0x0000098f       0x27 d:/devkitPro/libnds/lib\libnds9.a(videoGL.o)
 .ARM.attributes
                0x000009b6       0x27 d:/devkitPro/libnds/lib\libnds9.a(initSystem.o)
 .ARM.attributes
                0x000009dd       0x27 d:/devkitPro/libnds/lib\libnds9.a(fifosystem.o)
 .ARM.attributes
                0x00000a04       0x27 d:/devkitPro/libnds/lib\libnds9.a(interrupts.o)
 .ARM.attributes
                0x00000a2b       0x27 d:/devkitPro/libnds/lib\libnds9.a(libnds_exit.o)
 .ARM.attributes
                0x00000a52       0x21 d:/devkitPro/libnds/lib\libnds9.a(mpu_setup.o)
 .ARM.attributes
                0x00000a73       0x1b d:/devkitPro/libnds/lib\libnds9.a(biosCalls.o)
 .ARM.attributes
                0x00000a8e       0x1b d:/devkitPro/libnds/lib\libnds9.a(interruptDispatcher.o)
 .ARM.attributes
                0x00000aa9       0x21 d:/devkitPro/libnds/lib\libnds9.a(swiSoftReset.o)
 .ARM.attributes
                0x00000aca       0x27 d:/devkitPro/libnds/lib\libnds9.a(video.o)
 .ARM.attributes
                0x00000af1       0x30 d:/devkitpro/devkitarm/bin/../lib/gcc/arm-eabi/4.5.1/../../../../arm-eabi/lib\libstdc++.a(new_op.o)
 .ARM.attributes
                0x00000b21       0x30 d:/devkitpro/devkitarm/bin/../lib/gcc/arm-eabi/4.5.1/../../../../arm-eabi/lib\libstdc++.a(eh_alloc.o)
 .ARM.attributes
                0x00000b51       0x30 d:/devkitpro/devkitarm/bin/../lib/gcc/arm-eabi/4.5.1/../../../../arm-eabi/lib\libstdc++.a(eh_arm.o)
 .ARM.attributes
                0x00000b81       0x30 d:/devkitpro/devkitarm/bin/../lib/gcc/arm-eabi/4.5.1/../../../../arm-eabi/lib\libstdc++.a(eh_aux_runtime.o)
 .ARM.attributes
                0x00000bb1       0x30 d:/devkitpro/devkitarm/bin/../lib/gcc/arm-eabi/4.5.1/../../../../arm-eabi/lib\libstdc++.a(eh_call.o)
 .ARM.attributes
                0x00000be1       0x30 d:/devkitpro/devkitarm/bin/../lib/gcc/arm-eabi/4.5.1/../../../../arm-eabi/lib\libstdc++.a(eh_catch.o)
 .ARM.attributes
                0x00000c11       0x30 d:/devkitpro/devkitarm/bin/../lib/gcc/arm-eabi/4.5.1/../../../../arm-eabi/lib\libstdc++.a(eh_exception.o)
 .ARM.attributes
                0x00000c41       0x30 d:/devkitpro/devkitarm/bin/../lib/gcc/arm-eabi/4.5.1/../../../../arm-eabi/lib\libstdc++.a(eh_globals.o)
 .ARM.attributes
                0x00000c71       0x30 d:/devkitpro/devkitarm/bin/../lib/gcc/arm-eabi/4.5.1/../../../../arm-eabi/lib\libstdc++.a(eh_personality.o)
 .ARM.attributes
                0x00000ca1       0x30 d:/devkitpro/devkitarm/bin/../lib/gcc/arm-eabi/4.5.1/../../../../arm-eabi/lib\libstdc++.a(eh_terminate.o)
 .ARM.attributes
                0x00000cd1       0x30 d:/devkitpro/devkitarm/bin/../lib/gcc/arm-eabi/4.5.1/../../../../arm-eabi/lib\libstdc++.a(eh_term_handler.o)
 .ARM.attributes
                0x00000d01       0x30 d:/devkitpro/devkitarm/bin/../lib/gcc/arm-eabi/4.5.1/../../../../arm-eabi/lib\libstdc++.a(eh_throw.o)
 .ARM.attributes
                0x00000d31       0x30 d:/devkitpro/devkitarm/bin/../lib/gcc/arm-eabi/4.5.1/../../../../arm-eabi/lib\libstdc++.a(eh_unex_handler.o)
 .ARM.attributes
                0x00000d61       0x30 d:/devkitpro/devkitarm/bin/../lib/gcc/arm-eabi/4.5.1/../../../../arm-eabi/lib\libstdc++.a(fundamental_type_info.o)
 .ARM.attributes
                0x00000d91       0x30 d:/devkitpro/devkitarm/bin/../lib/gcc/arm-eabi/4.5.1/../../../../arm-eabi/lib\libstdc++.a(new_handler.o)
 .ARM.attributes
                0x00000dc1       0x30 d:/devkitpro/devkitarm/bin/../lib/gcc/arm-eabi/4.5.1/../../../../arm-eabi/lib\libstdc++.a(pointer_type_info.o)
 .ARM.attributes
                0x00000df1       0x30 d:/devkitpro/devkitarm/bin/../lib/gcc/arm-eabi/4.5.1/../../../../arm-eabi/lib\libstdc++.a(pure.o)
 .ARM.attributes
                0x00000e21       0x30 d:/devkitpro/devkitarm/bin/../lib/gcc/arm-eabi/4.5.1/../../../../arm-eabi/lib\libstdc++.a(si_class_type_info.o)
 .ARM.attributes
                0x00000e51       0x30 d:/devkitpro/devkitarm/bin/../lib/gcc/arm-eabi/4.5.1/../../../../arm-eabi/lib\libstdc++.a(tinfo.o)
 .ARM.attributes
                0x00000e81       0x30 d:/devkitpro/devkitarm/bin/../lib/gcc/arm-eabi/4.5.1/../../../../arm-eabi/lib\libstdc++.a(vterminate.o)
 .ARM.attributes
                0x00000eb1       0x30 d:/devkitpro/devkitarm/bin/../lib/gcc/arm-eabi/4.5.1/../../../../arm-eabi/lib\libstdc++.a(bad_cast.o)
 .ARM.attributes
                0x00000ee1       0x30 d:/devkitpro/devkitarm/bin/../lib/gcc/arm-eabi/4.5.1/../../../../arm-eabi/lib\libstdc++.a(bad_typeid.o)
 .ARM.attributes
                0x00000f11       0x30 d:/devkitpro/devkitarm/bin/../lib/gcc/arm-eabi/4.5.1/../../../../arm-eabi/lib\libstdc++.a(class_type_info.o)
 .ARM.attributes
                0x00000f41       0x30 d:/devkitpro/devkitarm/bin/../lib/gcc/arm-eabi/4.5.1/../../../../arm-eabi/lib\libstdc++.a(cp-demangle.o)
 .ARM.attributes
                0x00000f71       0x30 d:/devkitpro/devkitarm/bin/../lib/gcc/arm-eabi/4.5.1/../../../../arm-eabi/lib\libstdc++.a(del_op.o)
 .ARM.attributes
                0x00000fa1       0x30 d:/devkitpro/devkitarm/bin/../lib/gcc/arm-eabi/4.5.1/../../../../arm-eabi/lib\libstdc++.a(eh_type.o)
 .ARM.attributes
                0x00000fd1       0x30 d:/devkitpro/devkitarm/bin/../lib/gcc/arm-eabi/4.5.1/../../../../arm-eabi/lib\libstdc++.a(pbase_type_info.o)
 .ARM.attributes
                0x00001001       0x30 d:/devkitpro/devkitarm/bin/../lib/gcc/arm-eabi/4.5.1/../../../../arm-eabi/lib\libm.a(lib_a-s_cos.o)
 .ARM.attributes
                0x00001031       0x30 d:/devkitpro/devkitarm/bin/../lib/gcc/arm-eabi/4.5.1/../../../../arm-eabi/lib\libm.a(lib_a-s_sin.o)
 .ARM.attributes
                0x00001061       0x30 d:/devkitpro/devkitarm/bin/../lib/gcc/arm-eabi/4.5.1/../../../../arm-eabi/lib\libm.a(lib_a-w_pow.o)
 .ARM.attributes
                0x00001091       0x30 d:/devkitpro/devkitarm/bin/../lib/gcc/arm-eabi/4.5.1/../../../../arm-eabi/lib\libm.a(lib_a-e_pow.o)
 .ARM.attributes
                0x000010c1       0x30 d:/devkitpro/devkitarm/bin/../lib/gcc/arm-eabi/4.5.1/../../../../arm-eabi/lib\libm.a(lib_a-e_rem_pio2.o)
 .ARM.attributes
                0x000010f1       0x30 d:/devkitpro/devkitarm/bin/../lib/gcc/arm-eabi/4.5.1/../../../../arm-eabi/lib\libm.a(lib_a-e_sqrt.o)
 .ARM.attributes
                0x00001121       0x30 d:/devkitpro/devkitarm/bin/../lib/gcc/arm-eabi/4.5.1/../../../../arm-eabi/lib\libm.a(lib_a-k_cos.o)
 .ARM.attributes
                0x00001151       0x30 d:/devkitpro/devkitarm/bin/../lib/gcc/arm-eabi/4.5.1/../../../../arm-eabi/lib\libm.a(lib_a-k_rem_pio2.o)
 .ARM.attributes
                0x00001181       0x30 d:/devkitpro/devkitarm/bin/../lib/gcc/arm-eabi/4.5.1/../../../../arm-eabi/lib\libm.a(lib_a-k_sin.o)
 .ARM.attributes
                0x000011b1       0x30 d:/devkitpro/devkitarm/bin/../lib/gcc/arm-eabi/4.5.1/../../../../arm-eabi/lib\libm.a(lib_a-s_fabs.o)
 .ARM.attributes
                0x000011e1       0x30 d:/devkitpro/devkitarm/bin/../lib/gcc/arm-eabi/4.5.1/../../../../arm-eabi/lib\libm.a(lib_a-s_finite.o)
 .ARM.attributes
                0x00001211       0x30 d:/devkitpro/devkitarm/bin/../lib/gcc/arm-eabi/4.5.1/../../../../arm-eabi/lib\libm.a(lib_a-s_floor.o)
 .ARM.attributes
                0x00001241       0x30 d:/devkitpro/devkitarm/bin/../lib/gcc/arm-eabi/4.5.1/../../../../arm-eabi/lib\libm.a(lib_a-s_fpclassify.o)
 .ARM.attributes
                0x00001271       0x30 d:/devkitpro/devkitarm/bin/../lib/gcc/arm-eabi/4.5.1/../../../../arm-eabi/lib\libm.a(lib_a-s_lib_ver.o)
 .ARM.attributes
                0x000012a1       0x30 d:/devkitpro/devkitarm/bin/../lib/gcc/arm-eabi/4.5.1/../../../../arm-eabi/lib\libm.a(lib_a-s_matherr.o)
 .ARM.attributes
                0x000012d1       0x30 d:/devkitpro/devkitarm/bin/../lib/gcc/arm-eabi/4.5.1/../../../../arm-eabi/lib\libm.a(lib_a-s_nan.o)
 .ARM.attributes
                0x00001301       0x30 d:/devkitpro/devkitarm/bin/../lib/gcc/arm-eabi/4.5.1/../../../../arm-eabi/lib\libm.a(lib_a-s_rint.o)
 .ARM.attributes
                0x00001331       0x30 d:/devkitpro/devkitarm/bin/../lib/gcc/arm-eabi/4.5.1/../../../../arm-eabi/lib\libm.a(lib_a-s_scalbn.o)
 .ARM.attributes
                0x00001361       0x30 d:/devkitpro/devkitarm/bin/../lib/gcc/arm-eabi/4.5.1/../../../../arm-eabi/lib\libm.a(lib_a-s_copysign.o)
 .ARM.attributes
                0x00001391       0x22 d:/devkitpro/devkitarm/bin/../lib/gcc/arm-eabi/4.5.1\libgcc.a(_udivsi3.o)
 .ARM.attributes
                0x000013b3       0x22 d:/devkitpro/devkitarm/bin/../lib/gcc/arm-eabi/4.5.1\libgcc.a(_divsi3.o)
 .ARM.attributes
                0x000013d5       0x22 d:/devkitpro/devkitarm/bin/../lib/gcc/arm-eabi/4.5.1\libgcc.a(_dvmd_tls.o)
 .ARM.attributes
                0x000013f7       0x22 d:/devkitpro/devkitarm/bin/../lib/gcc/arm-eabi/4.5.1\libgcc.a(_arm_addsubdf3.o)
 .ARM.attributes
                0x00001419       0x22 d:/devkitpro/devkitarm/bin/../lib/gcc/arm-eabi/4.5.1\libgcc.a(_arm_muldivdf3.o)
 .ARM.attributes
                0x0000143b       0x22 d:/devkitpro/devkitarm/bin/../lib/gcc/arm-eabi/4.5.1\libgcc.a(_arm_cmpdf2.o)
 .ARM.attributes
                0x0000145d       0x22 d:/devkitpro/devkitarm/bin/../lib/gcc/arm-eabi/4.5.1\libgcc.a(_arm_fixdfsi.o)
 .ARM.attributes
                0x0000147f       0x22 d:/devkitpro/devkitarm/bin/../lib/gcc/arm-eabi/4.5.1\libgcc.a(_arm_fixunsdfsi.o)
 .ARM.attributes
                0x000014a1       0x22 d:/devkitpro/devkitarm/bin/../lib/gcc/arm-eabi/4.5.1\libgcc.a(_arm_truncdfsf2.o)
 .ARM.attributes
                0x000014c3       0x22 d:/devkitpro/devkitarm/bin/../lib/gcc/arm-eabi/4.5.1\libgcc.a(_arm_addsubsf3.o)
 .ARM.attributes
                0x000014e5       0x22 d:/devkitpro/devkitarm/bin/../lib/gcc/arm-eabi/4.5.1\libgcc.a(_arm_muldivsf3.o)
 .ARM.attributes
                0x00001507       0x22 d:/devkitpro/devkitarm/bin/../lib/gcc/arm-eabi/4.5.1\libgcc.a(_arm_cmpsf2.o)
 .ARM.attributes
                0x00001529       0x22 d:/devkitpro/devkitarm/bin/../lib/gcc/arm-eabi/4.5.1\libgcc.a(_arm_fixsfsi.o)
 .ARM.attributes
                0x0000154b       0x22 d:/devkitpro/devkitarm/bin/../lib/gcc/arm-eabi/4.5.1\libgcc.a(_arm_fixunssfsi.o)
 .ARM.attributes
                0x0000156d       0x30 d:/devkitpro/devkitarm/bin/../lib/gcc/arm-eabi/4.5.1\libgcc.a(_muldi3.o)
 .ARM.attributes
                0x0000159d       0x30 d:/devkitpro/devkitarm/bin/../lib/gcc/arm-eabi/4.5.1\libgcc.a(unwind-arm.o)
 .ARM.attributes
                0x000015cd       0x1c d:/devkitpro/devkitarm/bin/../lib/gcc/arm-eabi/4.5.1\libgcc.a(libunwind.o)
 .ARM.attributes
                0x000015e9       0x30 d:/devkitpro/devkitarm/bin/../lib/gcc/arm-eabi/4.5.1\libgcc.a(pr-support.o)
 .ARM.attributes
                0x00001619       0x30 d:/devkitpro/devkitarm/bin/../lib/gcc/arm-eabi/4.5.1/../../../../arm-eabi/lib\libg.a(lib_a-abort.o)
 .ARM.attributes
                0x00001649       0x30 d:/devkitpro/devkitarm/bin/../lib/gcc/arm-eabi/4.5.1/../../../../arm-eabi/lib\libg.a(lib_a-bsearch.o)
 .ARM.attributes
                0x00001679       0x30 d:/devkitpro/devkitarm/bin/../lib/gcc/arm-eabi/4.5.1/../../../../arm-eabi/lib\libg.a(lib_a-calloc.o)
 .ARM.attributes
                0x000016a9       0x30 d:/devkitpro/devkitarm/bin/../lib/gcc/arm-eabi/4.5.1/../../../../arm-eabi/lib\libg.a(lib_a-callocr.o)
 .ARM.attributes
                0x000016d9       0x30 d:/devkitpro/devkitarm/bin/../lib/gcc/arm-eabi/4.5.1/../../../../arm-eabi/lib\libg.a(lib_a-errno.o)
 .ARM.attributes
                0x00001709       0x30 d:/devkitpro/devkitarm/bin/../lib/gcc/arm-eabi/4.5.1/../../../../arm-eabi/lib\libg.a(lib_a-fclose.o)
 .ARM.attributes
                0x00001739       0x30 d:/devkitpro/devkitarm/bin/../lib/gcc/arm-eabi/4.5.1/../../../../arm-eabi/lib\libg.a(lib_a-fflush.o)
 .ARM.attributes
                0x00001769       0x30 d:/devkitpro/devkitarm/bin/../lib/gcc/arm-eabi/4.5.1/../../../../arm-eabi/lib\libg.a(lib_a-findfp.o)
 .ARM.attributes
                0x00001799       0x30 d:/devkitpro/devkitarm/bin/../lib/gcc/arm-eabi/4.5.1/../../../../arm-eabi/lib\libg.a(lib_a-fprintf.o)
 .ARM.attributes
                0x000017c9       0x30 d:/devkitpro/devkitarm/bin/../lib/gcc/arm-eabi/4.5.1/../../../../arm-eabi/lib\libg.a(lib_a-fputc.o)
 .ARM.attributes
                0x000017f9       0x30 d:/devkitpro/devkitarm/bin/../lib/gcc/arm-eabi/4.5.1/../../../../arm-eabi/lib\libg.a(lib_a-fputs.o)
 .ARM.attributes
                0x00001829       0x30 d:/devkitpro/devkitarm/bin/../lib/gcc/arm-eabi/4.5.1/../../../../arm-eabi/lib\libg.a(lib_a-fread.o)
 .ARM.attributes
                0x00001859       0x30 d:/devkitpro/devkitarm/bin/../lib/gcc/arm-eabi/4.5.1/../../../../arm-eabi/lib\libg.a(lib_a-freer.o)
 .ARM.attributes
                0x00001889       0x30 d:/devkitpro/devkitarm/bin/../lib/gcc/arm-eabi/4.5.1/../../../../arm-eabi/lib\libg.a(lib_a-fvwrite.o)
 .ARM.attributes
                0x000018b9       0x30 d:/devkitpro/devkitarm/bin/../lib/gcc/arm-eabi/4.5.1/../../../../arm-eabi/lib\libg.a(lib_a-fwalk.o)
 .ARM.attributes
                0x000018e9       0x30 d:/devkitpro/devkitarm/bin/../lib/gcc/arm-eabi/4.5.1/../../../../arm-eabi/lib\libg.a(lib_a-fwrite.o)
 .ARM.attributes
                0x00001919       0x30 d:/devkitpro/devkitarm/bin/../lib/gcc/arm-eabi/4.5.1/../../../../arm-eabi/lib\libg.a(lib_a-impure.o)
 .ARM.attributes
                0x00001949       0x30 d:/devkitpro/devkitarm/bin/../lib/gcc/arm-eabi/4.5.1/../../../../arm-eabi/lib\libg.a(lib_a-init.o)
 .ARM.attributes
                0x00001979       0x30 d:/devkitpro/devkitarm/bin/../lib/gcc/arm-eabi/4.5.1/../../../../arm-eabi/lib\libg.a(lib_a-malloc.o)
 .ARM.attributes
                0x000019a9       0x30 d:/devkitpro/devkitarm/bin/../lib/gcc/arm-eabi/4.5.1/../../../../arm-eabi/lib\libg.a(lib_a-mallocr.o)
 .ARM.attributes
                0x000019d9       0x30 d:/devkitpro/devkitarm/bin/../lib/gcc/arm-eabi/4.5.1/../../../../arm-eabi/lib\libg.a(lib_a-memchr.o)
 .ARM.attributes
                0x00001a09       0x30 d:/devkitpro/devkitarm/bin/../lib/gcc/arm-eabi/4.5.1/../../../../arm-eabi/lib\libg.a(lib_a-memcmp.o)
 .ARM.attributes
                0x00001a39       0x30 d:/devkitpro/devkitarm/bin/../lib/gcc/arm-eabi/4.5.1/../../../../arm-eabi/lib\libg.a(lib_a-memcpy.o)
 .ARM.attributes
                0x00001a69       0x30 d:/devkitpro/devkitarm/bin/../lib/gcc/arm-eabi/4.5.1/../../../../arm-eabi/lib\libg.a(lib_a-memmove.o)
 .ARM.attributes
                0x00001a99       0x30 d:/devkitpro/devkitarm/bin/../lib/gcc/arm-eabi/4.5.1/../../../../arm-eabi/lib\libg.a(lib_a-memset.o)
 .ARM.attributes
                0x00001ac9       0x30 d:/devkitpro/devkitarm/bin/../lib/gcc/arm-eabi/4.5.1/../../../../arm-eabi/lib\libg.a(lib_a-mlock.o)
 .ARM.attributes
                0x00001af9       0x30 d:/devkitpro/devkitarm/bin/../lib/gcc/arm-eabi/4.5.1/../../../../arm-eabi/lib\libg.a(lib_a-putc.o)
 .ARM.attributes
                0x00001b29       0x30 d:/devkitpro/devkitarm/bin/../lib/gcc/arm-eabi/4.5.1/../../../../arm-eabi/lib\libg.a(lib_a-rand.o)
 .ARM.attributes
                0x00001b59       0x30 d:/devkitpro/devkitarm/bin/../lib/gcc/arm-eabi/4.5.1/../../../../arm-eabi/lib\libg.a(lib_a-realloc.o)
 .ARM.attributes
                0x00001b89       0x30 d:/devkitpro/devkitarm/bin/../lib/gcc/arm-eabi/4.5.1/../../../../arm-eabi/lib\libg.a(lib_a-reallocr.o)
 .ARM.attributes
                0x00001bb9       0x30 d:/devkitpro/devkitarm/bin/../lib/gcc/arm-eabi/4.5.1/../../../../arm-eabi/lib\libg.a(lib_a-refill.o)
 .ARM.attributes
                0x00001be9       0x20 d:/devkitpro/devkitarm/bin/../lib/gcc/arm-eabi/4.5.1/../../../../arm-eabi/lib\libg.a(lib_a-setjmp.o)
 .ARM.attributes
                0x00001c09       0x30 d:/devkitpro/devkitarm/bin/../lib/gcc/arm-eabi/4.5.1/../../../../arm-eabi/lib\libg.a(lib_a-signal.o)
 .ARM.attributes
                0x00001c39       0x30 d:/devkitpro/devkitarm/bin/../lib/gcc/arm-eabi/4.5.1/../../../../arm-eabi/lib\libg.a(lib_a-snprintf.o)
 .ARM.attributes
                0x00001c69       0x30 d:/devkitpro/devkitarm/bin/../lib/gcc/arm-eabi/4.5.1/../../../../arm-eabi/lib\libg.a(lib_a-sprintf.o)
 .ARM.attributes
                0x00001c99       0x30 d:/devkitpro/devkitarm/bin/../lib/gcc/arm-eabi/4.5.1/../../../../arm-eabi/lib\libg.a(lib_a-stdio.o)
 .ARM.attributes
                0x00001cc9       0x30 d:/devkitpro/devkitarm/bin/../lib/gcc/arm-eabi/4.5.1/../../../../arm-eabi/lib\libg.a(lib_a-strcmp.o)
 .ARM.attributes
                0x00001cf9       0x30 d:/devkitpro/devkitarm/bin/../lib/gcc/arm-eabi/4.5.1/../../../../arm-eabi/lib\libg.a(lib_a-strcpy.o)
 .ARM.attributes
                0x00001d29       0x30 d:/devkitpro/devkitarm/bin/../lib/gcc/arm-eabi/4.5.1/../../../../arm-eabi/lib\libg.a(lib_a-strlen.o)
 .ARM.attributes
                0x00001d59       0x30 d:/devkitpro/devkitarm/bin/../lib/gcc/arm-eabi/4.5.1/../../../../arm-eabi/lib\libg.a(lib_a-strncmp.o)
 .ARM.attributes
                0x00001d89       0x30 d:/devkitpro/devkitarm/bin/../lib/gcc/arm-eabi/4.5.1/../../../../arm-eabi/lib\libg.a(lib_a-strtod.o)
 .ARM.attributes
                0x00001db9       0x30 d:/devkitpro/devkitarm/bin/../lib/gcc/arm-eabi/4.5.1/../../../../arm-eabi/lib\libg.a(lib_a-svfprintf.o)
 .ARM.attributes
                0x00001de9       0x30 d:/devkitpro/devkitarm/bin/../lib/gcc/arm-eabi/4.5.1/../../../../arm-eabi/lib\libg.a(lib_a-syswrite.o)
 .ARM.attributes
                0x00001e19       0x30 d:/devkitpro/devkitarm/bin/../lib/gcc/arm-eabi/4.5.1/../../../../arm-eabi/lib\libg.a(lib_a-vfprintf.o)
 .ARM.attributes
                0x00001e49       0x30 d:/devkitpro/devkitarm/bin/../lib/gcc/arm-eabi/4.5.1/../../../../arm-eabi/lib\libg.a(lib_a-wbuf.o)
 .ARM.attributes
                0x00001e79       0x30 d:/devkitpro/devkitarm/bin/../lib/gcc/arm-eabi/4.5.1/../../../../arm-eabi/lib\libg.a(lib_a-wcrtomb.o)
 .ARM.attributes
                0x00001ea9       0x30 d:/devkitpro/devkitarm/bin/../lib/gcc/arm-eabi/4.5.1/../../../../arm-eabi/lib\libg.a(lib_a-wcsrtombs.o)
 .ARM.attributes
                0x00001ed9       0x30 d:/devkitpro/devkitarm/bin/../lib/gcc/arm-eabi/4.5.1/../../../../arm-eabi/lib\libg.a(lib_a-wctomb_r.o)
 .ARM.attributes
                0x00001f09       0x30 d:/devkitpro/devkitarm/bin/../lib/gcc/arm-eabi/4.5.1/../../../../arm-eabi/lib\libg.a(lib_a-wsetup.o)
 .ARM.attributes
                0x00001f39       0x30 d:/devkitpro/devkitarm/bin/../lib/gcc/arm-eabi/4.5.1/../../../../arm-eabi/lib\libg.a(lib_a-dtoa.o)
 .ARM.attributes
                0x00001f69       0x30 d:/devkitpro/devkitarm/bin/../lib/gcc/arm-eabi/4.5.1/../../../../arm-eabi/lib\libg.a(lib_a-gdtoa-gethex.o)
 .ARM.attributes
                0x00001f99       0x30 d:/devkitpro/devkitarm/bin/../lib/gcc/arm-eabi/4.5.1/../../../../arm-eabi/lib\libg.a(lib_a-gdtoa-hexnan.o)
 .ARM.attributes
                0x00001fc9       0x30 d:/devkitpro/devkitarm/bin/../lib/gcc/arm-eabi/4.5.1/../../../../arm-eabi/lib\libg.a(lib_a-locale.o)
 .ARM.attributes
                0x00001ff9       0x30 d:/devkitpro/devkitarm/bin/../lib/gcc/arm-eabi/4.5.1/../../../../arm-eabi/lib\libg.a(lib_a-makebuf.o)
 .ARM.attributes
                0x00002029       0x30 d:/devkitpro/devkitarm/bin/../lib/gcc/arm-eabi/4.5.1/../../../../arm-eabi/lib\libg.a(lib_a-mbtowc_r.o)
 .ARM.attributes
                0x00002059       0x30 d:/devkitpro/devkitarm/bin/../lib/gcc/arm-eabi/4.5.1/../../../../arm-eabi/lib\libg.a(lib_a-mprec.o)
 .ARM.attributes
                0x00002089       0x30 d:/devkitpro/devkitarm/bin/../lib/gcc/arm-eabi/4.5.1/../../../../arm-eabi/lib\libg.a(lib_a-sf_nan.o)
 .ARM.attributes
                0x000020b9       0x30 d:/devkitpro/devkitarm/bin/../lib/gcc/arm-eabi/4.5.1/../../../../arm-eabi/lib\libg.a(lib_a-strcasecmp.o)
 .ARM.attributes
                0x000020e9       0x30 d:/devkitpro/devkitarm/bin/../lib/gcc/arm-eabi/4.5.1/../../../../arm-eabi/lib\libg.a(lib_a-strcat.o)
 .ARM.attributes
                0x00002119       0x30 d:/devkitpro/devkitarm/bin/../lib/gcc/arm-eabi/4.5.1/../../../../arm-eabi/lib\libg.a(lib_a-strchr.o)
 .ARM.attributes
                0x00002149       0x30 d:/devkitpro/devkitarm/bin/../lib/gcc/arm-eabi/4.5.1/../../../../arm-eabi/lib\libg.a(lib_a-strlcpy.o)
 .ARM.attributes
                0x00002179       0x30 d:/devkitpro/devkitarm/bin/../lib/gcc/arm-eabi/4.5.1/../../../../arm-eabi/lib\libg.a(lib_a-strncasecmp.o)
 .ARM.attributes
                0x000021a9       0x30 d:/devkitpro/devkitarm/bin/../lib/gcc/arm-eabi/4.5.1/../../../../arm-eabi/lib\libg.a(lib_a-strncpy.o)
 .ARM.attributes
                0x000021d9       0x30 d:/devkitpro/devkitarm/bin/../lib/gcc/arm-eabi/4.5.1/../../../../arm-eabi/lib\libg.a(lib_a-strtol.o)
 .ARM.attributes
                0x00002209       0x30 d:/devkitpro/devkitarm/bin/../lib/gcc/arm-eabi/4.5.1/../../../../arm-eabi/lib\libg.a(lib_a-svfiprintf.o)
 .ARM.attributes
                0x00002239       0x30 d:/devkitpro/devkitarm/bin/../lib/gcc/arm-eabi/4.5.1/../../../../arm-eabi/lib\libg.a(lib_a-vfiprintf.o)
 .ARM.attributes
                0x00002269       0x30 d:/devkitpro/devkitarm/bin/../lib/gcc/arm-eabi/4.5.1/../../../../arm-eabi/lib\libg.a(lib_a-wcsnrtombs.o)
 .ARM.attributes
                0x00002299       0x30 d:/devkitpro/devkitarm/bin/../lib/gcc/arm-eabi/4.5.1/../../../../arm-eabi/lib\libg.a(lib_a-ctype_.o)
 .ARM.attributes
                0x000022c9       0x30 d:/devkitpro/devkitarm/bin/../lib/gcc/arm-eabi/4.5.1/../../../../arm-eabi/lib\libg.a(lib_a-fputwc.o)
 .ARM.attributes
                0x000022f9       0x30 d:/devkitpro/devkitarm/bin/../lib/gcc/arm-eabi/4.5.1/../../../../arm-eabi/lib\libg.a(lib_a-getenv_r.o)
 .ARM.attributes
                0x00002329       0x30 d:/devkitpro/devkitarm/bin/../lib/gcc/arm-eabi/4.5.1/../../../../arm-eabi/lib\libg.a(lib_a-environ.o)
 .ARM.attributes
                0x00002359       0x30 d:/devkitpro/devkitarm/bin/../lib/gcc/arm-eabi/4.5.1/../../../../arm-eabi/lib\libg.a(lib_a-envlock.o)
 .ARM.attributes
                0x00002389       0x30 d:/devkitpro/devkitarm/bin/../lib/gcc/arm-eabi/4.5.1/../../../../arm-eabi/lib\libsysbase.a(close.o)
 .ARM.attributes
                0x000023b9       0x30 d:/devkitpro/devkitarm/bin/../lib/gcc/arm-eabi/4.5.1/../../../../arm-eabi/lib\libsysbase.a(fstat.o)
 .ARM.attributes
                0x000023e9       0x30 d:/devkitpro/devkitarm/bin/../lib/gcc/arm-eabi/4.5.1/../../../../arm-eabi/lib\libsysbase.a(getpid.o)
 .ARM.attributes
                0x00002419       0x30 d:/devkitpro/devkitarm/bin/../lib/gcc/arm-eabi/4.5.1/../../../../arm-eabi/lib\libsysbase.a(isatty.o)
 .ARM.attributes
                0x00002449       0x30 d:/devkitpro/devkitarm/bin/../lib/gcc/arm-eabi/4.5.1/../../../../arm-eabi/lib\libsysbase.a(kill.o)
 .ARM.attributes
                0x00002479       0x30 d:/devkitpro/devkitarm/bin/../lib/gcc/arm-eabi/4.5.1/../../../../arm-eabi/lib\libsysbase.a(lseek.o)
 .ARM.attributes
                0x000024a9       0x30 d:/devkitpro/devkitarm/bin/../lib/gcc/arm-eabi/4.5.1/../../../../arm-eabi/lib\libsysbase.a(read.o)
 .ARM.attributes
                0x000024d9       0x30 d:/devkitpro/devkitarm/bin/../lib/gcc/arm-eabi/4.5.1/../../../../arm-eabi/lib\libsysbase.a(sbrk.o)
 .ARM.attributes
                0x00002509       0x30 d:/devkitpro/devkitarm/bin/../lib/gcc/arm-eabi/4.5.1/../../../../arm-eabi/lib\libsysbase.a(times.o)
 .ARM.attributes
                0x00002539       0x30 d:/devkitpro/devkitarm/bin/../lib/gcc/arm-eabi/4.5.1/../../../../arm-eabi/lib\libsysbase.a(write.o)
 .ARM.attributes
                0x00002569       0x30 d:/devkitpro/devkitarm/bin/../lib/gcc/arm-eabi/4.5.1/../../../../arm-eabi/lib\libsysbase.a(_exit.o)
 .ARM.attributes
                0x00002599       0x30 d:/devkitpro/devkitarm/bin/../lib/gcc/arm-eabi/4.5.1/../../../../arm-eabi/lib\libsysbase.a(malloc_vars.o)
 .ARM.attributes
                0x000025c9       0x30 d:/devkitpro/devkitarm/bin/../lib/gcc/arm-eabi/4.5.1/../../../../arm-eabi/lib\libsysbase.a(build_argv.o)
 .ARM.attributes
                0x000025f9       0x30 d:/devkitpro/devkitarm/bin/../lib/gcc/arm-eabi/4.5.1/../../../../arm-eabi/lib\libsysbase.a(syscall_support.o)
 .ARM.attributes
                0x00002629       0x30 d:/devkitpro/devkitarm/bin/../lib/gcc/arm-eabi/4.5.1/../../../../arm-eabi/lib\libsysbase.a(handle_manager.o)
 .ARM.attributes
                0x00002659       0x30 d:/devkitpro/devkitarm/bin/../lib/gcc/arm-eabi/4.5.1/../../../../arm-eabi/lib\libsysbase.a(iosupport.o)
 .ARM.attributes
                0x00002689       0x22 d:/devkitpro/devkitarm/bin/../lib/gcc/arm-eabi/4.5.1\libgcc.a(_aeabi_uldivmod.o)
 .ARM.attributes
                0x000026ab       0x30 d:/devkitpro/devkitarm/bin/../lib/gcc/arm-eabi/4.5.1\libgcc.a(bpabi.o)
 .ARM.attributes
                0x000026db       0x30 d:/devkitpro/devkitarm/bin/../lib/gcc/arm-eabi/4.5.1\libgcc.a(_divdi3.o)
 .ARM.attributes
                0x0000270b       0x30 d:/devkitpro/devkitarm/bin/../lib/gcc/arm-eabi/4.5.1\libgcc.a(_udivdi3.o)
 .ARM.attributes
                0x0000273b       0x22 d:/devkitpro/devkitarm/bin/../lib/gcc/arm-eabi/4.5.1\libgcc.a(_clzsi2.o)
 .ARM.attributes
                0x0000275d       0x30 d:/devkitpro/devkitarm/bin/../lib/gcc/arm-eabi/4.5.1/crtend.o
 .ARM.attributes
                0x0000278d       0x20 d:/devkitpro/devkitarm/bin/../lib/gcc/arm-eabi/4.5.1/crtn.o

.comment        0x00000000      0x252 load address 0x02053610
 *(.comment)
 .comment       0x00000000       0x22 d:/devkitpro/devkitarm/bin/../lib/gcc/arm-eabi/4.5.1/crtbegin.o
                                 0x23 (size before relaxing)
 .comment       0x00000000       0x23 CBall.o
 .comment       0x00000000       0x23 main.o
 .comment       0x00000000       0x23 d:/devkitPro/libnds/lib\libul.a(ulib.o)
 .comment       0x00000000       0x23 d:/devkitPro/libnds/lib\libul.a(drawing.o)
 .comment       0x00000000       0x23 d:/devkitPro/libnds/lib\libul.a(text.o)
 .comment       0x00000000       0x23 d:/devkitPro/libnds/lib\libul.a(VirtualFile.o)
 .comment       0x00000000       0x23 d:/devkitPro/libnds/lib\libul.a(texVramManager.o)
 .comment       0x00000000       0x23 d:/devkitPro/libnds/lib\libul.a(texPalManager.o)
 .comment       0x00000000       0x23 d:/devkitPro/libnds/lib\libul.a(keys.o)
 .comment       0x00000000       0x23 d:/devkitPro/libnds/lib\libul.a(ulDrawImage.o)
 .comment       0x00000000       0x23 d:/devkitPro/libnds/lib\libul.a(ulCreateImagePalette.o)
 .comment       0x00000000       0x23 d:/devkitPro/libnds/lib\libul.a(ulDrawGradientRect.o)
 .comment       0x00000000       0x23 d:/devkitPro/libnds/lib\libul.a(ulLoadImageFilePNG.o)
 .comment       0x00000000       0x23 d:/devkitPro/libnds/lib\libul.a(ulShowSplashScreen1.o)
 .comment       0x00000000       0x23 d:/devkitPro/libnds/lib\libul.a(ulShowSplashScreen2.o)
 .comment       0x00000000       0x23 d:/devkitPro/libnds/lib\libul.a(glWrapper.o)
 .comment       0x00000000       0x23 d:/devkitPro/libnds/lib\libul.a(libLoadPng.o)
 .comment       0x00000000       0x23 d:/devkitPro/libnds/lib\libul.a(ulDrawFillRect.o)
 .comment       0x00000000       0x23 d:/devkitPro/libnds/lib\libul.a(ulSetImagePixel.o)
 .comment       0x00000000       0x23 d:/devkitPro/libnds/lib\libul.a(ulGetImagePixel.o)
 .comment       0x00000000       0x23 d:/devkitPro/libnds/lib\libul.a(textSize.o)
 .comment       0x00000000       0x23 d:/devkitPro/libnds/lib\libul.a(loading_utility.o)
 .comment       0x00000000       0x23 d:/devkitPro/libnds/lib\libul.a(ulLoadImageFileJPG.o)
 .comment       0x00000000       0x23 d:/devkitPro/libnds/lib\libul.a(ulLoadImageFileGIF.o)
 .comment       0x00000000       0x23 d:/devkitPro/libnds/lib\libul.a(libLoadJpg.o)
 .comment       0x00000000       0x23 d:/devkitPro/libnds/lib\libul.a(libLoadGif.o)
 .comment       0x00000000       0x23 d:/devkitPro/libnds/lib\libul.a(dgif_lib.o)
 .comment       0x00000000       0x23 d:/devkitPro/libnds/lib\libul.a(gif_err.o)
 .comment       0x00000000       0x23 d:/devkitPro/libnds/lib\libul.a(gifalloc.o)
 .comment       0x00000000       0x23 d:/devkitPro/libnds/lib\libul.a(ulReadEntireFileToMemory.o)
 .comment       0x00000000       0x23 d:/devkitPro/libnds/lib\libul.a(gba-jpeg-decode.o)
 .comment       0x00000022       0x23 d:/devkitPro/libnds/lib\libpng.a(png.o)
 .comment       0x00000045       0x23 d:/devkitPro/libnds/lib\libpng.a(pngread.o)
 .comment       0x00000068       0x23 d:/devkitPro/libnds/lib\libpng.a(pngrio.o)
 .comment       0x0000008b       0x23 d:/devkitPro/libnds/lib\libpng.a(pngrtran.o)
 .comment       0x000000ae       0x23 d:/devkitPro/libnds/lib\libpng.a(pngmem.o)
 .comment       0x000000d1       0x23 d:/devkitPro/libnds/lib\libpng.a(pngerror.o)
 .comment       0x000000f4       0x23 d:/devkitPro/libnds/lib\libpng.a(pngget.o)
 .comment       0x00000117       0x23 d:/devkitPro/libnds/lib\libpng.a(pngrutil.o)
 .comment       0x0000013a       0x23 d:/devkitPro/libnds/lib\libpng.a(pngtrans.o)
 .comment       0x0000015d       0x23 d:/devkitPro/libnds/lib\libpng.a(pngset.o)
 .comment       0x00000180       0x23 d:/devkitPro/libnds/lib\libz.a(crc32.o)
 .comment       0x000001a3       0x23 d:/devkitPro/libnds/lib\libz.a(inflate.o)
 .comment       0x000001c6       0x23 d:/devkitPro/libnds/lib\libz.a(inftrees.o)
 .comment       0x000001e9       0x23 d:/devkitPro/libnds/lib\libz.a(inffast.o)
 .comment       0x0000020c       0x23 d:/devkitPro/libnds/lib\libz.a(adler32.o)
 .comment       0x0000022f       0x23 d:/devkitPro/libnds/lib\libz.a(zutil.o)
 .comment       0x00000000       0x23 d:/devkitPro/libnds/lib\libnds9.a(dynamicArray.o)
 .comment       0x00000000       0x23 d:/devkitPro/libnds/lib\libnds9.a(keys.o)
 .comment       0x00000000       0x23 d:/devkitPro/libnds/lib\libnds9.a(system.o)
 .comment       0x00000000       0x23 d:/devkitPro/libnds/lib\libnds9.a(touch.o)
 .comment       0x00000000       0x23 d:/devkitPro/libnds/lib\libnds9.a(trig.o)
 .comment       0x00000000       0x23 d:/devkitPro/libnds/lib\libnds9.a(videoGL.o)
 .comment       0x00000000       0x23 d:/devkitPro/libnds/lib\libnds9.a(initSystem.o)
 .comment       0x00000000       0x23 d:/devkitPro/libnds/lib\libnds9.a(fifosystem.o)
 .comment       0x00000000       0x23 d:/devkitPro/libnds/lib\libnds9.a(interrupts.o)
 .comment       0x00000000       0x23 d:/devkitPro/libnds/lib\libnds9.a(libnds_exit.o)
 .comment       0x00000000       0x23 d:/devkitPro/libnds/lib\libnds9.a(video.o)
 .comment       0x00000000       0x23 d:/devkitpro/devkitarm/bin/../lib/gcc/arm-eabi/4.5.1/../../../../arm-eabi/lib\libstdc++.a(new_op.o)
 .comment       0x00000000       0x23 d:/devkitpro/devkitarm/bin/../lib/gcc/arm-eabi/4.5.1/../../../../arm-eabi/lib\libstdc++.a(eh_alloc.o)
 .comment       0x00000000       0x23 d:/devkitpro/devkitarm/bin/../lib/gcc/arm-eabi/4.5.1/../../../../arm-eabi/lib\libstdc++.a(eh_arm.o)
 .comment       0x00000000       0x23 d:/devkitpro/devkitarm/bin/../lib/gcc/arm-eabi/4.5.1/../../../../arm-eabi/lib\libstdc++.a(eh_aux_runtime.o)
 .comment       0x00000000       0x23 d:/devkitpro/devkitarm/bin/../lib/gcc/arm-eabi/4.5.1/../../../../arm-eabi/lib\libstdc++.a(eh_call.o)
 .comment       0x00000000       0x23 d:/devkitpro/devkitarm/bin/../lib/gcc/arm-eabi/4.5.1/../../../../arm-eabi/lib\libstdc++.a(eh_catch.o)
 .comment       0x00000000       0x23 d:/devkitpro/devkitarm/bin/../lib/gcc/arm-eabi/4.5.1/../../../../arm-eabi/lib\libstdc++.a(eh_exception.o)
 .comment       0x00000000       0x23 d:/devkitpro/devkitarm/bin/../lib/gcc/arm-eabi/4.5.1/../../../../arm-eabi/lib\libstdc++.a(eh_globals.o)
 .comment       0x00000000       0x23 d:/devkitpro/devkitarm/bin/../lib/gcc/arm-eabi/4.5.1/../../../../arm-eabi/lib\libstdc++.a(eh_personality.o)
 .comment       0x00000000       0x23 d:/devkitpro/devkitarm/bin/../lib/gcc/arm-eabi/4.5.1/../../../../arm-eabi/lib\libstdc++.a(eh_terminate.o)
 .comment       0x00000000       0x23 d:/devkitpro/devkitarm/bin/../lib/gcc/arm-eabi/4.5.1/../../../../arm-eabi/lib\libstdc++.a(eh_term_handler.o)
 .comment       0x00000000       0x23 d:/devkitpro/devkitarm/bin/../lib/gcc/arm-eabi/4.5.1/../../../../arm-eabi/lib\libstdc++.a(eh_throw.o)
 .comment       0x00000000       0x23 d:/devkitpro/devkitarm/bin/../lib/gcc/arm-eabi/4.5.1/../../../../arm-eabi/lib\libstdc++.a(eh_unex_handler.o)
 .comment       0x00000000       0x23 d:/devkitpro/devkitarm/bin/../lib/gcc/arm-eabi/4.5.1/../../../../arm-eabi/lib\libstdc++.a(fundamental_type_info.o)
 .comment       0x00000000       0x23 d:/devkitpro/devkitarm/bin/../lib/gcc/arm-eabi/4.5.1/../../../../arm-eabi/lib\libstdc++.a(new_handler.o)
 .comment       0x00000000       0x23 d:/devkitpro/devkitarm/bin/../lib/gcc/arm-eabi/4.5.1/../../../../arm-eabi/lib\libstdc++.a(pointer_type_info.o)
 .comment       0x00000000       0x23 d:/devkitpro/devkitarm/bin/../lib/gcc/arm-eabi/4.5.1/../../../../arm-eabi/lib\libstdc++.a(pure.o)
 .comment       0x00000000       0x23 d:/devkitpro/devkitarm/bin/../lib/gcc/arm-eabi/4.5.1/../../../../arm-eabi/lib\libstdc++.a(si_class_type_info.o)
 .comment       0x00000000       0x23 d:/devkitpro/devkitarm/bin/../lib/gcc/arm-eabi/4.5.1/../../../../arm-eabi/lib\libstdc++.a(tinfo.o)
 .comment       0x00000000       0x23 d:/devkitpro/devkitarm/bin/../lib/gcc/arm-eabi/4.5.1/../../../../arm-eabi/lib\libstdc++.a(vterminate.o)
 .comment       0x00000000       0x23 d:/devkitpro/devkitarm/bin/../lib/gcc/arm-eabi/4.5.1/../../../../arm-eabi/lib\libstdc++.a(bad_cast.o)
 .comment       0x00000000       0x23 d:/devkitpro/devkitarm/bin/../lib/gcc/arm-eabi/4.5.1/../../../../arm-eabi/lib\libstdc++.a(bad_typeid.o)
 .comment       0x00000000       0x23 d:/devkitpro/devkitarm/bin/../lib/gcc/arm-eabi/4.5.1/../../../../arm-eabi/lib\libstdc++.a(class_type_info.o)
 .comment       0x00000000       0x23 d:/devkitpro/devkitarm/bin/../lib/gcc/arm-eabi/4.5.1/../../../../arm-eabi/lib\libstdc++.a(cp-demangle.o)
 .comment       0x00000000       0x23 d:/devkitpro/devkitarm/bin/../lib/gcc/arm-eabi/4.5.1/../../../../arm-eabi/lib\libstdc++.a(del_op.o)
 .comment       0x00000000       0x23 d:/devkitpro/devkitarm/bin/../lib/gcc/arm-eabi/4.5.1/../../../../arm-eabi/lib\libstdc++.a(eh_type.o)
 .comment       0x00000000       0x23 d:/devkitpro/devkitarm/bin/../lib/gcc/arm-eabi/4.5.1/../../../../arm-eabi/lib\libstdc++.a(pbase_type_info.o)
 .comment       0x00000000       0x23 d:/devkitpro/devkitarm/bin/../lib/gcc/arm-eabi/4.5.1/../../../../arm-eabi/lib\libm.a(lib_a-s_cos.o)
 .comment       0x00000000       0x23 d:/devkitpro/devkitarm/bin/../lib/gcc/arm-eabi/4.5.1/../../../../arm-eabi/lib\libm.a(lib_a-s_sin.o)
 .comment       0x00000000       0x23 d:/devkitpro/devkitarm/bin/../lib/gcc/arm-eabi/4.5.1/../../../../arm-eabi/lib\libm.a(lib_a-w_pow.o)
 .comment       0x00000000       0x23 d:/devkitpro/devkitarm/bin/../lib/gcc/arm-eabi/4.5.1/../../../../arm-eabi/lib\libm.a(lib_a-e_pow.o)
 .comment       0x00000000       0x23 d:/devkitpro/devkitarm/bin/../lib/gcc/arm-eabi/4.5.1/../../../../arm-eabi/lib\libm.a(lib_a-e_rem_pio2.o)
 .comment       0x00000000       0x23 d:/devkitpro/devkitarm/bin/../lib/gcc/arm-eabi/4.5.1/../../../../arm-eabi/lib\libm.a(lib_a-e_sqrt.o)
 .comment       0x00000000       0x23 d:/devkitpro/devkitarm/bin/../lib/gcc/arm-eabi/4.5.1/../../../../arm-eabi/lib\libm.a(lib_a-k_cos.o)
 .comment       0x00000000       0x23 d:/devkitpro/devkitarm/bin/../lib/gcc/arm-eabi/4.5.1/../../../../arm-eabi/lib\libm.a(lib_a-k_rem_pio2.o)
 .comment       0x00000000       0x23 d:/devkitpro/devkitarm/bin/../lib/gcc/arm-eabi/4.5.1/../../../../arm-eabi/lib\libm.a(lib_a-k_sin.o)
 .comment       0x00000000       0x23 d:/devkitpro/devkitarm/bin/../lib/gcc/arm-eabi/4.5.1/../../../../arm-eabi/lib\libm.a(lib_a-s_fabs.o)
 .comment       0x00000000       0x23 d:/devkitpro/devkitarm/bin/../lib/gcc/arm-eabi/4.5.1/../../../../arm-eabi/lib\libm.a(lib_a-s_finite.o)
 .comment       0x00000000       0x23 d:/devkitpro/devkitarm/bin/../lib/gcc/arm-eabi/4.5.1/../../../../arm-eabi/lib\libm.a(lib_a-s_floor.o)
 .comment       0x00000000       0x23 d:/devkitpro/devkitarm/bin/../lib/gcc/arm-eabi/4.5.1/../../../../arm-eabi/lib\libm.a(lib_a-s_fpclassify.o)
 .comment       0x00000000       0x23 d:/devkitpro/devkitarm/bin/../lib/gcc/arm-eabi/4.5.1/../../../../arm-eabi/lib\libm.a(lib_a-s_lib_ver.o)
 .comment       0x00000000       0x23 d:/devkitpro/devkitarm/bin/../lib/gcc/arm-eabi/4.5.1/../../../../arm-eabi/lib\libm.a(lib_a-s_matherr.o)
 .comment       0x00000000       0x23 d:/devkitpro/devkitarm/bin/../lib/gcc/arm-eabi/4.5.1/../../../../arm-eabi/lib\libm.a(lib_a-s_nan.o)
 .comment       0x00000000       0x23 d:/devkitpro/devkitarm/bin/../lib/gcc/arm-eabi/4.5.1/../../../../arm-eabi/lib\libm.a(lib_a-s_rint.o)
 .comment       0x00000000       0x23 d:/devkitpro/devkitarm/bin/../lib/gcc/arm-eabi/4.5.1/../../../../arm-eabi/lib\libm.a(lib_a-s_scalbn.o)
 .comment       0x00000000       0x23 d:/devkitpro/devkitarm/bin/../lib/gcc/arm-eabi/4.5.1/../../../../arm-eabi/lib\libm.a(lib_a-s_copysign.o)
 .comment       0x00000000       0x23 d:/devkitpro/devkitarm/bin/../lib/gcc/arm-eabi/4.5.1\libgcc.a(_muldi3.o)
 .comment       0x00000000       0x23 d:/devkitpro/devkitarm/bin/../lib/gcc/arm-eabi/4.5.1\libgcc.a(unwind-arm.o)
 .comment       0x00000000       0x23 d:/devkitpro/devkitarm/bin/../lib/gcc/arm-eabi/4.5.1\libgcc.a(pr-support.o)
 .comment       0x00000000       0x23 d:/devkitpro/devkitarm/bin/../lib/gcc/arm-eabi/4.5.1/../../../../arm-eabi/lib\libg.a(lib_a-abort.o)
 .comment       0x00000000       0x23 d:/devkitpro/devkitarm/bin/../lib/gcc/arm-eabi/4.5.1/../../../../arm-eabi/lib\libg.a(lib_a-bsearch.o)
 .comment       0x00000000       0x23 d:/devkitpro/devkitarm/bin/../lib/gcc/arm-eabi/4.5.1/../../../../arm-eabi/lib\libg.a(lib_a-calloc.o)
 .comment       0x00000000       0x23 d:/devkitpro/devkitarm/bin/../lib/gcc/arm-eabi/4.5.1/../../../../arm-eabi/lib\libg.a(lib_a-callocr.o)
 .comment       0x00000000       0x23 d:/devkitpro/devkitarm/bin/../lib/gcc/arm-eabi/4.5.1/../../../../arm-eabi/lib\libg.a(lib_a-errno.o)
 .comment       0x00000000       0x23 d:/devkitpro/devkitarm/bin/../lib/gcc/arm-eabi/4.5.1/../../../../arm-eabi/lib\libg.a(lib_a-fclose.o)
 .comment       0x00000000       0x23 d:/devkitpro/devkitarm/bin/../lib/gcc/arm-eabi/4.5.1/../../../../arm-eabi/lib\libg.a(lib_a-fflush.o)
 .comment       0x00000000       0x23 d:/devkitpro/devkitarm/bin/../lib/gcc/arm-eabi/4.5.1/../../../../arm-eabi/lib\libg.a(lib_a-findfp.o)
 .comment       0x00000000       0x23 d:/devkitpro/devkitarm/bin/../lib/gcc/arm-eabi/4.5.1/../../../../arm-eabi/lib\libg.a(lib_a-fprintf.o)
 .comment       0x00000000       0x23 d:/devkitpro/devkitarm/bin/../lib/gcc/arm-eabi/4.5.1/../../../../arm-eabi/lib\libg.a(lib_a-fputc.o)
 .comment       0x00000000       0x23 d:/devkitpro/devkitarm/bin/../lib/gcc/arm-eabi/4.5.1/../../../../arm-eabi/lib\libg.a(lib_a-fputs.o)
 .comment       0x00000000       0x23 d:/devkitpro/devkitarm/bin/../lib/gcc/arm-eabi/4.5.1/../../../../arm-eabi/lib\libg.a(lib_a-fread.o)
 .comment       0x00000000       0x23 d:/devkitpro/devkitarm/bin/../lib/gcc/arm-eabi/4.5.1/../../../../arm-eabi/lib\libg.a(lib_a-freer.o)
 .comment       0x00000000       0x23 d:/devkitpro/devkitarm/bin/../lib/gcc/arm-eabi/4.5.1/../../../../arm-eabi/lib\libg.a(lib_a-fvwrite.o)
 .comment       0x00000000       0x23 d:/devkitpro/devkitarm/bin/../lib/gcc/arm-eabi/4.5.1/../../../../arm-eabi/lib\libg.a(lib_a-fwalk.o)
 .comment       0x00000000       0x23 d:/devkitpro/devkitarm/bin/../lib/gcc/arm-eabi/4.5.1/../../../../arm-eabi/lib\libg.a(lib_a-fwrite.o)
 .comment       0x00000000       0x23 d:/devkitpro/devkitarm/bin/../lib/gcc/arm-eabi/4.5.1/../../../../arm-eabi/lib\libg.a(lib_a-impure.o)
 .comment       0x00000000       0x23 d:/devkitpro/devkitarm/bin/../lib/gcc/arm-eabi/4.5.1/../../../../arm-eabi/lib\libg.a(lib_a-init.o)
 .comment       0x00000000       0x23 d:/devkitpro/devkitarm/bin/../lib/gcc/arm-eabi/4.5.1/../../../../arm-eabi/lib\libg.a(lib_a-malloc.o)
 .comment       0x00000000       0x23 d:/devkitpro/devkitarm/bin/../lib/gcc/arm-eabi/4.5.1/../../../../arm-eabi/lib\libg.a(lib_a-mallocr.o)
 .comment       0x00000000       0x23 d:/devkitpro/devkitarm/bin/../lib/gcc/arm-eabi/4.5.1/../../../../arm-eabi/lib\libg.a(lib_a-memchr.o)
 .comment       0x00000000       0x23 d:/devkitpro/devkitarm/bin/../lib/gcc/arm-eabi/4.5.1/../../../../arm-eabi/lib\libg.a(lib_a-memcmp.o)
 .comment       0x00000000       0x23 d:/devkitpro/devkitarm/bin/../lib/gcc/arm-eabi/4.5.1/../../../../arm-eabi/lib\libg.a(lib_a-memcpy.o)
 .comment       0x00000000       0x23 d:/devkitpro/devkitarm/bin/../lib/gcc/arm-eabi/4.5.1/../../../../arm-eabi/lib\libg.a(lib_a-memmove.o)
 .comment       0x00000000       0x23 d:/devkitpro/devkitarm/bin/../lib/gcc/arm-eabi/4.5.1/../../../../arm-eabi/lib\libg.a(lib_a-memset.o)
 .comment       0x00000000       0x23 d:/devkitpro/devkitarm/bin/../lib/gcc/arm-eabi/4.5.1/../../../../arm-eabi/lib\libg.a(lib_a-mlock.o)
 .comment       0x00000000       0x23 d:/devkitpro/devkitarm/bin/../lib/gcc/arm-eabi/4.5.1/../../../../arm-eabi/lib\libg.a(lib_a-putc.o)
 .comment       0x00000000       0x23 d:/devkitpro/devkitarm/bin/../lib/gcc/arm-eabi/4.5.1/../../../../arm-eabi/lib\libg.a(lib_a-rand.o)
 .comment       0x00000000       0x23 d:/devkitpro/devkitarm/bin/../lib/gcc/arm-eabi/4.5.1/../../../../arm-eabi/lib\libg.a(lib_a-realloc.o)
 .comment       0x00000000       0x23 d:/devkitpro/devkitarm/bin/../lib/gcc/arm-eabi/4.5.1/../../../../arm-eabi/lib\libg.a(lib_a-reallocr.o)
 .comment       0x00000000       0x23 d:/devkitpro/devkitarm/bin/../lib/gcc/arm-eabi/4.5.1/../../../../arm-eabi/lib\libg.a(lib_a-refill.o)
 .comment       0x00000000       0x23 d:/devkitpro/devkitarm/bin/../lib/gcc/arm-eabi/4.5.1/../../../../arm-eabi/lib\libg.a(lib_a-signal.o)
 .comment       0x00000000       0x23 d:/devkitpro/devkitarm/bin/../lib/gcc/arm-eabi/4.5.1/../../../../arm-eabi/lib\libg.a(lib_a-snprintf.o)
 .comment       0x00000000       0x23 d:/devkitpro/devkitarm/bin/../lib/gcc/arm-eabi/4.5.1/../../../../arm-eabi/lib\libg.a(lib_a-sprintf.o)
 .comment       0x00000000       0x23 d:/devkitpro/devkitarm/bin/../lib/gcc/arm-eabi/4.5.1/../../../../arm-eabi/lib\libg.a(lib_a-stdio.o)
 .comment       0x00000000       0x23 d:/devkitpro/devkitarm/bin/../lib/gcc/arm-eabi/4.5.1/../../../../arm-eabi/lib\libg.a(lib_a-strcmp.o)
 .comment       0x00000000       0x23 d:/devkitpro/devkitarm/bin/../lib/gcc/arm-eabi/4.5.1/../../../../arm-eabi/lib\libg.a(lib_a-strcpy.o)
 .comment       0x00000000       0x23 d:/devkitpro/devkitarm/bin/../lib/gcc/arm-eabi/4.5.1/../../../../arm-eabi/lib\libg.a(lib_a-strlen.o)
 .comment       0x00000000       0x23 d:/devkitpro/devkitarm/bin/../lib/gcc/arm-eabi/4.5.1/../../../../arm-eabi/lib\libg.a(lib_a-strncmp.o)
 .comment       0x00000000       0x23 d:/devkitpro/devkitarm/bin/../lib/gcc/arm-eabi/4.5.1/../../../../arm-eabi/lib\libg.a(lib_a-strtod.o)
 .comment       0x00000000       0x23 d:/devkitpro/devkitarm/bin/../lib/gcc/arm-eabi/4.5.1/../../../../arm-eabi/lib\libg.a(lib_a-svfprintf.o)
 .comment       0x00000000       0x23 d:/devkitpro/devkitarm/bin/../lib/gcc/arm-eabi/4.5.1/../../../../arm-eabi/lib\libg.a(lib_a-syswrite.o)
 .comment       0x00000000       0x23 d:/devkitpro/devkitarm/bin/../lib/gcc/arm-eabi/4.5.1/../../../../arm-eabi/lib\libg.a(lib_a-vfprintf.o)
 .comment       0x00000000       0x23 d:/devkitpro/devkitarm/bin/../lib/gcc/arm-eabi/4.5.1/../../../../arm-eabi/lib\libg.a(lib_a-wbuf.o)
 .comment       0x00000000       0x23 d:/devkitpro/devkitarm/bin/../lib/gcc/arm-eabi/4.5.1/../../../../arm-eabi/lib\libg.a(lib_a-wcrtomb.o)
 .comment       0x00000000       0x23 d:/devkitpro/devkitarm/bin/../lib/gcc/arm-eabi/4.5.1/../../../../arm-eabi/lib\libg.a(lib_a-wcsrtombs.o)
 .comment       0x00000000       0x23 d:/devkitpro/devkitarm/bin/../lib/gcc/arm-eabi/4.5.1/../../../../arm-eabi/lib\libg.a(lib_a-wctomb_r.o)
 .comment       0x00000000       0x23 d:/devkitpro/devkitarm/bin/../lib/gcc/arm-eabi/4.5.1/../../../../arm-eabi/lib\libg.a(lib_a-wsetup.o)
 .comment       0x00000000       0x23 d:/devkitpro/devkitarm/bin/../lib/gcc/arm-eabi/4.5.1/../../../../arm-eabi/lib\libg.a(lib_a-dtoa.o)
 .comment       0x00000000       0x23 d:/devkitpro/devkitarm/bin/../lib/gcc/arm-eabi/4.5.1/../../../../arm-eabi/lib\libg.a(lib_a-gdtoa-gethex.o)
 .comment       0x00000000       0x23 d:/devkitpro/devkitarm/bin/../lib/gcc/arm-eabi/4.5.1/../../../../arm-eabi/lib\libg.a(lib_a-gdtoa-hexnan.o)
 .comment       0x00000000       0x23 d:/devkitpro/devkitarm/bin/../lib/gcc/arm-eabi/4.5.1/../../../../arm-eabi/lib\libg.a(lib_a-locale.o)
 .comment       0x00000000       0x23 d:/devkitpro/devkitarm/bin/../lib/gcc/arm-eabi/4.5.1/../../../../arm-eabi/lib\libg.a(lib_a-makebuf.o)
 .comment       0x00000000       0x23 d:/devkitpro/devkitarm/bin/../lib/gcc/arm-eabi/4.5.1/../../../../arm-eabi/lib\libg.a(lib_a-mbtowc_r.o)
 .comment       0x00000000       0x23 d:/devkitpro/devkitarm/bin/../lib/gcc/arm-eabi/4.5.1/../../../../arm-eabi/lib\libg.a(lib_a-mprec.o)
 .comment       0x00000000       0x23 d:/devkitpro/devkitarm/bin/../lib/gcc/arm-eabi/4.5.1/../../../../arm-eabi/lib\libg.a(lib_a-sf_nan.o)
 .comment       0x00000000       0x23 d:/devkitpro/devkitarm/bin/../lib/gcc/arm-eabi/4.5.1/../../../../arm-eabi/lib\libg.a(lib_a-strcasecmp.o)
 .comment       0x00000000       0x23 d:/devkitpro/devkitarm/bin/../lib/gcc/arm-eabi/4.5.1/../../../../arm-eabi/lib\libg.a(lib_a-strcat.o)
 .comment       0x00000000       0x23 d:/devkitpro/devkitarm/bin/../lib/gcc/arm-eabi/4.5.1/../../../../arm-eabi/lib\libg.a(lib_a-strchr.o)
 .comment       0x00000000       0x23 d:/devkitpro/devkitarm/bin/../lib/gcc/arm-eabi/4.5.1/../../../../arm-eabi/lib\libg.a(lib_a-strlcpy.o)
 .comment       0x00000000       0x23 d:/devkitpro/devkitarm/bin/../lib/gcc/arm-eabi/4.5.1/../../../../arm-eabi/lib\libg.a(lib_a-strncasecmp.o)
 .comment       0x00000000       0x23 d:/devkitpro/devkitarm/bin/../lib/gcc/arm-eabi/4.5.1/../../../../arm-eabi/lib\libg.a(lib_a-strncpy.o)
 .comment       0x00000000       0x23 d:/devkitpro/devkitarm/bin/../lib/gcc/arm-eabi/4.5.1/../../../../arm-eabi/lib\libg.a(lib_a-strtol.o)
 .comment       0x00000000       0x23 d:/devkitpro/devkitarm/bin/../lib/gcc/arm-eabi/4.5.1/../../../../arm-eabi/lib\libg.a(lib_a-svfiprintf.o)
 .comment       0x00000000       0x23 d:/devkitpro/devkitarm/bin/../lib/gcc/arm-eabi/4.5.1/../../../../arm-eabi/lib\libg.a(lib_a-vfiprintf.o)
 .comment       0x00000000       0x23 d:/devkitpro/devkitarm/bin/../lib/gcc/arm-eabi/4.5.1/../../../../arm-eabi/lib\libg.a(lib_a-wcsnrtombs.o)
 .comment       0x00000000       0x23 d:/devkitpro/devkitarm/bin/../lib/gcc/arm-eabi/4.5.1/../../../../arm-eabi/lib\libg.a(lib_a-ctype_.o)
 .comment       0x00000000       0x23 d:/devkitpro/devkitarm/bin/../lib/gcc/arm-eabi/4.5.1/../../../../arm-eabi/lib\libg.a(lib_a-fputwc.o)
 .comment       0x00000000       0x23 d:/devkitpro/devkitarm/bin/../lib/gcc/arm-eabi/4.5.1/../../../../arm-eabi/lib\libg.a(lib_a-getenv_r.o)
 .comment       0x00000000       0x23 d:/devkitpro/devkitarm/bin/../lib/gcc/arm-eabi/4.5.1/../../../../arm-eabi/lib\libg.a(lib_a-environ.o)
 .comment       0x00000000       0x23 d:/devkitpro/devkitarm/bin/../lib/gcc/arm-eabi/4.5.1/../../../../arm-eabi/lib\libg.a(lib_a-envlock.o)
 .comment       0x00000000       0x23 d:/devkitpro/devkitarm/bin/../lib/gcc/arm-eabi/4.5.1/../../../../arm-eabi/lib\libsysbase.a(close.o)
 .comment       0x00000000       0x23 d:/devkitpro/devkitarm/bin/../lib/gcc/arm-eabi/4.5.1/../../../../arm-eabi/lib\libsysbase.a(fstat.o)
 .comment       0x00000000       0x23 d:/devkitpro/devkitarm/bin/../lib/gcc/arm-eabi/4.5.1/../../../../arm-eabi/lib\libsysbase.a(getpid.o)
 .comment       0x00000000       0x23 d:/devkitpro/devkitarm/bin/../lib/gcc/arm-eabi/4.5.1/../../../../arm-eabi/lib\libsysbase.a(isatty.o)
 .comment       0x00000000       0x23 d:/devkitpro/devkitarm/bin/../lib/gcc/arm-eabi/4.5.1/../../../../arm-eabi/lib\libsysbase.a(kill.o)
 .comment       0x00000000       0x23 d:/devkitpro/devkitarm/bin/../lib/gcc/arm-eabi/4.5.1/../../../../arm-eabi/lib\libsysbase.a(lseek.o)
 .comment       0x00000000       0x23 d:/devkitpro/devkitarm/bin/../lib/gcc/arm-eabi/4.5.1/../../../../arm-eabi/lib\libsysbase.a(read.o)
 .comment       0x00000000       0x23 d:/devkitpro/devkitarm/bin/../lib/gcc/arm-eabi/4.5.1/../../../../arm-eabi/lib\libsysbase.a(sbrk.o)
 .comment       0x00000000       0x23 d:/devkitpro/devkitarm/bin/../lib/gcc/arm-eabi/4.5.1/../../../../arm-eabi/lib\libsysbase.a(times.o)
 .comment       0x00000000       0x23 d:/devkitpro/devkitarm/bin/../lib/gcc/arm-eabi/4.5.1/../../../../arm-eabi/lib\libsysbase.a(write.o)
 .comment       0x00000000       0x23 d:/devkitpro/devkitarm/bin/../lib/gcc/arm-eabi/4.5.1/../../../../arm-eabi/lib\libsysbase.a(_exit.o)
 .comment       0x00000000       0x23 d:/devkitpro/devkitarm/bin/../lib/gcc/arm-eabi/4.5.1/../../../../arm-eabi/lib\libsysbase.a(malloc_vars.o)
 .comment       0x00000000       0x23 d:/devkitpro/devkitarm/bin/../lib/gcc/arm-eabi/4.5.1/../../../../arm-eabi/lib\libsysbase.a(build_argv.o)
 .comment       0x00000000       0x23 d:/devkitpro/devkitarm/bin/../lib/gcc/arm-eabi/4.5.1/../../../../arm-eabi/lib\libsysbase.a(syscall_support.o)
 .comment       0x00000000       0x23 d:/devkitpro/devkitarm/bin/../lib/gcc/arm-eabi/4.5.1/../../../../arm-eabi/lib\libsysbase.a(handle_manager.o)
 .comment       0x00000000       0x23 d:/devkitpro/devkitarm/bin/../lib/gcc/arm-eabi/4.5.1/../../../../arm-eabi/lib\libsysbase.a(iosupport.o)
 .comment       0x00000000       0x23 d:/devkitpro/devkitarm/bin/../lib/gcc/arm-eabi/4.5.1\libgcc.a(bpabi.o)
 .comment       0x00000000       0x23 d:/devkitpro/devkitarm/bin/../lib/gcc/arm-eabi/4.5.1\libgcc.a(_divdi3.o)
 .comment       0x00000000       0x23 d:/devkitpro/devkitarm/bin/../lib/gcc/arm-eabi/4.5.1\libgcc.a(_udivdi3.o)
 .comment       0x00000000       0x23 d:/devkitpro/devkitarm/bin/../lib/gcc/arm-eabi/4.5.1/crtend.o

.debug
 *(.debug)

.line
 *(.line)

.debug_srcinfo
 *(.debug_srcinfo)

.debug_sfnames
 *(.debug_sfnames)

.debug_aranges  0x00000000      0x5a0 load address 0x02053610
 *(.debug_aranges)
 .debug_aranges
                0x00000000       0x20 CBall.o
 .debug_aranges
                0x00000020       0x20 main.o
 .debug_aranges
                0x00000040       0x20 d:/devkitPro/libnds/lib\libul.a(ulib.o)
 .debug_aranges
                0x00000060       0x20 d:/devkitPro/libnds/lib\libul.a(drawing.o)
 .debug_aranges
                0x00000080       0x20 d:/devkitPro/libnds/lib\libul.a(text.o)
 .debug_aranges
                0x000000a0       0x20 d:/devkitPro/libnds/lib\libul.a(VirtualFile.o)
 .debug_aranges
                0x000000c0       0x20 d:/devkitPro/libnds/lib\libul.a(texVramManager.o)
 .debug_aranges
                0x000000e0       0x20 d:/devkitPro/libnds/lib\libul.a(texPalManager.o)
 .debug_aranges
                0x00000100       0x20 d:/devkitPro/libnds/lib\libul.a(keys.o)
 .debug_aranges
                0x00000120       0x20 d:/devkitPro/libnds/lib\libul.a(ulDrawImage.o)
 .debug_aranges
                0x00000140       0x20 d:/devkitPro/libnds/lib\libul.a(ulCreateImagePalette.o)
 .debug_aranges
                0x00000160       0x20 d:/devkitPro/libnds/lib\libul.a(ulDrawGradientRect.o)
 .debug_aranges
                0x00000180       0x20 d:/devkitPro/libnds/lib\libul.a(ulLoadImageFilePNG.o)
 .debug_aranges
                0x000001a0       0x20 d:/devkitPro/libnds/lib\libul.a(ulShowSplashScreen1.o)
 .debug_aranges
                0x000001c0       0x20 d:/devkitPro/libnds/lib\libul.a(ulShowSplashScreen2.o)
 .debug_aranges
                0x000001e0       0x20 d:/devkitPro/libnds/lib\libul.a(glWrapper.o)
 .debug_aranges
                0x00000200       0x20 d:/devkitPro/libnds/lib\libul.a(libLoadPng.o)
 .debug_aranges
                0x00000220       0x20 d:/devkitPro/libnds/lib\libul.a(ulDrawFillRect.o)
 .debug_aranges
                0x00000240       0x20 d:/devkitPro/libnds/lib\libul.a(ulSetImagePixel.o)
 .debug_aranges
                0x00000260       0x20 d:/devkitPro/libnds/lib\libul.a(ulGetImagePixel.o)
 .debug_aranges
                0x00000280       0x20 d:/devkitPro/libnds/lib\libul.a(textSize.o)
 .debug_aranges
                0x000002a0       0x20 d:/devkitPro/libnds/lib\libul.a(ulLoadImageFileJPG.o)
 .debug_aranges
                0x000002c0       0x20 d:/devkitPro/libnds/lib\libul.a(ulLoadImageFileGIF.o)
 .debug_aranges
                0x000002e0       0x20 d:/devkitPro/libnds/lib\libul.a(libLoadJpg.o)
 .debug_aranges
                0x00000300       0x20 d:/devkitPro/libnds/lib\libul.a(libLoadGif.o)
 .debug_aranges
                0x00000320       0x20 d:/devkitPro/libnds/lib\libul.a(dgif_lib.o)
 .debug_aranges
                0x00000340       0x20 d:/devkitPro/libnds/lib\libul.a(gif_err.o)
 .debug_aranges
                0x00000360       0x20 d:/devkitPro/libnds/lib\libul.a(gifalloc.o)
 .debug_aranges
                0x00000380       0x20 d:/devkitPro/libnds/lib\libul.a(ulReadEntireFileToMemory.o)
 .debug_aranges
                0x000003a0       0x20 d:/devkitPro/libnds/lib\libul.a(gba-jpeg-decode.o)
 .debug_aranges
                0x000003c0       0x20 d:/devkitPro/libnds/lib\libnds9.a(dynamicArray.o)
 .debug_aranges
                0x000003e0       0x20 d:/devkitPro/libnds/lib\libnds9.a(keys.o)
 .debug_aranges
                0x00000400       0x20 d:/devkitPro/libnds/lib\libnds9.a(system.o)
 .debug_aranges
                0x00000420       0x20 d:/devkitPro/libnds/lib\libnds9.a(touch.o)
 .debug_aranges
                0x00000440       0x20 d:/devkitPro/libnds/lib\libnds9.a(trig.o)
 .debug_aranges
                0x00000460       0x20 d:/devkitPro/libnds/lib\libnds9.a(videoGL.o)
 .debug_aranges
                0x00000480       0x20 d:/devkitPro/libnds/lib\libnds9.a(initSystem.o)
 .debug_aranges
                0x000004a0       0x20 d:/devkitPro/libnds/lib\libnds9.a(fifosystem.o)
 .debug_aranges
                0x000004c0       0x20 d:/devkitPro/libnds/lib\libnds9.a(interrupts.o)
 .debug_aranges
                0x000004e0       0x20 d:/devkitPro/libnds/lib\libnds9.a(libnds_exit.o)
 .debug_aranges
                0x00000500       0x20 d:/devkitPro/libnds/lib\libnds9.a(mpu_setup.o)
 .debug_aranges
                0x00000520       0x20 d:/devkitPro/libnds/lib\libnds9.a(biosCalls.o)
 .debug_aranges
                0x00000540       0x20 d:/devkitPro/libnds/lib\libnds9.a(interruptDispatcher.o)
 .debug_aranges
                0x00000560       0x20 d:/devkitPro/libnds/lib\libnds9.a(swiSoftReset.o)
 .debug_aranges
                0x00000580       0x20 d:/devkitPro/libnds/lib\libnds9.a(video.o)

.debug_pubnames
                0x00000000     0x1d15 load address 0x02053610
 *(.debug_pubnames)
 .debug_pubnames
                0x00000000       0x94 CBall.o
 .debug_pubnames
                0x00000094       0x1b main.o
 .debug_pubnames
                0x000000af       0x84 d:/devkitPro/libnds/lib\libul.a(ulib.o)
 .debug_pubnames
                0x00000133      0x33e d:/devkitPro/libnds/lib\libul.a(drawing.o)
 .debug_pubnames
                0x00000471      0x119 d:/devkitPro/libnds/lib\libul.a(text.o)
 .debug_pubnames
                0x0000058a      0x1c5 d:/devkitPro/libnds/lib\libul.a(VirtualFile.o)
 .debug_pubnames
                0x0000074f      0x259 d:/devkitPro/libnds/lib\libul.a(texVramManager.o)
 .debug_pubnames
                0x000009a8      0x176 d:/devkitPro/libnds/lib\libul.a(texPalManager.o)
 .debug_pubnames
                0x00000b1e       0x2d d:/devkitPro/libnds/lib\libul.a(keys.o)
 .debug_pubnames
                0x00000b4b       0x22 d:/devkitPro/libnds/lib\libul.a(ulDrawImage.o)
 .debug_pubnames
                0x00000b6d       0x2b d:/devkitPro/libnds/lib\libul.a(ulCreateImagePalette.o)
 .debug_pubnames
                0x00000b98       0x29 d:/devkitPro/libnds/lib\libul.a(ulDrawGradientRect.o)
 .debug_pubnames
                0x00000bc1       0x29 d:/devkitPro/libnds/lib\libul.a(ulLoadImageFilePNG.o)
 .debug_pubnames
                0x00000bea      0x1cb d:/devkitPro/libnds/lib\libul.a(ulShowSplashScreen1.o)
 .debug_pubnames
                0x00000db5       0x97 d:/devkitPro/libnds/lib\libul.a(ulShowSplashScreen2.o)
 .debug_pubnames
                0x00000e4c       0x2d d:/devkitPro/libnds/lib\libul.a(glWrapper.o)
 .debug_pubnames
                0x00000e79       0x25 d:/devkitPro/libnds/lib\libul.a(libLoadPng.o)
 .debug_pubnames
                0x00000e9e       0x25 d:/devkitPro/libnds/lib\libul.a(ulDrawFillRect.o)
 .debug_pubnames
                0x00000ec3       0x26 d:/devkitPro/libnds/lib\libul.a(ulSetImagePixel.o)
 .debug_pubnames
                0x00000ee9       0x26 d:/devkitPro/libnds/lib\libul.a(ulGetImagePixel.o)
 .debug_pubnames
                0x00000f0f       0x3e d:/devkitPro/libnds/lib\libul.a(textSize.o)
 .debug_pubnames
                0x00000f4d       0x2e d:/devkitPro/libnds/lib\libul.a(loading_utility.o)
 .debug_pubnames
                0x00000f7b       0x29 d:/devkitPro/libnds/lib\libul.a(ulLoadImageFileJPG.o)
 .debug_pubnames
                0x00000fa4       0x29 d:/devkitPro/libnds/lib\libul.a(ulLoadImageFileGIF.o)
 .debug_pubnames
                0x00000fcd       0x25 d:/devkitPro/libnds/lib\libul.a(libLoadJpg.o)
 .debug_pubnames
                0x00000ff2       0x9f d:/devkitPro/libnds/lib\libul.a(libLoadGif.o)
 .debug_pubnames
                0x00001091       0xf8 d:/devkitPro/libnds/lib\libul.a(dgif_lib.o)
 .debug_pubnames
                0x00001189       0x31 d:/devkitPro/libnds/lib\libul.a(gif_err.o)
 .debug_pubnames
                0x000011ba       0xe1 d:/devkitPro/libnds/lib\libul.a(gifalloc.o)
 .debug_pubnames
                0x0000129b       0x2f d:/devkitPro/libnds/lib\libul.a(ulReadEntireFileToMemory.o)
 .debug_pubnames
                0x000012ca      0x14b d:/devkitPro/libnds/lib\libul.a(gba-jpeg-decode.o)
 .debug_pubnames
                0x00001415       0x66 d:/devkitPro/libnds/lib\libnds9.a(dynamicArray.o)
 .debug_pubnames
                0x0000147b       0x79 d:/devkitPro/libnds/lib\libnds9.a(keys.o)
 .debug_pubnames
                0x000014f4       0x87 d:/devkitPro/libnds/lib\libnds9.a(system.o)
 .debug_pubnames
                0x0000157b       0x30 d:/devkitPro/libnds/lib\libnds9.a(touch.o)
 .debug_pubnames
                0x000015ab       0xa4 d:/devkitPro/libnds/lib\libnds9.a(trig.o)
 .debug_pubnames
                0x0000164f      0x2c2 d:/devkitPro/libnds/lib\libnds9.a(videoGL.o)
 .debug_pubnames
                0x00001911       0x2f d:/devkitPro/libnds/lib\libnds9.a(initSystem.o)
 .debug_pubnames
                0x00001940      0x259 d:/devkitPro/libnds/lib\libnds9.a(fifosystem.o)
 .debug_pubnames
                0x00001b99       0x80 d:/devkitPro/libnds/lib\libnds9.a(interrupts.o)
 .debug_pubnames
                0x00001c19       0x38 d:/devkitPro/libnds/lib\libnds9.a(libnds_exit.o)
 .debug_pubnames
                0x00001c51       0xc4 d:/devkitPro/libnds/lib\libnds9.a(video.o)

.debug_info     0x00000000    0x1f7fd load address 0x02053610
 *(.debug_info)
 .debug_info    0x00000000      0xb11 CBall.o
 .debug_info    0x00000b11      0xc23 main.o
 .debug_info    0x00001734      0x908 d:/devkitPro/libnds/lib\libul.a(ulib.o)
 .debug_info    0x0000203c     0x2312 d:/devkitPro/libnds/lib\libul.a(drawing.o)
 .debug_info    0x0000434e     0x1338 d:/devkitPro/libnds/lib\libul.a(text.o)
 .debug_info    0x00005686      0xeef d:/devkitPro/libnds/lib\libul.a(VirtualFile.o)
 .debug_info    0x00006575      0xebb d:/devkitPro/libnds/lib\libul.a(texVramManager.o)
 .debug_info    0x00007430      0xb0e d:/devkitPro/libnds/lib\libul.a(texPalManager.o)
 .debug_info    0x00007f3e      0xa76 d:/devkitPro/libnds/lib\libul.a(keys.o)
 .debug_info    0x000089b4      0x9da d:/devkitPro/libnds/lib\libul.a(ulDrawImage.o)
 .debug_info    0x0000938e      0x8d1 d:/devkitPro/libnds/lib\libul.a(ulCreateImagePalette.o)
 .debug_info    0x00009c5f      0x761 d:/devkitPro/libnds/lib\libul.a(ulDrawGradientRect.o)
 .debug_info    0x0000a3c0      0x8eb d:/devkitPro/libnds/lib\libul.a(ulLoadImageFilePNG.o)
 .debug_info    0x0000acab     0x16af d:/devkitPro/libnds/lib\libul.a(ulShowSplashScreen1.o)
 .debug_info    0x0000c35a      0xe89 d:/devkitPro/libnds/lib\libul.a(ulShowSplashScreen2.o)
 .debug_info    0x0000d1e3      0x795 d:/devkitPro/libnds/lib\libul.a(glWrapper.o)
 .debug_info    0x0000d978     0x240b d:/devkitPro/libnds/lib\libul.a(libLoadPng.o)
 .debug_info    0x0000fd83      0x737 d:/devkitPro/libnds/lib\libul.a(ulDrawFillRect.o)
 .debug_info    0x000104ba      0x8c7 d:/devkitPro/libnds/lib\libul.a(ulSetImagePixel.o)
 .debug_info    0x00010d81      0x8bc d:/devkitPro/libnds/lib\libul.a(ulGetImagePixel.o)
 .debug_info    0x0001163d      0x9ac d:/devkitPro/libnds/lib\libul.a(textSize.o)
 .debug_info    0x00011fe9       0x3f d:/devkitPro/libnds/lib\libul.a(loading_utility.o)
 .debug_info    0x00012028      0x8eb d:/devkitPro/libnds/lib\libul.a(ulLoadImageFileJPG.o)
 .debug_info    0x00012913      0x8eb d:/devkitPro/libnds/lib\libul.a(ulLoadImageFileGIF.o)
 .debug_info    0x000131fe      0xc62 d:/devkitPro/libnds/lib\libul.a(libLoadJpg.o)
 .debug_info    0x00013e60     0x12ff d:/devkitPro/libnds/lib\libul.a(libLoadGif.o)
 .debug_info    0x0001515f     0x1634 d:/devkitPro/libnds/lib\libul.a(dgif_lib.o)
 .debug_info    0x00016793       0xbe d:/devkitPro/libnds/lib\libul.a(gif_err.o)
 .debug_info    0x00016851      0x65c d:/devkitPro/libnds/lib\libul.a(gifalloc.o)
 .debug_info    0x00016ead      0x917 d:/devkitPro/libnds/lib\libul.a(ulReadEntireFileToMemory.o)
 .debug_info    0x000177c4     0x1e32 d:/devkitPro/libnds/lib\libul.a(gba-jpeg-decode.o)
 .debug_info    0x000195f6      0x1e7 d:/devkitPro/libnds/lib\libnds9.a(dynamicArray.o)
 .debug_info    0x000197dd      0x3d0 d:/devkitPro/libnds/lib\libnds9.a(keys.o)
 .debug_info    0x00019bad      0x6f4 d:/devkitPro/libnds/lib\libnds9.a(system.o)
 .debug_info    0x0001a2a1      0x2c2 d:/devkitPro/libnds/lib\libnds9.a(touch.o)
 .debug_info    0x0001a563      0x4b6 d:/devkitPro/libnds/lib\libnds9.a(trig.o)
 .debug_info    0x0001aa19     0x1dc7 d:/devkitPro/libnds/lib\libnds9.a(videoGL.o)
 .debug_info    0x0001c7e0      0xed0 d:/devkitPro/libnds/lib\libnds9.a(initSystem.o)
 .debug_info    0x0001d6b0     0x10ca d:/devkitPro/libnds/lib\libnds9.a(fifosystem.o)
 .debug_info    0x0001e77a      0x466 d:/devkitPro/libnds/lib\libnds9.a(interrupts.o)
 .debug_info    0x0001ebe0      0x2a6 d:/devkitPro/libnds/lib\libnds9.a(libnds_exit.o)
 .debug_info    0x0001ee86       0xca d:/devkitPro/libnds/lib\libnds9.a(mpu_setup.o)
 .debug_info    0x0001ef50       0xc5 d:/devkitPro/libnds/lib\libnds9.a(biosCalls.o)
 .debug_info    0x0001f015       0xcf d:/devkitPro/libnds/lib\libnds9.a(interruptDispatcher.o)
 .debug_info    0x0001f0e4       0xc8 d:/devkitPro/libnds/lib\libnds9.a(swiSoftReset.o)
 .debug_info    0x0001f1ac      0x651 d:/devkitPro/libnds/lib\libnds9.a(video.o)

.debug_abbrev   0x00000000     0x553f load address 0x02053610
 *(.debug_abbrev)
 .debug_abbrev  0x00000000      0x2b2 CBall.o
 .debug_abbrev  0x000002b2      0x2b7 main.o
 .debug_abbrev  0x00000569      0x1a9 d:/devkitPro/libnds/lib\libul.a(ulib.o)
 .debug_abbrev  0x00000712      0x4ca d:/devkitPro/libnds/lib\libul.a(drawing.o)
 .debug_abbrev  0x00000bdc      0x270 d:/devkitPro/libnds/lib\libul.a(text.o)
 .debug_abbrev  0x00000e4c      0x29d d:/devkitPro/libnds/lib\libul.a(VirtualFile.o)
 .debug_abbrev  0x000010e9      0x30f d:/devkitPro/libnds/lib\libul.a(texVramManager.o)
 .debug_abbrev  0x000013f8      0x245 d:/devkitPro/libnds/lib\libul.a(texPalManager.o)
 .debug_abbrev  0x0000163d      0x1cf d:/devkitPro/libnds/lib\libul.a(keys.o)
 .debug_abbrev  0x0000180c      0x1d7 d:/devkitPro/libnds/lib\libul.a(ulDrawImage.o)
 .debug_abbrev  0x000019e3      0x16c d:/devkitPro/libnds/lib\libul.a(ulCreateImagePalette.o)
 .debug_abbrev  0x00001b4f      0x13f d:/devkitPro/libnds/lib\libul.a(ulDrawGradientRect.o)
 .debug_abbrev  0x00001c8e      0x164 d:/devkitPro/libnds/lib\libul.a(ulLoadImageFilePNG.o)
 .debug_abbrev  0x00001df2      0x3b5 d:/devkitPro/libnds/lib\libul.a(ulShowSplashScreen1.o)
 .debug_abbrev  0x000021a7      0x2a9 d:/devkitPro/libnds/lib\libul.a(ulShowSplashScreen2.o)
 .debug_abbrev  0x00002450      0x171 d:/devkitPro/libnds/lib\libul.a(glWrapper.o)
 .debug_abbrev  0x000025c1      0x289 d:/devkitPro/libnds/lib\libul.a(libLoadPng.o)
 .debug_abbrev  0x0000284a      0x13f d:/devkitPro/libnds/lib\libul.a(ulDrawFillRect.o)
 .debug_abbrev  0x00002989      0x176 d:/devkitPro/libnds/lib\libul.a(ulSetImagePixel.o)
 .debug_abbrev  0x00002aff      0x178 d:/devkitPro/libnds/lib\libul.a(ulGetImagePixel.o)
 .debug_abbrev  0x00002c77      0x1b5 d:/devkitPro/libnds/lib\libul.a(textSize.o)
 .debug_abbrev  0x00002e2c       0x30 d:/devkitPro/libnds/lib\libul.a(loading_utility.o)
 .debug_abbrev  0x00002e5c      0x164 d:/devkitPro/libnds/lib\libul.a(ulLoadImageFileJPG.o)
 .debug_abbrev  0x00002fc0      0x164 d:/devkitPro/libnds/lib\libul.a(ulLoadImageFileGIF.o)
 .debug_abbrev  0x00003124      0x1bd d:/devkitPro/libnds/lib\libul.a(libLoadJpg.o)
 .debug_abbrev  0x000032e1      0x294 d:/devkitPro/libnds/lib\libul.a(libLoadGif.o)
 .debug_abbrev  0x00003575      0x2fa d:/devkitPro/libnds/lib\libul.a(dgif_lib.o)
 .debug_abbrev  0x0000386f       0x74 d:/devkitPro/libnds/lib\libul.a(gif_err.o)
 .debug_abbrev  0x000038e3      0x206 d:/devkitPro/libnds/lib\libul.a(gifalloc.o)
 .debug_abbrev  0x00003ae9      0x193 d:/devkitPro/libnds/lib\libul.a(ulReadEntireFileToMemory.o)
 .debug_abbrev  0x00003c7c      0x348 d:/devkitPro/libnds/lib\libul.a(gba-jpeg-decode.o)
 .debug_abbrev  0x00003fc4       0xf6 d:/devkitPro/libnds/lib\libnds9.a(dynamicArray.o)
 .debug_abbrev  0x000040ba      0x176 d:/devkitPro/libnds/lib\libnds9.a(keys.o)
 .debug_abbrev  0x00004230      0x19a d:/devkitPro/libnds/lib\libnds9.a(system.o)
 .debug_abbrev  0x000043ca      0x123 d:/devkitPro/libnds/lib\libnds9.a(touch.o)
 .debug_abbrev  0x000044ed      0x1c2 d:/devkitPro/libnds/lib\libnds9.a(trig.o)
 .debug_abbrev  0x000046af      0x390 d:/devkitPro/libnds/lib\libnds9.a(videoGL.o)
 .debug_abbrev  0x00004a3f      0x242 d:/devkitPro/libnds/lib\libnds9.a(initSystem.o)
 .debug_abbrev  0x00004c81      0x3af d:/devkitPro/libnds/lib\libnds9.a(fifosystem.o)
 .debug_abbrev  0x00005030      0x1d5 d:/devkitPro/libnds/lib\libnds9.a(interrupts.o)
 .debug_abbrev  0x00005205      0x131 d:/devkitPro/libnds/lib\libnds9.a(libnds_exit.o)
 .debug_abbrev  0x00005336       0x14 d:/devkitPro/libnds/lib\libnds9.a(mpu_setup.o)
 .debug_abbrev  0x0000534a       0x14 d:/devkitPro/libnds/lib\libnds9.a(biosCalls.o)
 .debug_abbrev  0x0000535e       0x14 d:/devkitPro/libnds/lib\libnds9.a(interruptDispatcher.o)
 .debug_abbrev  0x00005372       0x14 d:/devkitPro/libnds/lib\libnds9.a(swiSoftReset.o)
 .debug_abbrev  0x00005386      0x1b9 d:/devkitPro/libnds/lib\libnds9.a(video.o)

.debug_line     0x00000000     0x7e1a load address 0x02053610
 *(.debug_line)
 .debug_line    0x00000000      0x2a3 CBall.o
 .debug_line    0x000002a3      0x2a1 main.o
 .debug_line    0x00000544      0x1c8 d:/devkitPro/libnds/lib\libul.a(ulib.o)
 .debug_line    0x0000070c      0x81c d:/devkitPro/libnds/lib\libul.a(drawing.o)
 .debug_line    0x00000f28      0x3dd d:/devkitPro/libnds/lib\libul.a(text.o)
 .debug_line    0x00001305      0x2f3 d:/devkitPro/libnds/lib\libul.a(VirtualFile.o)
 .debug_line    0x000015f8      0x385 d:/devkitPro/libnds/lib\libul.a(texVramManager.o)
 .debug_line    0x0000197d      0x29c d:/devkitPro/libnds/lib\libul.a(texPalManager.o)
 .debug_line    0x00001c19      0x1c5 d:/devkitPro/libnds/lib\libul.a(keys.o)
 .debug_line    0x00001dde      0x2c1 d:/devkitPro/libnds/lib\libul.a(ulDrawImage.o)
 .debug_line    0x0000209f      0x1e4 d:/devkitPro/libnds/lib\libul.a(ulCreateImagePalette.o)
 .debug_line    0x00002283      0x1d9 d:/devkitPro/libnds/lib\libul.a(ulDrawGradientRect.o)
 .debug_line    0x0000245c      0x1b0 d:/devkitPro/libnds/lib\libul.a(ulLoadImageFilePNG.o)
 .debug_line    0x0000260c      0x4a8 d:/devkitPro/libnds/lib\libul.a(ulShowSplashScreen1.o)
 .debug_line    0x00002ab4      0x367 d:/devkitPro/libnds/lib\libul.a(ulShowSplashScreen2.o)
 .debug_line    0x00002e1b      0x190 d:/devkitPro/libnds/lib\libul.a(glWrapper.o)
 .debug_line    0x00002fab      0x442 d:/devkitPro/libnds/lib\libul.a(libLoadPng.o)
 .debug_line    0x000033ed      0x1cf d:/devkitPro/libnds/lib\libul.a(ulDrawFillRect.o)
 .debug_line    0x000035bc      0x1b0 d:/devkitPro/libnds/lib\libul.a(ulSetImagePixel.o)
 .debug_line    0x0000376c      0x1ac d:/devkitPro/libnds/lib\libul.a(ulGetImagePixel.o)
 .debug_line    0x00003918      0x1cb d:/devkitPro/libnds/lib\libul.a(textSize.o)
 .debug_line    0x00003ae3       0x3b d:/devkitPro/libnds/lib\libul.a(loading_utility.o)
 .debug_line    0x00003b1e      0x1b0 d:/devkitPro/libnds/lib\libul.a(ulLoadImageFileJPG.o)
 .debug_line    0x00003cce      0x1b0 d:/devkitPro/libnds/lib\libul.a(ulLoadImageFileGIF.o)
 .debug_line    0x00003e7e      0x1bf d:/devkitPro/libnds/lib\libul.a(libLoadJpg.o)
 .debug_line    0x0000403d      0x30f d:/devkitPro/libnds/lib\libul.a(libLoadGif.o)
 .debug_line    0x0000434c      0x54d d:/devkitPro/libnds/lib\libul.a(dgif_lib.o)
 .debug_line    0x00004899       0x42 d:/devkitPro/libnds/lib\libul.a(gif_err.o)
 .debug_line    0x000048db      0x1cf d:/devkitPro/libnds/lib\libul.a(gifalloc.o)
 .debug_line    0x00004aaa      0x1ff d:/devkitPro/libnds/lib\libul.a(ulReadEntireFileToMemory.o)
 .debug_line    0x00004ca9      0xac8 d:/devkitPro/libnds/lib\libul.a(gba-jpeg-decode.o)
 .debug_line    0x00005771      0x178 d:/devkitPro/libnds/lib\libnds9.a(dynamicArray.o)
 .debug_line    0x000058e9      0x254 d:/devkitPro/libnds/lib\libnds9.a(keys.o)
 .debug_line    0x00005b3d      0x26c d:/devkitPro/libnds/lib\libnds9.a(system.o)
 .debug_line    0x00005da9      0x22d d:/devkitPro/libnds/lib\libnds9.a(touch.o)
 .debug_line    0x00005fd6      0x224 d:/devkitPro/libnds/lib\libnds9.a(trig.o)
 .debug_line    0x000061fa      0x93f d:/devkitPro/libnds/lib\libnds9.a(videoGL.o)
 .debug_line    0x00006b39      0x36c d:/devkitPro/libnds/lib\libnds9.a(initSystem.o)
 .debug_line    0x00006ea5      0x6c8 d:/devkitPro/libnds/lib\libnds9.a(fifosystem.o)
 .debug_line    0x0000756d      0x1d0 d:/devkitPro/libnds/lib\libnds9.a(interrupts.o)
 .debug_line    0x0000773d      0x1d8 d:/devkitPro/libnds/lib\libnds9.a(libnds_exit.o)
 .debug_line    0x00007915       0xe3 d:/devkitPro/libnds/lib\libnds9.a(mpu_setup.o)
 .debug_line    0x000079f8       0xc5 d:/devkitPro/libnds/lib\libnds9.a(biosCalls.o)
 .debug_line    0x00007abd       0xc4 d:/devkitPro/libnds/lib\libnds9.a(interruptDispatcher.o)
 .debug_line    0x00007b81       0x93 d:/devkitPro/libnds/lib\libnds9.a(swiSoftReset.o)
 .debug_line    0x00007c14      0x206 d:/devkitPro/libnds/lib\libnds9.a(video.o)

.debug_frame    0x00000000     0x1ec4 load address 0x02053610
 *(.debug_frame)
 .debug_frame   0x00000000       0x88 CBall.o
 .debug_frame   0x00000088       0x3c main.o
 .debug_frame   0x000000c4       0x70 d:/devkitPro/libnds/lib\libul.a(ulib.o)
 .debug_frame   0x00000134      0x220 d:/devkitPro/libnds/lib\libul.a(drawing.o)
 .debug_frame   0x00000354      0x160 d:/devkitPro/libnds/lib\libul.a(text.o)
 .debug_frame   0x000004b4      0x1b0 d:/devkitPro/libnds/lib\libul.a(VirtualFile.o)
 .debug_frame   0x00000664      0x1a0 d:/devkitPro/libnds/lib\libul.a(texVramManager.o)
 .debug_frame   0x00000804      0x10c d:/devkitPro/libnds/lib\libul.a(texPalManager.o)
 .debug_frame   0x00000910       0x30 d:/devkitPro/libnds/lib\libul.a(keys.o)
 .debug_frame   0x00000940       0x3c d:/devkitPro/libnds/lib\libul.a(ulDrawImage.o)
 .debug_frame   0x0000097c       0x30 d:/devkitPro/libnds/lib\libul.a(ulCreateImagePalette.o)
 .debug_frame   0x000009ac       0x38 d:/devkitPro/libnds/lib\libul.a(ulDrawGradientRect.o)
 .debug_frame   0x000009e4       0x2c d:/devkitPro/libnds/lib\libul.a(ulLoadImageFilePNG.o)
 .debug_frame   0x00000a10      0x128 d:/devkitPro/libnds/lib\libul.a(ulShowSplashScreen1.o)
 .debug_frame   0x00000b38       0x68 d:/devkitPro/libnds/lib\libul.a(ulShowSplashScreen2.o)
 .debug_frame   0x00000ba0       0x28 d:/devkitPro/libnds/lib\libul.a(glWrapper.o)
 .debug_frame   0x00000bc8       0x68 d:/devkitPro/libnds/lib\libul.a(libLoadPng.o)
 .debug_frame   0x00000c30       0x30 d:/devkitPro/libnds/lib\libul.a(ulDrawFillRect.o)
 .debug_frame   0x00000c60       0x2c d:/devkitPro/libnds/lib\libul.a(ulSetImagePixel.o)
 .debug_frame   0x00000c8c       0x28 d:/devkitPro/libnds/lib\libul.a(ulGetImagePixel.o)
 .debug_frame   0x00000cb4       0x44 d:/devkitPro/libnds/lib\libul.a(textSize.o)
 .debug_frame   0x00000cf8       0x2c d:/devkitPro/libnds/lib\libul.a(ulLoadImageFileJPG.o)
 .debug_frame   0x00000d24       0x2c d:/devkitPro/libnds/lib\libul.a(ulLoadImageFileGIF.o)
 .debug_frame   0x00000d50       0x38 d:/devkitPro/libnds/lib\libul.a(libLoadJpg.o)
 .debug_frame   0x00000d88       0xa4 d:/devkitPro/libnds/lib\libul.a(libLoadGif.o)
 .debug_frame   0x00000e2c      0x208 d:/devkitPro/libnds/lib\libul.a(dgif_lib.o)
 .debug_frame   0x00001034       0x20 d:/devkitPro/libnds/lib\libul.a(gif_err.o)
 .debug_frame   0x00001054      0x140 d:/devkitPro/libnds/lib\libul.a(gifalloc.o)
 .debug_frame   0x00001194       0x34 d:/devkitPro/libnds/lib\libul.a(ulReadEntireFileToMemory.o)
 .debug_frame   0x000011c8      0x1cc d:/devkitPro/libnds/lib\libul.a(gba-jpeg-decode.o)
 .debug_frame   0x00001394       0x78 d:/devkitPro/libnds/lib\libnds9.a(dynamicArray.o)
 .debug_frame   0x0000140c       0x8c d:/devkitPro/libnds/lib\libnds9.a(keys.o)
 .debug_frame   0x00001498       0xbc d:/devkitPro/libnds/lib\libnds9.a(system.o)
 .debug_frame   0x00001554       0x44 d:/devkitPro/libnds/lib\libnds9.a(touch.o)
 .debug_frame   0x00001598       0xf4 d:/devkitPro/libnds/lib\libnds9.a(trig.o)
 .debug_frame   0x0000168c      0x3b4 d:/devkitPro/libnds/lib\libnds9.a(videoGL.o)
 .debug_frame   0x00001a40       0x28 d:/devkitPro/libnds/lib\libnds9.a(initSystem.o)
 .debug_frame   0x00001a68      0x2b4 d:/devkitPro/libnds/lib\libnds9.a(fifosystem.o)
 .debug_frame   0x00001d1c       0xb4 d:/devkitPro/libnds/lib\libnds9.a(interrupts.o)
 .debug_frame   0x00001dd0       0x38 d:/devkitPro/libnds/lib\libnds9.a(libnds_exit.o)
 .debug_frame   0x00001e08       0xbc d:/devkitPro/libnds/lib\libnds9.a(video.o)

.debug_str      0x00000000     0x602f load address 0x02053610
 *(.debug_str)
 .debug_str     0x00000000      0x609 CBall.o
                                0x6ad (size before relaxing)
 .debug_str     0x00000609      0x23e main.o
                                0x788 (size before relaxing)
 .debug_str     0x00000847      0x18e d:/devkitPro/libnds/lib\libul.a(ulib.o)
                                0x701 (size before relaxing)
 .debug_str     0x000009d5      0xed8 d:/devkitPro/libnds/lib\libul.a(drawing.o)
                               0x1595 (size before relaxing)
 .debug_str     0x000018ad      0x33c d:/devkitPro/libnds/lib\libul.a(text.o)
                                0x949 (size before relaxing)
 .debug_str     0x00001be9      0x1ca d:/devkitPro/libnds/lib\libul.a(VirtualFile.o)
                                0x720 (size before relaxing)
 .debug_str     0x00001db3      0x30e d:/devkitPro/libnds/lib\libul.a(texVramManager.o)
                                0x8e1 (size before relaxing)
 .debug_str     0x000020c1      0x151 d:/devkitPro/libnds/lib\libul.a(texPalManager.o)
                                0x784 (size before relaxing)
 .debug_str     0x00002212       0xde d:/devkitPro/libnds/lib\libul.a(keys.o)
                                0x687 (size before relaxing)
 .debug_str     0x000022f0       0x38 d:/devkitPro/libnds/lib\libul.a(ulDrawImage.o)
                                0x57c (size before relaxing)
 .debug_str     0x00002328       0x32 d:/devkitPro/libnds/lib\libul.a(ulCreateImagePalette.o)
                                0x5ce (size before relaxing)
 .debug_str     0x0000235a       0x4a d:/devkitPro/libnds/lib\libul.a(ulDrawGradientRect.o)
                                0x4b0 (size before relaxing)
 .debug_str     0x000023a4       0x75 d:/devkitPro/libnds/lib\libul.a(ulLoadImageFilePNG.o)
                                0x54f (size before relaxing)
 .debug_str     0x00002419      0x253 d:/devkitPro/libnds/lib\libul.a(ulShowSplashScreen1.o)
                                0xf83 (size before relaxing)
 .debug_str     0x0000266c       0xaa d:/devkitPro/libnds/lib\libul.a(ulShowSplashScreen2.o)
                                0x942 (size before relaxing)
 .debug_str     0x00002716       0x92 d:/devkitPro/libnds/lib\libul.a(glWrapper.o)
                                0x603 (size before relaxing)
 .debug_str     0x000027a8      0xd03 d:/devkitPro/libnds/lib\libul.a(libLoadPng.o)
                               0x14e8 (size before relaxing)
 .debug_str     0x000034ab       0x26 d:/devkitPro/libnds/lib\libul.a(ulDrawFillRect.o)
                                0x492 (size before relaxing)
 .debug_str     0x000034d1       0x3a d:/devkitPro/libnds/lib\libul.a(ulSetImagePixel.o)
                                0x569 (size before relaxing)
 .debug_str     0x0000350b       0x28 d:/devkitPro/libnds/lib\libul.a(ulGetImagePixel.o)
                                0x55e (size before relaxing)
 .debug_str     0x00003533       0x41 d:/devkitPro/libnds/lib\libul.a(textSize.o)
                                0x571 (size before relaxing)
 .debug_str     0x00003574       0x1b d:/devkitPro/libnds/lib\libul.a(loading_utility.o)
                                 0x5c (size before relaxing)
 .debug_str     0x0000358f       0x31 d:/devkitPro/libnds/lib\libul.a(ulLoadImageFileJPG.o)
                                0x54f (size before relaxing)
 .debug_str     0x000035c0       0x31 d:/devkitPro/libnds/lib\libul.a(ulLoadImageFileGIF.o)
                                0x54f (size before relaxing)
 .debug_str     0x000035f1      0x359 d:/devkitPro/libnds/lib\libul.a(libLoadJpg.o)
                                0x875 (size before relaxing)
 .debug_str     0x0000394a      0x253 d:/devkitPro/libnds/lib\libul.a(libLoadGif.o)
                                0xa46 (size before relaxing)
 .debug_str     0x00003b9d      0x5c7 d:/devkitPro/libnds/lib\libul.a(dgif_lib.o)
                                0x904 (size before relaxing)
 .debug_str     0x00004164       0x1b d:/devkitPro/libnds/lib\libul.a(gif_err.o)
                                 0xd7 (size before relaxing)
 .debug_str     0x0000417f      0x10f d:/devkitPro/libnds/lib\libul.a(gifalloc.o)
                                0x35e (size before relaxing)
 .debug_str     0x0000428e       0x4a d:/devkitPro/libnds/lib\libul.a(ulReadEntireFileToMemory.o)
                                0x4da (size before relaxing)
 .debug_str     0x000042d8      0x3dc d:/devkitPro/libnds/lib\libul.a(gba-jpeg-decode.o)
                                0xc4d (size before relaxing)
 .debug_str     0x000046b4       0xaa d:/devkitPro/libnds/lib\libnds9.a(dynamicArray.o)
                                0x18f (size before relaxing)
 .debug_str     0x0000475e      0x16d d:/devkitPro/libnds/lib\libnds9.a(keys.o)
                                0x2dc (size before relaxing)
 .debug_str     0x000048cb      0x348 d:/devkitPro/libnds/lib\libnds9.a(system.o)
                                0x510 (size before relaxing)
 .debug_str     0x00004c13       0x72 d:/devkitPro/libnds/lib\libnds9.a(touch.o)
                                0x1f8 (size before relaxing)
 .debug_str     0x00004c85       0xdf d:/devkitPro/libnds/lib\libnds9.a(trig.o)
                                0x1d7 (size before relaxing)
 .debug_str     0x00004d64      0xa19 d:/devkitPro/libnds/lib\libnds9.a(videoGL.o)
                               0x130f (size before relaxing)
 .debug_str     0x0000577d       0xc2 d:/devkitPro/libnds/lib\libnds9.a(initSystem.o)
                                0x95d (size before relaxing)
 .debug_str     0x0000583f      0x524 d:/devkitPro/libnds/lib\libnds9.a(fifosystem.o)
                                0x74c (size before relaxing)
 .debug_str     0x00005d63      0x128 d:/devkitPro/libnds/lib\libnds9.a(interrupts.o)
                                0x34a (size before relaxing)
 .debug_str     0x00005e8b       0x88 d:/devkitPro/libnds/lib\libnds9.a(libnds_exit.o)
                                0x298 (size before relaxing)
 .debug_str     0x00005f13      0x11c d:/devkitPro/libnds/lib\libnds9.a(video.o)
                                0xb12 (size before relaxing)

.debug_loc      0x00000000     0xba51 load address 0x02053610
 *(.debug_loc)
 .debug_loc     0x00000000      0x197 CBall.o
 .debug_loc     0x00000197       0x6d main.o
 .debug_loc     0x00000204       0xa4 d:/devkitPro/libnds/lib\libul.a(ulib.o)
 .debug_loc     0x000002a8      0xa4b d:/devkitPro/libnds/lib\libul.a(drawing.o)
 .debug_loc     0x00000cf3      0x7ed d:/devkitPro/libnds/lib\libul.a(text.o)
 .debug_loc     0x000014e0      0x776 d:/devkitPro/libnds/lib\libul.a(VirtualFile.o)
 .debug_loc     0x00001c56      0x81d d:/devkitPro/libnds/lib\libul.a(texVramManager.o)
 .debug_loc     0x00002473      0x413 d:/devkitPro/libnds/lib\libul.a(texPalManager.o)
 .debug_loc     0x00002886       0x99 d:/devkitPro/libnds/lib\libul.a(keys.o)
 .debug_loc     0x0000291f      0x133 d:/devkitPro/libnds/lib\libul.a(ulDrawImage.o)
 .debug_loc     0x00002a52       0xdd d:/devkitPro/libnds/lib\libul.a(ulCreateImagePalette.o)
 .debug_loc     0x00002b2f       0x78 d:/devkitPro/libnds/lib\libul.a(ulDrawGradientRect.o)
 .debug_loc     0x00002ba7       0xd5 d:/devkitPro/libnds/lib\libul.a(ulLoadImageFilePNG.o)
 .debug_loc     0x00002c7c      0x899 d:/devkitPro/libnds/lib\libul.a(ulShowSplashScreen1.o)
 .debug_loc     0x00003515      0x2d1 d:/devkitPro/libnds/lib\libul.a(ulShowSplashScreen2.o)
 .debug_loc     0x000037e6       0x76 d:/devkitPro/libnds/lib\libul.a(glWrapper.o)
 .debug_loc     0x0000385c      0x9ca d:/devkitPro/libnds/lib\libul.a(libLoadPng.o)
 .debug_loc     0x00004226       0x6c d:/devkitPro/libnds/lib\libul.a(ulDrawFillRect.o)
 .debug_loc     0x00004292       0xae d:/devkitPro/libnds/lib\libul.a(ulSetImagePixel.o)
 .debug_loc     0x00004340       0xa6 d:/devkitPro/libnds/lib\libul.a(ulGetImagePixel.o)
 .debug_loc     0x000043e6      0x1d4 d:/devkitPro/libnds/lib\libul.a(textSize.o)
 .debug_loc     0x000045ba       0xd5 d:/devkitPro/libnds/lib\libul.a(ulLoadImageFileJPG.o)
 .debug_loc     0x0000468f       0xd5 d:/devkitPro/libnds/lib\libul.a(ulLoadImageFileGIF.o)
 .debug_loc     0x00004764      0x17e d:/devkitPro/libnds/lib\libul.a(libLoadJpg.o)
 .debug_loc     0x000048e2      0x72a d:/devkitPro/libnds/lib\libul.a(libLoadGif.o)
 .debug_loc     0x0000500c      0xd7b d:/devkitPro/libnds/lib\libul.a(dgif_lib.o)
 .debug_loc     0x00005d87      0x4ea d:/devkitPro/libnds/lib\libul.a(gifalloc.o)
 .debug_loc     0x00006271      0x14e d:/devkitPro/libnds/lib\libul.a(ulReadEntireFileToMemory.o)
 .debug_loc     0x000063bf     0x1b73 d:/devkitPro/libnds/lib\libul.a(gba-jpeg-decode.o)
 .debug_loc     0x00007f32      0x196 d:/devkitPro/libnds/lib\libnds9.a(dynamicArray.o)
 .debug_loc     0x000080c8       0x20 d:/devkitPro/libnds/lib\libnds9.a(keys.o)
 .debug_loc     0x000080e8      0x1ba d:/devkitPro/libnds/lib\libnds9.a(system.o)
 .debug_loc     0x000082a2       0x40 d:/devkitPro/libnds/lib\libnds9.a(touch.o)
 .debug_loc     0x000082e2      0x5b9 d:/devkitPro/libnds/lib\libnds9.a(trig.o)
 .debug_loc     0x0000889b     0x1c39 d:/devkitPro/libnds/lib\libnds9.a(videoGL.o)
 .debug_loc     0x0000a4d4       0x64 d:/devkitPro/libnds/lib\libnds9.a(initSystem.o)
 .debug_loc     0x0000a538     0x1131 d:/devkitPro/libnds/lib\libnds9.a(fifosystem.o)
 .debug_loc     0x0000b669      0x17b d:/devkitPro/libnds/lib\libnds9.a(interrupts.o)
 .debug_loc     0x0000b7e4       0x5c d:/devkitPro/libnds/lib\libnds9.a(libnds_exit.o)
 .debug_loc     0x0000b840      0x211 d:/devkitPro/libnds/lib\libnds9.a(video.o)

.debug_macinfo
 *(.debug_macinfo)

.debug_weaknames
 *(.debug_weaknames)

.debug_funcnames
 *(.debug_funcnames)

.debug_typenames
 *(.debug_typenames)

.debug_varnames
 *(.debug_varnames)

.stack          0x00080000        0x0 load address 0x02053610
                0x00080000                _stack = .
 *(.stack)
LOAD d:/devkitpro/devkitarm/bin/../lib/gcc/arm-eabi/4.5.1/../../../../arm-eabi/lib/ds_arm9_crt0.o
LOAD d:/devkitpro/devkitarm/bin/../lib/gcc/arm-eabi/4.5.1/crti.o
LOAD d:/devkitpro/devkitarm/bin/../lib/gcc/arm-eabi/4.5.1/crtbegin.o
LOAD ball.png.o
LOAD CBall.o
LOAD main.o
LOAD d:/devkitPro/libnds/lib\libul.a
LOAD d:/devkitPro/libnds/lib\libpng.a
LOAD d:/devkitPro/libnds/lib\libz.a
LOAD d:/devkitPro/libnds/lib\libfat.a
LOAD d:/devkitPro/libnds/lib\libnds9.a
LOAD d:/devkitpro/devkitarm/bin/../lib/gcc/arm-eabi/4.5.1/../../../../arm-eabi/lib\libstdc++.a
LOAD d:/devkitpro/devkitarm/bin/../lib/gcc/arm-eabi/4.5.1/../../../../arm-eabi/lib\libm.a
START GROUP
LOAD d:/devkitpro/devkitarm/bin/../lib/gcc/arm-eabi/4.5.1\libgcc.a
LOAD d:/devkitpro/devkitarm/bin/../lib/gcc/arm-eabi/4.5.1/../../../../arm-eabi/lib\libg.a
LOAD d:/devkitpro/devkitarm/bin/../lib/gcc/arm-eabi/4.5.1/../../../../arm-eabi/lib\libc.a
LOAD d:/devkitpro/devkitarm/bin/../lib/gcc/arm-eabi/4.5.1/../../../../arm-eabi/lib\libsysbase.a
END GROUP
LOAD d:/devkitpro/devkitarm/bin/../lib/gcc/arm-eabi/4.5.1/crtend.o
LOAD d:/devkitpro/devkitarm/bin/../lib/gcc/arm-eabi/4.5.1/crtn.o
OUTPUT(d:/devkitPro/uLibrary/Examples/Example06/Example06.elf elf32-littlearm)

.debug_pubtypes
                0x00000000     0x43c7 load address 0x02053610
 .debug_pubtypes
                0x00000000      0x150 CBall.o
 .debug_pubtypes
                0x00000150      0x16b main.o
 .debug_pubtypes
                0x000002bb      0x192 d:/devkitPro/libnds/lib\libul.a(ulib.o)
 .debug_pubtypes
                0x0000044d      0x335 d:/devkitPro/libnds/lib\libul.a(drawing.o)
 .debug_pubtypes
                0x00000782      0x21f d:/devkitPro/libnds/lib\libul.a(text.o)
 .debug_pubtypes
                0x000009a1      0x1ab d:/devkitPro/libnds/lib\libul.a(VirtualFile.o)
 .debug_pubtypes
                0x00000b4c      0x1d0 d:/devkitPro/libnds/lib\libul.a(texVramManager.o)
 .debug_pubtypes
                0x00000d1c      0x19e d:/devkitPro/libnds/lib\libul.a(texPalManager.o)
 .debug_pubtypes
                0x00000eba      0x1c9 d:/devkitPro/libnds/lib\libul.a(keys.o)
 .debug_pubtypes
                0x00001083      0x186 d:/devkitPro/libnds/lib\libul.a(ulDrawImage.o)
 .debug_pubtypes
                0x00001209      0x1b3 d:/devkitPro/libnds/lib\libul.a(ulCreateImagePalette.o)
 .debug_pubtypes
                0x000013bc      0x17d d:/devkitPro/libnds/lib\libul.a(ulDrawGradientRect.o)
 .debug_pubtypes
                0x00001539      0x197 d:/devkitPro/libnds/lib\libul.a(ulLoadImageFilePNG.o)
 .debug_pubtypes
                0x000016d0      0x23b d:/devkitPro/libnds/lib\libul.a(ulShowSplashScreen1.o)
 .debug_pubtypes
                0x0000190b      0x205 d:/devkitPro/libnds/lib\libul.a(ulShowSplashScreen2.o)
 .debug_pubtypes
                0x00001b10      0x19c d:/devkitPro/libnds/lib\libul.a(glWrapper.o)
 .debug_pubtypes
                0x00001cac      0x67d d:/devkitPro/libnds/lib\libul.a(libLoadPng.o)
 .debug_pubtypes
                0x00002329      0x17d d:/devkitPro/libnds/lib\libul.a(ulDrawFillRect.o)
 .debug_pubtypes
                0x000024a6      0x189 d:/devkitPro/libnds/lib\libul.a(ulSetImagePixel.o)
 .debug_pubtypes
                0x0000262f      0x189 d:/devkitPro/libnds/lib\libul.a(ulGetImagePixel.o)
 .debug_pubtypes
                0x000027b8      0x180 d:/devkitPro/libnds/lib\libul.a(textSize.o)
 .debug_pubtypes
                0x00002938      0x197 d:/devkitPro/libnds/lib\libul.a(ulLoadImageFileJPG.o)
 .debug_pubtypes
                0x00002acf      0x197 d:/devkitPro/libnds/lib\libul.a(ulLoadImageFileGIF.o)
 .debug_pubtypes
                0x00002c66      0x2a9 d:/devkitPro/libnds/lib\libul.a(libLoadJpg.o)
 .debug_pubtypes
                0x00002f0f      0x2cb d:/devkitPro/libnds/lib\libul.a(libLoadGif.o)
 .debug_pubtypes
                0x000031da      0x23d d:/devkitPro/libnds/lib\libul.a(dgif_lib.o)
 .debug_pubtypes
                0x00003417       0x12 d:/devkitPro/libnds/lib\libul.a(gif_err.o)
 .debug_pubtypes
                0x00003429       0xfa d:/devkitPro/libnds/lib\libul.a(gifalloc.o)
 .debug_pubtypes
                0x00003523      0x194 d:/devkitPro/libnds/lib\libul.a(ulReadEntireFileToMemory.o)
 .debug_pubtypes
                0x000036b7      0x2a1 d:/devkitPro/libnds/lib\libul.a(gba-jpeg-decode.o)
 .debug_pubtypes
                0x00003958       0x3d d:/devkitPro/libnds/lib\libnds9.a(dynamicArray.o)
 .debug_pubtypes
                0x00003995       0xdd d:/devkitPro/libnds/lib\libnds9.a(keys.o)
 .debug_pubtypes
                0x00003a72      0x109 d:/devkitPro/libnds/lib\libnds9.a(system.o)
 .debug_pubtypes
                0x00003b7b       0xc4 d:/devkitPro/libnds/lib\libnds9.a(touch.o)
 .debug_pubtypes
                0x00003c3f       0x58 d:/devkitPro/libnds/lib\libnds9.a(trig.o)
 .debug_pubtypes
                0x00003c97      0x20c d:/devkitPro/libnds/lib\libnds9.a(videoGL.o)
 .debug_pubtypes
                0x00003ea3      0x1e5 d:/devkitPro/libnds/lib\libnds9.a(initSystem.o)
 .debug_pubtypes
                0x00004088      0x126 d:/devkitPro/libnds/lib\libnds9.a(fifosystem.o)
 .debug_pubtypes
                0x000041ae       0xaa d:/devkitPro/libnds/lib\libnds9.a(interrupts.o)
 .debug_pubtypes
                0x00004258       0x8b d:/devkitPro/libnds/lib\libnds9.a(libnds_exit.o)
 .debug_pubtypes
                0x000042e3       0xe4 d:/devkitPro/libnds/lib\libnds9.a(video.o)

.debug_ranges   0x00000000     0x1b10 load address 0x02053610
 .debug_ranges  0x00000000       0x20 CBall.o
 .debug_ranges  0x00000020       0x58 main.o
 .debug_ranges  0x00000078      0x4d8 d:/devkitPro/libnds/lib\libul.a(drawing.o)
 .debug_ranges  0x00000550       0x40 d:/devkitPro/libnds/lib\libul.a(text.o)
 .debug_ranges  0x00000590      0x100 d:/devkitPro/libnds/lib\libul.a(texVramManager.o)
 .debug_ranges  0x00000690       0x38 d:/devkitPro/libnds/lib\libul.a(texPalManager.o)
 .debug_ranges  0x000006c8       0xf8 d:/devkitPro/libnds/lib\libul.a(ulDrawImage.o)
 .debug_ranges  0x000007c0      0x150 d:/devkitPro/libnds/lib\libul.a(ulShowSplashScreen1.o)
 .debug_ranges  0x00000910       0x90 d:/devkitPro/libnds/lib\libul.a(ulShowSplashScreen2.o)
 .debug_ranges  0x000009a0       0x30 d:/devkitPro/libnds/lib\libul.a(glWrapper.o)
 .debug_ranges  0x000009d0       0x30 d:/devkitPro/libnds/lib\libul.a(libLoadPng.o)
 .debug_ranges  0x00000a00       0x60 d:/devkitPro/libnds/lib\libul.a(libLoadGif.o)
 .debug_ranges  0x00000a60       0x58 d:/devkitPro/libnds/lib\libul.a(dgif_lib.o)
 .debug_ranges  0x00000ab8      0x4b8 d:/devkitPro/libnds/lib\libul.a(gba-jpeg-decode.o)
 .debug_ranges  0x00000f70       0x18 d:/devkitPro/libnds/lib\libnds9.a(touch.o)
 .debug_ranges  0x00000f88       0x80 d:/devkitPro/libnds/lib\libnds9.a(trig.o)
 .debug_ranges  0x00001008      0x730 d:/devkitPro/libnds/lib\libnds9.a(videoGL.o)
 .debug_ranges  0x00001738      0x378 d:/devkitPro/libnds/lib\libnds9.a(fifosystem.o)
 .debug_ranges  0x00001ab0       0x30 d:/devkitPro/libnds/lib\libnds9.a(interrupts.o)
 .debug_ranges  0x00001ae0       0x30 d:/devkitPro/libnds/lib\libnds9.a(video.o)
