Archive member included because of file (symbol)

c:/devkitPro/libnds/lib\libul.a(ulib.o)
                              main.o (ulInit)
c:/devkitPro/libnds/lib\libul.a(drawing.o)
                              main.o (ulInitGfx)
c:/devkitPro/libnds/lib\libul.a(text.o)
                              main.o (ulInitText)
c:/devkitPro/libnds/lib\libul.a(VirtualFile.o)
                              c:/devkitPro/libnds/lib\libul.a(text.o) (VirtualFileSources)
c:/devkitPro/libnds/lib\libul.a(texVramManager.o)
                              c:/devkitPro/libnds/lib\libul.a(ulib.o) (ulTexVramInit)
c:/devkitPro/libnds/lib\libul.a(texPalManager.o)
                              c:/devkitPro/libnds/lib\libul.a(ulib.o) (ulTexPalInit)
c:/devkitPro/libnds/lib\libul.a(keys.o)
                              main.o (ulReadKeys)
c:/devkitPro/libnds/lib\libul.a(ulDrawImage.o)
                              main.o (ulDrawImage)
c:/devkitPro/libnds/lib\libul.a(ulCreateImagePalette.o)
                              c:/devkitPro/libnds/lib\libul.a(drawing.o) (ulCreateImagePalette)
c:/devkitPro/libnds/lib\libul.a(ulDrawGradientRect.o)
                              main.o (ulDrawGradientRect)
c:/devkitPro/libnds/lib\libul.a(ulLoadImageFilePNG.o)
                              main.o (ulLoadImageFilePNG)
c:/devkitPro/libnds/lib\libul.a(ulShowSplashScreen1.o)
                              main.o (ulShowSplashScreen1)
c:/devkitPro/libnds/lib\libul.a(ulShowSplashScreen2.o)
                              main.o (ulShowSplashScreen2)
c:/devkitPro/libnds/lib\libul.a(glWrapper.o)
                              c:/devkitPro/libnds/lib\libul.a(texVramManager.o) (ulChangeVramAllocation)
c:/devkitPro/libnds/lib\libul.a(libLoadPng.o)
                              c:/devkitPro/libnds/lib\libul.a(ulLoadImageFilePNG.o) (ulLoadImagePNG)
c:/devkitPro/libnds/lib\libul.a(ulDrawFillRect.o)
                              c:/devkitPro/libnds/lib\libul.a(ulShowSplashScreen1.o) (ulDrawFillRect)
c:/devkitPro/libnds/lib\libul.a(ulSetImagePixel.o)
                              c:/devkitPro/libnds/lib\libul.a(ulShowSplashScreen1.o) (ulSetImagePixel)
c:/devkitPro/libnds/lib\libul.a(ulGetImagePixel.o)
                              c:/devkitPro/libnds/lib\libul.a(ulShowSplashScreen1.o) (ulGetImagePixel)
c:/devkitPro/libnds/lib\libul.a(textSize.o)
                              c:/devkitPro/libnds/lib\libul.a(ulShowSplashScreen1.o) (ulGetStringWidth)
c:/devkitPro/libnds/lib\libul.a(loading_utility.o)
                              c:/devkitPro/libnds/lib\libul.a(ulLoadImageFilePNG.o) (ul_loadUtilActiveSource)
c:/devkitPro/libnds/lib\libul.a(ulLoadImageFileJPG.o)
                              c:/devkitPro/libnds/lib\libul.a(ulShowSplashScreen2.o) (ulLoadImageFileJPG)
c:/devkitPro/libnds/lib\libul.a(ulLoadImageFileGIF.o)
                              c:/devkitPro/libnds/lib\libul.a(ulShowSplashScreen1.o) (ulLoadImageFileGIF)
c:/devkitPro/libnds/lib\libul.a(libLoadJpg.o)
                              c:/devkitPro/libnds/lib\libul.a(ulLoadImageFileJPG.o) (ulLoadImageJPG)
c:/devkitPro/libnds/lib\libul.a(libLoadGif.o)
                              c:/devkitPro/libnds/lib\libul.a(ulLoadImageFileGIF.o) (ulLoadImageGIF)
c:/devkitPro/libnds/lib\libul.a(dgif_lib.o)
                              c:/devkitPro/libnds/lib\libul.a(libLoadGif.o) (DGifOpen)
c:/devkitPro/libnds/lib\libul.a(gif_err.o)
                              c:/devkitPro/libnds/lib\libul.a(dgif_lib.o) (_GifError)
c:/devkitPro/libnds/lib\libul.a(gifalloc.o)
                              c:/devkitPro/libnds/lib\libul.a(dgif_lib.o) (MakeMapObject)
c:/devkitPro/libnds/lib\libul.a(ulReadEntireFileToMemory.o)
                              c:/devkitPro/libnds/lib\libul.a(libLoadJpg.o) (ulReadEntireFileToMemory)
c:/devkitPro/libnds/lib\libul.a(gba-jpeg-decode.o)
                              c:/devkitPro/libnds/lib\libul.a(libLoadJpg.o) (JPEG_Decoder_ReadImage)
c:/devkitPro/libnds/lib\libpng.a(png.o)
                              c:/devkitPro/libnds/lib\libul.a(libLoadPng.o) (png_get_io_ptr)
c:/devkitPro/libnds/lib\libpng.a(pngread.o)
                              c:/devkitPro/libnds/lib\libul.a(libLoadPng.o) (png_destroy_read_struct)
c:/devkitPro/libnds/lib\libpng.a(pngrio.o)
                              c:/devkitPro/libnds/lib\libul.a(libLoadPng.o) (png_set_read_fn)
c:/devkitPro/libnds/lib\libpng.a(pngrtran.o)
                              c:/devkitPro/libnds/lib\libpng.a(pngread.o) (png_set_strip_16)
c:/devkitPro/libnds/lib\libpng.a(pngmem.o)
                              c:/devkitPro/libnds/lib\libpng.a(pngread.o) (png_set_mem_fn)
c:/devkitPro/libnds/lib\libpng.a(pngerror.o)
                              c:/devkitPro/libnds/lib\libpng.a(pngread.o) (png_set_error_fn)
c:/devkitPro/libnds/lib\libpng.a(pngget.o)
                              c:/devkitPro/libnds/lib\libpng.a(pngread.o) (png_get_valid)
c:/devkitPro/libnds/lib\libpng.a(pngrutil.o)
                              c:/devkitPro/libnds/lib\libpng.a(pngread.o) (png_read_filter_row)
c:/devkitPro/libnds/lib\libpng.a(pngtrans.o)
                              c:/devkitPro/libnds/lib\libpng.a(pngread.o) (png_set_bgr)
c:/devkitPro/libnds/lib\libpng.a(pngset.o)
                              c:/devkitPro/libnds/lib\libpng.a(pngrutil.o) (png_set_cHRM)
c:/devkitPro/libnds/lib\libz.a(crc32.o)
                              c:/devkitPro/libnds/lib\libpng.a(png.o) (crc32)
c:/devkitPro/libnds/lib\libz.a(inflate.o)
                              c:/devkitPro/libnds/lib\libpng.a(png.o) (inflateReset)
c:/devkitPro/libnds/lib\libz.a(inftrees.o)
                              c:/devkitPro/libnds/lib\libz.a(inflate.o) (inflate_table)
c:/devkitPro/libnds/lib\libz.a(inffast.o)
                              c:/devkitPro/libnds/lib\libz.a(inflate.o) (inflate_fast)
c:/devkitPro/libnds/lib\libz.a(adler32.o)
                              c:/devkitPro/libnds/lib\libz.a(inflate.o) (adler32)
c:/devkitPro/libnds/lib\libz.a(zutil.o)
                              c:/devkitPro/libnds/lib\libz.a(inflate.o) (zcfree)
c:/devkitPro/libnds/lib\libnds9.a(dynamicArray.o)
                              c:/devkitPro/libnds/lib\libul.a(texVramManager.o) (DynamicArraySet)
c:/devkitPro/libnds/lib\libnds9.a(keys.o)
                              c:/devkitPro/libnds/lib\libul.a(keys.o) (keysCurrent)
c:/devkitPro/libnds/lib\libnds9.a(system.o)
                              c:/devkitPro/libnds/lib\libul.a(ulib.o) (powerOn)
c:/devkitPro/libnds/lib\libnds9.a(touch.o)
                              c:/devkitPro/libnds/lib\libul.a(keys.o) (touchRead)
c:/devkitPro/libnds/lib\libnds9.a(trig.o)
                              c:/devkitPro/libnds/lib\libul.a(ulDrawImage.o) (sinLerp)
c:/devkitPro/libnds/lib\libnds9.a(videoGL.o)
                              c:/devkitPro/libnds/lib\libul.a(texVramManager.o) (glGlobalData)
c:/devkitPro/libnds/lib\libnds9.a(initSystem.o)
                              c:/devkitpro/devkitarm/bin/../lib/gcc/arm-eabi/4.5.1/../../../../arm-eabi/lib/ds_arm9_crt0.o (initSystem)
c:/devkitPro/libnds/lib\libnds9.a(fifosystem.o)
                              c:/devkitPro/libnds/lib\libnds9.a(system.o) (fifoSendValue32)
c:/devkitPro/libnds/lib\libnds9.a(interrupts.o)
                              c:/devkitPro/libnds/lib\libnds9.a(fifosystem.o) (irqSet)
c:/devkitPro/libnds/lib\libnds9.a(libnds_exit.o)
                              c:/devkitpro/devkitarm/bin/../lib/gcc/arm-eabi/4.5.1/../../../../arm-eabi/lib/ds_arm9_crt0.o (__libnds_exit)
c:/devkitPro/libnds/lib\libnds9.a(mpu_setup.o)
                              c:/devkitpro/devkitarm/bin/../lib/gcc/arm-eabi/4.5.1/../../../../arm-eabi/lib/ds_arm9_crt0.o (__libnds_mpu_setup)
c:/devkitPro/libnds/lib\libnds9.a(biosCalls.o)
                              c:/devkitPro/libnds/lib\libnds9.a(system.o) (swiDelay)
c:/devkitPro/libnds/lib\libnds9.a(interruptDispatcher.o)
                              c:/devkitPro/libnds/lib\libnds9.a(interrupts.o) (IntrMain)
c:/devkitPro/libnds/lib\libnds9.a(swiSoftReset.o)
                              c:/devkitPro/libnds/lib\libnds9.a(fifosystem.o) (swiSoftReset)
c:/devkitPro/libnds/lib\libnds9.a(video.o)
                              c:/devkitPro/libnds/lib\libnds9.a(videoGL.o) (vramSetPrimaryBanks)
c:/devkitpro/devkitarm/bin/../lib/gcc/arm-eabi/4.5.1/../../../../arm-eabi/lib\libm.a(lib_a-s_cos.o)
                              c:/devkitPro/libnds/lib\libul.a(ulib.o) (cos)
c:/devkitpro/devkitarm/bin/../lib/gcc/arm-eabi/4.5.1/../../../../arm-eabi/lib\libm.a(lib_a-s_sin.o)
                              c:/devkitPro/libnds/lib\libul.a(ulib.o) (sin)
c:/devkitpro/devkitarm/bin/../lib/gcc/arm-eabi/4.5.1/../../../../arm-eabi/lib\libm.a(lib_a-w_pow.o)
                              c:/devkitPro/libnds/lib\libpng.a(pngrtran.o) (pow)
c:/devkitpro/devkitarm/bin/../lib/gcc/arm-eabi/4.5.1/../../../../arm-eabi/lib\libm.a(lib_a-e_pow.o)
                              c:/devkitpro/devkitarm/bin/../lib/gcc/arm-eabi/4.5.1/../../../../arm-eabi/lib\libm.a(lib_a-w_pow.o) (__ieee754_pow)
c:/devkitpro/devkitarm/bin/../lib/gcc/arm-eabi/4.5.1/../../../../arm-eabi/lib\libm.a(lib_a-e_rem_pio2.o)
                              c:/devkitpro/devkitarm/bin/../lib/gcc/arm-eabi/4.5.1/../../../../arm-eabi/lib\libm.a(lib_a-s_cos.o) (__ieee754_rem_pio2)
c:/devkitpro/devkitarm/bin/../lib/gcc/arm-eabi/4.5.1/../../../../arm-eabi/lib\libm.a(lib_a-e_sqrt.o)
                              c:/devkitpro/devkitarm/bin/../lib/gcc/arm-eabi/4.5.1/../../../../arm-eabi/lib\libm.a(lib_a-e_pow.o) (__ieee754_sqrt)
c:/devkitpro/devkitarm/bin/../lib/gcc/arm-eabi/4.5.1/../../../../arm-eabi/lib\libm.a(lib_a-k_cos.o)
                              c:/devkitpro/devkitarm/bin/../lib/gcc/arm-eabi/4.5.1/../../../../arm-eabi/lib\libm.a(lib_a-s_cos.o) (__kernel_cos)
c:/devkitpro/devkitarm/bin/../lib/gcc/arm-eabi/4.5.1/../../../../arm-eabi/lib\libm.a(lib_a-k_rem_pio2.o)
                              c:/devkitpro/devkitarm/bin/../lib/gcc/arm-eabi/4.5.1/../../../../arm-eabi/lib\libm.a(lib_a-e_rem_pio2.o) (__kernel_rem_pio2)
c:/devkitpro/devkitarm/bin/../lib/gcc/arm-eabi/4.5.1/../../../../arm-eabi/lib\libm.a(lib_a-k_sin.o)
                              c:/devkitpro/devkitarm/bin/../lib/gcc/arm-eabi/4.5.1/../../../../arm-eabi/lib\libm.a(lib_a-s_cos.o) (__kernel_sin)
c:/devkitpro/devkitarm/bin/../lib/gcc/arm-eabi/4.5.1/../../../../arm-eabi/lib\libm.a(lib_a-s_fabs.o)
                              c:/devkitpro/devkitarm/bin/../lib/gcc/arm-eabi/4.5.1/../../../../arm-eabi/lib\libm.a(lib_a-e_pow.o) (fabs)
c:/devkitpro/devkitarm/bin/../lib/gcc/arm-eabi/4.5.1/../../../../arm-eabi/lib\libm.a(lib_a-s_finite.o)
                              c:/devkitpro/devkitarm/bin/../lib/gcc/arm-eabi/4.5.1/../../../../arm-eabi/lib\libm.a(lib_a-w_pow.o) (finite)
c:/devkitpro/devkitarm/bin/../lib/gcc/arm-eabi/4.5.1/../../../../arm-eabi/lib\libm.a(lib_a-s_floor.o)
                              c:/devkitpro/devkitarm/bin/../lib/gcc/arm-eabi/4.5.1/../../../../arm-eabi/lib\libm.a(lib_a-k_rem_pio2.o) (floor)
c:/devkitpro/devkitarm/bin/../lib/gcc/arm-eabi/4.5.1/../../../../arm-eabi/lib\libm.a(lib_a-s_fpclassify.o)
                              c:/devkitpro/devkitarm/bin/../lib/gcc/arm-eabi/4.5.1/../../../../arm-eabi/lib\libm.a(lib_a-w_pow.o) (__fpclassifyd)
c:/devkitpro/devkitarm/bin/../lib/gcc/arm-eabi/4.5.1/../../../../arm-eabi/lib\libm.a(lib_a-s_lib_ver.o)
                              c:/devkitpro/devkitarm/bin/../lib/gcc/arm-eabi/4.5.1/../../../../arm-eabi/lib\libm.a(lib_a-w_pow.o) (__fdlib_version)
c:/devkitpro/devkitarm/bin/../lib/gcc/arm-eabi/4.5.1/../../../../arm-eabi/lib\libm.a(lib_a-s_matherr.o)
                              c:/devkitpro/devkitarm/bin/../lib/gcc/arm-eabi/4.5.1/../../../../arm-eabi/lib\libm.a(lib_a-w_pow.o) (matherr)
c:/devkitpro/devkitarm/bin/../lib/gcc/arm-eabi/4.5.1/../../../../arm-eabi/lib\libm.a(lib_a-s_nan.o)
                              c:/devkitpro/devkitarm/bin/../lib/gcc/arm-eabi/4.5.1/../../../../arm-eabi/lib\libm.a(lib_a-e_pow.o) (nan)
c:/devkitpro/devkitarm/bin/../lib/gcc/arm-eabi/4.5.1/../../../../arm-eabi/lib\libm.a(lib_a-s_rint.o)
                              c:/devkitpro/devkitarm/bin/../lib/gcc/arm-eabi/4.5.1/../../../../arm-eabi/lib\libm.a(lib_a-w_pow.o) (rint)
c:/devkitpro/devkitarm/bin/../lib/gcc/arm-eabi/4.5.1/../../../../arm-eabi/lib\libm.a(lib_a-s_scalbn.o)
                              c:/devkitpro/devkitarm/bin/../lib/gcc/arm-eabi/4.5.1/../../../../arm-eabi/lib\libm.a(lib_a-e_pow.o) (scalbn)
c:/devkitpro/devkitarm/bin/../lib/gcc/arm-eabi/4.5.1/../../../../arm-eabi/lib\libm.a(lib_a-s_copysign.o)
                              c:/devkitpro/devkitarm/bin/../lib/gcc/arm-eabi/4.5.1/../../../../arm-eabi/lib\libm.a(lib_a-s_scalbn.o) (copysign)
c:/devkitpro/devkitarm/bin/../lib/gcc/arm-eabi/4.5.1\libgcc.a(_udivsi3.o)
                              c:/devkitPro/libnds/lib\libul.a(libLoadPng.o) (__aeabi_uidiv)
c:/devkitpro/devkitarm/bin/../lib/gcc/arm-eabi/4.5.1\libgcc.a(_divsi3.o)
                              c:/devkitPro/libnds/lib\libul.a(ulDrawImage.o) (__aeabi_idiv)
c:/devkitpro/devkitarm/bin/../lib/gcc/arm-eabi/4.5.1\libgcc.a(_dvmd_tls.o)
                              c:/devkitpro/devkitarm/bin/../lib/gcc/arm-eabi/4.5.1\libgcc.a(_udivsi3.o) (__aeabi_idiv0)
c:/devkitpro/devkitarm/bin/../lib/gcc/arm-eabi/4.5.1\libgcc.a(_arm_addsubdf3.o)
                              c:/devkitPro/libnds/lib\libpng.a(pngrtran.o) (__aeabi_dsub)
c:/devkitpro/devkitarm/bin/../lib/gcc/arm-eabi/4.5.1\libgcc.a(_arm_muldivdf3.o)
                              c:/devkitPro/libnds/lib\libul.a(ulib.o) (__aeabi_dmul)
c:/devkitpro/devkitarm/bin/../lib/gcc/arm-eabi/4.5.1\libgcc.a(_arm_cmpdf2.o)
                              c:/devkitpro/devkitarm/bin/../lib/gcc/arm-eabi/4.5.1/../../../../arm-eabi/lib\libm.a(lib_a-w_pow.o) (__aeabi_dcmpeq)
c:/devkitpro/devkitarm/bin/../lib/gcc/arm-eabi/4.5.1\libgcc.a(_arm_fixdfsi.o)
                              c:/devkitPro/libnds/lib\libul.a(ulib.o) (__aeabi_d2iz)
c:/devkitpro/devkitarm/bin/../lib/gcc/arm-eabi/4.5.1\libgcc.a(_arm_fixunsdfsi.o)
                              c:/devkitPro/libnds/lib\libpng.a(pngrtran.o) (__aeabi_d2uiz)
c:/devkitpro/devkitarm/bin/../lib/gcc/arm-eabi/4.5.1\libgcc.a(_arm_truncdfsf2.o)
                              c:/devkitPro/libnds/lib\libpng.a(pngrtran.o) (__aeabi_d2f)
c:/devkitpro/devkitarm/bin/../lib/gcc/arm-eabi/4.5.1\libgcc.a(_arm_addsubsf3.o)
                              c:/devkitPro/libnds/lib\libul.a(ulShowSplashScreen2.o) (__aeabi_fsub)
c:/devkitpro/devkitarm/bin/../lib/gcc/arm-eabi/4.5.1\libgcc.a(_arm_muldivsf3.o)
                              c:/devkitPro/libnds/lib\libul.a(ulib.o) (__aeabi_fmul)
c:/devkitpro/devkitarm/bin/../lib/gcc/arm-eabi/4.5.1\libgcc.a(_arm_cmpsf2.o)
                              c:/devkitPro/libnds/lib\libpng.a(pngrtran.o) (__aeabi_fcmpeq)
c:/devkitpro/devkitarm/bin/../lib/gcc/arm-eabi/4.5.1\libgcc.a(_arm_fixsfsi.o)
                              c:/devkitPro/libnds/lib\libul.a(ulShowSplashScreen2.o) (__aeabi_f2iz)
c:/devkitpro/devkitarm/bin/../lib/gcc/arm-eabi/4.5.1\libgcc.a(_arm_fixunssfsi.o)
                              c:/devkitPro/libnds/lib\libul.a(ulShowSplashScreen2.o) (__aeabi_f2uiz)
c:/devkitpro/devkitarm/bin/../lib/gcc/arm-eabi/4.5.1\libgcc.a(_muldi3.o)
                              c:/devkitPro/libnds/lib\libnds9.a(videoGL.o) (__aeabi_lmul)
c:/devkitpro/devkitarm/bin/../lib/gcc/arm-eabi/4.5.1/../../../../arm-eabi/lib\libg.a(lib_a-abort.o)
                              c:/devkitPro/libnds/lib\libpng.a(pngread.o) (abort)
c:/devkitpro/devkitarm/bin/../lib/gcc/arm-eabi/4.5.1/../../../../arm-eabi/lib\libg.a(lib_a-bsearch.o)
                              c:/devkitPro/libnds/lib\libnds9.a(trig.o) (bsearch)
c:/devkitpro/devkitarm/bin/../lib/gcc/arm-eabi/4.5.1/../../../../arm-eabi/lib\libg.a(lib_a-calloc.o)
                              c:/devkitPro/libnds/lib\libul.a(gifalloc.o) (calloc)
c:/devkitpro/devkitarm/bin/../lib/gcc/arm-eabi/4.5.1/../../../../arm-eabi/lib\libg.a(lib_a-callocr.o)
                              c:/devkitpro/devkitarm/bin/../lib/gcc/arm-eabi/4.5.1/../../../../arm-eabi/lib\libg.a(lib_a-calloc.o) (_calloc_r)
c:/devkitpro/devkitarm/bin/../lib/gcc/arm-eabi/4.5.1/../../../../arm-eabi/lib\libg.a(lib_a-errno.o)
                              c:/devkitpro/devkitarm/bin/../lib/gcc/arm-eabi/4.5.1/../../../../arm-eabi/lib\libm.a(lib_a-w_pow.o) (__errno)
c:/devkitpro/devkitarm/bin/../lib/gcc/arm-eabi/4.5.1/../../../../arm-eabi/lib\libg.a(lib_a-fclose.o)
                              c:/devkitPro/libnds/lib\libul.a(dgif_lib.o) (fclose)
c:/devkitpro/devkitarm/bin/../lib/gcc/arm-eabi/4.5.1/../../../../arm-eabi/lib\libg.a(lib_a-fflush.o)
                              c:/devkitpro/devkitarm/bin/../lib/gcc/arm-eabi/4.5.1/../../../../arm-eabi/lib\libg.a(lib_a-fclose.o) (_fflush_r)
c:/devkitpro/devkitarm/bin/../lib/gcc/arm-eabi/4.5.1/../../../../arm-eabi/lib\libg.a(lib_a-findfp.o)
                              c:/devkitpro/devkitarm/bin/../lib/gcc/arm-eabi/4.5.1/../../../../arm-eabi/lib\libg.a(lib_a-fclose.o) (__sinit)
c:/devkitpro/devkitarm/bin/../lib/gcc/arm-eabi/4.5.1/../../../../arm-eabi/lib\libg.a(lib_a-fprintf.o)
                              c:/devkitPro/libnds/lib\libpng.a(pngerror.o) (fprintf)
c:/devkitpro/devkitarm/bin/../lib/gcc/arm-eabi/4.5.1/../../../../arm-eabi/lib\libg.a(lib_a-fread.o)
                              c:/devkitPro/libnds/lib\libul.a(dgif_lib.o) (fread)
c:/devkitpro/devkitarm/bin/../lib/gcc/arm-eabi/4.5.1/../../../../arm-eabi/lib\libg.a(lib_a-freer.o)
                              c:/devkitpro/devkitarm/bin/../lib/gcc/arm-eabi/4.5.1/../../../../arm-eabi/lib\libg.a(lib_a-fclose.o) (_free_r)
c:/devkitpro/devkitarm/bin/../lib/gcc/arm-eabi/4.5.1/../../../../arm-eabi/lib\libg.a(lib_a-fwalk.o)
                              c:/devkitpro/devkitarm/bin/../lib/gcc/arm-eabi/4.5.1/../../../../arm-eabi/lib\libg.a(lib_a-findfp.o) (_fwalk)
c:/devkitpro/devkitarm/bin/../lib/gcc/arm-eabi/4.5.1/../../../../arm-eabi/lib\libg.a(lib_a-impure.o)
                              c:/devkitPro/libnds/lib\libpng.a(pngerror.o) (_impure_ptr)
c:/devkitpro/devkitarm/bin/../lib/gcc/arm-eabi/4.5.1/../../../../arm-eabi/lib\libg.a(lib_a-init.o)
                              c:/devkitpro/devkitarm/bin/../lib/gcc/arm-eabi/4.5.1/../../../../arm-eabi/lib/ds_arm9_crt0.o (__libc_init_array)
c:/devkitpro/devkitarm/bin/../lib/gcc/arm-eabi/4.5.1/../../../../arm-eabi/lib\libg.a(lib_a-malloc.o)
                              c:/devkitPro/libnds/lib\libul.a(drawing.o) (malloc)
c:/devkitpro/devkitarm/bin/../lib/gcc/arm-eabi/4.5.1/../../../../arm-eabi/lib\libg.a(lib_a-mallocr.o)
                              c:/devkitpro/devkitarm/bin/../lib/gcc/arm-eabi/4.5.1/../../../../arm-eabi/lib\libg.a(lib_a-callocr.o) (_malloc_r)
c:/devkitpro/devkitarm/bin/../lib/gcc/arm-eabi/4.5.1/../../../../arm-eabi/lib\libg.a(lib_a-memcmp.o)
                              c:/devkitPro/libnds/lib\libul.a(gifalloc.o) (memcmp)
c:/devkitpro/devkitarm/bin/../lib/gcc/arm-eabi/4.5.1/../../../../arm-eabi/lib\libg.a(lib_a-memcpy.o)
                              c:/devkitPro/libnds/lib\libul.a(VirtualFile.o) (memcpy)
c:/devkitpro/devkitarm/bin/../lib/gcc/arm-eabi/4.5.1/../../../../arm-eabi/lib\libg.a(lib_a-memmove.o)
                              c:/devkitPro/libnds/lib\libul.a(texVramManager.o) (memmove)
c:/devkitpro/devkitarm/bin/../lib/gcc/arm-eabi/4.5.1/../../../../arm-eabi/lib\libg.a(lib_a-memset.o)
                              c:/devkitPro/libnds/lib\libul.a(drawing.o) (memset)
c:/devkitpro/devkitarm/bin/../lib/gcc/arm-eabi/4.5.1/../../../../arm-eabi/lib\libg.a(lib_a-mlock.o)
                              c:/devkitpro/devkitarm/bin/../lib/gcc/arm-eabi/4.5.1/../../../../arm-eabi/lib\libg.a(lib_a-freer.o) (__malloc_lock)
c:/devkitpro/devkitarm/bin/../lib/gcc/arm-eabi/4.5.1/../../../../arm-eabi/lib\libg.a(lib_a-rand.o)
                              c:/devkitPro/libnds/lib\libul.a(ulShowSplashScreen2.o) (rand)
c:/devkitpro/devkitarm/bin/../lib/gcc/arm-eabi/4.5.1/../../../../arm-eabi/lib\libg.a(lib_a-realloc.o)
                              c:/devkitPro/libnds/lib\libul.a(texVramManager.o) (realloc)
c:/devkitpro/devkitarm/bin/../lib/gcc/arm-eabi/4.5.1/../../../../arm-eabi/lib\libg.a(lib_a-reallocr.o)
                              c:/devkitpro/devkitarm/bin/../lib/gcc/arm-eabi/4.5.1/../../../../arm-eabi/lib\libg.a(lib_a-realloc.o) (_realloc_r)
c:/devkitpro/devkitarm/bin/../lib/gcc/arm-eabi/4.5.1/../../../../arm-eabi/lib\libg.a(lib_a-refill.o)
                              c:/devkitpro/devkitarm/bin/../lib/gcc/arm-eabi/4.5.1/../../../../arm-eabi/lib\libg.a(lib_a-fread.o) (__srefill_r)
c:/devkitpro/devkitarm/bin/../lib/gcc/arm-eabi/4.5.1/../../../../arm-eabi/lib\libg.a(lib_a-setjmp.o)
                              c:/devkitPro/libnds/lib\libul.a(libLoadPng.o) (setjmp)
c:/devkitpro/devkitarm/bin/../lib/gcc/arm-eabi/4.5.1/../../../../arm-eabi/lib\libg.a(lib_a-signal.o)
                              c:/devkitpro/devkitarm/bin/../lib/gcc/arm-eabi/4.5.1/../../../../arm-eabi/lib\libg.a(lib_a-abort.o) (raise)
c:/devkitpro/devkitarm/bin/../lib/gcc/arm-eabi/4.5.1/../../../../arm-eabi/lib\libg.a(lib_a-snprintf.o)
                              c:/devkitPro/libnds/lib\libpng.a(png.o) (snprintf)
c:/devkitpro/devkitarm/bin/../lib/gcc/arm-eabi/4.5.1/../../../../arm-eabi/lib\libg.a(lib_a-stdio.o)
                              c:/devkitpro/devkitarm/bin/../lib/gcc/arm-eabi/4.5.1/../../../../arm-eabi/lib\libg.a(lib_a-findfp.o) (__sread)
c:/devkitpro/devkitarm/bin/../lib/gcc/arm-eabi/4.5.1/../../../../arm-eabi/lib\libg.a(lib_a-strcmp.o)
                              c:/devkitPro/libnds/lib\libul.a(text.o) (strcmp)
c:/devkitpro/devkitarm/bin/../lib/gcc/arm-eabi/4.5.1/../../../../arm-eabi/lib\libg.a(lib_a-strlen.o)
                              c:/devkitPro/libnds/lib\libul.a(VirtualFile.o) (strlen)
c:/devkitpro/devkitarm/bin/../lib/gcc/arm-eabi/4.5.1/../../../../arm-eabi/lib\libg.a(lib_a-strtod.o)
                              c:/devkitPro/libnds/lib\libpng.a(pngrutil.o) (strtod)
c:/devkitpro/devkitarm/bin/../lib/gcc/arm-eabi/4.5.1/../../../../arm-eabi/lib\libg.a(lib_a-svfprintf.o)
                              c:/devkitpro/devkitarm/bin/../lib/gcc/arm-eabi/4.5.1/../../../../arm-eabi/lib\libg.a(lib_a-snprintf.o) (_svfprintf_r)
c:/devkitpro/devkitarm/bin/../lib/gcc/arm-eabi/4.5.1/../../../../arm-eabi/lib\libg.a(lib_a-vfprintf.o)
                              c:/devkitpro/devkitarm/bin/../lib/gcc/arm-eabi/4.5.1/../../../../arm-eabi/lib\libg.a(lib_a-fprintf.o) (_vfprintf_r)
c:/devkitpro/devkitarm/bin/../lib/gcc/arm-eabi/4.5.1/../../../../arm-eabi/lib\libg.a(lib_a-wcrtomb.o)
                              c:/devkitpro/devkitarm/bin/../lib/gcc/arm-eabi/4.5.1/../../../../arm-eabi/lib\libg.a(lib_a-svfprintf.o) (_wcrtomb_r)
c:/devkitpro/devkitarm/bin/../lib/gcc/arm-eabi/4.5.1/../../../../arm-eabi/lib\libg.a(lib_a-wcsrtombs.o)
                              c:/devkitpro/devkitarm/bin/../lib/gcc/arm-eabi/4.5.1/../../../../arm-eabi/lib\libg.a(lib_a-svfprintf.o) (_wcsrtombs_r)
c:/devkitpro/devkitarm/bin/../lib/gcc/arm-eabi/4.5.1/../../../../arm-eabi/lib\libg.a(lib_a-wctomb_r.o)
                              c:/devkitpro/devkitarm/bin/../lib/gcc/arm-eabi/4.5.1/../../../../arm-eabi/lib\libg.a(lib_a-wcrtomb.o) (__wctomb)
c:/devkitpro/devkitarm/bin/../lib/gcc/arm-eabi/4.5.1/../../../../arm-eabi/lib\libg.a(lib_a-wsetup.o)
                              c:/devkitpro/devkitarm/bin/../lib/gcc/arm-eabi/4.5.1/../../../../arm-eabi/lib\libg.a(lib_a-vfprintf.o) (__swsetup_r)
c:/devkitpro/devkitarm/bin/../lib/gcc/arm-eabi/4.5.1/../../../../arm-eabi/lib\libg.a(lib_a-dtoa.o)
                              c:/devkitpro/devkitarm/bin/../lib/gcc/arm-eabi/4.5.1/../../../../arm-eabi/lib\libg.a(lib_a-svfprintf.o) (_dtoa_r)
c:/devkitpro/devkitarm/bin/../lib/gcc/arm-eabi/4.5.1/../../../../arm-eabi/lib\libg.a(lib_a-gdtoa-gethex.o)
                              c:/devkitpro/devkitarm/bin/../lib/gcc/arm-eabi/4.5.1/../../../../arm-eabi/lib\libg.a(lib_a-strtod.o) (__gethex)
c:/devkitpro/devkitarm/bin/../lib/gcc/arm-eabi/4.5.1/../../../../arm-eabi/lib\libg.a(lib_a-gdtoa-hexnan.o)
                              c:/devkitpro/devkitarm/bin/../lib/gcc/arm-eabi/4.5.1/../../../../arm-eabi/lib\libg.a(lib_a-strtod.o) (__hexnan)
c:/devkitpro/devkitarm/bin/../lib/gcc/arm-eabi/4.5.1/../../../../arm-eabi/lib\libg.a(lib_a-locale.o)
                              c:/devkitpro/devkitarm/bin/../lib/gcc/arm-eabi/4.5.1/../../../../arm-eabi/lib\libg.a(lib_a-svfprintf.o) (__locale_charset)
c:/devkitpro/devkitarm/bin/../lib/gcc/arm-eabi/4.5.1/../../../../arm-eabi/lib\libg.a(lib_a-makebuf.o)
                              c:/devkitpro/devkitarm/bin/../lib/gcc/arm-eabi/4.5.1/../../../../arm-eabi/lib\libg.a(lib_a-refill.o) (__smakebuf_r)
c:/devkitpro/devkitarm/bin/../lib/gcc/arm-eabi/4.5.1/../../../../arm-eabi/lib\libg.a(lib_a-mbtowc_r.o)
                              c:/devkitpro/devkitarm/bin/../lib/gcc/arm-eabi/4.5.1/../../../../arm-eabi/lib\libg.a(lib_a-locale.o) (__utf8_mbtowc)
c:/devkitpro/devkitarm/bin/../lib/gcc/arm-eabi/4.5.1/../../../../arm-eabi/lib\libg.a(lib_a-memchr.o)
                              c:/devkitpro/devkitarm/bin/../lib/gcc/arm-eabi/4.5.1/../../../../arm-eabi/lib\libg.a(lib_a-svfprintf.o) (memchr)
c:/devkitpro/devkitarm/bin/../lib/gcc/arm-eabi/4.5.1/../../../../arm-eabi/lib\libg.a(lib_a-mprec.o)
                              c:/devkitpro/devkitarm/bin/../lib/gcc/arm-eabi/4.5.1/../../../../arm-eabi/lib\libg.a(lib_a-strtod.o) (_Balloc)
c:/devkitpro/devkitarm/bin/../lib/gcc/arm-eabi/4.5.1/../../../../arm-eabi/lib\libg.a(lib_a-sf_nan.o)
                              c:/devkitpro/devkitarm/bin/../lib/gcc/arm-eabi/4.5.1/../../../../arm-eabi/lib\libg.a(lib_a-strtod.o) (nanf)
c:/devkitpro/devkitarm/bin/../lib/gcc/arm-eabi/4.5.1/../../../../arm-eabi/lib\libg.a(lib_a-strcasecmp.o)
                              c:/devkitpro/devkitarm/bin/../lib/gcc/arm-eabi/4.5.1/../../../../arm-eabi/lib\libg.a(lib_a-locale.o) (strcasecmp)
c:/devkitpro/devkitarm/bin/../lib/gcc/arm-eabi/4.5.1/../../../../arm-eabi/lib\libg.a(lib_a-strcat.o)
                              c:/devkitpro/devkitarm/bin/../lib/gcc/arm-eabi/4.5.1/../../../../arm-eabi/lib\libg.a(lib_a-locale.o) (strcat)
c:/devkitpro/devkitarm/bin/../lib/gcc/arm-eabi/4.5.1/../../../../arm-eabi/lib\libg.a(lib_a-strchr.o)
                              c:/devkitpro/devkitarm/bin/../lib/gcc/arm-eabi/4.5.1/../../../../arm-eabi/lib\libg.a(lib_a-locale.o) (strchr)
c:/devkitpro/devkitarm/bin/../lib/gcc/arm-eabi/4.5.1/../../../../arm-eabi/lib\libg.a(lib_a-strcpy.o)
                              c:/devkitpro/devkitarm/bin/../lib/gcc/arm-eabi/4.5.1/../../../../arm-eabi/lib\libg.a(lib_a-locale.o) (strcpy)
c:/devkitpro/devkitarm/bin/../lib/gcc/arm-eabi/4.5.1/../../../../arm-eabi/lib\libg.a(lib_a-strlcpy.o)
                              c:/devkitpro/devkitarm/bin/../lib/gcc/arm-eabi/4.5.1/../../../../arm-eabi/lib\libg.a(lib_a-locale.o) (strlcpy)
c:/devkitpro/devkitarm/bin/../lib/gcc/arm-eabi/4.5.1/../../../../arm-eabi/lib\libg.a(lib_a-strncasecmp.o)
                              c:/devkitpro/devkitarm/bin/../lib/gcc/arm-eabi/4.5.1/../../../../arm-eabi/lib\libg.a(lib_a-locale.o) (strncasecmp)
c:/devkitpro/devkitarm/bin/../lib/gcc/arm-eabi/4.5.1/../../../../arm-eabi/lib\libg.a(lib_a-strncmp.o)
                              c:/devkitpro/devkitarm/bin/../lib/gcc/arm-eabi/4.5.1/../../../../arm-eabi/lib\libg.a(lib_a-strtod.o) (strncmp)
c:/devkitpro/devkitarm/bin/../lib/gcc/arm-eabi/4.5.1/../../../../arm-eabi/lib\libg.a(lib_a-strncpy.o)
                              c:/devkitpro/devkitarm/bin/../lib/gcc/arm-eabi/4.5.1/../../../../arm-eabi/lib\libg.a(lib_a-locale.o) (strncpy)
c:/devkitpro/devkitarm/bin/../lib/gcc/arm-eabi/4.5.1/../../../../arm-eabi/lib\libg.a(lib_a-strtol.o)
                              c:/devkitpro/devkitarm/bin/../lib/gcc/arm-eabi/4.5.1/../../../../arm-eabi/lib\libg.a(lib_a-locale.o) (_strtol_r)
c:/devkitpro/devkitarm/bin/../lib/gcc/arm-eabi/4.5.1/../../../../arm-eabi/lib\libg.a(lib_a-svfiprintf.o)
                              c:/devkitpro/devkitarm/bin/../lib/gcc/arm-eabi/4.5.1/../../../../arm-eabi/lib\libg.a(lib_a-svfprintf.o) (__ssprint_r)
c:/devkitpro/devkitarm/bin/../lib/gcc/arm-eabi/4.5.1/../../../../arm-eabi/lib\libg.a(lib_a-vfiprintf.o)
                              c:/devkitpro/devkitarm/bin/../lib/gcc/arm-eabi/4.5.1/../../../../arm-eabi/lib\libg.a(lib_a-vfprintf.o) (__sprint_r)
c:/devkitpro/devkitarm/bin/../lib/gcc/arm-eabi/4.5.1/../../../../arm-eabi/lib\libg.a(lib_a-wcsnrtombs.o)
                              c:/devkitpro/devkitarm/bin/../lib/gcc/arm-eabi/4.5.1/../../../../arm-eabi/lib\libg.a(lib_a-wcsrtombs.o) (_wcsnrtombs_r)
c:/devkitpro/devkitarm/bin/../lib/gcc/arm-eabi/4.5.1/../../../../arm-eabi/lib\libg.a(lib_a-ctype_.o)
                              c:/devkitpro/devkitarm/bin/../lib/gcc/arm-eabi/4.5.1/../../../../arm-eabi/lib\libg.a(lib_a-locale.o) (__set_ctype)
c:/devkitpro/devkitarm/bin/../lib/gcc/arm-eabi/4.5.1/../../../../arm-eabi/lib\libg.a(lib_a-fputwc.o)
                              c:/devkitpro/devkitarm/bin/../lib/gcc/arm-eabi/4.5.1/../../../../arm-eabi/lib\libg.a(lib_a-vfiprintf.o) (_fputwc_r)
c:/devkitpro/devkitarm/bin/../lib/gcc/arm-eabi/4.5.1/../../../../arm-eabi/lib\libg.a(lib_a-fvwrite.o)
                              c:/devkitpro/devkitarm/bin/../lib/gcc/arm-eabi/4.5.1/../../../../arm-eabi/lib\libg.a(lib_a-vfiprintf.o) (__sfvwrite_r)
c:/devkitpro/devkitarm/bin/../lib/gcc/arm-eabi/4.5.1/../../../../arm-eabi/lib\libg.a(lib_a-getenv_r.o)
                              c:/devkitpro/devkitarm/bin/../lib/gcc/arm-eabi/4.5.1/../../../../arm-eabi/lib\libg.a(lib_a-locale.o) (_getenv_r)
c:/devkitpro/devkitarm/bin/../lib/gcc/arm-eabi/4.5.1/../../../../arm-eabi/lib\libg.a(lib_a-wbuf.o)
                              c:/devkitpro/devkitarm/bin/../lib/gcc/arm-eabi/4.5.1/../../../../arm-eabi/lib\libg.a(lib_a-fputwc.o) (__swbuf_r)
c:/devkitpro/devkitarm/bin/../lib/gcc/arm-eabi/4.5.1/../../../../arm-eabi/lib\libg.a(lib_a-environ.o)
                              c:/devkitpro/devkitarm/bin/../lib/gcc/arm-eabi/4.5.1/../../../../arm-eabi/lib\libg.a(lib_a-getenv_r.o) (environ)
c:/devkitpro/devkitarm/bin/../lib/gcc/arm-eabi/4.5.1/../../../../arm-eabi/lib\libg.a(lib_a-envlock.o)
                              c:/devkitpro/devkitarm/bin/../lib/gcc/arm-eabi/4.5.1/../../../../arm-eabi/lib\libg.a(lib_a-getenv_r.o) (__env_lock)
c:/devkitpro/devkitarm/bin/../lib/gcc/arm-eabi/4.5.1/../../../../arm-eabi/lib\libsysbase.a(close.o)
                              c:/devkitpro/devkitarm/bin/../lib/gcc/arm-eabi/4.5.1/../../../../arm-eabi/lib\libg.a(lib_a-stdio.o) (_close_r)
c:/devkitpro/devkitarm/bin/../lib/gcc/arm-eabi/4.5.1/../../../../arm-eabi/lib\libsysbase.a(fstat.o)
                              c:/devkitpro/devkitarm/bin/../lib/gcc/arm-eabi/4.5.1/../../../../arm-eabi/lib\libg.a(lib_a-makebuf.o) (_fstat_r)
c:/devkitpro/devkitarm/bin/../lib/gcc/arm-eabi/4.5.1/../../../../arm-eabi/lib\libsysbase.a(getpid.o)
                              c:/devkitpro/devkitarm/bin/../lib/gcc/arm-eabi/4.5.1/../../../../arm-eabi/lib\libg.a(lib_a-signal.o) (_getpid_r)
c:/devkitpro/devkitarm/bin/../lib/gcc/arm-eabi/4.5.1/../../../../arm-eabi/lib\libsysbase.a(isatty.o)
                              c:/devkitpro/devkitarm/bin/../lib/gcc/arm-eabi/4.5.1/../../../../arm-eabi/lib\libg.a(lib_a-makebuf.o) (_isatty_r)
c:/devkitpro/devkitarm/bin/../lib/gcc/arm-eabi/4.5.1/../../../../arm-eabi/lib\libsysbase.a(kill.o)
                              c:/devkitpro/devkitarm/bin/../lib/gcc/arm-eabi/4.5.1/../../../../arm-eabi/lib\libg.a(lib_a-signal.o) (_kill_r)
c:/devkitpro/devkitarm/bin/../lib/gcc/arm-eabi/4.5.1/../../../../arm-eabi/lib\libsysbase.a(lseek.o)
                              c:/devkitpro/devkitarm/bin/../lib/gcc/arm-eabi/4.5.1/../../../../arm-eabi/lib\libg.a(lib_a-stdio.o) (_lseek_r)
c:/devkitpro/devkitarm/bin/../lib/gcc/arm-eabi/4.5.1/../../../../arm-eabi/lib\libsysbase.a(read.o)
                              c:/devkitpro/devkitarm/bin/../lib/gcc/arm-eabi/4.5.1/../../../../arm-eabi/lib\libg.a(lib_a-stdio.o) (_read_r)
c:/devkitpro/devkitarm/bin/../lib/gcc/arm-eabi/4.5.1/../../../../arm-eabi/lib\libsysbase.a(sbrk.o)
                              c:/devkitpro/devkitarm/bin/../lib/gcc/arm-eabi/4.5.1/../../../../arm-eabi/lib\libg.a(lib_a-freer.o) (_sbrk_r)
c:/devkitpro/devkitarm/bin/../lib/gcc/arm-eabi/4.5.1/../../../../arm-eabi/lib\libsysbase.a(times.o)
                              c:/devkitPro/libnds/lib\libnds9.a(initSystem.o) (punixTime)
c:/devkitpro/devkitarm/bin/../lib/gcc/arm-eabi/4.5.1/../../../../arm-eabi/lib\libsysbase.a(write.o)
                              c:/devkitpro/devkitarm/bin/../lib/gcc/arm-eabi/4.5.1/../../../../arm-eabi/lib\libg.a(lib_a-stdio.o) (_write_r)
c:/devkitpro/devkitarm/bin/../lib/gcc/arm-eabi/4.5.1/../../../../arm-eabi/lib\libsysbase.a(_exit.o)
                              c:/devkitpro/devkitarm/bin/../lib/gcc/arm-eabi/4.5.1/../../../../arm-eabi/lib\libg.a(lib_a-abort.o) (_exit)
c:/devkitpro/devkitarm/bin/../lib/gcc/arm-eabi/4.5.1/../../../../arm-eabi/lib\libsysbase.a(malloc_vars.o)
                              c:/devkitpro/devkitarm/bin/../lib/gcc/arm-eabi/4.5.1/../../../../arm-eabi/lib/ds_arm9_crt0.o (fake_heap_end)
c:/devkitpro/devkitarm/bin/../lib/gcc/arm-eabi/4.5.1/../../../../arm-eabi/lib\libsysbase.a(build_argv.o)
                              c:/devkitpro/devkitarm/bin/../lib/gcc/arm-eabi/4.5.1/../../../../arm-eabi/lib/ds_arm9_crt0.o (build_argv)
c:/devkitpro/devkitarm/bin/../lib/gcc/arm-eabi/4.5.1/../../../../arm-eabi/lib\libsysbase.a(syscall_support.o)
                              c:/devkitPro/libnds/lib\libnds9.a(initSystem.o) (__syscalls)
c:/devkitpro/devkitarm/bin/../lib/gcc/arm-eabi/4.5.1/../../../../arm-eabi/lib\libsysbase.a(handle_manager.o)
                              c:/devkitpro/devkitarm/bin/../lib/gcc/arm-eabi/4.5.1/../../../../arm-eabi/lib\libsysbase.a(close.o) (__release_handle)
c:/devkitpro/devkitarm/bin/../lib/gcc/arm-eabi/4.5.1/../../../../arm-eabi/lib\libsysbase.a(iosupport.o)
                              c:/devkitpro/devkitarm/bin/../lib/gcc/arm-eabi/4.5.1/../../../../arm-eabi/lib\libsysbase.a(close.o) (devoptab_list)
c:/devkitpro/devkitarm/bin/../lib/gcc/arm-eabi/4.5.1\libgcc.a(_aeabi_uldivmod.o)
                              c:/devkitpro/devkitarm/bin/../lib/gcc/arm-eabi/4.5.1/../../../../arm-eabi/lib\libg.a(lib_a-svfprintf.o) (__aeabi_uldivmod)
c:/devkitpro/devkitarm/bin/../lib/gcc/arm-eabi/4.5.1\libgcc.a(bpabi.o)
                              c:/devkitpro/devkitarm/bin/../lib/gcc/arm-eabi/4.5.1\libgcc.a(_aeabi_uldivmod.o) (__gnu_uldivmod_helper)
c:/devkitpro/devkitarm/bin/../lib/gcc/arm-eabi/4.5.1\libgcc.a(unwind-arm.o)
                              c:/devkitpro/devkitarm/bin/../lib/gcc/arm-eabi/4.5.1\libgcc.a(bpabi.o) (__aeabi_unwind_cpp_pr0)
c:/devkitpro/devkitarm/bin/../lib/gcc/arm-eabi/4.5.1\libgcc.a(libunwind.o)
                              c:/devkitpro/devkitarm/bin/../lib/gcc/arm-eabi/4.5.1\libgcc.a(unwind-arm.o) (restore_core_regs)
c:/devkitpro/devkitarm/bin/../lib/gcc/arm-eabi/4.5.1\libgcc.a(pr-support.o)
                              c:/devkitpro/devkitarm/bin/../lib/gcc/arm-eabi/4.5.1\libgcc.a(unwind-arm.o) (__gnu_unwind_execute)
c:/devkitpro/devkitarm/bin/../lib/gcc/arm-eabi/4.5.1\libgcc.a(_divdi3.o)
                              c:/devkitpro/devkitarm/bin/../lib/gcc/arm-eabi/4.5.1\libgcc.a(bpabi.o) (__divdi3)
c:/devkitpro/devkitarm/bin/../lib/gcc/arm-eabi/4.5.1\libgcc.a(_udivdi3.o)
                              c:/devkitpro/devkitarm/bin/../lib/gcc/arm-eabi/4.5.1\libgcc.a(bpabi.o) (__udivdi3)
c:/devkitpro/devkitarm/bin/../lib/gcc/arm-eabi/4.5.1\libgcc.a(_clzsi2.o)
                              c:/devkitpro/devkitarm/bin/../lib/gcc/arm-eabi/4.5.1\libgcc.a(_divdi3.o) (__clzsi2)

Allocating common symbols
Common symbol       size              file

ul_colorKeyValue32  0x4               c:/devkitPro/libnds/lib\libul.a(drawing.o)
fifo_datamsg_data   0x40              c:/devkitPro/libnds/lib\libnds9.a(fifosystem.o)
ulTextureMax        0x4               c:/devkitPro/libnds/lib\libul.a(texVramManager.o)
__dsimode           0x1               c:/devkitPro/libnds/lib\libnds9.a(initSystem.o)
ulTextureParams     0x4               c:/devkitPro/libnds/lib\libul.a(texVramManager.o)
ul_cos              0x400             c:/devkitPro/libnds/lib\libul.a(ulib.o)
fifo_buffer         0x800             c:/devkitPro/libnds/lib\libnds9.a(fifosystem.o)
ulTexRamBlocksNb    0x4               c:/devkitPro/libnds/lib\libul.a(texVramManager.o)
fifo_value32_func   0x40              c:/devkitPro/libnds/lib\libnds9.a(fifosystem.o)
fifo_address_func   0x40              c:/devkitPro/libnds/lib\libnds9.a(fifosystem.o)
temppalette         0x4               c:/devkitPro/libnds/lib\libul.a(libLoadGif.o)
ulTexPalBlocksNb    0x4               c:/devkitPro/libnds/lib\libul.a(texPalManager.o)
__hexdig            0x100             c:/devkitpro/devkitarm/bin/../lib/gcc/arm-eabi/4.5.1/../../../../arm-eabi/lib\libg.a(lib_a-gdtoa-gethex.o)
ul_colorKeyValue    0x2               c:/devkitPro/libnds/lib\libul.a(drawing.o)
ul_splash1_fadeDir  0x4               c:/devkitPro/libnds/lib\libul.a(ulShowSplashScreen1.o)
VirtualFileSources  0x40              c:/devkitPro/libnds/lib\libul.a(VirtualFile.o)
ulDualScreenSprites
                    0x400             c:/devkitPro/libnds/lib\libul.a(drawing.o)
ulTextureNb         0x4               c:/devkitPro/libnds/lib\libul.a(texVramManager.o)
ul_splash1_fade     0x4               c:/devkitPro/libnds/lib\libul.a(ulShowSplashScreen1.o)
LineBuf             0x800             c:/devkitPro/libnds/lib\libul.a(libLoadGif.o)
JPG_outEnd          0x4               c:/devkitPro/libnds/lib\libul.a(gba-jpeg-decode.o)
fifo_value32_data   0x40              c:/devkitPro/libnds/lib\libnds9.a(fifosystem.o)
ulTexRamBlocksMax   0x4               c:/devkitPro/libnds/lib\libul.a(texVramManager.o)
ulTexPalBlocks      0x4               c:/devkitPro/libnds/lib\libul.a(texPalManager.o)
ul_virtualFileList  0x4               c:/devkitPro/libnds/lib\libul.a(VirtualFile.o)
fifo_value32_queue  0x40              c:/devkitPro/libnds/lib\libnds9.a(fifosystem.o)
fifo_data_queue     0x40              c:/devkitPro/libnds/lib\libnds9.a(fifosystem.o)
ulTexRamBlocks      0x4               c:/devkitPro/libnds/lib\libul.a(texVramManager.o)
ul_autoDepth        0x1               c:/devkitPro/libnds/lib\libul.a(drawing.o)
ul_dualScreenMode   0x1               c:/devkitPro/libnds/lib\libul.a(drawing.o)
ul_neoflashlogo_positions
                    0xc00             c:/devkitPro/libnds/lib\libul.a(ulShowSplashScreen2.o)
ulTexPalBlocksMax   0x4               c:/devkitPro/libnds/lib\libul.a(texPalManager.o)
ul_frameNumber      0x1               c:/devkitPro/libnds/lib\libul.a(drawing.o)
punixTime           0x4               c:/devkitpro/devkitarm/bin/../lib/gcc/arm-eabi/4.5.1/../../../../arm-eabi/lib\libsysbase.a(times.o)
fifo_address_data   0x40              c:/devkitPro/libnds/lib\libnds9.a(fifosystem.o)
ul_sin              0x400             c:/devkitPro/libnds/lib\libul.a(ulib.o)
ul_currentDepth     0x4               c:/devkitPro/libnds/lib\libul.a(drawing.o)
glGlobalData        0x4c              c:/devkitPro/libnds/lib\libnds9.a(videoGL.o)
ulTextureActive     0x4               c:/devkitPro/libnds/lib\libul.a(texVramManager.o)
ul_colorKeyEnabled  0x1               c:/devkitPro/libnds/lib\libul.a(drawing.o)
JPG_outBegin        0x4               c:/devkitPro/libnds/lib\libul.a(gba-jpeg-decode.o)
fifo_datamsg_func   0x40              c:/devkitPro/libnds/lib\libnds9.a(fifosystem.o)
fifo_address_queue  0x40              c:/devkitPro/libnds/lib\libnds9.a(fifosystem.o)

Memory Configuration

Name             Origin             Length             Attributes
rom              0x08000000         0x02000000
ewram            0x02000000         0x003ff000
dtcm             0x0b000000         0x00004000
vectors          0x01000000         0x00000100
itcm             0x01000100         0x00007f00
*default*        0x00000000         0xffffffff

Linker script and memory map

                0x01000000                __vectors_start = 0x1000000
                0x01000100                __itcm_start = 0x1000100
                0x023ff000                __ewram_end = 0x23ff000
                0x023ff000                __eheap_end = 0x23ff000
                0x0b000000                __dtcm_start = 0xb000000
                0x0b004000                __dtcm_top = 0xb004000
                0x0b003ff8                __irq_flags = (__dtcm_top - 0x8)
                0x0b003ffc                __irq_vector = (__dtcm_top - 0x4)
                0x0b003f00                __sp_svc = (__dtcm_top - 0x100)
                0x0b003e00                __sp_irq = (__sp_svc - 0x100)
                0x0b003d00                __sp_usr = (__sp_irq - 0x100)

.init           0x02000000      0x248
                0x02000000                __text_start = .
 *(.init)
 .init          0x02000000      0x230 c:/devkitpro/devkitarm/bin/../lib/gcc/arm-eabi/4.5.1/../../../../arm-eabi/lib/ds_arm9_crt0.o
                0x02000000                _start
 .init          0x02000230        0xc c:/devkitpro/devkitarm/bin/../lib/gcc/arm-eabi/4.5.1/crti.o
                0x02000230                _init
 .init          0x0200023c        0xc c:/devkitpro/devkitarm/bin/../lib/gcc/arm-eabi/4.5.1/crtn.o
                0x02000248                . = ALIGN (0x4)

.plt
 *(.plt)

.text           0x02000250    0x36060
 *(EXCLUDE_FILE(*.itcm*) .text)
 .text          0x02000250        0x0 c:/devkitpro/devkitarm/bin/../lib/gcc/arm-eabi/4.5.1/../../../../arm-eabi/lib/ds_arm9_crt0.o
 .text          0x02000250        0x0 c:/devkitpro/devkitarm/bin/../lib/gcc/arm-eabi/4.5.1/crti.o
 .text          0x02000250       0x94 c:/devkitpro/devkitarm/bin/../lib/gcc/arm-eabi/4.5.1/crtbegin.o
 .text          0x020002e4        0x0 tails.png.o
 .text          0x020002e4      0x114 main.o
                0x020002e4                main
 .text          0x020003f8      0x15c c:/devkitPro/libnds/lib\libul.a(ulib.o)
                0x020003f8                _initSinTables
                0x020004e4                ulInit
                0x0200051c                ulTerminate
                0x02000520                ulGetPowerOf2Count
 .text          0x02000554     0x148c c:/devkitPro/libnds/lib\libul.a(drawing.o)
                0x02000554                ulInitGfx
                0x020005c8                ulInitDualScreenMode
                0x020006fc                ulStopDualScreenMode
                0x02000710                ulSetRegCapture
                0x02000774                ulEndDrawing
                0x020007a4                ulSetScreenWindow
                0x02000a44                ulSetScreenClipping
                0x02000ce8                ulResetScreenClipping
                0x02000f4c                ulEndFrame
                0x02001078                ulSyncFrame
                0x020010b4                ulResetScreenView
                0x020012f8                ulStartDrawing2D
                0x020013ac                ulMoveScreenView
                0x020013c4                ulScaleScreenView
                0x020013dc                ulRotateScreenView
                0x0200143c                ulSetAlpha
                0x0200145c                ulRealizeImage
                0x020015c0                ulSetTexture
                0x02001630                ulResetImageProperties
                0x02001680                ulDeleteImage
                0x02001700                ulCreateImage
                0x0200196c                ulSetScreenBackgroundColor
                0x02001978                ulSetTransparentColor
 .text          0x020019e0      0xa6c c:/devkitPro/libnds/lib\libul.a(text.o)
                0x020019e0                ulDrawChar1BitToImage
                0x02001b34                ulCreateFont
                0x02001e3c                ulLoadFont
                0x02001fe4                ulDeleteFont
                0x02002010                ulDrawTile
                0x02002108                ulDrawChar
                0x020021b4                ulDrawString
                0x02002288                ulDrawTextBox
                0x02002404                ulSetTextColor
                0x02002414                ulInitText
 .text          0x0200244c      0x5fc c:/devkitPro/libnds/lib\libul.a(VirtualFile.o)
                0x0200244c                vfsMemClose
                0x02002454                vfsMemGetc
                0x02002498                vfsMemPutc
                0x020024e4                vfsMemGets
                0x02002690                vfsMemSeek
                0x02002704                vfsMemEof
                0x0200271c                vfsMemPuts
                0x02002758                vfsMemRead
                0x020027ac                vfsMemWrite
                0x02002808                VirtualFileRegisterSource
                0x02002838                VirtualFileOpen
                0x020028d4                VirtualFileClose
                0x0200290c                ulSetVirtualFilenameList
                0x02002928                ulFindFileInVirtualFilenameList
                0x020029b8                vfsMemOpen
                0x020029f8                VirtualFileInit
 .text          0x02002a48      0x8c0 c:/devkitPro/libnds/lib\libul.a(texVramManager.o)
                0x02002a48                ulTexVramInit
                0x02002aa8                ulTexVramAllocBlock
                0x02002c10                ulTexVramFreeBlock
                0x02002d60                ulTexImage2D
                0x02002f64                ulInitTextures
                0x02002fb8                ulGetNextAvailableTexture
                0x0200309c                ulGenTextures
                0x020030f4                ulFreeTextures
                0x02003158                ulTexParameter
                0x02003190                ulBindTexture
                0x020031b8                ulBindTextureToGl
                0x020031f4                ulSetTexVramParameters
                0x02003294                ulGetTexVramAvailMemory
                0x020032c0                ulGetTexVramTotalMemory
                0x020032d0                ulGetTexVramUsedMemory
 .text          0x02003308      0x584 c:/devkitPro/libnds/lib\libul.a(texPalManager.o)
                0x02003308                ulTexPalInit
                0x02003368                ulTexPalAllocBlock
                0x02003578                ulTexPalFreeBlock
                0x020036c8                uluTexUnloadPal
                0x020036d0                ulTexLoadPal
                0x0200371c                uluTexLoadPal
                0x02003778                ulSetTexPalVramParameters
                0x02003818                ulGetTexPalAvailMemory
                0x02003844                ulGetTexPalTotalMemory
                0x02003854                ulGetTexPalUsedMemory
 .text          0x0200388c      0x190 c:/devkitPro/libnds/lib\libul.a(keys.o)
                0x0200388c                ulReadKeys
 .text          0x02003a1c      0x348 c:/devkitPro/libnds/lib\libul.a(ulDrawImage.o)
                0x02003a1c                ulDrawImage
 .text          0x02003d64       0xe8 c:/devkitPro/libnds/lib\libul.a(ulCreateImagePalette.o)
                0x02003d64                ulCreateImagePalette
 .text          0x02003e4c       0xbc c:/devkitPro/libnds/lib\libul.a(ulDrawGradientRect.o)
                0x02003e4c                ulDrawGradientRect
 .text          0x02003f08       0x68 c:/devkitPro/libnds/lib\libul.a(ulLoadImageFilePNG.o)
                0x02003f08                ulLoadImageFilePNG
 .text          0x02003f70      0xb64 c:/devkitPro/libnds/lib\libul.a(ulShowSplashScreen1.o)
                0x02003f70                ul_splash1_applyMask
                0x02004010                ul_splash1_createCircle
                0x020040cc                ul_splash1_createMaskedImage
                0x020041dc                ul_splash1_handleFade
                0x02004240                ul_splash1_drawFade
                0x020042a4                ul_splash1_fadeTerminated
                0x020042dc                ul_splash1_drawBackText
                0x02004368                ul_splash1_fillSecondScreen
                0x020044ac                ulShowSplashScreen1
 .text          0x02004ad4      0x65c c:/devkitPro/libnds/lib\libul.a(ulShowSplashScreen2.o)
                0x02004ad4                ul_neoflashlogo_LogoDrawTiles
                0x02004c1c                ulShowSplashScreen2
 .text          0x02005130       0x7c c:/devkitPro/libnds/lib\libul.a(glWrapper.o)
                0x02005130                ulChangeVramAllocation
 .text          0x020051ac      0x97c c:/devkitPro/libnds/lib\libul.a(libLoadPng.o)
                0x02005290                ulLoadImagePNG
 .text          0x02005b28       0x94 c:/devkitPro/libnds/lib\libul.a(ulDrawFillRect.o)
                0x02005b28                ulDrawFillRect
 .text          0x02005bbc       0xb8 c:/devkitPro/libnds/lib\libul.a(ulSetImagePixel.o)
                0x02005bbc                ulSetImagePixel
 .text          0x02005c74       0xa8 c:/devkitPro/libnds/lib\libul.a(ulGetImagePixel.o)
                0x02005c74                ulGetImagePixel
 .text          0x02005d1c      0x124 c:/devkitPro/libnds/lib\libul.a(textSize.o)
                0x02005d1c                ulGetStringWidth
                0x02005d50                ulGetTextBoxHeight
 .text          0x02005e40        0x0 c:/devkitPro/libnds/lib\libul.a(loading_utility.o)
 .text          0x02005e40       0x68 c:/devkitPro/libnds/lib\libul.a(ulLoadImageFileJPG.o)
                0x02005e40                ulLoadImageFileJPG
 .text          0x02005ea8       0x68 c:/devkitPro/libnds/lib\libul.a(ulLoadImageFileGIF.o)
                0x02005ea8                ulLoadImageFileGIF
 .text          0x02005f10       0xf8 c:/devkitPro/libnds/lib\libul.a(libLoadJpg.o)
                0x02005f10                ulLoadImageJPG
 .text          0x02006008      0x65c c:/devkitPro/libnds/lib\libul.a(libLoadGif.o)
                0x02006008                fnGifReadFunc
                0x0200603c                fnCopyLine
                0x0200616c                DGifGetLineByte
                0x020061b4                ulLoadImageGIF
 .text          0x02006664     0x1198 c:/devkitPro/libnds/lib\libul.a(dgif_lib.o)
                0x02006bc4                DGifGetScreenDesc
                0x02006d80                DGifOpen
                0x02006ea8                DGifGetRecordType
                0x02006f68                DGifGetImageDesc
                0x020072cc                DGifGetExtensionNext
                0x02007398                DGifGetExtension
                0x02007428                DGifCloseFile
                0x020074ec                DGifGetCodeNext
                0x020075c0                DGifGetCode
                0x02007604                DGifGetPixel
                0x020076b0                DGifGetLine
                0x02007748                DGifGetLZCodes
 .text          0x020077fc       0x18 c:/devkitPro/libnds/lib\libul.a(gif_err.o)
                0x020077fc                GifLastError
 .text          0x02007814      0x610 c:/devkitPro/libnds/lib\libul.a(gifalloc.o)
                0x02007814                BitSize
                0x02007838                MakeMapObject
                0x020078a8                FreeMapObject
                0x020078c8                UnionColorMap
                0x02007aa0                ApplyTranslation
                0x02007ad8                MakeExtension
                0x02007ae0                AddExtensionBlock
                0x02007b8c                FreeExtension
                0x02007be0                FreeLastSavedImage
                0x02007c4c                MakeSavedImage
                0x02007d9c                FreeSavedImages
 .text          0x02007e24       0xc0 c:/devkitPro/libnds/lib\libul.a(ulReadEntireFileToMemory.o)
                0x02007e24                ulReadEntireFileToMemory
 .text          0x02007ee4     0x198c c:/devkitPro/libnds/lib\libul.a(gba-jpeg-decode.o)
                0x02008944                JPEG_IDCT
                0x0200896c                JPEG_HuffmanTable_Read
                0x02008b84                JPEG_HuffmanTable_Skip
                0x02008bb4                JPEG_Decoder_ReadImage
                0x02009370                JPEG_FrameHeader_Read
                0x02009428                JPEG_ScanHeader_Read
                0x020094c4                JPEG_Decoder_ReadHeaders
                0x020097cc                JPEG_DecompressImage
                0x02009830                JPEG_Match
 .text          0x02009870      0xa58 c:/devkitPro/libnds/lib\libpng.a(png.o)
                0x02009870                png_data_freer
                0x020098a8                png_get_io_ptr
                0x020098b4                png_init_io
                0x020098c0                png_get_copyright
                0x020098cc                png_get_libpng_ver
                0x020098d8                png_get_header_ver
                0x020098e4                png_get_header_version
                0x020098f0                png_access_version_number
                0x020098fc                png_mmx_support
                0x02009904                png_64bit_product
                0x02009950                png_check_cHRM_fixed
                0x02009a4c                png_reset_zstream
                0x02009a70                png_handle_as_unknown
                0x02009ad8                png_sig_cmp
                0x02009b4c                png_check_sig
                0x02009b74                png_zalloc
                0x02009bc8                png_convert_to_rfc1123
                0x02009c8c                png_zfree
                0x02009ca4                png_free_data
                0x0200a0d8                png_info_init_3
                0x0200a118                png_info_destroy
                0x0200a174                png_info_init
                0x0200a19c                png_destroy_info_struct
                0x0200a1e8                png_create_info_struct
                0x0200a230                png_calculate_crc
                0x0200a274                png_reset_crc
                0x0200a298                png_set_sig_bytes
 .text          0x0200a2c8     0x1a04 c:/devkitPro/libnds/lib\libpng.a(pngread.o)
                0x0200a2c8                png_set_read_status_fn
                0x0200a2d4                png_read_destroy
                0x0200a520                png_destroy_read_struct
                0x0200a600                png_read_end
                0x0200aaa8                png_start_read_image
                0x0200aad0                png_read_row
                0x0200af28                png_read_image
                0x0200af8c                png_read_rows
                0x0200b058                png_read_update_info
                0x0200b090                png_read_info
                0x0200b600                png_read_png
                0x0200b7d0                png_read_init_3
                0x0200b924                png_read_init_2
                0x0200b9ec                png_read_init
                0x0200ba00                png_create_read_struct_2
                0x0200bca4                png_create_read_struct
 .text          0x0200bccc       0xa0 c:/devkitPro/libnds/lib\libpng.a(pngrio.o)
                0x0200bccc                png_set_read_fn
                0x0200bd00                png_default_read_data
                0x0200bd3c                png_read_data
 .text          0x0200bd6c     0x5814 c:/devkitPro/libnds/lib\libpng.a(pngrtran.o)
                0x0200bd6c                png_set_crc_action
                0x0200be14                png_set_strip_16
                0x0200be28                png_set_strip_alpha
                0x0200be3c                png_set_gamma
                0x0200bef8                png_set_expand
                0x0200bf20                png_set_palette_to_rgb
                0x0200bf48                png_set_expand_gray_1_2_4_to_8
                0x0200bf6c                png_set_gray_1_2_4_to_8
                0x0200bf84                png_set_tRNS_to_alpha
                0x0200bfa4                png_set_gray_to_rgb
                0x0200bfc0                png_set_rgb_to_gray_fixed
                0x0200c0c0                png_set_rgb_to_gray
                0x0200c15c                png_set_read_user_transform_fn
                0x0200c174                png_read_transform_info
                0x0200c3cc                png_do_unpack
                0x0200c51c                png_do_unshift
                0x0200c734                png_do_chop
                0x0200c78c                png_do_read_swap_alpha
                0x0200c8cc                png_do_read_invert_alpha
                0x0200c9cc                png_do_read_filler
                0x0200ccc4                png_do_gray_to_rgb
                0x0200ceb8                png_do_rgb_to_gray
                0x0200d554                png_build_grayscale_palette
                0x0200d608                png_do_gamma
                0x0200da54                png_do_expand_palette
                0x0200dcf4                png_do_expand
                0x0200e170                png_do_dither
                0x0200e2e4                png_do_read_intrapixel
                0x0200e3f8                png_build_gamma_table
                0x0200eb14                png_init_read_transformations
                0x0200f84c                png_do_background
                0x02010880                png_set_background
                0x020108e8                png_do_read_transformations
                0x02010d54                png_set_dither
 .text          0x02011580      0x270 c:/devkitPro/libnds/lib\libpng.a(pngmem.o)
                0x02011580                png_set_mem_fn
                0x02011594                png_get_mem_ptr
                0x020115a0                png_memset_check
                0x020115c4                png_memcpy_check
                0x020115e8                png_free_default
                0x0201160c                png_free
                0x02011650                png_destroy_struct_2
                0x02011694                png_destroy_struct
                0x020116a0                png_malloc_default
                0x020116c8                png_malloc
                0x0201172c                png_malloc_warn
                0x02011760                png_create_struct_2
                0x020117e4                png_create_struct
 .text          0x020117f0      0x128 c:/devkitPro/libnds/lib\libpng.a(pngerror.o)
                0x020117f0                png_set_error_fn
                0x02011804                png_get_error_ptr
                0x02011810                png_set_strip_error_numbers
                0x02011828                png_err
 .text          0x02011918      0xb28 c:/devkitPro/libnds/lib\libpng.a(pngget.o)
                0x02011918                png_get_valid
                0x02011934                png_get_rowbytes
                0x0201194c                png_get_rows
                0x02011964                png_get_image_width
                0x0201197c                png_get_image_height
                0x02011994                png_get_bit_depth
                0x020119ac                png_get_color_type
                0x020119c4                png_get_filter_type
                0x020119dc                png_get_interlace_type
                0x020119f4                png_get_compression_type
                0x02011a0c                png_get_x_pixels_per_meter
                0x02011a3c                png_get_y_pixels_per_meter
                0x02011a6c                png_get_pixels_per_meter
                0x02011aa8                png_get_pixel_aspect_ratio
                0x02011b08                png_get_x_offset_microns
                0x02011b38                png_get_y_offset_microns
                0x02011b68                png_get_x_offset_pixels
                0x02011b98                png_get_y_offset_pixels
                0x02011bc8                png_get_channels
                0x02011be0                png_get_signature
                0x02011bf8                png_get_bKGD
                0x02011c30                png_get_cHRM
                0x02011d2c                png_get_cHRM_fixed
                0x02011dd0                png_get_gAMA
                0x02011e1c                png_get_gAMA_fixed
                0x02011e54                png_get_sRGB
                0x02011e8c                png_get_iCCP
                0x02011f00                png_get_sPLT
                0x02011f28                png_get_hIST
                0x02011f60                png_get_oFFs
                0x02011fc8                png_get_pCAL
                0x02012074                png_get_sCAL
                0x020120d0                png_get_pHYs
                0x02012130                png_get_PLTE
                0x02012178                png_get_sBIT
                0x020121b0                png_get_text
                0x02012200                png_get_tIME
                0x02012238                png_get_tRNS
                0x020122cc                png_get_unknown_chunks
                0x020122f4                png_get_rgb_to_gray_status
                0x02012300                png_get_user_chunk_ptr
                0x0201230c                png_get_asm_flags
                0x02012314                png_get_asm_flagmask
                0x0201231c                png_get_mmx_flagmask
                0x0201232c                png_get_mmx_bitdepth_threshold
                0x02012334                png_get_mmx_rowbytes_threshold
                0x0201233c                png_get_user_width_max
                0x02012348                png_get_user_height_max
                0x02012354                png_get_IHDR
 .text          0x02012440     0x32c0 c:/devkitPro/libnds/lib\libpng.a(pngrutil.o)
                0x02012440                png_get_uint_32
                0x02012460                png_get_int_32
                0x02012480                png_get_uint_16
                0x02012498                png_read_filter_row
                0x02012664                png_check_chunk_name
                0x0201271c                png_get_uint_31
                0x0201274c                png_read_start_row
                0x02012a5c                png_crc_error
                0x02012ae4                png_do_read_interlace
                0x02012eec                png_combine_row
                0x020131a4                png_decompress_chunk
                0x020134f8                png_crc_read
                0x02013528                png_crc_finish
                0x020135b0                png_handle_IEND
                0x020135f0                png_read_finish_row
                0x02013844                png_handle_unknown
                0x020139a8                png_handle_zTXt
                0x02013b30                png_handle_tEXt
                0x02013c64                png_handle_tIME
                0x02013d44                png_handle_sCAL
                0x02013f08                png_handle_pCAL
                0x020141c8                png_handle_oFFs
                0x020142a8                png_handle_pHYs
                0x02014388                png_handle_hIST
                0x02014478                png_handle_bKGD
                0x0201461c                png_handle_tRNS
                0x020147b4                png_handle_sPLT
                0x02014a0c                png_handle_iCCP
                0x02014bbc                png_handle_sRGB
                0x02014cac                png_handle_cHRM
                0x02015180                png_handle_sBIT
                0x0201528c                png_handle_gAMA
                0x020153d0                png_handle_PLTE
                0x02015530                png_handle_IHDR
                0x02015688                png_read_chunk_header
 .text          0x02015700      0x704 c:/devkitPro/libnds/lib\libpng.a(pngtrans.o)
                0x02015700                png_set_bgr
                0x02015714                png_set_swap
                0x02015734                png_set_packing
                0x0201575c                png_set_packswap
                0x0201577c                png_set_shift
                0x020157b4                png_set_interlace_handling
                0x020157e4                png_set_filler
                0x0201584c                png_set_add_alpha
                0x02015870                png_set_swap_alpha
                0x02015884                png_set_invert_alpha
                0x02015898                png_set_invert_mono
                0x020158ac                png_do_invert
                0x02015968                png_do_swap
                0x020159ac                png_do_packswap
                0x02015a0c                png_do_strip_filler
                0x02015cc0                png_do_bgr
                0x02015de4                png_set_user_transform_info
                0x02015df8                png_get_user_transform_ptr
 .text          0x02015e04     0x1438 c:/devkitPro/libnds/lib\libpng.a(pngset.o)
                0x02015e04                png_set_cHRM
                0x0201600c                png_set_gAMA
                0x020160a4                png_set_gAMA_fixed
                0x020160fc                png_set_oFFs
                0x0201612c                png_set_sCAL
                0x02016170                png_set_pHYs
                0x020161a0                png_set_sRGB
                0x020161bc                png_set_unknown_chunk_location
                0x020161f4                png_permit_empty_plte
                0x02016210                png_permit_mng_features
                0x02016224                png_set_read_user_chunk_fn
                0x02016234                png_set_invalid
                0x0201624c                png_set_asm_flags
                0x0201625c                png_set_mmx_thresholds
                0x02016260                png_set_user_limits
                0x02016270                png_set_rows
                0x020162cc                png_set_tRNS
                0x02016384                png_set_tIME
                0x020163c8                png_set_sBIT
                0x02016400                png_set_bKGD
                0x02016438                png_set_keep_unknown_chunks
                0x02016534                png_set_unknown_chunks
                0x02016640                png_set_hIST
                0x020166f4                png_set_sPLT
                0x0201683c                png_set_text_2
                0x02016a1c                png_set_iCCP
                0x02016b04                png_set_text
                0x02016b24                png_set_IHDR
                0x02016d30                png_set_cHRM_fixed
                0x02016eac                png_set_sRGB_gAMA_and_cHRM
                0x02017020                png_set_PLTE
                0x020170e0                png_set_pCAL
 .text          0x0201723c      0x934 c:/devkitPro/libnds/lib\libz.a(crc32.o)
                0x0201723c                get_crc_table
                0x02017248                crc32
                0x0201798c                crc32_combine
 .text          0x02017b70     0x1e8c c:/devkitPro/libnds/lib\libz.a(inflate.o)
                0x02017b70                inflateReset
                0x02017bec                inflatePrime
                0x02017c48                inflateInit2_
                0x02017d64                inflateInit_
                0x02017d74                inflateEnd
                0x02017ddc                inflateGetHeader
                0x02017e18                inflateSync
                0x02017fbc                inflateSyncPoint
                0x02017ff8                inflateCopy
                0x020182c0                inflateSetDictionary
                0x020183b8                inflate
 .text          0x020199fc      0x590 c:/devkitPro/libnds/lib\libz.a(inftrees.o)
                0x020199fc                inflate_table
 .text          0x02019f8c      0x570 c:/devkitPro/libnds/lib\libz.a(inffast.o)
                0x02019f8c                inflate_fast
 .text          0x0201a4fc      0x3fc c:/devkitPro/libnds/lib\libz.a(adler32.o)
                0x0201a4fc                adler32
                0x0201a83c                adler32_combine
 .text          0x0201a8f8       0x60 c:/devkitPro/libnds/lib\libz.a(zutil.o)
                0x0201a8f8                zlibVersion
                0x0201a904                zlibCompileFlags
                0x0201a90c                zError
                0x0201a920                zcfree
                0x0201a93c                zcalloc
 .text          0x0201a958       0x94 c:/devkitPro/libnds/lib\libnds9.a(dynamicArray.o)
                0x0201a958                DynamicArrayInit
                0x0201a970                DynamicArrayDelete
                0x0201a984                DynamicArrayGet
                0x0201a9a0                DynamicArraySet
 .text          0x0201a9ec       0xf8 c:/devkitPro/libnds/lib\libnds9.a(keys.o)
                0x0201a9ec                scanKeys
                0x0201aa5c                keysHeld
                0x0201aa68                keysDown
                0x0201aa78                keysDownRepeat
                0x0201aa88                keysSetRepeat
                0x0201aaa0                keysUp
                0x0201aab0                keysCurrent
 .text          0x0201aae4       0xf4 c:/devkitPro/libnds/lib\libnds9.a(system.o)
                0x0201aae4                systemMsgHandler
                0x0201ab28                systemSleep
                0x0201ab40                powerValueHandler
                0x0201ab50                powerOn
                0x0201ab7c                powerOff
                0x0201aba4                ledBlink
                0x0201abb8                getBatteryLevel
 .text          0x0201abd8       0x4c c:/devkitPro/libnds/lib\libnds9.a(touch.o)
                0x0201abd8                touchRead
                0x0201ac00                touchReadXY
 .text          0x0201ac24      0x238 c:/devkitPro/libnds/lib\libnds9.a(trig.o)
                0x0201ac24                asinComp
                0x0201ac48                sinLutLookup
                0x0201ac84                sinLerp
                0x0201acb8                cosLerp
                0x0201acd0                tanLutLookup
                0x0201ad08                tanLerp
                0x0201adb8                asinLerp
                0x0201ae20                acosLerp
                0x0201ae38                atanComp
 .text          0x0201ae5c     0x14b8 c:/devkitPro/libnds/lib\libnds9.a(videoGL.o)
                0x0201ae5c                glGetGlobals
                0x0201ae64                glRotatef32i
                0x0201b140                glMaterialf
                0x0201b1b0                glTexCoord2f32
                0x0201b224                vramBlock_init
                0x0201b290                vramBlock_Construct
                0x0201b2b8                vramBlock_terminate
                0x0201b2e4                vramBlock_Deconstruct
                0x0201b2f8                vramBlock__allocateBlock
                0x0201b458                vramBlock__deallocateBlock
                0x0201b570                vramBlock_examineSpecial
                0x0201b7ac                vramBlock_allocateSpecial
                0x0201b818                vramBlock_allocateBlock
                0x0201b850                vramBlock_deallocateBlock
                0x0201b894                vramBlock_deallocateAll
                0x0201b8a4                vramBlock_getAddr
                0x0201b8b8                vramBlock_getSize
                0x0201b8cc                glInit_C
                0x0201ba6c                glResetTextures
                0x0201baf4                removePaletteFromTexture
                0x0201bb64                glGenTextures
                0x0201bc00                glDeleteTextures
                0x0201bcd8                vramGetBank
                0x0201bd98                glBindTexture
                0x0201bdfc                glColorTableEXT
                0x0201bf64                glAssignColorTable
                0x0201bfd8                glTexParameter
                0x0201c010                glGetTexturePointer
                0x0201c030                glGetTexParameter
                0x0201c050                glTexImage2D
 .text          0x0201c314      0x14c c:/devkitPro/libnds/lib\libnds9.a(initSystem.o)
                0x0201c314                initSystem
 .text          0x0201c460      0xc98 c:/devkitPro/libnds/lib\libnds9.a(fifosystem.o)
                0x0201c6d0                fifoSendAddress
                0x0201c6fc                fifoSendValue32
                0x0201c73c                fifoSendDatamsg
                0x0201c7b4                fifoGetAddress
                0x0201c824                fifoSetAddressHandler
                0x0201c898                fifoGetValue32
                0x0201c904                fifoSetValue32Handler
                0x0201c978                fifoGetDatamsg
                0x0201ce08                fifoSetDatamsgHandler
                0x0201cea0                fifoCheckAddress
                0x0201cec4                fifoCheckDatamsg
                0x0201cee8                fifoCheckValue32
                0x0201cf0c                fifoInit
 .text          0x0201d0f8      0x1cc c:/devkitPro/libnds/lib\libnds9.a(interrupts.o)
                0x0201d0f8                irqDummy
                0x0201d0fc                irqSet
                0x0201d168                irqInit
                0x0201d1b4                irqInitHandler
                0x0201d1e4                irqEnable
                0x0201d244                irqDisable
                0x0201d298                irqClear
 .text          0x0201d2c4       0x40 c:/devkitPro/libnds/lib\libnds9.a(libnds_exit.o)
                0x0201d2c4                systemErrorExit
                0x0201d2c8                __libnds_exit
 .text          0x0201d304      0x1b4 c:/devkitPro/libnds/lib\libnds9.a(mpu_setup.o)
                0x0201d304                __libnds_mpu_setup
                0x0201d444                memCached
                0x0201d45c                memUncached
 *fill*         0x0201d4b8        0x8 ff
 .text          0x0201d4c0       0x70 c:/devkitPro/libnds/lib\libnds9.a(biosCalls.o)
                0x0201d4c0                swiDelay
                0x0201d4c4                swiIntrWait
                0x0201d4c8                swiWaitForVBlank
                0x0201d4cc                swiSleep
                0x0201d4d0                swiChangeSoundBias
                0x0201d4d4                swiDivide
                0x0201d4d8                swiRemainder
                0x0201d4de                swiDivMod
                0x0201d4ea                swiCopy
                0x0201d4ee                swiFastCopy
                0x0201d4f2                swiSqrt
                0x0201d4f6                swiCRC16
                0x0201d4fa                swiIsDebugger
                0x0201d4fe                swiUnpackBits
                0x0201d502                swiDecompressLZSSWram
                0x0201d506                swiDecompressLZSSVramNTR
                0x0201d50a                swiDecompressLZSSVramTWL
                0x0201d50e                swiDecompressHuffman
                0x0201d512                swiDecompressRLEWram
                0x0201d516                swiDecompressRLEVram
                0x0201d51a                swiWaitForIRQ
                0x0201d51e                swiDecodeDelta8
                0x0201d522                swiDecodeDelta16
                0x0201d526                swiSetHaltCR
 .text          0x0201d530        0x0 c:/devkitPro/libnds/lib\libnds9.a(interruptDispatcher.o)
 .text          0x0201d530       0x30 c:/devkitPro/libnds/lib\libnds9.a(swiSoftReset.o)
                0x0201d530                swiSoftReset
 .text          0x0201d560      0x148 c:/devkitPro/libnds/lib\libnds9.a(video.o)
                0x0201d560                vramSetPrimaryBanks
                0x0201d5a4                vramSetMainBanks
                0x0201d5e8                vramSetBanks_EFG
                0x0201d620                vramRestorePrimaryBanks
                0x0201d62c                vramRestoreMainBanks
                0x0201d638                vramRestoreBanks_EFG
                0x0201d644                setBrightness
                0x0201d684                vramDefault
 .text          0x0201d6a8      0x104 c:/devkitpro/devkitarm/bin/../lib/gcc/arm-eabi/4.5.1/../../../../arm-eabi/lib\libm.a(lib_a-s_cos.o)
                0x0201d6a8                cos
 .text          0x0201d7ac      0x110 c:/devkitpro/devkitarm/bin/../lib/gcc/arm-eabi/4.5.1/../../../../arm-eabi/lib\libm.a(lib_a-s_sin.o)
                0x0201d7ac                sin
 .text          0x0201d8bc      0x520 c:/devkitpro/devkitarm/bin/../lib/gcc/arm-eabi/4.5.1/../../../../arm-eabi/lib\libm.a(lib_a-w_pow.o)
                0x0201d8bc                pow
 *fill*         0x0201dddc        0x4 ff
 .text          0x0201dde0      0xff8 c:/devkitpro/devkitarm/bin/../lib/gcc/arm-eabi/4.5.1/../../../../arm-eabi/lib\libm.a(lib_a-e_pow.o)
                0x0201dde0                __ieee754_pow
 .text          0x0201edd8      0x678 c:/devkitpro/devkitarm/bin/../lib/gcc/arm-eabi/4.5.1/../../../../arm-eabi/lib\libm.a(lib_a-e_rem_pio2.o)
                0x0201edd8                __ieee754_rem_pio2
 .text          0x0201f450      0x238 c:/devkitpro/devkitarm/bin/../lib/gcc/arm-eabi/4.5.1/../../../../arm-eabi/lib\libm.a(lib_a-e_sqrt.o)
                0x0201f450                __ieee754_sqrt
 .text          0x0201f688      0x358 c:/devkitpro/devkitarm/bin/../lib/gcc/arm-eabi/4.5.1/../../../../arm-eabi/lib\libm.a(lib_a-k_cos.o)
                0x0201f688                __kernel_cos
 .text          0x0201f9e0      0xb08 c:/devkitpro/devkitarm/bin/../lib/gcc/arm-eabi/4.5.1/../../../../arm-eabi/lib\libm.a(lib_a-k_rem_pio2.o)
                0x0201f9e0                __kernel_rem_pio2
 .text          0x020204e8      0x218 c:/devkitpro/devkitarm/bin/../lib/gcc/arm-eabi/4.5.1/../../../../arm-eabi/lib\libm.a(lib_a-k_sin.o)
                0x020204e8                __kernel_sin
 .text          0x02020700       0x14 c:/devkitpro/devkitarm/bin/../lib/gcc/arm-eabi/4.5.1/../../../../arm-eabi/lib\libm.a(lib_a-s_fabs.o)
                0x02020700                fabs
 .text          0x02020714       0x14 c:/devkitpro/devkitarm/bin/../lib/gcc/arm-eabi/4.5.1/../../../../arm-eabi/lib\libm.a(lib_a-s_finite.o)
                0x02020714                finite
 .text          0x02020728      0x198 c:/devkitpro/devkitarm/bin/../lib/gcc/arm-eabi/4.5.1/../../../../arm-eabi/lib\libm.a(lib_a-s_floor.o)
                0x02020728                floor
 .text          0x020208c0       0x8c c:/devkitpro/devkitarm/bin/../lib/gcc/arm-eabi/4.5.1/../../../../arm-eabi/lib\libm.a(lib_a-s_fpclassify.o)
                0x020208c0                __fpclassifyd
 .text          0x0202094c        0x0 c:/devkitpro/devkitarm/bin/../lib/gcc/arm-eabi/4.5.1/../../../../arm-eabi/lib\libm.a(lib_a-s_lib_ver.o)
 .text          0x0202094c        0x8 c:/devkitpro/devkitarm/bin/../lib/gcc/arm-eabi/4.5.1/../../../../arm-eabi/lib\libm.a(lib_a-s_matherr.o)
                0x0202094c                matherr
 .text          0x02020954       0x10 c:/devkitpro/devkitarm/bin/../lib/gcc/arm-eabi/4.5.1/../../../../arm-eabi/lib\libm.a(lib_a-s_nan.o)
                0x02020954                nan
 .text          0x02020964      0x19c c:/devkitpro/devkitarm/bin/../lib/gcc/arm-eabi/4.5.1/../../../../arm-eabi/lib\libm.a(lib_a-s_rint.o)
                0x02020964                rint
 .text          0x02020b00      0x1a8 c:/devkitpro/devkitarm/bin/../lib/gcc/arm-eabi/4.5.1/../../../../arm-eabi/lib\libm.a(lib_a-s_scalbn.o)
                0x02020b00                scalbn
 .text          0x02020ca8       0x24 c:/devkitpro/devkitarm/bin/../lib/gcc/arm-eabi/4.5.1/../../../../arm-eabi/lib\libm.a(lib_a-s_copysign.o)
                0x02020ca8                copysign
 .text          0x02020ccc      0x114 c:/devkitpro/devkitarm/bin/../lib/gcc/arm-eabi/4.5.1\libgcc.a(_udivsi3.o)
                0x02020ccc                __aeabi_uidiv
                0x02020ccc                __udivsi3
                0x02020dc0                __aeabi_uidivmod
 .text          0x02020de0      0x148 c:/devkitpro/devkitarm/bin/../lib/gcc/arm-eabi/4.5.1\libgcc.a(_divsi3.o)
                0x02020de0                __divsi3
                0x02020de0                __aeabi_idiv
                0x02020f08                __aeabi_idivmod
 .text          0x02020f28        0x4 c:/devkitpro/devkitarm/bin/../lib/gcc/arm-eabi/4.5.1\libgcc.a(_dvmd_tls.o)
                0x02020f28                __aeabi_idiv0
                0x02020f28                __aeabi_ldiv0
 .text          0x02020f2c      0x41c c:/devkitpro/devkitarm/bin/../lib/gcc/arm-eabi/4.5.1\libgcc.a(_arm_addsubdf3.o)
                0x02020f2c                __aeabi_drsub
                0x02020f34                __aeabi_dsub
                0x02020f34                __subdf3
                0x02020f38                __aeabi_dadd
                0x02020f38                __adddf3
                0x02021248                __floatunsidf
                0x02021248                __aeabi_ui2d
                0x0202126c                __floatsidf
                0x0202126c                __aeabi_i2d
                0x02021294                __aeabi_f2d
                0x02021294                __extendsfdf2
                0x020212d4                __floatundidf
                0x020212d4                __aeabi_ul2d
                0x020212e8                __floatdidf
                0x020212e8                __aeabi_l2d
 .text          0x02021348      0x49c c:/devkitpro/devkitarm/bin/../lib/gcc/arm-eabi/4.5.1\libgcc.a(_arm_muldivdf3.o)
                0x02021348                __aeabi_dmul
                0x02021348                __muldf3
                0x020215d8                __divdf3
                0x020215d8                __aeabi_ddiv
 .text          0x020217e4      0x144 c:/devkitpro/devkitarm/bin/../lib/gcc/arm-eabi/4.5.1\libgcc.a(_arm_cmpdf2.o)
                0x020217e4                __gtdf2
                0x020217e4                __gedf2
                0x020217ec                __ltdf2
                0x020217ec                __ledf2
                0x020217f4                __nedf2
                0x020217f4                __eqdf2
                0x020217f4                __cmpdf2
                0x0202187c                __aeabi_cdrcmple
                0x02021898                __aeabi_cdcmpeq
                0x02021898                __aeabi_cdcmple
                0x020218b0                __aeabi_dcmpeq
                0x020218c8                __aeabi_dcmplt
                0x020218e0                __aeabi_dcmple
                0x020218f8                __aeabi_dcmpge
                0x02021910                __aeabi_dcmpgt
 .text          0x02021928       0x5c c:/devkitpro/devkitarm/bin/../lib/gcc/arm-eabi/4.5.1\libgcc.a(_arm_fixdfsi.o)
                0x02021928                __aeabi_d2iz
                0x02021928                __fixdfsi
 .text          0x02021984       0x54 c:/devkitpro/devkitarm/bin/../lib/gcc/arm-eabi/4.5.1\libgcc.a(_arm_fixunsdfsi.o)
                0x02021984                __aeabi_d2uiz
                0x02021984                __fixunsdfsi
 .text          0x020219d8       0xa0 c:/devkitpro/devkitarm/bin/../lib/gcc/arm-eabi/4.5.1\libgcc.a(_arm_truncdfsf2.o)
                0x020219d8                __truncdfsf2
                0x020219d8                __aeabi_d2f
 .text          0x02021a78      0x2ac c:/devkitpro/devkitarm/bin/../lib/gcc/arm-eabi/4.5.1\libgcc.a(_arm_addsubsf3.o)
                0x02021a78                __aeabi_frsub
                0x02021a80                __subsf3
                0x02021a80                __aeabi_fsub
                0x02021a84                __aeabi_fadd
                0x02021a84                __addsf3
                0x02021c40                __aeabi_ui2f
                0x02021c40                __floatunsisf
                0x02021c48                __aeabi_i2f
                0x02021c48                __floatsisf
                0x02021c68                __aeabi_ul2f
                0x02021c68                __floatundisf
                0x02021c78                __aeabi_l2f
                0x02021c78                __floatdisf
 .text          0x02021d24      0x2f8 c:/devkitpro/devkitarm/bin/../lib/gcc/arm-eabi/4.5.1\libgcc.a(_arm_muldivsf3.o)
                0x02021d24                __mulsf3
                0x02021d24                __aeabi_fmul
                0x02021ebc                __aeabi_fdiv
                0x02021ebc                __divsf3
 .text          0x0202201c      0x114 c:/devkitpro/devkitarm/bin/../lib/gcc/arm-eabi/4.5.1\libgcc.a(_arm_cmpsf2.o)
                0x0202201c                __gesf2
                0x0202201c                __gtsf2
                0x02022024                __lesf2
                0x02022024                __ltsf2
                0x0202202c                __nesf2
                0x0202202c                __eqsf2
                0x0202202c                __cmpsf2
                0x02022090                __aeabi_cfrcmple
                0x020220a0                __aeabi_cfcmpeq
                0x020220a0                __aeabi_cfcmple
                0x020220b8                __aeabi_fcmpeq
                0x020220d0                __aeabi_fcmplt
                0x020220e8                __aeabi_fcmple
                0x02022100                __aeabi_fcmpge
                0x02022118                __aeabi_fcmpgt
 .text          0x02022130       0x5c c:/devkitpro/devkitarm/bin/../lib/gcc/arm-eabi/4.5.1\libgcc.a(_arm_fixsfsi.o)
                0x02022130                __aeabi_f2iz
                0x02022130                __fixsfsi
 .text          0x0202218c       0x54 c:/devkitpro/devkitarm/bin/../lib/gcc/arm-eabi/4.5.1\libgcc.a(_arm_fixunssfsi.o)
                0x0202218c                __fixunssfsi
                0x0202218c                __aeabi_f2uiz
 .text          0x020221e0       0x48 c:/devkitpro/devkitarm/bin/../lib/gcc/arm-eabi/4.5.1\libgcc.a(_muldi3.o)
                0x020221e0                __muldi3
                0x020221e0                __aeabi_lmul
 .text          0x02022228       0x14 c:/devkitpro/devkitarm/bin/../lib/gcc/arm-eabi/4.5.1/../../../../arm-eabi/lib\libg.a(lib_a-abort.o)
                0x02022228                abort
 .text          0x0202223c       0x7c c:/devkitpro/devkitarm/bin/../lib/gcc/arm-eabi/4.5.1/../../../../arm-eabi/lib\libg.a(lib_a-bsearch.o)
                0x0202223c                bsearch
 .text          0x020222b8       0x28 c:/devkitpro/devkitarm/bin/../lib/gcc/arm-eabi/4.5.1/../../../../arm-eabi/lib\libg.a(lib_a-calloc.o)
                0x020222b8                calloc
 .text          0x020222e0       0x9c c:/devkitpro/devkitarm/bin/../lib/gcc/arm-eabi/4.5.1/../../../../arm-eabi/lib\libg.a(lib_a-callocr.o)
                0x020222e0                _calloc_r
 .text          0x0202237c       0x10 c:/devkitpro/devkitarm/bin/../lib/gcc/arm-eabi/4.5.1/../../../../arm-eabi/lib\libg.a(lib_a-errno.o)
                0x0202237c                __errno
 .text          0x0202238c      0x10c c:/devkitpro/devkitarm/bin/../lib/gcc/arm-eabi/4.5.1/../../../../arm-eabi/lib\libg.a(lib_a-fclose.o)
                0x0202238c                _fclose_r
                0x02022484                fclose
 .text          0x02022498      0x298 c:/devkitpro/devkitarm/bin/../lib/gcc/arm-eabi/4.5.1/../../../../arm-eabi/lib\libg.a(lib_a-fflush.o)
                0x02022498                _fflush_r
                0x020226f0                fflush
 .text          0x02022730      0x334 c:/devkitpro/devkitarm/bin/../lib/gcc/arm-eabi/4.5.1/../../../../arm-eabi/lib\libg.a(lib_a-findfp.o)
                0x02022740                _cleanup_r
                0x02022758                __sfmoreglue
                0x020227a0                _cleanup
                0x020227b0                __sinit
                0x02022918                __sfp
                0x02022a0c                __sfp_lock_acquire
                0x02022a10                __sfp_lock_release
                0x02022a14                __sinit_lock_acquire
                0x02022a18                __sinit_lock_release
                0x02022a1c                __fp_lock_all
                0x02022a40                __fp_unlock_all
 .text          0x02022a64       0x70 c:/devkitpro/devkitarm/bin/../lib/gcc/arm-eabi/4.5.1/../../../../arm-eabi/lib\libg.a(lib_a-fprintf.o)
                0x02022a64                _fprintf_r
                0x02022a94                fprintf
 .text          0x02022ad4      0x270 c:/devkitpro/devkitarm/bin/../lib/gcc/arm-eabi/4.5.1/../../../../arm-eabi/lib\libg.a(lib_a-fread.o)
                0x02022ad4                _fread_r
                0x02022d00                fread
 .text          0x02022d44      0x360 c:/devkitpro/devkitarm/bin/../lib/gcc/arm-eabi/4.5.1/../../../../arm-eabi/lib\libg.a(lib_a-freer.o)
                0x02022d44                _malloc_trim_r
                0x02022e40                _free_r
 .text          0x020230a4      0x10c c:/devkitpro/devkitarm/bin/../lib/gcc/arm-eabi/4.5.1/../../../../arm-eabi/lib\libg.a(lib_a-fwalk.o)
                0x020230a4                _fwalk
                0x02023128                _fwalk_reent
 .text          0x020231b0        0x0 c:/devkitpro/devkitarm/bin/../lib/gcc/arm-eabi/4.5.1/../../../../arm-eabi/lib\libg.a(lib_a-impure.o)
 .text          0x020231b0       0xc4 c:/devkitpro/devkitarm/bin/../lib/gcc/arm-eabi/4.5.1/../../../../arm-eabi/lib\libg.a(lib_a-init.o)
                0x020231b0                __libc_init_array
                0x02023230                __libc_fini_array
 .text          0x02023274       0x40 c:/devkitpro/devkitarm/bin/../lib/gcc/arm-eabi/4.5.1/../../../../arm-eabi/lib\libg.a(lib_a-malloc.o)
                0x02023274                malloc
                0x02023294                free
 .text          0x020232b4      0x710 c:/devkitpro/devkitarm/bin/../lib/gcc/arm-eabi/4.5.1/../../../../arm-eabi/lib\libg.a(lib_a-mallocr.o)
                0x020232b4                _malloc_r
 .text          0x020239c4       0xa8 c:/devkitpro/devkitarm/bin/../lib/gcc/arm-eabi/4.5.1/../../../../arm-eabi/lib\libg.a(lib_a-memcmp.o)
                0x020239c4                memcmp
 .text          0x02023a6c       0xf8 c:/devkitpro/devkitarm/bin/../lib/gcc/arm-eabi/4.5.1/../../../../arm-eabi/lib\libg.a(lib_a-memcpy.o)
                0x02023a6c                memcpy
 .text          0x02023b64      0x138 c:/devkitpro/devkitarm/bin/../lib/gcc/arm-eabi/4.5.1/../../../../arm-eabi/lib\libg.a(lib_a-memmove.o)
                0x02023b64                memmove
 .text          0x02023c9c      0x100 c:/devkitpro/devkitarm/bin/../lib/gcc/arm-eabi/4.5.1/../../../../arm-eabi/lib\libg.a(lib_a-memset.o)
                0x02023c9c                memset
 .text          0x02023d9c        0x8 c:/devkitpro/devkitarm/bin/../lib/gcc/arm-eabi/4.5.1/../../../../arm-eabi/lib\libg.a(lib_a-mlock.o)
                0x02023d9c                __malloc_lock
                0x02023da0                __malloc_unlock
 .text          0x02023da4       0x78 c:/devkitpro/devkitarm/bin/../lib/gcc/arm-eabi/4.5.1/../../../../arm-eabi/lib\libg.a(lib_a-rand.o)
                0x02023da4                srand
                0x02023dc0                rand
 .text          0x02023e1c       0x28 c:/devkitpro/devkitarm/bin/../lib/gcc/arm-eabi/4.5.1/../../../../arm-eabi/lib\libg.a(lib_a-realloc.o)
                0x02023e1c                realloc
 .text          0x02023e44      0x5c0 c:/devkitpro/devkitarm/bin/../lib/gcc/arm-eabi/4.5.1/../../../../arm-eabi/lib\libg.a(lib_a-reallocr.o)
                0x02023e44                _realloc_r
 .text          0x02024404      0x1d0 c:/devkitpro/devkitarm/bin/../lib/gcc/arm-eabi/4.5.1/../../../../arm-eabi/lib\libg.a(lib_a-refill.o)
                0x0202442c                __srefill_r
 .text          0x020245d4       0x2c c:/devkitpro/devkitarm/bin/../lib/gcc/arm-eabi/4.5.1/../../../../arm-eabi/lib\libg.a(lib_a-setjmp.o)
                0x020245d4                setjmp
                0x020245e8                longjmp
 .text          0x02024600      0x238 c:/devkitpro/devkitarm/bin/../lib/gcc/arm-eabi/4.5.1/../../../../arm-eabi/lib\libg.a(lib_a-signal.o)
                0x02024600                _init_signal_r
                0x02024654                _signal_r
                0x020246bc                _raise_r
                0x02024750                __sigtramp_r
                0x020247e4                raise
                0x020247f8                signal
                0x02024814                _init_signal
                0x02024824                __sigtramp
 .text          0x02024838      0x130 c:/devkitpro/devkitarm/bin/../lib/gcc/arm-eabi/4.5.1/../../../../arm-eabi/lib\libg.a(lib_a-snprintf.o)
                0x02024838                _snprintf_r
                0x020248cc                snprintf
 .text          0x02024968       0xe0 c:/devkitpro/devkitarm/bin/../lib/gcc/arm-eabi/4.5.1/../../../../arm-eabi/lib\libg.a(lib_a-stdio.o)
                0x02024968                __sread
                0x0202499c                __seofread
                0x020249a4                __swrite
                0x020249fc                __sseek
                0x02024a34                __sclose
 .text          0x02024a48      0x230 c:/devkitpro/devkitarm/bin/../lib/gcc/arm-eabi/4.5.1/../../../../arm-eabi/lib\libg.a(lib_a-strcmp.o)
                0x02024a48                strcmp
 .text          0x02024c78       0x60 c:/devkitpro/devkitarm/bin/../lib/gcc/arm-eabi/4.5.1/../../../../arm-eabi/lib\libg.a(lib_a-strlen.o)
                0x02024c78                strlen
 .text          0x02024cd8     0x16a0 c:/devkitpro/devkitarm/bin/../lib/gcc/arm-eabi/4.5.1/../../../../arm-eabi/lib\libg.a(lib_a-strtod.o)
                0x02024d20                _strtod_r
                0x0202630c                strtod
                0x02026328                strtof
 .text          0x02026378     0x233c c:/devkitpro/devkitarm/bin/../lib/gcc/arm-eabi/4.5.1/../../../../arm-eabi/lib\libg.a(lib_a-svfprintf.o)
                0x02026378                _svfprintf_r
 .text          0x020286b4     0x2588 c:/devkitpro/devkitarm/bin/../lib/gcc/arm-eabi/4.5.1/../../../../arm-eabi/lib\libg.a(lib_a-vfprintf.o)
                0x020286b4                _vfprintf_r
                0x0202ac10                vfprintf
 .text          0x0202ac3c      0x14c c:/devkitpro/devkitarm/bin/../lib/gcc/arm-eabi/4.5.1/../../../../arm-eabi/lib\libg.a(lib_a-wcrtomb.o)
                0x0202ac3c                _wcrtomb_r
                0x0202acd8                wcrtomb
 .text          0x0202ad88       0x68 c:/devkitpro/devkitarm/bin/../lib/gcc/arm-eabi/4.5.1/../../../../arm-eabi/lib\libg.a(lib_a-wcsrtombs.o)
                0x0202ad88                _wcsrtombs_r
                0x0202adb0                wcsrtombs
 .text          0x0202adf0      0x3a8 c:/devkitpro/devkitarm/bin/../lib/gcc/arm-eabi/4.5.1/../../../../arm-eabi/lib\libg.a(lib_a-wctomb_r.o)
                0x0202adf0                __utf8_wctomb
                0x0202af0c                _wctomb_r
                0x0202af5c                __ascii_wctomb
                0x0202af88                __sjis_wctomb
                0x0202b008                __eucjp_wctomb
                0x0202b0c0                __jis_wctomb
 .text          0x0202b198      0x134 c:/devkitpro/devkitarm/bin/../lib/gcc/arm-eabi/4.5.1/../../../../arm-eabi/lib\libg.a(lib_a-wsetup.o)
                0x0202b198                __swsetup_r
 *fill*         0x0202b2cc        0x4 ff
 .text          0x0202b2d0     0x1810 c:/devkitpro/devkitarm/bin/../lib/gcc/arm-eabi/4.5.1/../../../../arm-eabi/lib\libg.a(lib_a-dtoa.o)
                0x0202b4a0                _dtoa_r
 .text          0x0202cae0      0x9b4 c:/devkitpro/devkitarm/bin/../lib/gcc/arm-eabi/4.5.1/../../../../arm-eabi/lib\libg.a(lib_a-gdtoa-gethex.o)
                0x0202cbbc                __hexdig_init
                0x0202cc40                __gethex
 .text          0x0202d494      0x2bc c:/devkitpro/devkitarm/bin/../lib/gcc/arm-eabi/4.5.1/../../../../arm-eabi/lib\libg.a(lib_a-gdtoa-hexnan.o)
                0x0202d494                __hexnan
 .text          0x0202d750      0xbb0 c:/devkitpro/devkitarm/bin/../lib/gcc/arm-eabi/4.5.1/../../../../arm-eabi/lib\libg.a(lib_a-locale.o)
                0x0202df68                _setlocale_r
                0x0202e2a4                __locale_charset
                0x0202e2b0                __locale_msgcharset
                0x0202e2bc                __locale_cjk_lang
                0x0202e2cc                _localeconv_r
                0x0202e2d8                setlocale
                0x0202e2f4                localeconv
 .text          0x0202e300      0x164 c:/devkitpro/devkitarm/bin/../lib/gcc/arm-eabi/4.5.1/../../../../arm-eabi/lib\libg.a(lib_a-makebuf.o)
                0x0202e300                __smakebuf_r
 .text          0x0202e464      0x720 c:/devkitpro/devkitarm/bin/../lib/gcc/arm-eabi/4.5.1/../../../../arm-eabi/lib\libg.a(lib_a-mbtowc_r.o)
                0x0202e464                __utf8_mbtowc
                0x0202e768                _mbtowc_r
                0x0202e7bc                __ascii_mbtowc
                0x0202e800                __sjis_mbtowc
                0x0202e8d4                __eucjp_mbtowc
                0x0202ea00                __jis_mbtowc
 .text          0x0202eb84      0x108 c:/devkitpro/devkitarm/bin/../lib/gcc/arm-eabi/4.5.1/../../../../arm-eabi/lib\libg.a(lib_a-memchr.o)
                0x0202eb84                memchr
 .text          0x0202ec8c      0xd3c c:/devkitpro/devkitarm/bin/../lib/gcc/arm-eabi/4.5.1/../../../../arm-eabi/lib\libg.a(lib_a-mprec.o)
                0x0202ec8c                _Balloc
                0x0202ed14                _Bfree
                0x0202ed30                __multadd
                0x0202ee0c                __s2b
                0x0202eefc                __hi0bits
                0x0202ef4c                __lo0bits
                0x0202efdc                __i2b
                0x0202f000                __multiply
                0x0202f1f0                __pow5mult
                0x0202f2e8                __lshift
                0x0202f3ec                __mcmp
                0x0202f44c                __mdiff
                0x0202f5a4                __ulp
                0x0202f604                __b2d
                0x0202f6cc                __d2b
                0x0202f7d8                __ratio
                0x0202f878                _mprec_log10
                0x0202f8cc                __copybits
                0x0202f940                __any_on
 .text          0x0202f9c8        0xc c:/devkitpro/devkitarm/bin/../lib/gcc/arm-eabi/4.5.1/../../../../arm-eabi/lib\libg.a(lib_a-sf_nan.o)
                0x0202f9c8                nanf
 .text          0x0202f9d4       0x64 c:/devkitpro/devkitarm/bin/../lib/gcc/arm-eabi/4.5.1/../../../../arm-eabi/lib\libg.a(lib_a-strcasecmp.o)
                0x0202f9d4                strcasecmp
 .text          0x0202fa38       0xb0 c:/devkitpro/devkitarm/bin/../lib/gcc/arm-eabi/4.5.1/../../../../arm-eabi/lib\libg.a(lib_a-strcat.o)
                0x0202fa38                strcat
 .text          0x0202fae8      0x23c c:/devkitpro/devkitarm/bin/../lib/gcc/arm-eabi/4.5.1/../../../../arm-eabi/lib\libg.a(lib_a-strchr.o)
                0x0202fae8                strchr
 .text          0x0202fd24       0xf0 c:/devkitpro/devkitarm/bin/../lib/gcc/arm-eabi/4.5.1/../../../../arm-eabi/lib\libg.a(lib_a-strcpy.o)
                0x0202fd24                strcpy
 .text          0x0202fe14       0x7c c:/devkitpro/devkitarm/bin/../lib/gcc/arm-eabi/4.5.1/../../../../arm-eabi/lib\libg.a(lib_a-strlcpy.o)
                0x0202fe14                strlcpy
 .text          0x0202fe90       0x7c c:/devkitpro/devkitarm/bin/../lib/gcc/arm-eabi/4.5.1/../../../../arm-eabi/lib\libg.a(lib_a-strncasecmp.o)
                0x0202fe90                strncasecmp
 .text          0x0202ff0c      0x170 c:/devkitpro/devkitarm/bin/../lib/gcc/arm-eabi/4.5.1/../../../../arm-eabi/lib\libg.a(lib_a-strncmp.o)
                0x0202ff0c                strncmp
 .text          0x0203007c       0xec c:/devkitpro/devkitarm/bin/../lib/gcc/arm-eabi/4.5.1/../../../../arm-eabi/lib\libg.a(lib_a-strncpy.o)
                0x0203007c                strncpy
 .text          0x02030168      0x1f4 c:/devkitpro/devkitarm/bin/../lib/gcc/arm-eabi/4.5.1/../../../../arm-eabi/lib\libg.a(lib_a-strtol.o)
                0x02030168                _strtol_r
                0x02030330                strtol
 .text          0x0203035c     0x16b4 c:/devkitpro/devkitarm/bin/../lib/gcc/arm-eabi/4.5.1/../../../../arm-eabi/lib\libg.a(lib_a-svfiprintf.o)
                0x0203035c                __ssprint_r
                0x020304f0                _svfiprintf_r
 .text          0x02031a10     0x16dc c:/devkitpro/devkitarm/bin/../lib/gcc/arm-eabi/4.5.1/../../../../arm-eabi/lib\libg.a(lib_a-vfiprintf.o)
                0x02031a10                __sprint_r
                0x02031ad0                _vfiprintf_r
                0x020330c0                vfiprintf
 .text          0x020330ec      0x1dc c:/devkitpro/devkitarm/bin/../lib/gcc/arm-eabi/4.5.1/../../../../arm-eabi/lib\libg.a(lib_a-wcsnrtombs.o)
                0x020330ec                _wcsnrtombs_r
                0x0203327c                wcsnrtombs
 .text          0x020332c8       0x18 c:/devkitpro/devkitarm/bin/../lib/gcc/arm-eabi/4.5.1/../../../../arm-eabi/lib\libg.a(lib_a-ctype_.o)
                0x020332c8                __set_ctype
 .text          0x020332e0      0x1c0 c:/devkitpro/devkitarm/bin/../lib/gcc/arm-eabi/4.5.1/../../../../arm-eabi/lib\libg.a(lib_a-fputwc.o)
                0x020332e0                _fputwc_r
                0x02033454                fputwc
 .text          0x020334a0      0x4ac c:/devkitpro/devkitarm/bin/../lib/gcc/arm-eabi/4.5.1/../../../../arm-eabi/lib\libg.a(lib_a-fvwrite.o)
                0x020334a0                __sfvwrite_r
 .text          0x0203394c      0x100 c:/devkitpro/devkitarm/bin/../lib/gcc/arm-eabi/4.5.1/../../../../arm-eabi/lib\libg.a(lib_a-getenv_r.o)
                0x0203394c                _findenv_r
                0x02033a30                _getenv_r
 .text          0x02033a4c      0x15c c:/devkitpro/devkitarm/bin/../lib/gcc/arm-eabi/4.5.1/../../../../arm-eabi/lib\libg.a(lib_a-wbuf.o)
                0x02033a4c                __swbuf_r
                0x02033b8c                __swbuf
 .text          0x02033ba8        0x0 c:/devkitpro/devkitarm/bin/../lib/gcc/arm-eabi/4.5.1/../../../../arm-eabi/lib\libg.a(lib_a-environ.o)
 .text          0x02033ba8        0x8 c:/devkitpro/devkitarm/bin/../lib/gcc/arm-eabi/4.5.1/../../../../arm-eabi/lib\libg.a(lib_a-envlock.o)
                0x02033ba8                __env_lock
                0x02033bac                __env_unlock
 .text          0x02033bb0       0x78 c:/devkitpro/devkitarm/bin/../lib/gcc/arm-eabi/4.5.1/../../../../arm-eabi/lib\libsysbase.a(close.o)
                0x02033bb0                _close_r
 .text          0x02033c28       0x88 c:/devkitpro/devkitarm/bin/../lib/gcc/arm-eabi/4.5.1/../../../../arm-eabi/lib\libsysbase.a(fstat.o)
                0x02033c28                _fstat_r
 .text          0x02033cb0       0x10 c:/devkitpro/devkitarm/bin/../lib/gcc/arm-eabi/4.5.1/../../../../arm-eabi/lib\libsysbase.a(getpid.o)
                0x02033cb0                _getpid_r
 .text          0x02033cc0        0x8 c:/devkitpro/devkitarm/bin/../lib/gcc/arm-eabi/4.5.1/../../../../arm-eabi/lib\libsysbase.a(isatty.o)
                0x02033cc0                _isatty_r
 .text          0x02033cc8       0x10 c:/devkitpro/devkitarm/bin/../lib/gcc/arm-eabi/4.5.1/../../../../arm-eabi/lib\libsysbase.a(kill.o)
                0x02033cc8                _kill_r
 .text          0x02033cd8       0x8c c:/devkitpro/devkitarm/bin/../lib/gcc/arm-eabi/4.5.1/../../../../arm-eabi/lib\libsysbase.a(lseek.o)
                0x02033cd8                _lseek_r
 .text          0x02033d64       0x8c c:/devkitpro/devkitarm/bin/../lib/gcc/arm-eabi/4.5.1/../../../../arm-eabi/lib\libsysbase.a(read.o)
                0x02033d64                _read_r
 .text          0x02033df0       0x78 c:/devkitpro/devkitarm/bin/../lib/gcc/arm-eabi/4.5.1/../../../../arm-eabi/lib\libsysbase.a(sbrk.o)
                0x02033df0                _sbrk_r
 .text          0x02033e68       0x68 c:/devkitpro/devkitarm/bin/../lib/gcc/arm-eabi/4.5.1/../../../../arm-eabi/lib\libsysbase.a(times.o)
                0x02033e68                _times
                0x02033e84                _times_r
                0x02033e8c                _gettimeofday_r
 .text          0x02033ed0       0x8c c:/devkitpro/devkitarm/bin/../lib/gcc/arm-eabi/4.5.1/../../../../arm-eabi/lib\libsysbase.a(write.o)
                0x02033ed0                _write_r
 .text          0x02033f5c       0x20 c:/devkitpro/devkitarm/bin/../lib/gcc/arm-eabi/4.5.1/../../../../arm-eabi/lib\libsysbase.a(_exit.o)
                0x02033f5c                _exit
 .text          0x02033f7c        0x0 c:/devkitpro/devkitarm/bin/../lib/gcc/arm-eabi/4.5.1/../../../../arm-eabi/lib\libsysbase.a(malloc_vars.o)
 .text          0x02033f7c       0x84 c:/devkitpro/devkitarm/bin/../lib/gcc/arm-eabi/4.5.1/../../../../arm-eabi/lib\libsysbase.a(build_argv.o)
                0x02033f7c                build_argv
 .text          0x02034000        0x0 c:/devkitpro/devkitarm/bin/../lib/gcc/arm-eabi/4.5.1/../../../../arm-eabi/lib\libsysbase.a(syscall_support.o)
 .text          0x02034000       0xac c:/devkitpro/devkitarm/bin/../lib/gcc/arm-eabi/4.5.1/../../../../arm-eabi/lib\libsysbase.a(handle_manager.o)
                0x02034000                __release_handle
                0x02034038                __alloc_handle
                0x02034090                __get_handle
 .text          0x020340ac      0x1b4 c:/devkitpro/devkitarm/bin/../lib/gcc/arm-eabi/4.5.1/../../../../arm-eabi/lib\libsysbase.a(iosupport.o)
                0x020340ac                setDefaultDevice
                0x020340c4                FindDevice
                0x02034170                RemoveDevice
                0x020341a0                AddDevice
                0x02034238                GetDeviceOpTab
 .text          0x02034260       0x3c c:/devkitpro/devkitarm/bin/../lib/gcc/arm-eabi/4.5.1\libgcc.a(_aeabi_uldivmod.o)
                0x02034260                __aeabi_uldivmod
 .text          0x0203429c       0x80 c:/devkitpro/devkitarm/bin/../lib/gcc/arm-eabi/4.5.1\libgcc.a(bpabi.o)
                0x0203429c                __gnu_ldivmod_helper
                0x020342dc                __gnu_uldivmod_helper
 .text          0x0203431c      0xf3c c:/devkitpro/devkitarm/bin/../lib/gcc/arm-eabi/4.5.1\libgcc.a(unwind-arm.o)
                0x02034754                _Unwind_VRS_Get
                0x020347c8                _Unwind_VRS_Set
                0x02034c34                __aeabi_unwind_cpp_pr2
                0x02034c3c                __aeabi_unwind_cpp_pr1
                0x02034c44                __aeabi_unwind_cpp_pr0
                0x02034c4c                _Unwind_VRS_Pop
                0x02034fe8                _Unwind_GetCFA
                0x02034ff0                __gnu_Unwind_RaiseException
                0x020350a4                __gnu_Unwind_ForcedUnwind
                0x020350c8                __gnu_Unwind_Resume
                0x02035134                __gnu_Unwind_Resume_or_Rethrow
                0x02035154                _Unwind_Complete
                0x02035158                _Unwind_DeleteException
                0x0203517c                __gnu_Unwind_Backtrace
 .text          0x02035258      0x1b0 c:/devkitpro/devkitarm/bin/../lib/gcc/arm-eabi/4.5.1\libgcc.a(libunwind.o)
                0x02035258                __restore_core_regs
                0x02035258                restore_core_regs
                0x02035274                __gnu_Unwind_Restore_VFP
                0x0203527c                __gnu_Unwind_Save_VFP
                0x02035284                __gnu_Unwind_Restore_VFP_D
                0x0203528c                __gnu_Unwind_Save_VFP_D
                0x02035294                __gnu_Unwind_Restore_VFP_D_16_to_31
                0x0203529c                __gnu_Unwind_Save_VFP_D_16_to_31
                0x020352a4                __gnu_Unwind_Restore_WMMXD
                0x020352e8                __gnu_Unwind_Save_WMMXD
                0x0203532c                __gnu_Unwind_Restore_WMMXC
                0x02035340                __gnu_Unwind_Save_WMMXC
                0x02035354                ___Unwind_RaiseException
                0x02035354                _Unwind_RaiseException
                0x02035378                _Unwind_Resume
                0x02035378                ___Unwind_Resume
                0x0203539c                _Unwind_Resume_or_Rethrow
                0x0203539c                ___Unwind_Resume_or_Rethrow
                0x020353c0                _Unwind_ForcedUnwind
                0x020353c0                ___Unwind_ForcedUnwind
                0x020353e4                ___Unwind_Backtrace
                0x020353e4                _Unwind_Backtrace
 .text          0x02035408      0x554 c:/devkitpro/devkitarm/bin/../lib/gcc/arm-eabi/4.5.1\libgcc.a(pr-support.o)
                0x020354a8                __gnu_unwind_execute
                0x020358d0                __gnu_unwind_frame
                0x02035918                _Unwind_GetRegionStart
                0x0203592c                _Unwind_GetLanguageSpecificData
                0x0203594c                _Unwind_GetDataRelBase
                0x02035954                _Unwind_GetTextRelBase
 .text          0x0203595c      0x4b8 c:/devkitpro/devkitarm/bin/../lib/gcc/arm-eabi/4.5.1\libgcc.a(_divdi3.o)
                0x0203595c                __divdi3
 .text          0x02035e14      0x44c c:/devkitpro/devkitarm/bin/../lib/gcc/arm-eabi/4.5.1\libgcc.a(_udivdi3.o)
                0x02035e14                __udivdi3
 .text          0x02036260       0x48 c:/devkitpro/devkitarm/bin/../lib/gcc/arm-eabi/4.5.1\libgcc.a(_clzsi2.o)
                0x02036260                __clzsi2
 .text          0x020362a8        0x0 c:/devkitpro/devkitarm/bin/../lib/gcc/arm-eabi/4.5.1/crtend.o
 .text          0x020362a8        0x0 c:/devkitpro/devkitarm/bin/../lib/gcc/arm-eabi/4.5.1/crtn.o
 .text.stub     0x020362a8        0x8 linker stubs
 *(.text.*)
 *(.stub)
 *(.gnu.warning)
 *(.gnu.linkonce.t*)
 *(.glue_7)
 .glue_7        0x00000000        0x0 linker stubs
 *(.glue_7t)
 .glue_7t       0x00000000        0x0 linker stubs
                0x020362b0                . = ALIGN (0x4)

.vfp11_veneer   0x00000000        0x0 load address 0x020362b0
 .vfp11_veneer  0x00000000        0x0 linker stubs

.v4_bx          0x00000000        0x0 load address 0x020362b0
 .v4_bx         0x00000000        0x0 linker stubs

.fini           0x020362b0       0x18
 *(.fini)
 .fini          0x020362b0        0xc c:/devkitpro/devkitarm/bin/../lib/gcc/arm-eabi/4.5.1/crti.o
                0x020362b0                _fini
 .fini          0x020362bc        0xc c:/devkitpro/devkitarm/bin/../lib/gcc/arm-eabi/4.5.1/crtn.o
                0x020362c8                __text_end = .

.rodata         0x020362c8    0x116e8
 *(.rodata)
 .rodata        0x020362c8      0x334 tails.png.o
                0x020362c8                tails_png
                0x020365f7                tails_png_end
                0x020365f8                tails_png_size
 .rodata        0x020365fc       0x48 c:/devkitPro/libnds/lib\libul.a(drawing.o)
                0x020365fc                ul_pixelSizes
                0x02036608                ul_pixelWidth
                0x0203662c                ul_paletteSizes
                0x02036638                ul_pixelsPerByte
 .rodata        0x02036644      0x810 c:/devkitPro/libnds/lib\libul.a(text.o)
                0x02036654                ul_lcdFont_data
 .rodata        0x02036e54     0x246c c:/devkitPro/libnds/lib\libul.a(ulShowSplashScreen1.o)
                0x02036e54                ul_logo_msk
                0x0203763c                ul_logo_base
                0x02038230                ul_logo
                0x02038d4c                ul_circle_mask
                0x020392b0                ul_circle_mask_size
                0x020392b4                ul_logo_size
                0x020392b8                ul_logo_base_size
                0x020392bc                ul_logo_msk_size
 .rodata        0x020392c0     0xa62c c:/devkitPro/libnds/lib\libul.a(ulShowSplashScreen2.o)
                0x020392c0                ul_neoflashlogo
                0x020438e8                ul_neoflashlogo_size
 .rodata        0x020438ec       0x10 c:/devkitPro/libnds/lib\libul.a(libLoadGif.o)
                0x020438ec                InterlacedOffset
                0x020438f4                InterlacedJumps
 .rodata        0x020438fc       0x1c c:/devkitPro/libnds/lib\libul.a(dgif_lib.o)
 .rodata        0x02043918      0x1a0 c:/devkitPro/libnds/lib\libul.a(gba-jpeg-decode.o)
                0x02043918                JPEG_ToZigZag
                0x02043958                JPEG_ComponentRange
                0x020439b8                JPEG_AANScaleFactor
 .rodata        0x02043ab8       0xfc c:/devkitPro/libnds/lib\libpng.a(png.o)
                0x02043ab8                png_libpng_ver
                0x02043aca                png_sig
                0x02043ad4                png_pass_start
                0x02043af0                png_pass_inc
                0x02043b0c                png_pass_ystart
                0x02043b28                png_pass_yinc
                0x02043b44                png_pass_mask
                0x02043b60                png_pass_dsp_mask
 .rodata        0x02043bb4       0x24 c:/devkitPro/libnds/lib\libpng.a(pngrtran.o)
 .rodata        0x02043bd8       0x1f c:/devkitPro/libnds/lib\libpng.a(pngrutil.o)
 .rodata        0x02043bf7      0x300 c:/devkitPro/libnds/lib\libpng.a(pngtrans.o)
 *fill*         0x02043ef7        0x1 ff
 .rodata        0x02043ef8     0x2000 c:/devkitPro/libnds/lib\libz.a(crc32.o)
 .rodata        0x02045ef8      0x8a6 c:/devkitPro/libnds/lib\libz.a(inflate.o)
 .rodata        0x0204679e      0x12c c:/devkitPro/libnds/lib\libz.a(inftrees.o)
                0x0204679e                inflate_copyright
 *fill*         0x020468ca        0x2 ff
 .rodata        0x020468cc       0x28 c:/devkitPro/libnds/lib\libz.a(zutil.o)
                0x020468cc                z_errmsg
 .rodata        0x020468f4      0x308 c:/devkitPro/libnds/lib\libnds9.a(trig.o)
                0x020468f4                SIN_LUT
                0x020469f8                TAN_LUT
 .rodata        0x02046bfc       0x68 c:/devkitPro/libnds/lib\libnds9.a(videoGL.o)
 *fill*         0x02046c64        0x4 ff
 .rodata        0x02046c68       0x30 c:/devkitpro/devkitarm/bin/../lib/gcc/arm-eabi/4.5.1/../../../../arm-eabi/lib\libm.a(lib_a-e_pow.o)
 .rodata        0x02046c98      0x188 c:/devkitpro/devkitarm/bin/../lib/gcc/arm-eabi/4.5.1/../../../../arm-eabi/lib\libm.a(lib_a-e_rem_pio2.o)
 .rodata        0x02046e20       0x50 c:/devkitpro/devkitarm/bin/../lib/gcc/arm-eabi/4.5.1/../../../../arm-eabi/lib\libm.a(lib_a-k_rem_pio2.o)
 .rodata        0x02046e70       0x10 c:/devkitpro/devkitarm/bin/../lib/gcc/arm-eabi/4.5.1/../../../../arm-eabi/lib\libm.a(lib_a-s_rint.o)
 .rodata        0x02046e80        0x4 c:/devkitpro/devkitarm/bin/../lib/gcc/arm-eabi/4.5.1/../../../../arm-eabi/lib\libg.a(lib_a-impure.o)
                0x02046e80                _global_impure_ptr
 *fill*         0x02046e84        0x4 ff
 .rodata        0x02046e88       0x28 c:/devkitpro/devkitarm/bin/../lib/gcc/arm-eabi/4.5.1/../../../../arm-eabi/lib\libg.a(lib_a-strtod.o)
 .rodata        0x02046eb0       0x20 c:/devkitpro/devkitarm/bin/../lib/gcc/arm-eabi/4.5.1/../../../../arm-eabi/lib\libg.a(lib_a-svfprintf.o)
 .rodata        0x02046ed0       0x20 c:/devkitpro/devkitarm/bin/../lib/gcc/arm-eabi/4.5.1/../../../../arm-eabi/lib\libg.a(lib_a-vfprintf.o)
 .rodata        0x02046ef0       0x54 c:/devkitpro/devkitarm/bin/../lib/gcc/arm-eabi/4.5.1/../../../../arm-eabi/lib\libg.a(lib_a-locale.o)
 .rodata        0x02046f44       0x90 c:/devkitpro/devkitarm/bin/../lib/gcc/arm-eabi/4.5.1/../../../../arm-eabi/lib\libg.a(lib_a-mbtowc_r.o)
 *fill*         0x02046fd4        0x4 ff
 .rodata        0x02046fd8      0x128 c:/devkitpro/devkitarm/bin/../lib/gcc/arm-eabi/4.5.1/../../../../arm-eabi/lib\libg.a(lib_a-mprec.o)
                0x02046fe8                __mprec_tens
                0x020470b0                __mprec_bigtens
                0x020470d8                __mprec_tinytens
 .rodata        0x02047100       0x20 c:/devkitpro/devkitarm/bin/../lib/gcc/arm-eabi/4.5.1/../../../../arm-eabi/lib\libg.a(lib_a-svfiprintf.o)
 .rodata        0x02047120       0x20 c:/devkitpro/devkitarm/bin/../lib/gcc/arm-eabi/4.5.1/../../../../arm-eabi/lib\libg.a(lib_a-vfiprintf.o)
 .rodata        0x02047140      0x104 c:/devkitpro/devkitarm/bin/../lib/gcc/arm-eabi/4.5.1/../../../../arm-eabi/lib\libg.a(lib_a-ctype_.o)
                0x02047140                _ctype_
 .rodata        0x02047244       0x64 c:/devkitpro/devkitarm/bin/../lib/gcc/arm-eabi/4.5.1/../../../../arm-eabi/lib\libsysbase.a(iosupport.o)
                0x02047244                dotab_stdnull
 *all.rodata*(*)
 *(.roda)
 *(.rodata.*)
 .rodata.str1.4
                0x020472a8        0xc c:/devkitPro/libnds/lib\libul.a(text.o)
 .rodata.str1.4
                0x020472b4       0x3f c:/devkitPro/libnds/lib\libul.a(ulShowSplashScreen1.o)
                                 0x40 (size before relaxing)
 .rodata.str1.1
                0x020472f3        0x6 c:/devkitPro/libnds/lib\libul.a(libLoadPng.o)
 .rodata.str1.1
                0x020472f9      0x117 c:/devkitPro/libnds/lib\libpng.a(png.o)
 .rodata.str1.1
                0x02047410       0x83 c:/devkitPro/libnds/lib\libpng.a(pngread.o)
 .rodata.str1.1
                0x02047493       0x25 c:/devkitPro/libnds/lib\libpng.a(pngrtran.o)
 .rodata.str1.1
                0x020474b8       0x48 c:/devkitPro/libnds/lib\libpng.a(pngerror.o)
 .rodata.str1.1
                0x02047500      0x119 c:/devkitPro/libnds/lib\libpng.a(pngrutil.o)
 .rodata.str1.1
                0x02047619      0x1a8 c:/devkitPro/libnds/lib\libz.a(inflate.o)
 .rodata.str1.1
                0x00000000       0x50 c:/devkitPro/libnds/lib\libz.a(inffast.o)
 .rodata.str1.1
                0x020477c1       0x74 c:/devkitPro/libnds/lib\libz.a(zutil.o)
                                 0x7b (size before relaxing)
 *fill*         0x02047835        0x3 ff
 .rodata.str1.4
                0x02047838        0x4 c:/devkitpro/devkitarm/bin/../lib/gcc/arm-eabi/4.5.1/../../../../arm-eabi/lib\libm.a(lib_a-w_pow.o)
 .rodata.str1.4
                0x00000000        0x4 c:/devkitpro/devkitarm/bin/../lib/gcc/arm-eabi/4.5.1/../../../../arm-eabi/lib\libm.a(lib_a-e_pow.o)
 .rodata.str1.4
                0x0204783c        0x2 c:/devkitpro/devkitarm/bin/../lib/gcc/arm-eabi/4.5.1/../../../../arm-eabi/lib\libg.a(lib_a-impure.o)
                                  0x4 (size before relaxing)
 *fill*         0x0204783e        0x2 ff
 .rodata.str1.4
                0x02047840        0xf c:/devkitpro/devkitarm/bin/../lib/gcc/arm-eabi/4.5.1/../../../../arm-eabi/lib\libg.a(lib_a-strtod.o)
                                 0x10 (size before relaxing)
 *fill*         0x0204784f        0x1 ff
 .rodata.str1.4
                0x02047850       0x42 c:/devkitpro/devkitarm/bin/../lib/gcc/arm-eabi/4.5.1/../../../../arm-eabi/lib\libg.a(lib_a-svfprintf.o)
                                 0x44 (size before relaxing)
 .rodata.str1.4
                0x00000000       0x44 c:/devkitpro/devkitarm/bin/../lib/gcc/arm-eabi/4.5.1/../../../../arm-eabi/lib\libg.a(lib_a-vfprintf.o)
 *fill*         0x02047892        0x2 ff
 .rodata.str1.4
                0x02047894       0x10 c:/devkitpro/devkitarm/bin/../lib/gcc/arm-eabi/4.5.1/../../../../arm-eabi/lib\libg.a(lib_a-dtoa.o)
                                 0x14 (size before relaxing)
 .rodata.str1.4
                0x020478a4       0x1b c:/devkitpro/devkitarm/bin/../lib/gcc/arm-eabi/4.5.1/../../../../arm-eabi/lib\libg.a(lib_a-gdtoa-gethex.o)
                                 0x1c (size before relaxing)
 *fill*         0x020478bf        0x1 ff
 .rodata.str1.4
                0x020478c0       0xe8 c:/devkitpro/devkitarm/bin/../lib/gcc/arm-eabi/4.5.1/../../../../arm-eabi/lib\libg.a(lib_a-locale.o)
                                 0xf0 (size before relaxing)
 .rodata.str1.4
                0x00000000       0x30 c:/devkitpro/devkitarm/bin/../lib/gcc/arm-eabi/4.5.1/../../../../arm-eabi/lib\libg.a(lib_a-svfiprintf.o)
 .rodata.str1.4
                0x00000000       0x30 c:/devkitpro/devkitarm/bin/../lib/gcc/arm-eabi/4.5.1/../../../../arm-eabi/lib\libg.a(lib_a-vfiprintf.o)
 .rodata.str1.4
                0x020479a8        0x8 c:/devkitpro/devkitarm/bin/../lib/gcc/arm-eabi/4.5.1/../../../../arm-eabi/lib\libsysbase.a(iosupport.o)
 *(.gnu.linkonce.r*)
                0x020479b0                . = ALIGN (0x4)

.ARM.extab      0x020479b0       0x30
 *(.ARM.extab* .gnu.linkonce.armextab.*)
 .ARM.extab     0x020479b0        0x0 c:/devkitpro/devkitarm/bin/../lib/gcc/arm-eabi/4.5.1\libgcc.a(bpabi.o)
 .ARM.extab     0x020479b0       0x18 c:/devkitpro/devkitarm/bin/../lib/gcc/arm-eabi/4.5.1\libgcc.a(unwind-arm.o)
 .ARM.extab     0x020479c8       0x18 c:/devkitpro/devkitarm/bin/../lib/gcc/arm-eabi/4.5.1\libgcc.a(pr-support.o)
 .ARM.extab     0x020479e0        0x0 c:/devkitpro/devkitarm/bin/../lib/gcc/arm-eabi/4.5.1\libgcc.a(_divdi3.o)
 .ARM.extab     0x020479e0        0x0 c:/devkitpro/devkitarm/bin/../lib/gcc/arm-eabi/4.5.1\libgcc.a(_udivdi3.o)
                0x020479e0                __exidx_start = .

.ARM.exidx      0x020479e0       0xe0
 *(.ARM.exidx* .gnu.linkonce.armexidx.*)
 .ARM.exidx     0x020479e0        0x8 c:/devkitpro/devkitarm/bin/../lib/gcc/arm-eabi/4.5.1\libgcc.a(bpabi.o)
                                 0x10 (size before relaxing)
 .ARM.exidx     0x020479e8       0x88 c:/devkitpro/devkitarm/bin/../lib/gcc/arm-eabi/4.5.1\libgcc.a(unwind-arm.o)
                                 0xc0 (size before relaxing)
 .ARM.exidx     0x02047a70       0x38 c:/devkitpro/devkitarm/bin/../lib/gcc/arm-eabi/4.5.1\libgcc.a(pr-support.o)
                                 0x48 (size before relaxing)
 .ARM.exidx     0x02047aa8        0x8 c:/devkitpro/devkitarm/bin/../lib/gcc/arm-eabi/4.5.1\libgcc.a(_divdi3.o)
 .ARM.exidx     0x02047ab0       0x10 c:/devkitpro/devkitarm/bin/../lib/gcc/arm-eabi/4.5.1\libgcc.a(_udivdi3.o)
                                  0x8 (size before relaxing)
                0x02047ac0                __exidx_end = .
                0x02047ac0                . = ALIGN (0x4)
                0x02047ac0                PROVIDE (__preinit_array_start, .)

.preinit_array
 *(.preinit_array)
                0x02047ac0                PROVIDE (__preinit_array_end, .)
                0x02047ac0                PROVIDE (__init_array_start, .)

.init_array     0x02047ac0        0x4
 *(SORT(.init_array.*))
 *(.init_array)
 .init_array    0x02047ac0        0x4 c:/devkitpro/devkitarm/bin/../lib/gcc/arm-eabi/4.5.1/crtbegin.o
                0x02047ac4                PROVIDE (__init_array_end, .)
                0x02047ac4                PROVIDE (__fini_array_start, .)

.fini_array     0x02047ac4        0x4
 *(.fini_array)
 .fini_array    0x02047ac4        0x4 c:/devkitpro/devkitarm/bin/../lib/gcc/arm-eabi/4.5.1/crtbegin.o
 *(SORT(.fini_array.*))
                0x02047ac8                PROVIDE (__fini_array_end, .)

.ctors          0x02047ac8        0x0
 *crtbegin.o(.ctors)
 *(EXCLUDE_FILE(*crtend.o) .ctors)
 *(SORT(.ctors.*))
 *(.ctors)
                0x02047ac8                . = ALIGN (0x4)

.dtors          0x02047ac8        0x0
 *crtbegin.o(.dtors)
 *(EXCLUDE_FILE(*crtend.o) .dtors)
 *(SORT(.dtors.*))
 *(.dtors)
                0x02047ac8                . = ALIGN (0x4)

.eh_frame       0x02047ac8        0x4
 *(.eh_frame)
 .eh_frame      0x02047ac8        0x0 c:/devkitpro/devkitarm/bin/../lib/gcc/arm-eabi/4.5.1/crtbegin.o
 .eh_frame      0x02047ac8        0x4 c:/devkitpro/devkitarm/bin/../lib/gcc/arm-eabi/4.5.1/crtend.o
                0x02047acc                . = ALIGN (0x4)

.gcc_except_table
                0x02047acc        0x0
 *(.gcc_except_table)
                0x02047acc                . = ALIGN (0x4)

.jcr            0x02047acc        0x4
 *(.jcr)
 .jcr           0x02047acc        0x0 c:/devkitpro/devkitarm/bin/../lib/gcc/arm-eabi/4.5.1/crtbegin.o
 .jcr           0x02047acc        0x4 c:/devkitpro/devkitarm/bin/../lib/gcc/arm-eabi/4.5.1/crtend.o

.got
 *(.got.plt)
 *(.got)
 *(.rel.got)

.ewram          0x02047ad0        0x0
                0x02047ad0                __ewram_start = ABSOLUTE (.)
 *(.ewram)
 *ewram.*(.text)
                0x02047ad0                . = ALIGN (0x4)

.data           0x02047ad0      0xb28
                0x02047ad0                __data_start = ABSOLUTE (.)
 *(.data)
 .data          0x02047ad0        0x0 c:/devkitpro/devkitarm/bin/../lib/gcc/arm-eabi/4.5.1/../../../../arm-eabi/lib/ds_arm9_crt0.o
 .data          0x02047ad0        0x0 c:/devkitpro/devkitarm/bin/../lib/gcc/arm-eabi/4.5.1/crti.o
 .data          0x02047ad0        0x4 c:/devkitpro/devkitarm/bin/../lib/gcc/arm-eabi/4.5.1/crtbegin.o
                0x02047ad0                __dso_handle
 .data          0x02047ad4        0x0 tails.png.o
 .data          0x02047ad4        0x0 main.o
 .data          0x02047ad4        0x0 c:/devkitPro/libnds/lib\libul.a(ulib.o)
 .data          0x02047ad4        0x0 c:/devkitPro/libnds/lib\libul.a(drawing.o)
 .data          0x02047ad4       0x28 c:/devkitPro/libnds/lib\libul.a(text.o)
                0x02047ad4                ul_curTextColor
                0x02047ad8                ul_lcdFontInfo
 .data          0x02047afc       0x2c c:/devkitPro/libnds/lib\libul.a(VirtualFile.o)
                0x02047afc                VF_MEMORY
                0x02047b00                vfsMemory
 .data          0x02047b28       0x10 c:/devkitPro/libnds/lib\libul.a(texVramManager.o)
                0x02047b28                ul_texVramSize
                0x02047b2c                ul_optimizeTextureSize
                0x02047b30                ul_texVramBase
                0x02047b34                ul_texVramBanks
                0x02047b36                ul_initTexturesToZero
 .data          0x02047b38        0xc c:/devkitPro/libnds/lib\libul.a(texPalManager.o)
                0x02047b38                ul_texPalVramSize
                0x02047b3c                ul_texPalVramBanks
                0x02047b40                ul_texPalVramBase
 .data          0x02047b44       0x28 c:/devkitPro/libnds/lib\libul.a(keys.o)
                0x02047b44                ul_keys
 .data          0x02047b6c        0x0 c:/devkitPro/libnds/lib\libul.a(ulDrawImage.o)
 .data          0x02047b6c        0x0 c:/devkitPro/libnds/lib\libul.a(ulCreateImagePalette.o)
 .data          0x02047b6c        0x0 c:/devkitPro/libnds/lib\libul.a(ulDrawGradientRect.o)
 .data          0x02047b6c        0x0 c:/devkitPro/libnds/lib\libul.a(ulLoadImageFilePNG.o)
 .data          0x02047b6c        0x0 c:/devkitPro/libnds/lib\libul.a(ulShowSplashScreen1.o)
 .data          0x02047b6c        0x0 c:/devkitPro/libnds/lib\libul.a(ulShowSplashScreen2.o)
 .data          0x02047b6c        0x0 c:/devkitPro/libnds/lib\libul.a(glWrapper.o)
 .data          0x02047b6c        0x0 c:/devkitPro/libnds/lib\libul.a(libLoadPng.o)
 .data          0x02047b6c        0x0 c:/devkitPro/libnds/lib\libul.a(ulDrawFillRect.o)
 .data          0x02047b6c        0x0 c:/devkitPro/libnds/lib\libul.a(ulSetImagePixel.o)
 .data          0x02047b6c        0x0 c:/devkitPro/libnds/lib\libul.a(ulGetImagePixel.o)
 .data          0x02047b6c        0x0 c:/devkitPro/libnds/lib\libul.a(textSize.o)
 .data          0x02047b6c        0x4 c:/devkitPro/libnds/lib\libul.a(loading_utility.o)
                0x02047b6c                ul_loadUtilActiveSource
 .data          0x02047b70        0x0 c:/devkitPro/libnds/lib\libul.a(ulLoadImageFileJPG.o)
 .data          0x02047b70        0x0 c:/devkitPro/libnds/lib\libul.a(ulLoadImageFileGIF.o)
 .data          0x02047b70        0x0 c:/devkitPro/libnds/lib\libul.a(libLoadJpg.o)
 .data          0x02047b70        0x0 c:/devkitPro/libnds/lib\libul.a(libLoadGif.o)
 .data          0x02047b70        0x0 c:/devkitPro/libnds/lib\libul.a(dgif_lib.o)
 .data          0x02047b70        0x0 c:/devkitPro/libnds/lib\libul.a(gif_err.o)
 .data          0x02047b70        0x0 c:/devkitPro/libnds/lib\libul.a(gifalloc.o)
 .data          0x02047b70        0x0 c:/devkitPro/libnds/lib\libul.a(ulReadEntireFileToMemory.o)
 .data          0x02047b70        0x0 c:/devkitPro/libnds/lib\libul.a(gba-jpeg-decode.o)
 .data          0x02047b70       0x69 c:/devkitPro/libnds/lib\libpng.a(png.o)
                0x02047b70                png_IHDR
                0x02047b75                png_IDAT
                0x02047b7a                png_IEND
                0x02047b7f                png_PLTE
                0x02047b84                png_bKGD
                0x02047b89                png_cHRM
                0x02047b8e                png_gAMA
                0x02047b93                png_hIST
                0x02047b98                png_iCCP
                0x02047b9d                png_iTXt
                0x02047ba2                png_oFFs
                0x02047ba7                png_pCAL
                0x02047bac                png_sCAL
                0x02047bb1                png_pHYs
                0x02047bb6                png_sBIT
                0x02047bbb                png_sPLT
                0x02047bc0                png_sRGB
                0x02047bc5                png_tEXt
                0x02047bca                png_tIME
                0x02047bcf                png_tRNS
                0x02047bd4                png_zTXt
 .data          0x02047bd9        0x0 c:/devkitPro/libnds/lib\libpng.a(pngread.o)
 .data          0x02047bd9        0x0 c:/devkitPro/libnds/lib\libpng.a(pngrio.o)
 .data          0x02047bd9        0x0 c:/devkitPro/libnds/lib\libpng.a(pngrtran.o)
 .data          0x02047bd9        0x0 c:/devkitPro/libnds/lib\libpng.a(pngmem.o)
 .data          0x02047bd9        0x0 c:/devkitPro/libnds/lib\libpng.a(pngerror.o)
 .data          0x02047bd9        0x0 c:/devkitPro/libnds/lib\libpng.a(pngget.o)
 .data          0x02047bd9        0x0 c:/devkitPro/libnds/lib\libpng.a(pngrutil.o)
 .data          0x02047bd9        0x0 c:/devkitPro/libnds/lib\libpng.a(pngtrans.o)
 .data          0x02047bd9        0x0 c:/devkitPro/libnds/lib\libpng.a(pngset.o)
 .data          0x02047bd9        0x0 c:/devkitPro/libnds/lib\libz.a(crc32.o)
 .data          0x02047bd9        0x0 c:/devkitPro/libnds/lib\libz.a(inflate.o)
 .data          0x02047bd9        0x0 c:/devkitPro/libnds/lib\libz.a(inftrees.o)
 .data          0x02047bd9        0x0 c:/devkitPro/libnds/lib\libz.a(inffast.o)
 .data          0x02047bd9        0x0 c:/devkitPro/libnds/lib\libz.a(adler32.o)
 .data          0x02047bd9        0x0 c:/devkitPro/libnds/lib\libz.a(zutil.o)
 .data          0x02047bd9        0x0 c:/devkitPro/libnds/lib\libnds9.a(dynamicArray.o)
 .data          0x02047bd9        0x3 c:/devkitPro/libnds/lib\libnds9.a(keys.o)
 .data          0x02047bdc        0x0 c:/devkitPro/libnds/lib\libnds9.a(system.o)
 .data          0x02047bdc        0x0 c:/devkitPro/libnds/lib\libnds9.a(touch.o)
 .data          0x02047bdc        0x0 c:/devkitPro/libnds/lib\libnds9.a(trig.o)
 .data          0x02047bdc        0x4 c:/devkitPro/libnds/lib\libnds9.a(videoGL.o)
 .data          0x02047be0        0x0 c:/devkitPro/libnds/lib\libnds9.a(initSystem.o)
 .data          0x02047be0       0x10 c:/devkitPro/libnds/lib\libnds9.a(fifosystem.o)
                0x02047be0                fifo_freewords
                0x02047be4                fifo_buffer_free
                0x02047be8                fifo_send_queue
                0x02047bec                fifo_receive_queue
 .data          0x02047bf0        0x0 c:/devkitPro/libnds/lib\libnds9.a(interrupts.o)
 .data          0x02047bf0        0x0 c:/devkitPro/libnds/lib\libnds9.a(libnds_exit.o)
 .data          0x02047bf0        0x0 c:/devkitPro/libnds/lib\libnds9.a(mpu_setup.o)
 .data          0x02047bf0        0x0 c:/devkitPro/libnds/lib\libnds9.a(biosCalls.o)
 .data          0x02047bf0        0x0 c:/devkitPro/libnds/lib\libnds9.a(interruptDispatcher.o)
 .data          0x02047bf0        0x0 c:/devkitPro/libnds/lib\libnds9.a(swiSoftReset.o)
 .data          0x02047bf0        0x0 c:/devkitPro/libnds/lib\libnds9.a(video.o)
 .data          0x02047bf0        0x0 c:/devkitpro/devkitarm/bin/../lib/gcc/arm-eabi/4.5.1/../../../../arm-eabi/lib\libm.a(lib_a-s_cos.o)
 .data          0x02047bf0        0x0 c:/devkitpro/devkitarm/bin/../lib/gcc/arm-eabi/4.5.1/../../../../arm-eabi/lib\libm.a(lib_a-s_sin.o)
 .data          0x02047bf0        0x0 c:/devkitpro/devkitarm/bin/../lib/gcc/arm-eabi/4.5.1/../../../../arm-eabi/lib\libm.a(lib_a-w_pow.o)
 .data          0x02047bf0        0x0 c:/devkitpro/devkitarm/bin/../lib/gcc/arm-eabi/4.5.1/../../../../arm-eabi/lib\libm.a(lib_a-e_pow.o)
 .data          0x02047bf0        0x0 c:/devkitpro/devkitarm/bin/../lib/gcc/arm-eabi/4.5.1/../../../../arm-eabi/lib\libm.a(lib_a-e_rem_pio2.o)
 .data          0x02047bf0        0x0 c:/devkitpro/devkitarm/bin/../lib/gcc/arm-eabi/4.5.1/../../../../arm-eabi/lib\libm.a(lib_a-e_sqrt.o)
 .data          0x02047bf0        0x0 c:/devkitpro/devkitarm/bin/../lib/gcc/arm-eabi/4.5.1/../../../../arm-eabi/lib\libm.a(lib_a-k_cos.o)
 .data          0x02047bf0        0x0 c:/devkitpro/devkitarm/bin/../lib/gcc/arm-eabi/4.5.1/../../../../arm-eabi/lib\libm.a(lib_a-k_rem_pio2.o)
 .data          0x02047bf0        0x0 c:/devkitpro/devkitarm/bin/../lib/gcc/arm-eabi/4.5.1/../../../../arm-eabi/lib\libm.a(lib_a-k_sin.o)
 .data          0x02047bf0        0x0 c:/devkitpro/devkitarm/bin/../lib/gcc/arm-eabi/4.5.1/../../../../arm-eabi/lib\libm.a(lib_a-s_fabs.o)
 .data          0x02047bf0        0x0 c:/devkitpro/devkitarm/bin/../lib/gcc/arm-eabi/4.5.1/../../../../arm-eabi/lib\libm.a(lib_a-s_finite.o)
 .data          0x02047bf0        0x0 c:/devkitpro/devkitarm/bin/../lib/gcc/arm-eabi/4.5.1/../../../../arm-eabi/lib\libm.a(lib_a-s_floor.o)
 .data          0x02047bf0        0x0 c:/devkitpro/devkitarm/bin/../lib/gcc/arm-eabi/4.5.1/../../../../arm-eabi/lib\libm.a(lib_a-s_fpclassify.o)
 .data          0x02047bf0        0x1 c:/devkitpro/devkitarm/bin/../lib/gcc/arm-eabi/4.5.1/../../../../arm-eabi/lib\libm.a(lib_a-s_lib_ver.o)
                0x02047bf0                __fdlib_version
 .data          0x02047bf1        0x0 c:/devkitpro/devkitarm/bin/../lib/gcc/arm-eabi/4.5.1/../../../../arm-eabi/lib\libm.a(lib_a-s_matherr.o)
 .data          0x02047bf1        0x0 c:/devkitpro/devkitarm/bin/../lib/gcc/arm-eabi/4.5.1/../../../../arm-eabi/lib\libm.a(lib_a-s_nan.o)
 .data          0x02047bf1        0x0 c:/devkitpro/devkitarm/bin/../lib/gcc/arm-eabi/4.5.1/../../../../arm-eabi/lib\libm.a(lib_a-s_rint.o)
 .data          0x02047bf1        0x0 c:/devkitpro/devkitarm/bin/../lib/gcc/arm-eabi/4.5.1/../../../../arm-eabi/lib\libm.a(lib_a-s_scalbn.o)
 .data          0x02047bf1        0x0 c:/devkitpro/devkitarm/bin/../lib/gcc/arm-eabi/4.5.1/../../../../arm-eabi/lib\libm.a(lib_a-s_copysign.o)
 .data          0x02047bf1        0x0 c:/devkitpro/devkitarm/bin/../lib/gcc/arm-eabi/4.5.1\libgcc.a(_udivsi3.o)
 .data          0x02047bf1        0x0 c:/devkitpro/devkitarm/bin/../lib/gcc/arm-eabi/4.5.1\libgcc.a(_divsi3.o)
 .data          0x02047bf1        0x0 c:/devkitpro/devkitarm/bin/../lib/gcc/arm-eabi/4.5.1\libgcc.a(_dvmd_tls.o)
 .data          0x02047bf1        0x0 c:/devkitpro/devkitarm/bin/../lib/gcc/arm-eabi/4.5.1\libgcc.a(_arm_addsubdf3.o)
 .data          0x02047bf1        0x0 c:/devkitpro/devkitarm/bin/../lib/gcc/arm-eabi/4.5.1\libgcc.a(_arm_muldivdf3.o)
 .data          0x02047bf1        0x0 c:/devkitpro/devkitarm/bin/../lib/gcc/arm-eabi/4.5.1\libgcc.a(_arm_cmpdf2.o)
 .data          0x02047bf1        0x0 c:/devkitpro/devkitarm/bin/../lib/gcc/arm-eabi/4.5.1\libgcc.a(_arm_fixdfsi.o)
 .data          0x02047bf1        0x0 c:/devkitpro/devkitarm/bin/../lib/gcc/arm-eabi/4.5.1\libgcc.a(_arm_fixunsdfsi.o)
 .data          0x02047bf1        0x0 c:/devkitpro/devkitarm/bin/../lib/gcc/arm-eabi/4.5.1\libgcc.a(_arm_truncdfsf2.o)
 .data          0x02047bf1        0x0 c:/devkitpro/devkitarm/bin/../lib/gcc/arm-eabi/4.5.1\libgcc.a(_arm_addsubsf3.o)
 .data          0x02047bf1        0x0 c:/devkitpro/devkitarm/bin/../lib/gcc/arm-eabi/4.5.1\libgcc.a(_arm_muldivsf3.o)
 .data          0x02047bf1        0x0 c:/devkitpro/devkitarm/bin/../lib/gcc/arm-eabi/4.5.1\libgcc.a(_arm_cmpsf2.o)
 .data          0x02047bf1        0x0 c:/devkitpro/devkitarm/bin/../lib/gcc/arm-eabi/4.5.1\libgcc.a(_arm_fixsfsi.o)
 .data          0x02047bf1        0x0 c:/devkitpro/devkitarm/bin/../lib/gcc/arm-eabi/4.5.1\libgcc.a(_arm_fixunssfsi.o)
 .data          0x02047bf1        0x0 c:/devkitpro/devkitarm/bin/../lib/gcc/arm-eabi/4.5.1\libgcc.a(_muldi3.o)
 .data          0x02047bf1        0x0 c:/devkitpro/devkitarm/bin/../lib/gcc/arm-eabi/4.5.1/../../../../arm-eabi/lib\libg.a(lib_a-abort.o)
 .data          0x02047bf1        0x0 c:/devkitpro/devkitarm/bin/../lib/gcc/arm-eabi/4.5.1/../../../../arm-eabi/lib\libg.a(lib_a-bsearch.o)
 .data          0x02047bf1        0x0 c:/devkitpro/devkitarm/bin/../lib/gcc/arm-eabi/4.5.1/../../../../arm-eabi/lib\libg.a(lib_a-calloc.o)
 .data          0x02047bf1        0x0 c:/devkitpro/devkitarm/bin/../lib/gcc/arm-eabi/4.5.1/../../../../arm-eabi/lib\libg.a(lib_a-callocr.o)
 .data          0x02047bf1        0x0 c:/devkitpro/devkitarm/bin/../lib/gcc/arm-eabi/4.5.1/../../../../arm-eabi/lib\libg.a(lib_a-errno.o)
 .data          0x02047bf1        0x0 c:/devkitpro/devkitarm/bin/../lib/gcc/arm-eabi/4.5.1/../../../../arm-eabi/lib\libg.a(lib_a-fclose.o)
 .data          0x02047bf1        0x0 c:/devkitpro/devkitarm/bin/../lib/gcc/arm-eabi/4.5.1/../../../../arm-eabi/lib\libg.a(lib_a-fflush.o)
 .data          0x02047bf1        0x0 c:/devkitpro/devkitarm/bin/../lib/gcc/arm-eabi/4.5.1/../../../../arm-eabi/lib\libg.a(lib_a-findfp.o)
 .data          0x02047bf1        0x0 c:/devkitpro/devkitarm/bin/../lib/gcc/arm-eabi/4.5.1/../../../../arm-eabi/lib\libg.a(lib_a-fprintf.o)
 .data          0x02047bf1        0x0 c:/devkitpro/devkitarm/bin/../lib/gcc/arm-eabi/4.5.1/../../../../arm-eabi/lib\libg.a(lib_a-fread.o)
 .data          0x02047bf1        0x0 c:/devkitpro/devkitarm/bin/../lib/gcc/arm-eabi/4.5.1/../../../../arm-eabi/lib\libg.a(lib_a-freer.o)
 .data          0x02047bf1        0x0 c:/devkitpro/devkitarm/bin/../lib/gcc/arm-eabi/4.5.1/../../../../arm-eabi/lib\libg.a(lib_a-fwalk.o)
 *fill*         0x02047bf1        0x7 ff
 .data          0x02047bf8      0x430 c:/devkitpro/devkitarm/bin/../lib/gcc/arm-eabi/4.5.1/../../../../arm-eabi/lib\libg.a(lib_a-impure.o)
                0x02047bf8                _impure_ptr
 .data          0x02048028        0x0 c:/devkitpro/devkitarm/bin/../lib/gcc/arm-eabi/4.5.1/../../../../arm-eabi/lib\libg.a(lib_a-init.o)
 .data          0x02048028        0x0 c:/devkitpro/devkitarm/bin/../lib/gcc/arm-eabi/4.5.1/../../../../arm-eabi/lib\libg.a(lib_a-malloc.o)
 .data          0x02048028      0x410 c:/devkitpro/devkitarm/bin/../lib/gcc/arm-eabi/4.5.1/../../../../arm-eabi/lib\libg.a(lib_a-mallocr.o)
                0x02048028                __malloc_av_
                0x02048430                __malloc_sbrk_base
                0x02048434                __malloc_trim_threshold
 .data          0x02048438        0x0 c:/devkitpro/devkitarm/bin/../lib/gcc/arm-eabi/4.5.1/../../../../arm-eabi/lib\libg.a(lib_a-memcmp.o)
 .data          0x02048438        0x0 c:/devkitpro/devkitarm/bin/../lib/gcc/arm-eabi/4.5.1/../../../../arm-eabi/lib\libg.a(lib_a-memcpy.o)
 .data          0x02048438        0x0 c:/devkitpro/devkitarm/bin/../lib/gcc/arm-eabi/4.5.1/../../../../arm-eabi/lib\libg.a(lib_a-memmove.o)
 .data          0x02048438        0x0 c:/devkitpro/devkitarm/bin/../lib/gcc/arm-eabi/4.5.1/../../../../arm-eabi/lib\libg.a(lib_a-memset.o)
 .data          0x02048438        0x0 c:/devkitpro/devkitarm/bin/../lib/gcc/arm-eabi/4.5.1/../../../../arm-eabi/lib\libg.a(lib_a-mlock.o)
 .data          0x02048438        0x0 c:/devkitpro/devkitarm/bin/../lib/gcc/arm-eabi/4.5.1/../../../../arm-eabi/lib\libg.a(lib_a-rand.o)
 .data          0x02048438        0x0 c:/devkitpro/devkitarm/bin/../lib/gcc/arm-eabi/4.5.1/../../../../arm-eabi/lib\libg.a(lib_a-realloc.o)
 .data          0x02048438        0x0 c:/devkitpro/devkitarm/bin/../lib/gcc/arm-eabi/4.5.1/../../../../arm-eabi/lib\libg.a(lib_a-reallocr.o)
 .data          0x02048438        0x0 c:/devkitpro/devkitarm/bin/../lib/gcc/arm-eabi/4.5.1/../../../../arm-eabi/lib\libg.a(lib_a-refill.o)
 .data          0x02048438        0x0 c:/devkitpro/devkitarm/bin/../lib/gcc/arm-eabi/4.5.1/../../../../arm-eabi/lib\libg.a(lib_a-setjmp.o)
 .data          0x02048438        0x0 c:/devkitpro/devkitarm/bin/../lib/gcc/arm-eabi/4.5.1/../../../../arm-eabi/lib\libg.a(lib_a-signal.o)
 .data          0x02048438        0x0 c:/devkitpro/devkitarm/bin/../lib/gcc/arm-eabi/4.5.1/../../../../arm-eabi/lib\libg.a(lib_a-snprintf.o)
 .data          0x02048438        0x0 c:/devkitpro/devkitarm/bin/../lib/gcc/arm-eabi/4.5.1/../../../../arm-eabi/lib\libg.a(lib_a-stdio.o)
 .data          0x02048438        0x0 c:/devkitpro/devkitarm/bin/../lib/gcc/arm-eabi/4.5.1/../../../../arm-eabi/lib\libg.a(lib_a-strcmp.o)
 .data          0x02048438        0x0 c:/devkitpro/devkitarm/bin/../lib/gcc/arm-eabi/4.5.1/../../../../arm-eabi/lib\libg.a(lib_a-strlen.o)
 .data          0x02048438       0x28 c:/devkitpro/devkitarm/bin/../lib/gcc/arm-eabi/4.5.1/../../../../arm-eabi/lib\libg.a(lib_a-strtod.o)
 .data          0x02048460        0x0 c:/devkitpro/devkitarm/bin/../lib/gcc/arm-eabi/4.5.1/../../../../arm-eabi/lib\libg.a(lib_a-svfprintf.o)
 .data          0x02048460        0x0 c:/devkitpro/devkitarm/bin/../lib/gcc/arm-eabi/4.5.1/../../../../arm-eabi/lib\libg.a(lib_a-vfprintf.o)
 .data          0x02048460        0x0 c:/devkitpro/devkitarm/bin/../lib/gcc/arm-eabi/4.5.1/../../../../arm-eabi/lib\libg.a(lib_a-wcrtomb.o)
 .data          0x02048460        0x0 c:/devkitpro/devkitarm/bin/../lib/gcc/arm-eabi/4.5.1/../../../../arm-eabi/lib\libg.a(lib_a-wcsrtombs.o)
 .data          0x02048460        0x4 c:/devkitpro/devkitarm/bin/../lib/gcc/arm-eabi/4.5.1/../../../../arm-eabi/lib\libg.a(lib_a-wctomb_r.o)
                0x02048460                __wctomb
 .data          0x02048464        0x0 c:/devkitpro/devkitarm/bin/../lib/gcc/arm-eabi/4.5.1/../../../../arm-eabi/lib\libg.a(lib_a-wsetup.o)
 .data          0x02048464        0x0 c:/devkitpro/devkitarm/bin/../lib/gcc/arm-eabi/4.5.1/../../../../arm-eabi/lib\libg.a(lib_a-dtoa.o)
 .data          0x02048464        0x0 c:/devkitpro/devkitarm/bin/../lib/gcc/arm-eabi/4.5.1/../../../../arm-eabi/lib\libg.a(lib_a-gdtoa-gethex.o)
 .data          0x02048464        0x0 c:/devkitpro/devkitarm/bin/../lib/gcc/arm-eabi/4.5.1/../../../../arm-eabi/lib\libg.a(lib_a-gdtoa-hexnan.o)
 .data          0x02048464      0x144 c:/devkitpro/devkitarm/bin/../lib/gcc/arm-eabi/4.5.1/../../../../arm-eabi/lib\libg.a(lib_a-locale.o)
                0x02048464                __default_locale
                0x020484a4                __mb_cur_max
 .data          0x020485a8        0x0 c:/devkitpro/devkitarm/bin/../lib/gcc/arm-eabi/4.5.1/../../../../arm-eabi/lib\libg.a(lib_a-makebuf.o)
 .data          0x020485a8        0x4 c:/devkitpro/devkitarm/bin/../lib/gcc/arm-eabi/4.5.1/../../../../arm-eabi/lib\libg.a(lib_a-mbtowc_r.o)
                0x020485a8                __mbtowc
 .data          0x020485ac        0x0 c:/devkitpro/devkitarm/bin/../lib/gcc/arm-eabi/4.5.1/../../../../arm-eabi/lib\libg.a(lib_a-memchr.o)
 .data          0x020485ac        0x0 c:/devkitpro/devkitarm/bin/../lib/gcc/arm-eabi/4.5.1/../../../../arm-eabi/lib\libg.a(lib_a-mprec.o)
 .data          0x020485ac        0x0 c:/devkitpro/devkitarm/bin/../lib/gcc/arm-eabi/4.5.1/../../../../arm-eabi/lib\libg.a(lib_a-sf_nan.o)
 .data          0x020485ac        0x0 c:/devkitpro/devkitarm/bin/../lib/gcc/arm-eabi/4.5.1/../../../../arm-eabi/lib\libg.a(lib_a-strcasecmp.o)
 .data          0x020485ac        0x0 c:/devkitpro/devkitarm/bin/../lib/gcc/arm-eabi/4.5.1/../../../../arm-eabi/lib\libg.a(lib_a-strcat.o)
 .data          0x020485ac        0x0 c:/devkitpro/devkitarm/bin/../lib/gcc/arm-eabi/4.5.1/../../../../arm-eabi/lib\libg.a(lib_a-strchr.o)
 .data          0x020485ac        0x0 c:/devkitpro/devkitarm/bin/../lib/gcc/arm-eabi/4.5.1/../../../../arm-eabi/lib\libg.a(lib_a-strcpy.o)
 .data          0x020485ac        0x0 c:/devkitpro/devkitarm/bin/../lib/gcc/arm-eabi/4.5.1/../../../../arm-eabi/lib\libg.a(lib_a-strlcpy.o)
 .data          0x020485ac        0x0 c:/devkitpro/devkitarm/bin/../lib/gcc/arm-eabi/4.5.1/../../../../arm-eabi/lib\libg.a(lib_a-strncasecmp.o)
 .data          0x020485ac        0x0 c:/devkitpro/devkitarm/bin/../lib/gcc/arm-eabi/4.5.1/../../../../arm-eabi/lib\libg.a(lib_a-strncmp.o)
 .data          0x020485ac        0x0 c:/devkitpro/devkitarm/bin/../lib/gcc/arm-eabi/4.5.1/../../../../arm-eabi/lib\libg.a(lib_a-strncpy.o)
 .data          0x020485ac        0x0 c:/devkitpro/devkitarm/bin/../lib/gcc/arm-eabi/4.5.1/../../../../arm-eabi/lib\libg.a(lib_a-strtol.o)
 .data          0x020485ac        0x0 c:/devkitpro/devkitarm/bin/../lib/gcc/arm-eabi/4.5.1/../../../../arm-eabi/lib\libg.a(lib_a-svfiprintf.o)
 .data          0x020485ac        0x0 c:/devkitpro/devkitarm/bin/../lib/gcc/arm-eabi/4.5.1/../../../../arm-eabi/lib\libg.a(lib_a-vfiprintf.o)
 .data          0x020485ac        0x0 c:/devkitpro/devkitarm/bin/../lib/gcc/arm-eabi/4.5.1/../../../../arm-eabi/lib\libg.a(lib_a-wcsnrtombs.o)
 .data          0x020485ac        0x4 c:/devkitpro/devkitarm/bin/../lib/gcc/arm-eabi/4.5.1/../../../../arm-eabi/lib\libg.a(lib_a-ctype_.o)
                0x020485ac                __ctype_ptr__
 .data          0x020485b0        0x0 c:/devkitpro/devkitarm/bin/../lib/gcc/arm-eabi/4.5.1/../../../../arm-eabi/lib\libg.a(lib_a-fputwc.o)
 .data          0x020485b0        0x0 c:/devkitpro/devkitarm/bin/../lib/gcc/arm-eabi/4.5.1/../../../../arm-eabi/lib\libg.a(lib_a-fvwrite.o)
 .data          0x020485b0        0x0 c:/devkitpro/devkitarm/bin/../lib/gcc/arm-eabi/4.5.1/../../../../arm-eabi/lib\libg.a(lib_a-getenv_r.o)
 .data          0x020485b0        0x0 c:/devkitpro/devkitarm/bin/../lib/gcc/arm-eabi/4.5.1/../../../../arm-eabi/lib\libg.a(lib_a-wbuf.o)
 .data          0x020485b0        0x4 c:/devkitpro/devkitarm/bin/../lib/gcc/arm-eabi/4.5.1/../../../../arm-eabi/lib\libg.a(lib_a-environ.o)
                0x020485b0                environ
 .data          0x020485b4        0x0 c:/devkitpro/devkitarm/bin/../lib/gcc/arm-eabi/4.5.1/../../../../arm-eabi/lib\libg.a(lib_a-envlock.o)
 .data          0x020485b4        0x0 c:/devkitpro/devkitarm/bin/../lib/gcc/arm-eabi/4.5.1/../../../../arm-eabi/lib\libsysbase.a(close.o)
 .data          0x020485b4        0x0 c:/devkitpro/devkitarm/bin/../lib/gcc/arm-eabi/4.5.1/../../../../arm-eabi/lib\libsysbase.a(fstat.o)
 .data          0x020485b4        0x0 c:/devkitpro/devkitarm/bin/../lib/gcc/arm-eabi/4.5.1/../../../../arm-eabi/lib\libsysbase.a(getpid.o)
 .data          0x020485b4        0x0 c:/devkitpro/devkitarm/bin/../lib/gcc/arm-eabi/4.5.1/../../../../arm-eabi/lib\libsysbase.a(isatty.o)
 .data          0x020485b4        0x0 c:/devkitpro/devkitarm/bin/../lib/gcc/arm-eabi/4.5.1/../../../../arm-eabi/lib\libsysbase.a(kill.o)
 .data          0x020485b4        0x0 c:/devkitpro/devkitarm/bin/../lib/gcc/arm-eabi/4.5.1/../../../../arm-eabi/lib\libsysbase.a(lseek.o)
 .data          0x020485b4        0x0 c:/devkitpro/devkitarm/bin/../lib/gcc/arm-eabi/4.5.1/../../../../arm-eabi/lib\libsysbase.a(read.o)
 .data          0x020485b4        0x0 c:/devkitpro/devkitarm/bin/../lib/gcc/arm-eabi/4.5.1/../../../../arm-eabi/lib\libsysbase.a(sbrk.o)
 .data          0x020485b4        0x0 c:/devkitpro/devkitarm/bin/../lib/gcc/arm-eabi/4.5.1/../../../../arm-eabi/lib\libsysbase.a(times.o)
 .data          0x020485b4        0x0 c:/devkitpro/devkitarm/bin/../lib/gcc/arm-eabi/4.5.1/../../../../arm-eabi/lib\libsysbase.a(write.o)
 .data          0x020485b4        0x0 c:/devkitpro/devkitarm/bin/../lib/gcc/arm-eabi/4.5.1/../../../../arm-eabi/lib\libsysbase.a(_exit.o)
 .data          0x020485b4        0x0 c:/devkitpro/devkitarm/bin/../lib/gcc/arm-eabi/4.5.1/../../../../arm-eabi/lib\libsysbase.a(malloc_vars.o)
 .data          0x020485b4        0x0 c:/devkitpro/devkitarm/bin/../lib/gcc/arm-eabi/4.5.1/../../../../arm-eabi/lib\libsysbase.a(build_argv.o)
 .data          0x020485b4        0x0 c:/devkitpro/devkitarm/bin/../lib/gcc/arm-eabi/4.5.1/../../../../arm-eabi/lib\libsysbase.a(syscall_support.o)
 .data          0x020485b4        0x0 c:/devkitpro/devkitarm/bin/../lib/gcc/arm-eabi/4.5.1/../../../../arm-eabi/lib\libsysbase.a(handle_manager.o)
 .data          0x020485b4       0x44 c:/devkitpro/devkitarm/bin/../lib/gcc/arm-eabi/4.5.1/../../../../arm-eabi/lib\libsysbase.a(iosupport.o)
                0x020485b8                devoptab_list
 .data          0x020485f8        0x0 c:/devkitpro/devkitarm/bin/../lib/gcc/arm-eabi/4.5.1\libgcc.a(_aeabi_uldivmod.o)
 .data          0x020485f8        0x0 c:/devkitpro/devkitarm/bin/../lib/gcc/arm-eabi/4.5.1\libgcc.a(bpabi.o)
 .data          0x020485f8        0x0 c:/devkitpro/devkitarm/bin/../lib/gcc/arm-eabi/4.5.1\libgcc.a(unwind-arm.o)
 .data          0x020485f8        0x0 c:/devkitpro/devkitarm/bin/../lib/gcc/arm-eabi/4.5.1\libgcc.a(libunwind.o)
 .data          0x020485f8        0x0 c:/devkitpro/devkitarm/bin/../lib/gcc/arm-eabi/4.5.1\libgcc.a(pr-support.o)
 .data          0x020485f8        0x0 c:/devkitpro/devkitarm/bin/../lib/gcc/arm-eabi/4.5.1\libgcc.a(_divdi3.o)
 .data          0x020485f8        0x0 c:/devkitpro/devkitarm/bin/../lib/gcc/arm-eabi/4.5.1\libgcc.a(_udivdi3.o)
 .data          0x020485f8        0x0 c:/devkitpro/devkitarm/bin/../lib/gcc/arm-eabi/4.5.1\libgcc.a(_clzsi2.o)
 .data          0x020485f8        0x0 c:/devkitpro/devkitarm/bin/../lib/gcc/arm-eabi/4.5.1/crtend.o
 .data          0x020485f8        0x0 c:/devkitpro/devkitarm/bin/../lib/gcc/arm-eabi/4.5.1/crtn.o
 *(.data.*)
 *(.gnu.linkonce.d*)
                0x020485f8                . = ALIGN (0x4)
                0x020485f8                __data_end = ABSOLUTE (.)
                0x020485f8                __dtcm_lma = .
                0x020485f8                __bss_vma = .

.dtcm           0x0b000000        0x0 load address 0x020485f8
 *(.dtcm)
 *(.dtcm.*)
                0x0b000000                . = ALIGN (0x4)
                0x0b000000                __dtcm_end = ABSOLUTE (.)
                0x020485f8                __itcm_lma = (__dtcm_lma + SIZEOF (.dtcm))

.itcm           0x01000100      0x194 load address 0x020485f8
 *(.itcm)
 .itcm          0x01000100       0xc8 c:/devkitPro/libnds/lib\libnds9.a(interrupts.o)
                0x01000100                irqTable
 .itcm          0x010001c8       0xcc c:/devkitPro/libnds/lib\libnds9.a(interruptDispatcher.o)
                0x010001c8                IntrMain
 *itcm.*(.text)
                0x01000294                . = ALIGN (0x4)
                0x01000294                __itcm_end = ABSOLUTE (.)
                0x0204878c                __vectors_lma = (__itcm_lma + SIZEOF (.itcm))

.vectors        0x01000000        0x0 load address 0x0204878c
 *(.vectors)
 *vectors.*(.text)
                0x01000000                . = ALIGN (0x4)
                0x01000000                __vectors_end = ABSOLUTE (.)

.sbss           0x0b000000        0x0
                0x0b000000                __sbss_start = ABSOLUTE (.)
                0x0b000000                __sbss_start__ = ABSOLUTE (.)
 *(.sbss)
                0x0b000000                . = ALIGN (0x4)
                0x0b000000                __sbss_end = ABSOLUTE (.)

.bss            0x020485f8     0x3f7c
                0x020485f8                __bss_start = ABSOLUTE (.)
                0x020485f8                __bss_start__ = ABSOLUTE (.)
 *(.dynbss)
 *(.gnu.linkonce.b*)
 *(.bss*)
 .bss           0x020485f8        0x0 c:/devkitpro/devkitarm/bin/../lib/gcc/arm-eabi/4.5.1/../../../../arm-eabi/lib/ds_arm9_crt0.o
 .bss           0x020485f8        0x0 c:/devkitpro/devkitarm/bin/../lib/gcc/arm-eabi/4.5.1/crti.o
 .bss           0x020485f8       0x1c c:/devkitpro/devkitarm/bin/../lib/gcc/arm-eabi/4.5.1/crtbegin.o
 .bss           0x02048614        0x0 tails.png.o
 .bss           0x02048614        0x0 main.o
 .bss           0x02048614        0x4 c:/devkitPro/libnds/lib\libul.a(ulib.o)
                0x02048614                ul_isConsoleInited
 .bss           0x02048618        0x3 c:/devkitPro/libnds/lib\libul.a(drawing.o)
                0x02048618                ul_drawingStarted
                0x02048619                ul_screenClippingChanged
                0x0204861a                ul_firstPaletteColorOpaque
 *fill*         0x0204861b        0x1 00
 .bss           0x0204861c        0x8 c:/devkitPro/libnds/lib\libul.a(text.o)
                0x0204861c                ul_curFont
                0x02048620                ul_lcdFont
 .bss           0x02048624        0x8 c:/devkitPro/libnds/lib\libul.a(VirtualFile.o)
                0x02048624                VirtualFileSourcesNb
                0x02048628                ul_virtualFileListNumber
 .bss           0x0204862c        0x0 c:/devkitPro/libnds/lib\libul.a(texVramManager.o)
 .bss           0x0204862c        0x0 c:/devkitPro/libnds/lib\libul.a(texPalManager.o)
 .bss           0x0204862c        0x0 c:/devkitPro/libnds/lib\libul.a(keys.o)
 .bss           0x0204862c        0x0 c:/devkitPro/libnds/lib\libul.a(ulDrawImage.o)
 .bss           0x0204862c        0x0 c:/devkitPro/libnds/lib\libul.a(ulCreateImagePalette.o)
 .bss           0x0204862c        0x0 c:/devkitPro/libnds/lib\libul.a(ulDrawGradientRect.o)
 .bss           0x0204862c        0x0 c:/devkitPro/libnds/lib\libul.a(ulLoadImageFilePNG.o)
 .bss           0x0204862c        0x0 c:/devkitPro/libnds/lib\libul.a(ulShowSplashScreen1.o)
 .bss           0x0204862c        0x0 c:/devkitPro/libnds/lib\libul.a(ulShowSplashScreen2.o)
 .bss           0x0204862c        0x0 c:/devkitPro/libnds/lib\libul.a(glWrapper.o)
 .bss           0x0204862c        0x0 c:/devkitPro/libnds/lib\libul.a(libLoadPng.o)
 .bss           0x0204862c        0x0 c:/devkitPro/libnds/lib\libul.a(ulDrawFillRect.o)
 .bss           0x0204862c        0x0 c:/devkitPro/libnds/lib\libul.a(ulSetImagePixel.o)
 .bss           0x0204862c        0x0 c:/devkitPro/libnds/lib\libul.a(ulGetImagePixel.o)
 .bss           0x0204862c        0x0 c:/devkitPro/libnds/lib\libul.a(textSize.o)
 .bss           0x0204862c        0x0 c:/devkitPro/libnds/lib\libul.a(loading_utility.o)
 .bss           0x0204862c        0x0 c:/devkitPro/libnds/lib\libul.a(ulLoadImageFileJPG.o)
 .bss           0x0204862c        0x0 c:/devkitPro/libnds/lib\libul.a(ulLoadImageFileGIF.o)
 .bss           0x0204862c        0x0 c:/devkitPro/libnds/lib\libul.a(libLoadJpg.o)
 .bss           0x0204862c        0x0 c:/devkitPro/libnds/lib\libul.a(libLoadGif.o)
 .bss           0x0204862c        0x0 c:/devkitPro/libnds/lib\libul.a(dgif_lib.o)
 .bss           0x0204862c        0x4 c:/devkitPro/libnds/lib\libul.a(gif_err.o)
                0x0204862c                _GifError
 .bss           0x02048630        0x0 c:/devkitPro/libnds/lib\libul.a(gifalloc.o)
 .bss           0x02048630        0x0 c:/devkitPro/libnds/lib\libul.a(ulReadEntireFileToMemory.o)
 .bss           0x02048630        0x0 c:/devkitPro/libnds/lib\libul.a(gba-jpeg-decode.o)
 .bss           0x02048630        0x0 c:/devkitPro/libnds/lib\libpng.a(png.o)
 .bss           0x02048630        0x0 c:/devkitPro/libnds/lib\libpng.a(pngread.o)
 .bss           0x02048630        0x0 c:/devkitPro/libnds/lib\libpng.a(pngrio.o)
 .bss           0x02048630        0x0 c:/devkitPro/libnds/lib\libpng.a(pngrtran.o)
 .bss           0x02048630        0x0 c:/devkitPro/libnds/lib\libpng.a(pngmem.o)
 .bss           0x02048630        0x0 c:/devkitPro/libnds/lib\libpng.a(pngerror.o)
 .bss           0x02048630        0x0 c:/devkitPro/libnds/lib\libpng.a(pngget.o)
 .bss           0x02048630        0x0 c:/devkitPro/libnds/lib\libpng.a(pngrutil.o)
 .bss           0x02048630        0x0 c:/devkitPro/libnds/lib\libpng.a(pngtrans.o)
 .bss           0x02048630        0x0 c:/devkitPro/libnds/lib\libpng.a(pngset.o)
 .bss           0x02048630        0x0 c:/devkitPro/libnds/lib\libz.a(crc32.o)
 .bss           0x02048630        0x0 c:/devkitPro/libnds/lib\libz.a(inflate.o)
 .bss           0x02048630        0x0 c:/devkitPro/libnds/lib\libz.a(inftrees.o)
 .bss           0x02048630        0x0 c:/devkitPro/libnds/lib\libz.a(inffast.o)
 .bss           0x02048630        0x0 c:/devkitPro/libnds/lib\libz.a(adler32.o)
 .bss           0x02048630        0x0 c:/devkitPro/libnds/lib\libz.a(zutil.o)
 .bss           0x02048630        0x0 c:/devkitPro/libnds/lib\libnds9.a(dynamicArray.o)
 .bss           0x02048630        0x6 c:/devkitPro/libnds/lib\libnds9.a(keys.o)
 .bss           0x02048636        0x0 c:/devkitPro/libnds/lib\libnds9.a(system.o)
 .bss           0x02048636        0x0 c:/devkitPro/libnds/lib\libnds9.a(touch.o)
 .bss           0x02048636        0x0 c:/devkitPro/libnds/lib\libnds9.a(trig.o)
 *fill*         0x02048636        0x2 00
 .bss           0x02048638        0x8 c:/devkitPro/libnds/lib\libnds9.a(videoGL.o)
 .bss           0x02048640        0x0 c:/devkitPro/libnds/lib\libnds9.a(initSystem.o)
 .bss           0x02048640        0x8 c:/devkitPro/libnds/lib\libnds9.a(fifosystem.o)
                0x02048644                processing
 .bss           0x02048648        0x0 c:/devkitPro/libnds/lib\libnds9.a(interrupts.o)
 .bss           0x02048648        0x0 c:/devkitPro/libnds/lib\libnds9.a(libnds_exit.o)
 .bss           0x02048648        0x0 c:/devkitPro/libnds/lib\libnds9.a(mpu_setup.o)
 .bss           0x02048648        0x0 c:/devkitPro/libnds/lib\libnds9.a(biosCalls.o)
 .bss           0x02048648        0x0 c:/devkitPro/libnds/lib\libnds9.a(interruptDispatcher.o)
 .bss           0x02048648        0x0 c:/devkitPro/libnds/lib\libnds9.a(swiSoftReset.o)
 .bss           0x02048648        0x0 c:/devkitPro/libnds/lib\libnds9.a(video.o)
 .bss           0x02048648        0x0 c:/devkitpro/devkitarm/bin/../lib/gcc/arm-eabi/4.5.1/../../../../arm-eabi/lib\libm.a(lib_a-s_cos.o)
 .bss           0x02048648        0x0 c:/devkitpro/devkitarm/bin/../lib/gcc/arm-eabi/4.5.1/../../../../arm-eabi/lib\libm.a(lib_a-s_sin.o)
 .bss           0x02048648        0x0 c:/devkitpro/devkitarm/bin/../lib/gcc/arm-eabi/4.5.1/../../../../arm-eabi/lib\libm.a(lib_a-w_pow.o)
 .bss           0x02048648        0x0 c:/devkitpro/devkitarm/bin/../lib/gcc/arm-eabi/4.5.1/../../../../arm-eabi/lib\libm.a(lib_a-e_pow.o)
 .bss           0x02048648        0x0 c:/devkitpro/devkitarm/bin/../lib/gcc/arm-eabi/4.5.1/../../../../arm-eabi/lib\libm.a(lib_a-e_rem_pio2.o)
 .bss           0x02048648        0x0 c:/devkitpro/devkitarm/bin/../lib/gcc/arm-eabi/4.5.1/../../../../arm-eabi/lib\libm.a(lib_a-e_sqrt.o)
 .bss           0x02048648        0x0 c:/devkitpro/devkitarm/bin/../lib/gcc/arm-eabi/4.5.1/../../../../arm-eabi/lib\libm.a(lib_a-k_cos.o)
 .bss           0x02048648        0x0 c:/devkitpro/devkitarm/bin/../lib/gcc/arm-eabi/4.5.1/../../../../arm-eabi/lib\libm.a(lib_a-k_rem_pio2.o)
 .bss           0x02048648        0x0 c:/devkitpro/devkitarm/bin/../lib/gcc/arm-eabi/4.5.1/../../../../arm-eabi/lib\libm.a(lib_a-k_sin.o)
 .bss           0x02048648        0x0 c:/devkitpro/devkitarm/bin/../lib/gcc/arm-eabi/4.5.1/../../../../arm-eabi/lib\libm.a(lib_a-s_fabs.o)
 .bss           0x02048648        0x0 c:/devkitpro/devkitarm/bin/../lib/gcc/arm-eabi/4.5.1/../../../../arm-eabi/lib\libm.a(lib_a-s_finite.o)
 .bss           0x02048648        0x0 c:/devkitpro/devkitarm/bin/../lib/gcc/arm-eabi/4.5.1/../../../../arm-eabi/lib\libm.a(lib_a-s_floor.o)
 .bss           0x02048648        0x0 c:/devkitpro/devkitarm/bin/../lib/gcc/arm-eabi/4.5.1/../../../../arm-eabi/lib\libm.a(lib_a-s_fpclassify.o)
 .bss           0x02048648        0x0 c:/devkitpro/devkitarm/bin/../lib/gcc/arm-eabi/4.5.1/../../../../arm-eabi/lib\libm.a(lib_a-s_lib_ver.o)
 .bss           0x02048648        0x0 c:/devkitpro/devkitarm/bin/../lib/gcc/arm-eabi/4.5.1/../../../../arm-eabi/lib\libm.a(lib_a-s_matherr.o)
 .bss           0x02048648        0x0 c:/devkitpro/devkitarm/bin/../lib/gcc/arm-eabi/4.5.1/../../../../arm-eabi/lib\libm.a(lib_a-s_nan.o)
 .bss           0x02048648        0x0 c:/devkitpro/devkitarm/bin/../lib/gcc/arm-eabi/4.5.1/../../../../arm-eabi/lib\libm.a(lib_a-s_rint.o)
 .bss           0x02048648        0x0 c:/devkitpro/devkitarm/bin/../lib/gcc/arm-eabi/4.5.1/../../../../arm-eabi/lib\libm.a(lib_a-s_scalbn.o)
 .bss           0x02048648        0x0 c:/devkitpro/devkitarm/bin/../lib/gcc/arm-eabi/4.5.1/../../../../arm-eabi/lib\libm.a(lib_a-s_copysign.o)
 .bss           0x02048648        0x0 c:/devkitpro/devkitarm/bin/../lib/gcc/arm-eabi/4.5.1\libgcc.a(_udivsi3.o)
 .bss           0x02048648        0x0 c:/devkitpro/devkitarm/bin/../lib/gcc/arm-eabi/4.5.1\libgcc.a(_divsi3.o)
 .bss           0x02048648        0x0 c:/devkitpro/devkitarm/bin/../lib/gcc/arm-eabi/4.5.1\libgcc.a(_dvmd_tls.o)
 .bss           0x02048648        0x0 c:/devkitpro/devkitarm/bin/../lib/gcc/arm-eabi/4.5.1\libgcc.a(_arm_addsubdf3.o)
 .bss           0x02048648        0x0 c:/devkitpro/devkitarm/bin/../lib/gcc/arm-eabi/4.5.1\libgcc.a(_arm_muldivdf3.o)
 .bss           0x02048648        0x0 c:/devkitpro/devkitarm/bin/../lib/gcc/arm-eabi/4.5.1\libgcc.a(_arm_cmpdf2.o)
 .bss           0x02048648        0x0 c:/devkitpro/devkitarm/bin/../lib/gcc/arm-eabi/4.5.1\libgcc.a(_arm_fixdfsi.o)
 .bss           0x02048648        0x0 c:/devkitpro/devkitarm/bin/../lib/gcc/arm-eabi/4.5.1\libgcc.a(_arm_fixunsdfsi.o)
 .bss           0x02048648        0x0 c:/devkitpro/devkitarm/bin/../lib/gcc/arm-eabi/4.5.1\libgcc.a(_arm_truncdfsf2.o)
 .bss           0x02048648        0x0 c:/devkitpro/devkitarm/bin/../lib/gcc/arm-eabi/4.5.1\libgcc.a(_arm_addsubsf3.o)
 .bss           0x02048648        0x0 c:/devkitpro/devkitarm/bin/../lib/gcc/arm-eabi/4.5.1\libgcc.a(_arm_muldivsf3.o)
 .bss           0x02048648        0x0 c:/devkitpro/devkitarm/bin/../lib/gcc/arm-eabi/4.5.1\libgcc.a(_arm_cmpsf2.o)
 .bss           0x02048648        0x0 c:/devkitpro/devkitarm/bin/../lib/gcc/arm-eabi/4.5.1\libgcc.a(_arm_fixsfsi.o)
 .bss           0x02048648        0x0 c:/devkitpro/devkitarm/bin/../lib/gcc/arm-eabi/4.5.1\libgcc.a(_arm_fixunssfsi.o)
 .bss           0x02048648        0x0 c:/devkitpro/devkitarm/bin/../lib/gcc/arm-eabi/4.5.1\libgcc.a(_muldi3.o)
 .bss           0x02048648        0x0 c:/devkitpro/devkitarm/bin/../lib/gcc/arm-eabi/4.5.1/../../../../arm-eabi/lib\libg.a(lib_a-abort.o)
 .bss           0x02048648        0x0 c:/devkitpro/devkitarm/bin/../lib/gcc/arm-eabi/4.5.1/../../../../arm-eabi/lib\libg.a(lib_a-bsearch.o)
 .bss           0x02048648        0x0 c:/devkitpro/devkitarm/bin/../lib/gcc/arm-eabi/4.5.1/../../../../arm-eabi/lib\libg.a(lib_a-calloc.o)
 .bss           0x02048648        0x0 c:/devkitpro/devkitarm/bin/../lib/gcc/arm-eabi/4.5.1/../../../../arm-eabi/lib\libg.a(lib_a-callocr.o)
 .bss           0x02048648        0x0 c:/devkitpro/devkitarm/bin/../lib/gcc/arm-eabi/4.5.1/../../../../arm-eabi/lib\libg.a(lib_a-errno.o)
 .bss           0x02048648        0x0 c:/devkitpro/devkitarm/bin/../lib/gcc/arm-eabi/4.5.1/../../../../arm-eabi/lib\libg.a(lib_a-fclose.o)
 .bss           0x02048648        0x0 c:/devkitpro/devkitarm/bin/../lib/gcc/arm-eabi/4.5.1/../../../../arm-eabi/lib\libg.a(lib_a-fflush.o)
 .bss           0x02048648        0x0 c:/devkitpro/devkitarm/bin/../lib/gcc/arm-eabi/4.5.1/../../../../arm-eabi/lib\libg.a(lib_a-findfp.o)
 .bss           0x02048648        0x0 c:/devkitpro/devkitarm/bin/../lib/gcc/arm-eabi/4.5.1/../../../../arm-eabi/lib\libg.a(lib_a-fprintf.o)
 .bss           0x02048648        0x0 c:/devkitpro/devkitarm/bin/../lib/gcc/arm-eabi/4.5.1/../../../../arm-eabi/lib\libg.a(lib_a-fread.o)
 .bss           0x02048648        0x0 c:/devkitpro/devkitarm/bin/../lib/gcc/arm-eabi/4.5.1/../../../../arm-eabi/lib\libg.a(lib_a-freer.o)
 .bss           0x02048648        0x0 c:/devkitpro/devkitarm/bin/../lib/gcc/arm-eabi/4.5.1/../../../../arm-eabi/lib\libg.a(lib_a-fwalk.o)
 .bss           0x02048648        0x0 c:/devkitpro/devkitarm/bin/../lib/gcc/arm-eabi/4.5.1/../../../../arm-eabi/lib\libg.a(lib_a-impure.o)
 .bss           0x02048648        0x0 c:/devkitpro/devkitarm/bin/../lib/gcc/arm-eabi/4.5.1/../../../../arm-eabi/lib\libg.a(lib_a-init.o)
 .bss           0x02048648        0x0 c:/devkitpro/devkitarm/bin/../lib/gcc/arm-eabi/4.5.1/../../../../arm-eabi/lib\libg.a(lib_a-malloc.o)
 .bss           0x02048648       0x34 c:/devkitpro/devkitarm/bin/../lib/gcc/arm-eabi/4.5.1/../../../../arm-eabi/lib\libg.a(lib_a-mallocr.o)
                0x02048648                __malloc_top_pad
                0x0204864c                __malloc_current_mallinfo
                0x02048674                __malloc_max_sbrked_mem
                0x02048678                __malloc_max_total_mem
 .bss           0x0204867c        0x0 c:/devkitpro/devkitarm/bin/../lib/gcc/arm-eabi/4.5.1/../../../../arm-eabi/lib\libg.a(lib_a-memcmp.o)
 .bss           0x0204867c        0x0 c:/devkitpro/devkitarm/bin/../lib/gcc/arm-eabi/4.5.1/../../../../arm-eabi/lib\libg.a(lib_a-memcpy.o)
 .bss           0x0204867c        0x0 c:/devkitpro/devkitarm/bin/../lib/gcc/arm-eabi/4.5.1/../../../../arm-eabi/lib\libg.a(lib_a-memmove.o)
 .bss           0x0204867c        0x0 c:/devkitpro/devkitarm/bin/../lib/gcc/arm-eabi/4.5.1/../../../../arm-eabi/lib\libg.a(lib_a-memset.o)
 .bss           0x0204867c        0x0 c:/devkitpro/devkitarm/bin/../lib/gcc/arm-eabi/4.5.1/../../../../arm-eabi/lib\libg.a(lib_a-mlock.o)
 .bss           0x0204867c        0x0 c:/devkitpro/devkitarm/bin/../lib/gcc/arm-eabi/4.5.1/../../../../arm-eabi/lib\libg.a(lib_a-rand.o)
 .bss           0x0204867c        0x0 c:/devkitpro/devkitarm/bin/../lib/gcc/arm-eabi/4.5.1/../../../../arm-eabi/lib\libg.a(lib_a-realloc.o)
 .bss           0x0204867c        0x0 c:/devkitpro/devkitarm/bin/../lib/gcc/arm-eabi/4.5.1/../../../../arm-eabi/lib\libg.a(lib_a-reallocr.o)
 .bss           0x0204867c        0x0 c:/devkitpro/devkitarm/bin/../lib/gcc/arm-eabi/4.5.1/../../../../arm-eabi/lib\libg.a(lib_a-refill.o)
 .bss           0x0204867c        0x0 c:/devkitpro/devkitarm/bin/../lib/gcc/arm-eabi/4.5.1/../../../../arm-eabi/lib\libg.a(lib_a-setjmp.o)
 .bss           0x0204867c        0x0 c:/devkitpro/devkitarm/bin/../lib/gcc/arm-eabi/4.5.1/../../../../arm-eabi/lib\libg.a(lib_a-signal.o)
 .bss           0x0204867c        0x0 c:/devkitpro/devkitarm/bin/../lib/gcc/arm-eabi/4.5.1/../../../../arm-eabi/lib\libg.a(lib_a-snprintf.o)
 .bss           0x0204867c        0x0 c:/devkitpro/devkitarm/bin/../lib/gcc/arm-eabi/4.5.1/../../../../arm-eabi/lib\libg.a(lib_a-stdio.o)
 .bss           0x0204867c        0x0 c:/devkitpro/devkitarm/bin/../lib/gcc/arm-eabi/4.5.1/../../../../arm-eabi/lib\libg.a(lib_a-strcmp.o)
 .bss           0x0204867c        0x0 c:/devkitpro/devkitarm/bin/../lib/gcc/arm-eabi/4.5.1/../../../../arm-eabi/lib\libg.a(lib_a-strlen.o)
 .bss           0x0204867c        0x0 c:/devkitpro/devkitarm/bin/../lib/gcc/arm-eabi/4.5.1/../../../../arm-eabi/lib\libg.a(lib_a-strtod.o)
 .bss           0x0204867c        0x0 c:/devkitpro/devkitarm/bin/../lib/gcc/arm-eabi/4.5.1/../../../../arm-eabi/lib\libg.a(lib_a-svfprintf.o)
 .bss           0x0204867c        0x0 c:/devkitpro/devkitarm/bin/../lib/gcc/arm-eabi/4.5.1/../../../../arm-eabi/lib\libg.a(lib_a-vfprintf.o)
 .bss           0x0204867c        0x0 c:/devkitpro/devkitarm/bin/../lib/gcc/arm-eabi/4.5.1/../../../../arm-eabi/lib\libg.a(lib_a-wcrtomb.o)
 .bss           0x0204867c        0x0 c:/devkitpro/devkitarm/bin/../lib/gcc/arm-eabi/4.5.1/../../../../arm-eabi/lib\libg.a(lib_a-wcsrtombs.o)
 .bss           0x0204867c        0x0 c:/devkitpro/devkitarm/bin/../lib/gcc/arm-eabi/4.5.1/../../../../arm-eabi/lib\libg.a(lib_a-wctomb_r.o)
 .bss           0x0204867c        0x0 c:/devkitpro/devkitarm/bin/../lib/gcc/arm-eabi/4.5.1/../../../../arm-eabi/lib\libg.a(lib_a-wsetup.o)
 .bss           0x0204867c        0x0 c:/devkitpro/devkitarm/bin/../lib/gcc/arm-eabi/4.5.1/../../../../arm-eabi/lib\libg.a(lib_a-dtoa.o)
 .bss           0x0204867c        0x0 c:/devkitpro/devkitarm/bin/../lib/gcc/arm-eabi/4.5.1/../../../../arm-eabi/lib\libg.a(lib_a-gdtoa-gethex.o)
 .bss           0x0204867c        0x0 c:/devkitpro/devkitarm/bin/../lib/gcc/arm-eabi/4.5.1/../../../../arm-eabi/lib\libg.a(lib_a-gdtoa-hexnan.o)
 .bss           0x0204867c      0x2b8 c:/devkitpro/devkitarm/bin/../lib/gcc/arm-eabi/4.5.1/../../../../arm-eabi/lib\libg.a(lib_a-locale.o)
                0x02048928                __nlocale_changed
                0x0204892c                __mlocale_changed
                0x02048930                _PathLocale
 .bss           0x02048934        0x0 c:/devkitpro/devkitarm/bin/../lib/gcc/arm-eabi/4.5.1/../../../../arm-eabi/lib\libg.a(lib_a-makebuf.o)
 .bss           0x02048934        0x0 c:/devkitpro/devkitarm/bin/../lib/gcc/arm-eabi/4.5.1/../../../../arm-eabi/lib\libg.a(lib_a-mbtowc_r.o)
 .bss           0x02048934        0x0 c:/devkitpro/devkitarm/bin/../lib/gcc/arm-eabi/4.5.1/../../../../arm-eabi/lib\libg.a(lib_a-memchr.o)
 .bss           0x02048934        0x0 c:/devkitpro/devkitarm/bin/../lib/gcc/arm-eabi/4.5.1/../../../../arm-eabi/lib\libg.a(lib_a-mprec.o)
 .bss           0x02048934        0x0 c:/devkitpro/devkitarm/bin/../lib/gcc/arm-eabi/4.5.1/../../../../arm-eabi/lib\libg.a(lib_a-sf_nan.o)
 .bss           0x02048934        0x0 c:/devkitpro/devkitarm/bin/../lib/gcc/arm-eabi/4.5.1/../../../../arm-eabi/lib\libg.a(lib_a-strcasecmp.o)
 .bss           0x02048934        0x0 c:/devkitpro/devkitarm/bin/../lib/gcc/arm-eabi/4.5.1/../../../../arm-eabi/lib\libg.a(lib_a-strcat.o)
 .bss           0x02048934        0x0 c:/devkitpro/devkitarm/bin/../lib/gcc/arm-eabi/4.5.1/../../../../arm-eabi/lib\libg.a(lib_a-strchr.o)
 .bss           0x02048934        0x0 c:/devkitpro/devkitarm/bin/../lib/gcc/arm-eabi/4.5.1/../../../../arm-eabi/lib\libg.a(lib_a-strcpy.o)
 .bss           0x02048934        0x0 c:/devkitpro/devkitarm/bin/../lib/gcc/arm-eabi/4.5.1/../../../../arm-eabi/lib\libg.a(lib_a-strlcpy.o)
 .bss           0x02048934        0x0 c:/devkitpro/devkitarm/bin/../lib/gcc/arm-eabi/4.5.1/../../../../arm-eabi/lib\libg.a(lib_a-strncasecmp.o)
 .bss           0x02048934        0x0 c:/devkitpro/devkitarm/bin/../lib/gcc/arm-eabi/4.5.1/../../../../arm-eabi/lib\libg.a(lib_a-strncmp.o)
 .bss           0x02048934        0x0 c:/devkitpro/devkitarm/bin/../lib/gcc/arm-eabi/4.5.1/../../../../arm-eabi/lib\libg.a(lib_a-strncpy.o)
 .bss           0x02048934        0x0 c:/devkitpro/devkitarm/bin/../lib/gcc/arm-eabi/4.5.1/../../../../arm-eabi/lib\libg.a(lib_a-strtol.o)
 .bss           0x02048934        0x0 c:/devkitpro/devkitarm/bin/../lib/gcc/arm-eabi/4.5.1/../../../../arm-eabi/lib\libg.a(lib_a-svfiprintf.o)
 .bss           0x02048934        0x0 c:/devkitpro/devkitarm/bin/../lib/gcc/arm-eabi/4.5.1/../../../../arm-eabi/lib\libg.a(lib_a-vfiprintf.o)
 .bss           0x02048934        0x0 c:/devkitpro/devkitarm/bin/../lib/gcc/arm-eabi/4.5.1/../../../../arm-eabi/lib\libg.a(lib_a-wcsnrtombs.o)
 .bss           0x02048934        0x0 c:/devkitpro/devkitarm/bin/../lib/gcc/arm-eabi/4.5.1/../../../../arm-eabi/lib\libg.a(lib_a-ctype_.o)
 .bss           0x02048934        0x0 c:/devkitpro/devkitarm/bin/../lib/gcc/arm-eabi/4.5.1/../../../../arm-eabi/lib\libg.a(lib_a-fputwc.o)
 .bss           0x02048934        0x0 c:/devkitpro/devkitarm/bin/../lib/gcc/arm-eabi/4.5.1/../../../../arm-eabi/lib\libg.a(lib_a-fvwrite.o)
 .bss           0x02048934        0x0 c:/devkitpro/devkitarm/bin/../lib/gcc/arm-eabi/4.5.1/../../../../arm-eabi/lib\libg.a(lib_a-getenv_r.o)
 .bss           0x02048934        0x0 c:/devkitpro/devkitarm/bin/../lib/gcc/arm-eabi/4.5.1/../../../../arm-eabi/lib\libg.a(lib_a-wbuf.o)
 .bss           0x02048934        0x4 c:/devkitpro/devkitarm/bin/../lib/gcc/arm-eabi/4.5.1/../../../../arm-eabi/lib\libg.a(lib_a-environ.o)
 .bss           0x02048938        0x0 c:/devkitpro/devkitarm/bin/../lib/gcc/arm-eabi/4.5.1/../../../../arm-eabi/lib\libg.a(lib_a-envlock.o)
 .bss           0x02048938        0x0 c:/devkitpro/devkitarm/bin/../lib/gcc/arm-eabi/4.5.1/../../../../arm-eabi/lib\libsysbase.a(close.o)
 .bss           0x02048938        0x0 c:/devkitpro/devkitarm/bin/../lib/gcc/arm-eabi/4.5.1/../../../../arm-eabi/lib\libsysbase.a(fstat.o)
 .bss           0x02048938        0x0 c:/devkitpro/devkitarm/bin/../lib/gcc/arm-eabi/4.5.1/../../../../arm-eabi/lib\libsysbase.a(getpid.o)
 .bss           0x02048938        0x0 c:/devkitpro/devkitarm/bin/../lib/gcc/arm-eabi/4.5.1/../../../../arm-eabi/lib\libsysbase.a(isatty.o)
 .bss           0x02048938        0x0 c:/devkitpro/devkitarm/bin/../lib/gcc/arm-eabi/4.5.1/../../../../arm-eabi/lib\libsysbase.a(kill.o)
 .bss           0x02048938        0x0 c:/devkitpro/devkitarm/bin/../lib/gcc/arm-eabi/4.5.1/../../../../arm-eabi/lib\libsysbase.a(lseek.o)
 .bss           0x02048938        0x0 c:/devkitpro/devkitarm/bin/../lib/gcc/arm-eabi/4.5.1/../../../../arm-eabi/lib\libsysbase.a(read.o)
 .bss           0x02048938        0x4 c:/devkitpro/devkitarm/bin/../lib/gcc/arm-eabi/4.5.1/../../../../arm-eabi/lib\libsysbase.a(sbrk.o)
 .bss           0x0204893c        0x0 c:/devkitpro/devkitarm/bin/../lib/gcc/arm-eabi/4.5.1/../../../../arm-eabi/lib\libsysbase.a(times.o)
 .bss           0x0204893c        0x0 c:/devkitpro/devkitarm/bin/../lib/gcc/arm-eabi/4.5.1/../../../../arm-eabi/lib\libsysbase.a(write.o)
 .bss           0x0204893c        0x0 c:/devkitpro/devkitarm/bin/../lib/gcc/arm-eabi/4.5.1/../../../../arm-eabi/lib\libsysbase.a(_exit.o)
 .bss           0x0204893c        0x8 c:/devkitpro/devkitarm/bin/../lib/gcc/arm-eabi/4.5.1/../../../../arm-eabi/lib\libsysbase.a(malloc_vars.o)
                0x0204893c                fake_heap_end
                0x02048940                fake_heap_start
 .bss           0x02048944        0x0 c:/devkitpro/devkitarm/bin/../lib/gcc/arm-eabi/4.5.1/../../../../arm-eabi/lib\libsysbase.a(build_argv.o)
 .bss           0x02048944        0x8 c:/devkitpro/devkitarm/bin/../lib/gcc/arm-eabi/4.5.1/../../../../arm-eabi/lib\libsysbase.a(syscall_support.o)
                0x02048944                __syscalls
 .bss           0x0204894c     0x1000 c:/devkitpro/devkitarm/bin/../lib/gcc/arm-eabi/4.5.1/../../../../arm-eabi/lib\libsysbase.a(handle_manager.o)
 .bss           0x0204994c        0x0 c:/devkitpro/devkitarm/bin/../lib/gcc/arm-eabi/4.5.1/../../../../arm-eabi/lib\libsysbase.a(iosupport.o)
 .bss           0x0204994c        0x0 c:/devkitpro/devkitarm/bin/../lib/gcc/arm-eabi/4.5.1\libgcc.a(_aeabi_uldivmod.o)
 .bss           0x0204994c        0x0 c:/devkitpro/devkitarm/bin/../lib/gcc/arm-eabi/4.5.1\libgcc.a(bpabi.o)
 .bss           0x0204994c        0x0 c:/devkitpro/devkitarm/bin/../lib/gcc/arm-eabi/4.5.1\libgcc.a(unwind-arm.o)
 .bss           0x0204994c        0x0 c:/devkitpro/devkitarm/bin/../lib/gcc/arm-eabi/4.5.1\libgcc.a(libunwind.o)
 .bss           0x0204994c        0x0 c:/devkitpro/devkitarm/bin/../lib/gcc/arm-eabi/4.5.1\libgcc.a(pr-support.o)
 .bss           0x0204994c        0x0 c:/devkitpro/devkitarm/bin/../lib/gcc/arm-eabi/4.5.1\libgcc.a(_divdi3.o)
 .bss           0x0204994c        0x0 c:/devkitpro/devkitarm/bin/../lib/gcc/arm-eabi/4.5.1\libgcc.a(_udivdi3.o)
 .bss           0x0204994c        0x0 c:/devkitpro/devkitarm/bin/../lib/gcc/arm-eabi/4.5.1\libgcc.a(_clzsi2.o)
 .bss           0x0204994c        0x0 c:/devkitpro/devkitarm/bin/../lib/gcc/arm-eabi/4.5.1/crtend.o
 .bss           0x0204994c        0x0 c:/devkitpro/devkitarm/bin/../lib/gcc/arm-eabi/4.5.1/crtn.o
 *(COMMON)
 COMMON         0x0204994c      0x800 c:/devkitPro/libnds/lib\libul.a(ulib.o)
                0x0204994c                ul_cos
                0x02049d4c                ul_sin
 COMMON         0x0204a14c      0x411 c:/devkitPro/libnds/lib\libul.a(drawing.o)
                0x0204a14c                ul_colorKeyValue32
                0x0204a150                ul_colorKeyValue
                0x0204a154                ulDualScreenSprites
                0x0204a554                ul_autoDepth
                0x0204a555                ul_dualScreenMode
                0x0204a556                ul_frameNumber
                0x0204a558                ul_currentDepth
                0x0204a55c                ul_colorKeyEnabled
 *fill*         0x0204a55d        0x3 00
 COMMON         0x0204a560       0x44 c:/devkitPro/libnds/lib\libul.a(VirtualFile.o)
                0x0204a560                VirtualFileSources
                0x0204a5a0                ul_virtualFileList
 COMMON         0x0204a5a4       0x1c c:/devkitPro/libnds/lib\libul.a(texVramManager.o)
                0x0204a5a4                ulTextureMax
                0x0204a5a8                ulTextureParams
                0x0204a5ac                ulTexRamBlocksNb
                0x0204a5b0                ulTextureNb
                0x0204a5b4                ulTexRamBlocksMax
                0x0204a5b8                ulTexRamBlocks
                0x0204a5bc                ulTextureActive
 COMMON         0x0204a5c0        0xc c:/devkitPro/libnds/lib\libul.a(texPalManager.o)
                0x0204a5c0                ulTexPalBlocksNb
                0x0204a5c4                ulTexPalBlocks
                0x0204a5c8                ulTexPalBlocksMax
 COMMON         0x0204a5cc        0x8 c:/devkitPro/libnds/lib\libul.a(ulShowSplashScreen1.o)
                0x0204a5cc                ul_splash1_fadeDir
                0x0204a5d0                ul_splash1_fade
 COMMON         0x0204a5d4      0xc00 c:/devkitPro/libnds/lib\libul.a(ulShowSplashScreen2.o)
                0x0204a5d4                ul_neoflashlogo_positions
 COMMON         0x0204b1d4      0x804 c:/devkitPro/libnds/lib\libul.a(libLoadGif.o)
                0x0204b1d4                temppalette
                0x0204b1d8                LineBuf
 COMMON         0x0204b9d8        0x8 c:/devkitPro/libnds/lib\libul.a(gba-jpeg-decode.o)
                0x0204b9d8                JPG_outEnd
                0x0204b9dc                JPG_outBegin
 COMMON         0x0204b9e0       0x4c c:/devkitPro/libnds/lib\libnds9.a(videoGL.o)
                0x0204b9e0                glGlobalData
 COMMON         0x0204ba2c        0x1 c:/devkitPro/libnds/lib\libnds9.a(initSystem.o)
                0x0204ba2c                __dsimode
 *fill*         0x0204ba2d        0x3 00
 COMMON         0x0204ba30      0xa40 c:/devkitPro/libnds/lib\libnds9.a(fifosystem.o)
                0x0204ba30                fifo_datamsg_data
                0x0204ba70                fifo_buffer
                0x0204c270                fifo_value32_func
                0x0204c2b0                fifo_address_func
                0x0204c2f0                fifo_value32_data
                0x0204c330                fifo_value32_queue
                0x0204c370                fifo_data_queue
                0x0204c3b0                fifo_address_data
                0x0204c3f0                fifo_datamsg_func
                0x0204c430                fifo_address_queue
 COMMON         0x0204c470      0x100 c:/devkitpro/devkitarm/bin/../lib/gcc/arm-eabi/4.5.1/../../../../arm-eabi/lib\libg.a(lib_a-gdtoa-gethex.o)
                0x0204c470                __hexdig
 COMMON         0x0204c570        0x4 c:/devkitpro/devkitarm/bin/../lib/gcc/arm-eabi/4.5.1/../../../../arm-eabi/lib\libsysbase.a(times.o)
                0x0204c570                punixTime
                0x0204c574                . = ALIGN (0x4)
                0x0204c574                __bss_end = ABSOLUTE (.)
                0x0204c574                __bss_end__ = __bss_end
                0x0204c574                _end = __bss_end__
                0x0204c574                __end__ = __bss_end__

.stab
 *(.stab)

.stabstr
 *(.stabstr)

.stab.excl
 *(.stab.excl)

.stab.exclstr
 *(.stab.exclstr)

.stab.index
 *(.stab.index)

.stab.indexstr
 *(.stab.indexstr)

.ARM.attributes
                0x00000000       0x2d load address 0x020485f8
 .ARM.attributes
                0x00000000       0x21 c:/devkitpro/devkitarm/bin/../lib/gcc/arm-eabi/4.5.1/../../../../arm-eabi/lib/ds_arm9_crt0.o
 .ARM.attributes
                0x00000021       0x20 c:/devkitpro/devkitarm/bin/../lib/gcc/arm-eabi/4.5.1/crti.o
 .ARM.attributes
                0x00000041       0x30 c:/devkitpro/devkitarm/bin/../lib/gcc/arm-eabi/4.5.1/crtbegin.o
 .ARM.attributes
                0x00000071       0x14 tails.png.o
 .ARM.attributes
                0x00000085       0x27 main.o
 .ARM.attributes
                0x000000ac       0x2d c:/devkitPro/libnds/lib\libul.a(ulib.o)
 .ARM.attributes
                0x000000d9       0x2d c:/devkitPro/libnds/lib\libul.a(drawing.o)
 .ARM.attributes
                0x00000106       0x2d c:/devkitPro/libnds/lib\libul.a(text.o)
 .ARM.attributes
                0x00000133       0x2d c:/devkitPro/libnds/lib\libul.a(VirtualFile.o)
 .ARM.attributes
                0x00000160       0x2d c:/devkitPro/libnds/lib\libul.a(texVramManager.o)
 .ARM.attributes
                0x0000018d       0x2d c:/devkitPro/libnds/lib\libul.a(texPalManager.o)
 .ARM.attributes
                0x000001ba       0x2d c:/devkitPro/libnds/lib\libul.a(keys.o)
 .ARM.attributes
                0x000001e7       0x2d c:/devkitPro/libnds/lib\libul.a(ulDrawImage.o)
 .ARM.attributes
                0x00000214       0x2d c:/devkitPro/libnds/lib\libul.a(ulCreateImagePalette.o)
 .ARM.attributes
                0x00000241       0x2d c:/devkitPro/libnds/lib\libul.a(ulDrawGradientRect.o)
 .ARM.attributes
                0x0000026e       0x2d c:/devkitPro/libnds/lib\libul.a(ulLoadImageFilePNG.o)
 .ARM.attributes
                0x0000029b       0x2d c:/devkitPro/libnds/lib\libul.a(ulShowSplashScreen1.o)
 .ARM.attributes
                0x000002c8       0x2d c:/devkitPro/libnds/lib\libul.a(ulShowSplashScreen2.o)
 .ARM.attributes
                0x000002f5       0x2d c:/devkitPro/libnds/lib\libul.a(glWrapper.o)
 .ARM.attributes
                0x00000322       0x2d c:/devkitPro/libnds/lib\libul.a(libLoadPng.o)
 .ARM.attributes
                0x0000034f       0x2d c:/devkitPro/libnds/lib\libul.a(ulDrawFillRect.o)
 .ARM.attributes
                0x0000037c       0x2d c:/devkitPro/libnds/lib\libul.a(ulSetImagePixel.o)
 .ARM.attributes
                0x000003a9       0x2d c:/devkitPro/libnds/lib\libul.a(ulGetImagePixel.o)
 .ARM.attributes
                0x000003d6       0x2d c:/devkitPro/libnds/lib\libul.a(textSize.o)
 .ARM.attributes
                0x00000403       0x2d c:/devkitPro/libnds/lib\libul.a(loading_utility.o)
 .ARM.attributes
                0x00000430       0x2d c:/devkitPro/libnds/lib\libul.a(ulLoadImageFileJPG.o)
 .ARM.attributes
                0x0000045d       0x2d c:/devkitPro/libnds/lib\libul.a(ulLoadImageFileGIF.o)
 .ARM.attributes
                0x0000048a       0x2d c:/devkitPro/libnds/lib\libul.a(libLoadJpg.o)
 .ARM.attributes
                0x000004b7       0x2d c:/devkitPro/libnds/lib\libul.a(libLoadGif.o)
 .ARM.attributes
                0x000004e4       0x2d c:/devkitPro/libnds/lib\libul.a(dgif_lib.o)
 .ARM.attributes
                0x00000511       0x2d c:/devkitPro/libnds/lib\libul.a(gif_err.o)
 .ARM.attributes
                0x0000053e       0x2d c:/devkitPro/libnds/lib\libul.a(gifalloc.o)
 .ARM.attributes
                0x0000056b       0x2d c:/devkitPro/libnds/lib\libul.a(ulReadEntireFileToMemory.o)
 .ARM.attributes
                0x00000598       0x2d c:/devkitPro/libnds/lib\libul.a(gba-jpeg-decode.o)
 .ARM.attributes
                0x000005c5       0x2e c:/devkitPro/libnds/lib\libpng.a(png.o)
 .ARM.attributes
                0x000005f3       0x2e c:/devkitPro/libnds/lib\libpng.a(pngread.o)
 .ARM.attributes
                0x00000621       0x2e c:/devkitPro/libnds/lib\libpng.a(pngrio.o)
 .ARM.attributes
                0x0000064f       0x2e c:/devkitPro/libnds/lib\libpng.a(pngrtran.o)
 .ARM.attributes
                0x0000067d       0x2e c:/devkitPro/libnds/lib\libpng.a(pngmem.o)
 .ARM.attributes
                0x000006ab       0x2e c:/devkitPro/libnds/lib\libpng.a(pngerror.o)
 .ARM.attributes
                0x000006d9       0x2e c:/devkitPro/libnds/lib\libpng.a(pngget.o)
 .ARM.attributes
                0x00000707       0x2e c:/devkitPro/libnds/lib\libpng.a(pngrutil.o)
 .ARM.attributes
                0x00000735       0x2e c:/devkitPro/libnds/lib\libpng.a(pngtrans.o)
 .ARM.attributes
                0x00000763       0x2e c:/devkitPro/libnds/lib\libpng.a(pngset.o)
 .ARM.attributes
                0x00000791       0x2e c:/devkitPro/libnds/lib\libz.a(crc32.o)
 .ARM.attributes
                0x000007bf       0x2e c:/devkitPro/libnds/lib\libz.a(inflate.o)
 .ARM.attributes
                0x000007ed       0x2e c:/devkitPro/libnds/lib\libz.a(inftrees.o)
 .ARM.attributes
                0x0000081b       0x2e c:/devkitPro/libnds/lib\libz.a(inffast.o)
 .ARM.attributes
                0x00000849       0x2e c:/devkitPro/libnds/lib\libz.a(adler32.o)
 .ARM.attributes
                0x00000877       0x2e c:/devkitPro/libnds/lib\libz.a(zutil.o)
 .ARM.attributes
                0x000008a5       0x27 c:/devkitPro/libnds/lib\libnds9.a(dynamicArray.o)
 .ARM.attributes
                0x000008cc       0x27 c:/devkitPro/libnds/lib\libnds9.a(keys.o)
 .ARM.attributes
                0x000008f3       0x27 c:/devkitPro/libnds/lib\libnds9.a(system.o)
 .ARM.attributes
                0x0000091a       0x27 c:/devkitPro/libnds/lib\libnds9.a(touch.o)
 .ARM.attributes
                0x00000941       0x27 c:/devkitPro/libnds/lib\libnds9.a(trig.o)
 .ARM.attributes
                0x00000968       0x27 c:/devkitPro/libnds/lib\libnds9.a(videoGL.o)
 .ARM.attributes
                0x0000098f       0x27 c:/devkitPro/libnds/lib\libnds9.a(initSystem.o)
 .ARM.attributes
                0x000009b6       0x27 c:/devkitPro/libnds/lib\libnds9.a(fifosystem.o)
 .ARM.attributes
                0x000009dd       0x27 c:/devkitPro/libnds/lib\libnds9.a(interrupts.o)
 .ARM.attributes
                0x00000a04       0x27 c:/devkitPro/libnds/lib\libnds9.a(libnds_exit.o)
 .ARM.attributes
                0x00000a2b       0x21 c:/devkitPro/libnds/lib\libnds9.a(mpu_setup.o)
 .ARM.attributes
                0x00000a4c       0x1b c:/devkitPro/libnds/lib\libnds9.a(biosCalls.o)
 .ARM.attributes
                0x00000a67       0x1b c:/devkitPro/libnds/lib\libnds9.a(interruptDispatcher.o)
 .ARM.attributes
                0x00000a82       0x21 c:/devkitPro/libnds/lib\libnds9.a(swiSoftReset.o)
 .ARM.attributes
                0x00000aa3       0x27 c:/devkitPro/libnds/lib\libnds9.a(video.o)
 .ARM.attributes
                0x00000aca       0x30 c:/devkitpro/devkitarm/bin/../lib/gcc/arm-eabi/4.5.1/../../../../arm-eabi/lib\libm.a(lib_a-s_cos.o)
 .ARM.attributes
                0x00000afa       0x30 c:/devkitpro/devkitarm/bin/../lib/gcc/arm-eabi/4.5.1/../../../../arm-eabi/lib\libm.a(lib_a-s_sin.o)
 .ARM.attributes
                0x00000b2a       0x30 c:/devkitpro/devkitarm/bin/../lib/gcc/arm-eabi/4.5.1/../../../../arm-eabi/lib\libm.a(lib_a-w_pow.o)
 .ARM.attributes
                0x00000b5a       0x30 c:/devkitpro/devkitarm/bin/../lib/gcc/arm-eabi/4.5.1/../../../../arm-eabi/lib\libm.a(lib_a-e_pow.o)
 .ARM.attributes
                0x00000b8a       0x30 c:/devkitpro/devkitarm/bin/../lib/gcc/arm-eabi/4.5.1/../../../../arm-eabi/lib\libm.a(lib_a-e_rem_pio2.o)
 .ARM.attributes
                0x00000bba       0x30 c:/devkitpro/devkitarm/bin/../lib/gcc/arm-eabi/4.5.1/../../../../arm-eabi/lib\libm.a(lib_a-e_sqrt.o)
 .ARM.attributes
                0x00000bea       0x30 c:/devkitpro/devkitarm/bin/../lib/gcc/arm-eabi/4.5.1/../../../../arm-eabi/lib\libm.a(lib_a-k_cos.o)
 .ARM.attributes
                0x00000c1a       0x30 c:/devkitpro/devkitarm/bin/../lib/gcc/arm-eabi/4.5.1/../../../../arm-eabi/lib\libm.a(lib_a-k_rem_pio2.o)
 .ARM.attributes
                0x00000c4a       0x30 c:/devkitpro/devkitarm/bin/../lib/gcc/arm-eabi/4.5.1/../../../../arm-eabi/lib\libm.a(lib_a-k_sin.o)
 .ARM.attributes
                0x00000c7a       0x30 c:/devkitpro/devkitarm/bin/../lib/gcc/arm-eabi/4.5.1/../../../../arm-eabi/lib\libm.a(lib_a-s_fabs.o)
 .ARM.attributes
                0x00000caa       0x30 c:/devkitpro/devkitarm/bin/../lib/gcc/arm-eabi/4.5.1/../../../../arm-eabi/lib\libm.a(lib_a-s_finite.o)
 .ARM.attributes
                0x00000cda       0x30 c:/devkitpro/devkitarm/bin/../lib/gcc/arm-eabi/4.5.1/../../../../arm-eabi/lib\libm.a(lib_a-s_floor.o)
 .ARM.attributes
                0x00000d0a       0x30 c:/devkitpro/devkitarm/bin/../lib/gcc/arm-eabi/4.5.1/../../../../arm-eabi/lib\libm.a(lib_a-s_fpclassify.o)
 .ARM.attributes
                0x00000d3a       0x30 c:/devkitpro/devkitarm/bin/../lib/gcc/arm-eabi/4.5.1/../../../../arm-eabi/lib\libm.a(lib_a-s_lib_ver.o)
 .ARM.attributes
                0x00000d6a       0x30 c:/devkitpro/devkitarm/bin/../lib/gcc/arm-eabi/4.5.1/../../../../arm-eabi/lib\libm.a(lib_a-s_matherr.o)
 .ARM.attributes
                0x00000d9a       0x30 c:/devkitpro/devkitarm/bin/../lib/gcc/arm-eabi/4.5.1/../../../../arm-eabi/lib\libm.a(lib_a-s_nan.o)
 .ARM.attributes
                0x00000dca       0x30 c:/devkitpro/devkitarm/bin/../lib/gcc/arm-eabi/4.5.1/../../../../arm-eabi/lib\libm.a(lib_a-s_rint.o)
 .ARM.attributes
                0x00000dfa       0x30 c:/devkitpro/devkitarm/bin/../lib/gcc/arm-eabi/4.5.1/../../../../arm-eabi/lib\libm.a(lib_a-s_scalbn.o)
 .ARM.attributes
                0x00000e2a       0x30 c:/devkitpro/devkitarm/bin/../lib/gcc/arm-eabi/4.5.1/../../../../arm-eabi/lib\libm.a(lib_a-s_copysign.o)
 .ARM.attributes
                0x00000e5a       0x22 c:/devkitpro/devkitarm/bin/../lib/gcc/arm-eabi/4.5.1\libgcc.a(_udivsi3.o)
 .ARM.attributes
                0x00000e7c       0x22 c:/devkitpro/devkitarm/bin/../lib/gcc/arm-eabi/4.5.1\libgcc.a(_divsi3.o)
 .ARM.attributes
                0x00000e9e       0x22 c:/devkitpro/devkitarm/bin/../lib/gcc/arm-eabi/4.5.1\libgcc.a(_dvmd_tls.o)
 .ARM.attributes
                0x00000ec0       0x22 c:/devkitpro/devkitarm/bin/../lib/gcc/arm-eabi/4.5.1\libgcc.a(_arm_addsubdf3.o)
 .ARM.attributes
                0x00000ee2       0x22 c:/devkitpro/devkitarm/bin/../lib/gcc/arm-eabi/4.5.1\libgcc.a(_arm_muldivdf3.o)
 .ARM.attributes
                0x00000f04       0x22 c:/devkitpro/devkitarm/bin/../lib/gcc/arm-eabi/4.5.1\libgcc.a(_arm_cmpdf2.o)
 .ARM.attributes
                0x00000f26       0x22 c:/devkitpro/devkitarm/bin/../lib/gcc/arm-eabi/4.5.1\libgcc.a(_arm_fixdfsi.o)
 .ARM.attributes
                0x00000f48       0x22 c:/devkitpro/devkitarm/bin/../lib/gcc/arm-eabi/4.5.1\libgcc.a(_arm_fixunsdfsi.o)
 .ARM.attributes
                0x00000f6a       0x22 c:/devkitpro/devkitarm/bin/../lib/gcc/arm-eabi/4.5.1\libgcc.a(_arm_truncdfsf2.o)
 .ARM.attributes
                0x00000f8c       0x22 c:/devkitpro/devkitarm/bin/../lib/gcc/arm-eabi/4.5.1\libgcc.a(_arm_addsubsf3.o)
 .ARM.attributes
                0x00000fae       0x22 c:/devkitpro/devkitarm/bin/../lib/gcc/arm-eabi/4.5.1\libgcc.a(_arm_muldivsf3.o)
 .ARM.attributes
                0x00000fd0       0x22 c:/devkitpro/devkitarm/bin/../lib/gcc/arm-eabi/4.5.1\libgcc.a(_arm_cmpsf2.o)
 .ARM.attributes
                0x00000ff2       0x22 c:/devkitpro/devkitarm/bin/../lib/gcc/arm-eabi/4.5.1\libgcc.a(_arm_fixsfsi.o)
 .ARM.attributes
                0x00001014       0x22 c:/devkitpro/devkitarm/bin/../lib/gcc/arm-eabi/4.5.1\libgcc.a(_arm_fixunssfsi.o)
 .ARM.attributes
                0x00001036       0x30 c:/devkitpro/devkitarm/bin/../lib/gcc/arm-eabi/4.5.1\libgcc.a(_muldi3.o)
 .ARM.attributes
                0x00001066       0x30 c:/devkitpro/devkitarm/bin/../lib/gcc/arm-eabi/4.5.1/../../../../arm-eabi/lib\libg.a(lib_a-abort.o)
 .ARM.attributes
                0x00001096       0x30 c:/devkitpro/devkitarm/bin/../lib/gcc/arm-eabi/4.5.1/../../../../arm-eabi/lib\libg.a(lib_a-bsearch.o)
 .ARM.attributes
                0x000010c6       0x30 c:/devkitpro/devkitarm/bin/../lib/gcc/arm-eabi/4.5.1/../../../../arm-eabi/lib\libg.a(lib_a-calloc.o)
 .ARM.attributes
                0x000010f6       0x30 c:/devkitpro/devkitarm/bin/../lib/gcc/arm-eabi/4.5.1/../../../../arm-eabi/lib\libg.a(lib_a-callocr.o)
 .ARM.attributes
                0x00001126       0x30 c:/devkitpro/devkitarm/bin/../lib/gcc/arm-eabi/4.5.1/../../../../arm-eabi/lib\libg.a(lib_a-errno.o)
 .ARM.attributes
                0x00001156       0x30 c:/devkitpro/devkitarm/bin/../lib/gcc/arm-eabi/4.5.1/../../../../arm-eabi/lib\libg.a(lib_a-fclose.o)
 .ARM.attributes
                0x00001186       0x30 c:/devkitpro/devkitarm/bin/../lib/gcc/arm-eabi/4.5.1/../../../../arm-eabi/lib\libg.a(lib_a-fflush.o)
 .ARM.attributes
                0x000011b6       0x30 c:/devkitpro/devkitarm/bin/../lib/gcc/arm-eabi/4.5.1/../../../../arm-eabi/lib\libg.a(lib_a-findfp.o)
 .ARM.attributes
                0x000011e6       0x30 c:/devkitpro/devkitarm/bin/../lib/gcc/arm-eabi/4.5.1/../../../../arm-eabi/lib\libg.a(lib_a-fprintf.o)
 .ARM.attributes
                0x00001216       0x30 c:/devkitpro/devkitarm/bin/../lib/gcc/arm-eabi/4.5.1/../../../../arm-eabi/lib\libg.a(lib_a-fread.o)
 .ARM.attributes
                0x00001246       0x30 c:/devkitpro/devkitarm/bin/../lib/gcc/arm-eabi/4.5.1/../../../../arm-eabi/lib\libg.a(lib_a-freer.o)
 .ARM.attributes
                0x00001276       0x30 c:/devkitpro/devkitarm/bin/../lib/gcc/arm-eabi/4.5.1/../../../../arm-eabi/lib\libg.a(lib_a-fwalk.o)
 .ARM.attributes
                0x000012a6       0x30 c:/devkitpro/devkitarm/bin/../lib/gcc/arm-eabi/4.5.1/../../../../arm-eabi/lib\libg.a(lib_a-impure.o)
 .ARM.attributes
                0x000012d6       0x30 c:/devkitpro/devkitarm/bin/../lib/gcc/arm-eabi/4.5.1/../../../../arm-eabi/lib\libg.a(lib_a-init.o)
 .ARM.attributes
                0x00001306       0x30 c:/devkitpro/devkitarm/bin/../lib/gcc/arm-eabi/4.5.1/../../../../arm-eabi/lib\libg.a(lib_a-malloc.o)
 .ARM.attributes
                0x00001336       0x30 c:/devkitpro/devkitarm/bin/../lib/gcc/arm-eabi/4.5.1/../../../../arm-eabi/lib\libg.a(lib_a-mallocr.o)
 .ARM.attributes
                0x00001366       0x30 c:/devkitpro/devkitarm/bin/../lib/gcc/arm-eabi/4.5.1/../../../../arm-eabi/lib\libg.a(lib_a-memcmp.o)
 .ARM.attributes
                0x00001396       0x30 c:/devkitpro/devkitarm/bin/../lib/gcc/arm-eabi/4.5.1/../../../../arm-eabi/lib\libg.a(lib_a-memcpy.o)
 .ARM.attributes
                0x000013c6       0x30 c:/devkitpro/devkitarm/bin/../lib/gcc/arm-eabi/4.5.1/../../../../arm-eabi/lib\libg.a(lib_a-memmove.o)
 .ARM.attributes
                0x000013f6       0x30 c:/devkitpro/devkitarm/bin/../lib/gcc/arm-eabi/4.5.1/../../../../arm-eabi/lib\libg.a(lib_a-memset.o)
 .ARM.attributes
                0x00001426       0x30 c:/devkitpro/devkitarm/bin/../lib/gcc/arm-eabi/4.5.1/../../../../arm-eabi/lib\libg.a(lib_a-mlock.o)
 .ARM.attributes
                0x00001456       0x30 c:/devkitpro/devkitarm/bin/../lib/gcc/arm-eabi/4.5.1/../../../../arm-eabi/lib\libg.a(lib_a-rand.o)
 .ARM.attributes
                0x00001486       0x30 c:/devkitpro/devkitarm/bin/../lib/gcc/arm-eabi/4.5.1/../../../../arm-eabi/lib\libg.a(lib_a-realloc.o)
 .ARM.attributes
                0x000014b6       0x30 c:/devkitpro/devkitarm/bin/../lib/gcc/arm-eabi/4.5.1/../../../../arm-eabi/lib\libg.a(lib_a-reallocr.o)
 .ARM.attributes
                0x000014e6       0x30 c:/devkitpro/devkitarm/bin/../lib/gcc/arm-eabi/4.5.1/../../../../arm-eabi/lib\libg.a(lib_a-refill.o)
 .ARM.attributes
                0x00001516       0x20 c:/devkitpro/devkitarm/bin/../lib/gcc/arm-eabi/4.5.1/../../../../arm-eabi/lib\libg.a(lib_a-setjmp.o)
 .ARM.attributes
                0x00001536       0x30 c:/devkitpro/devkitarm/bin/../lib/gcc/arm-eabi/4.5.1/../../../../arm-eabi/lib\libg.a(lib_a-signal.o)
 .ARM.attributes
                0x00001566       0x30 c:/devkitpro/devkitarm/bin/../lib/gcc/arm-eabi/4.5.1/../../../../arm-eabi/lib\libg.a(lib_a-snprintf.o)
 .ARM.attributes
                0x00001596       0x30 c:/devkitpro/devkitarm/bin/../lib/gcc/arm-eabi/4.5.1/../../../../arm-eabi/lib\libg.a(lib_a-stdio.o)
 .ARM.attributes
                0x000015c6       0x30 c:/devkitpro/devkitarm/bin/../lib/gcc/arm-eabi/4.5.1/../../../../arm-eabi/lib\libg.a(lib_a-strcmp.o)
 .ARM.attributes
                0x000015f6       0x30 c:/devkitpro/devkitarm/bin/../lib/gcc/arm-eabi/4.5.1/../../../../arm-eabi/lib\libg.a(lib_a-strlen.o)
 .ARM.attributes
                0x00001626       0x30 c:/devkitpro/devkitarm/bin/../lib/gcc/arm-eabi/4.5.1/../../../../arm-eabi/lib\libg.a(lib_a-strtod.o)
 .ARM.attributes
                0x00001656       0x30 c:/devkitpro/devkitarm/bin/../lib/gcc/arm-eabi/4.5.1/../../../../arm-eabi/lib\libg.a(lib_a-svfprintf.o)
 .ARM.attributes
                0x00001686       0x30 c:/devkitpro/devkitarm/bin/../lib/gcc/arm-eabi/4.5.1/../../../../arm-eabi/lib\libg.a(lib_a-vfprintf.o)
 .ARM.attributes
                0x000016b6       0x30 c:/devkitpro/devkitarm/bin/../lib/gcc/arm-eabi/4.5.1/../../../../arm-eabi/lib\libg.a(lib_a-wcrtomb.o)
 .ARM.attributes
                0x000016e6       0x30 c:/devkitpro/devkitarm/bin/../lib/gcc/arm-eabi/4.5.1/../../../../arm-eabi/lib\libg.a(lib_a-wcsrtombs.o)
 .ARM.attributes
                0x00001716       0x30 c:/devkitpro/devkitarm/bin/../lib/gcc/arm-eabi/4.5.1/../../../../arm-eabi/lib\libg.a(lib_a-wctomb_r.o)
 .ARM.attributes
                0x00001746       0x30 c:/devkitpro/devkitarm/bin/../lib/gcc/arm-eabi/4.5.1/../../../../arm-eabi/lib\libg.a(lib_a-wsetup.o)
 .ARM.attributes
                0x00001776       0x30 c:/devkitpro/devkitarm/bin/../lib/gcc/arm-eabi/4.5.1/../../../../arm-eabi/lib\libg.a(lib_a-dtoa.o)
 .ARM.attributes
                0x000017a6       0x30 c:/devkitpro/devkitarm/bin/../lib/gcc/arm-eabi/4.5.1/../../../../arm-eabi/lib\libg.a(lib_a-gdtoa-gethex.o)
 .ARM.attributes
                0x000017d6       0x30 c:/devkitpro/devkitarm/bin/../lib/gcc/arm-eabi/4.5.1/../../../../arm-eabi/lib\libg.a(lib_a-gdtoa-hexnan.o)
 .ARM.attributes
                0x00001806       0x30 c:/devkitpro/devkitarm/bin/../lib/gcc/arm-eabi/4.5.1/../../../../arm-eabi/lib\libg.a(lib_a-locale.o)
 .ARM.attributes
                0x00001836       0x30 c:/devkitpro/devkitarm/bin/../lib/gcc/arm-eabi/4.5.1/../../../../arm-eabi/lib\libg.a(lib_a-makebuf.o)
 .ARM.attributes
                0x00001866       0x30 c:/devkitpro/devkitarm/bin/../lib/gcc/arm-eabi/4.5.1/../../../../arm-eabi/lib\libg.a(lib_a-mbtowc_r.o)
 .ARM.attributes
                0x00001896       0x30 c:/devkitpro/devkitarm/bin/../lib/gcc/arm-eabi/4.5.1/../../../../arm-eabi/lib\libg.a(lib_a-memchr.o)
 .ARM.attributes
                0x000018c6       0x30 c:/devkitpro/devkitarm/bin/../lib/gcc/arm-eabi/4.5.1/../../../../arm-eabi/lib\libg.a(lib_a-mprec.o)
 .ARM.attributes
                0x000018f6       0x30 c:/devkitpro/devkitarm/bin/../lib/gcc/arm-eabi/4.5.1/../../../../arm-eabi/lib\libg.a(lib_a-sf_nan.o)
 .ARM.attributes
                0x00001926       0x30 c:/devkitpro/devkitarm/bin/../lib/gcc/arm-eabi/4.5.1/../../../../arm-eabi/lib\libg.a(lib_a-strcasecmp.o)
 .ARM.attributes
                0x00001956       0x30 c:/devkitpro/devkitarm/bin/../lib/gcc/arm-eabi/4.5.1/../../../../arm-eabi/lib\libg.a(lib_a-strcat.o)
 .ARM.attributes
                0x00001986       0x30 c:/devkitpro/devkitarm/bin/../lib/gcc/arm-eabi/4.5.1/../../../../arm-eabi/lib\libg.a(lib_a-strchr.o)
 .ARM.attributes
                0x000019b6       0x30 c:/devkitpro/devkitarm/bin/../lib/gcc/arm-eabi/4.5.1/../../../../arm-eabi/lib\libg.a(lib_a-strcpy.o)
 .ARM.attributes
                0x000019e6       0x30 c:/devkitpro/devkitarm/bin/../lib/gcc/arm-eabi/4.5.1/../../../../arm-eabi/lib\libg.a(lib_a-strlcpy.o)
 .ARM.attributes
                0x00001a16       0x30 c:/devkitpro/devkitarm/bin/../lib/gcc/arm-eabi/4.5.1/../../../../arm-eabi/lib\libg.a(lib_a-strncasecmp.o)
 .ARM.attributes
                0x00001a46       0x30 c:/devkitpro/devkitarm/bin/../lib/gcc/arm-eabi/4.5.1/../../../../arm-eabi/lib\libg.a(lib_a-strncmp.o)
 .ARM.attributes
                0x00001a76       0x30 c:/devkitpro/devkitarm/bin/../lib/gcc/arm-eabi/4.5.1/../../../../arm-eabi/lib\libg.a(lib_a-strncpy.o)
 .ARM.attributes
                0x00001aa6       0x30 c:/devkitpro/devkitarm/bin/../lib/gcc/arm-eabi/4.5.1/../../../../arm-eabi/lib\libg.a(lib_a-strtol.o)
 .ARM.attributes
                0x00001ad6       0x30 c:/devkitpro/devkitarm/bin/../lib/gcc/arm-eabi/4.5.1/../../../../arm-eabi/lib\libg.a(lib_a-svfiprintf.o)
 .ARM.attributes
                0x00001b06       0x30 c:/devkitpro/devkitarm/bin/../lib/gcc/arm-eabi/4.5.1/../../../../arm-eabi/lib\libg.a(lib_a-vfiprintf.o)
 .ARM.attributes
                0x00001b36       0x30 c:/devkitpro/devkitarm/bin/../lib/gcc/arm-eabi/4.5.1/../../../../arm-eabi/lib\libg.a(lib_a-wcsnrtombs.o)
 .ARM.attributes
                0x00001b66       0x30 c:/devkitpro/devkitarm/bin/../lib/gcc/arm-eabi/4.5.1/../../../../arm-eabi/lib\libg.a(lib_a-ctype_.o)
 .ARM.attributes
                0x00001b96       0x30 c:/devkitpro/devkitarm/bin/../lib/gcc/arm-eabi/4.5.1/../../../../arm-eabi/lib\libg.a(lib_a-fputwc.o)
 .ARM.attributes
                0x00001bc6       0x30 c:/devkitpro/devkitarm/bin/../lib/gcc/arm-eabi/4.5.1/../../../../arm-eabi/lib\libg.a(lib_a-fvwrite.o)
 .ARM.attributes
                0x00001bf6       0x30 c:/devkitpro/devkitarm/bin/../lib/gcc/arm-eabi/4.5.1/../../../../arm-eabi/lib\libg.a(lib_a-getenv_r.o)
 .ARM.attributes
                0x00001c26       0x30 c:/devkitpro/devkitarm/bin/../lib/gcc/arm-eabi/4.5.1/../../../../arm-eabi/lib\libg.a(lib_a-wbuf.o)
 .ARM.attributes
                0x00001c56       0x30 c:/devkitpro/devkitarm/bin/../lib/gcc/arm-eabi/4.5.1/../../../../arm-eabi/lib\libg.a(lib_a-environ.o)
 .ARM.attributes
                0x00001c86       0x30 c:/devkitpro/devkitarm/bin/../lib/gcc/arm-eabi/4.5.1/../../../../arm-eabi/lib\libg.a(lib_a-envlock.o)
 .ARM.attributes
                0x00001cb6       0x30 c:/devkitpro/devkitarm/bin/../lib/gcc/arm-eabi/4.5.1/../../../../arm-eabi/lib\libsysbase.a(close.o)
 .ARM.attributes
                0x00001ce6       0x30 c:/devkitpro/devkitarm/bin/../lib/gcc/arm-eabi/4.5.1/../../../../arm-eabi/lib\libsysbase.a(fstat.o)
 .ARM.attributes
                0x00001d16       0x30 c:/devkitpro/devkitarm/bin/../lib/gcc/arm-eabi/4.5.1/../../../../arm-eabi/lib\libsysbase.a(getpid.o)
 .ARM.attributes
                0x00001d46       0x30 c:/devkitpro/devkitarm/bin/../lib/gcc/arm-eabi/4.5.1/../../../../arm-eabi/lib\libsysbase.a(isatty.o)
 .ARM.attributes
                0x00001d76       0x30 c:/devkitpro/devkitarm/bin/../lib/gcc/arm-eabi/4.5.1/../../../../arm-eabi/lib\libsysbase.a(kill.o)
 .ARM.attributes
                0x00001da6       0x30 c:/devkitpro/devkitarm/bin/../lib/gcc/arm-eabi/4.5.1/../../../../arm-eabi/lib\libsysbase.a(lseek.o)
 .ARM.attributes
                0x00001dd6       0x30 c:/devkitpro/devkitarm/bin/../lib/gcc/arm-eabi/4.5.1/../../../../arm-eabi/lib\libsysbase.a(read.o)
 .ARM.attributes
                0x00001e06       0x30 c:/devkitpro/devkitarm/bin/../lib/gcc/arm-eabi/4.5.1/../../../../arm-eabi/lib\libsysbase.a(sbrk.o)
 .ARM.attributes
                0x00001e36       0x30 c:/devkitpro/devkitarm/bin/../lib/gcc/arm-eabi/4.5.1/../../../../arm-eabi/lib\libsysbase.a(times.o)
 .ARM.attributes
                0x00001e66       0x30 c:/devkitpro/devkitarm/bin/../lib/gcc/arm-eabi/4.5.1/../../../../arm-eabi/lib\libsysbase.a(write.o)
 .ARM.attributes
                0x00001e96       0x30 c:/devkitpro/devkitarm/bin/../lib/gcc/arm-eabi/4.5.1/../../../../arm-eabi/lib\libsysbase.a(_exit.o)
 .ARM.attributes
                0x00001ec6       0x30 c:/devkitpro/devkitarm/bin/../lib/gcc/arm-eabi/4.5.1/../../../../arm-eabi/lib\libsysbase.a(malloc_vars.o)
 .ARM.attributes
                0x00001ef6       0x30 c:/devkitpro/devkitarm/bin/../lib/gcc/arm-eabi/4.5.1/../../../../arm-eabi/lib\libsysbase.a(build_argv.o)
 .ARM.attributes
                0x00001f26       0x30 c:/devkitpro/devkitarm/bin/../lib/gcc/arm-eabi/4.5.1/../../../../arm-eabi/lib\libsysbase.a(syscall_support.o)
 .ARM.attributes
                0x00001f56       0x30 c:/devkitpro/devkitarm/bin/../lib/gcc/arm-eabi/4.5.1/../../../../arm-eabi/lib\libsysbase.a(handle_manager.o)
 .ARM.attributes
                0x00001f86       0x30 c:/devkitpro/devkitarm/bin/../lib/gcc/arm-eabi/4.5.1/../../../../arm-eabi/lib\libsysbase.a(iosupport.o)
 .ARM.attributes
                0x00001fb6       0x22 c:/devkitpro/devkitarm/bin/../lib/gcc/arm-eabi/4.5.1\libgcc.a(_aeabi_uldivmod.o)
 .ARM.attributes
                0x00001fd8       0x30 c:/devkitpro/devkitarm/bin/../lib/gcc/arm-eabi/4.5.1\libgcc.a(bpabi.o)
 .ARM.attributes
                0x00002008       0x30 c:/devkitpro/devkitarm/bin/../lib/gcc/arm-eabi/4.5.1\libgcc.a(unwind-arm.o)
 .ARM.attributes
                0x00002038       0x1c c:/devkitpro/devkitarm/bin/../lib/gcc/arm-eabi/4.5.1\libgcc.a(libunwind.o)
 .ARM.attributes
                0x00002054       0x30 c:/devkitpro/devkitarm/bin/../lib/gcc/arm-eabi/4.5.1\libgcc.a(pr-support.o)
 .ARM.attributes
                0x00002084       0x30 c:/devkitpro/devkitarm/bin/../lib/gcc/arm-eabi/4.5.1\libgcc.a(_divdi3.o)
 .ARM.attributes
                0x000020b4       0x30 c:/devkitpro/devkitarm/bin/../lib/gcc/arm-eabi/4.5.1\libgcc.a(_udivdi3.o)
 .ARM.attributes
                0x000020e4       0x22 c:/devkitpro/devkitarm/bin/../lib/gcc/arm-eabi/4.5.1\libgcc.a(_clzsi2.o)
 .ARM.attributes
                0x00002106       0x30 c:/devkitpro/devkitarm/bin/../lib/gcc/arm-eabi/4.5.1/crtend.o
 .ARM.attributes
                0x00002136       0x20 c:/devkitpro/devkitarm/bin/../lib/gcc/arm-eabi/4.5.1/crtn.o

.comment        0x00000000      0x252 load address 0x020485f8
 *(.comment)
 .comment       0x00000000       0x22 c:/devkitpro/devkitarm/bin/../lib/gcc/arm-eabi/4.5.1/crtbegin.o
                                 0x23 (size before relaxing)
 .comment       0x00000000       0x23 main.o
 .comment       0x00000000       0x23 c:/devkitPro/libnds/lib\libul.a(ulib.o)
 .comment       0x00000000       0x23 c:/devkitPro/libnds/lib\libul.a(drawing.o)
 .comment       0x00000000       0x23 c:/devkitPro/libnds/lib\libul.a(text.o)
 .comment       0x00000000       0x23 c:/devkitPro/libnds/lib\libul.a(VirtualFile.o)
 .comment       0x00000000       0x23 c:/devkitPro/libnds/lib\libul.a(texVramManager.o)
 .comment       0x00000000       0x23 c:/devkitPro/libnds/lib\libul.a(texPalManager.o)
 .comment       0x00000000       0x23 c:/devkitPro/libnds/lib\libul.a(keys.o)
 .comment       0x00000000       0x23 c:/devkitPro/libnds/lib\libul.a(ulDrawImage.o)
 .comment       0x00000000       0x23 c:/devkitPro/libnds/lib\libul.a(ulCreateImagePalette.o)
 .comment       0x00000000       0x23 c:/devkitPro/libnds/lib\libul.a(ulDrawGradientRect.o)
 .comment       0x00000000       0x23 c:/devkitPro/libnds/lib\libul.a(ulLoadImageFilePNG.o)
 .comment       0x00000000       0x23 c:/devkitPro/libnds/lib\libul.a(ulShowSplashScreen1.o)
 .comment       0x00000000       0x23 c:/devkitPro/libnds/lib\libul.a(ulShowSplashScreen2.o)
 .comment       0x00000000       0x23 c:/devkitPro/libnds/lib\libul.a(glWrapper.o)
 .comment       0x00000000       0x23 c:/devkitPro/libnds/lib\libul.a(libLoadPng.o)
 .comment       0x00000000       0x23 c:/devkitPro/libnds/lib\libul.a(ulDrawFillRect.o)
 .comment       0x00000000       0x23 c:/devkitPro/libnds/lib\libul.a(ulSetImagePixel.o)
 .comment       0x00000000       0x23 c:/devkitPro/libnds/lib\libul.a(ulGetImagePixel.o)
 .comment       0x00000000       0x23 c:/devkitPro/libnds/lib\libul.a(textSize.o)
 .comment       0x00000000       0x23 c:/devkitPro/libnds/lib\libul.a(loading_utility.o)
 .comment       0x00000000       0x23 c:/devkitPro/libnds/lib\libul.a(ulLoadImageFileJPG.o)
 .comment       0x00000000       0x23 c:/devkitPro/libnds/lib\libul.a(ulLoadImageFileGIF.o)
 .comment       0x00000000       0x23 c:/devkitPro/libnds/lib\libul.a(libLoadJpg.o)
 .comment       0x00000000       0x23 c:/devkitPro/libnds/lib\libul.a(libLoadGif.o)
 .comment       0x00000000       0x23 c:/devkitPro/libnds/lib\libul.a(dgif_lib.o)
 .comment       0x00000000       0x23 c:/devkitPro/libnds/lib\libul.a(gif_err.o)
 .comment       0x00000000       0x23 c:/devkitPro/libnds/lib\libul.a(gifalloc.o)
 .comment       0x00000000       0x23 c:/devkitPro/libnds/lib\libul.a(ulReadEntireFileToMemory.o)
 .comment       0x00000000       0x23 c:/devkitPro/libnds/lib\libul.a(gba-jpeg-decode.o)
 .comment       0x00000022       0x23 c:/devkitPro/libnds/lib\libpng.a(png.o)
 .comment       0x00000045       0x23 c:/devkitPro/libnds/lib\libpng.a(pngread.o)
 .comment       0x00000068       0x23 c:/devkitPro/libnds/lib\libpng.a(pngrio.o)
 .comment       0x0000008b       0x23 c:/devkitPro/libnds/lib\libpng.a(pngrtran.o)
 .comment       0x000000ae       0x23 c:/devkitPro/libnds/lib\libpng.a(pngmem.o)
 .comment       0x000000d1       0x23 c:/devkitPro/libnds/lib\libpng.a(pngerror.o)
 .comment       0x000000f4       0x23 c:/devkitPro/libnds/lib\libpng.a(pngget.o)
 .comment       0x00000117       0x23 c:/devkitPro/libnds/lib\libpng.a(pngrutil.o)
 .comment       0x0000013a       0x23 c:/devkitPro/libnds/lib\libpng.a(pngtrans.o)
 .comment       0x0000015d       0x23 c:/devkitPro/libnds/lib\libpng.a(pngset.o)
 .comment       0x00000180       0x23 c:/devkitPro/libnds/lib\libz.a(crc32.o)
 .comment       0x000001a3       0x23 c:/devkitPro/libnds/lib\libz.a(inflate.o)
 .comment       0x000001c6       0x23 c:/devkitPro/libnds/lib\libz.a(inftrees.o)
 .comment       0x000001e9       0x23 c:/devkitPro/libnds/lib\libz.a(inffast.o)
 .comment       0x0000020c       0x23 c:/devkitPro/libnds/lib\libz.a(adler32.o)
 .comment       0x0000022f       0x23 c:/devkitPro/libnds/lib\libz.a(zutil.o)
 .comment       0x00000000       0x23 c:/devkitPro/libnds/lib\libnds9.a(dynamicArray.o)
 .comment       0x00000000       0x23 c:/devkitPro/libnds/lib\libnds9.a(keys.o)
 .comment       0x00000000       0x23 c:/devkitPro/libnds/lib\libnds9.a(system.o)
 .comment       0x00000000       0x23 c:/devkitPro/libnds/lib\libnds9.a(touch.o)
 .comment       0x00000000       0x23 c:/devkitPro/libnds/lib\libnds9.a(trig.o)
 .comment       0x00000000       0x23 c:/devkitPro/libnds/lib\libnds9.a(videoGL.o)
 .comment       0x00000000       0x23 c:/devkitPro/libnds/lib\libnds9.a(initSystem.o)
 .comment       0x00000000       0x23 c:/devkitPro/libnds/lib\libnds9.a(fifosystem.o)
 .comment       0x00000000       0x23 c:/devkitPro/libnds/lib\libnds9.a(interrupts.o)
 .comment       0x00000000       0x23 c:/devkitPro/libnds/lib\libnds9.a(libnds_exit.o)
 .comment       0x00000000       0x23 c:/devkitPro/libnds/lib\libnds9.a(video.o)
 .comment       0x00000000       0x23 c:/devkitpro/devkitarm/bin/../lib/gcc/arm-eabi/4.5.1/../../../../arm-eabi/lib\libm.a(lib_a-s_cos.o)
 .comment       0x00000000       0x23 c:/devkitpro/devkitarm/bin/../lib/gcc/arm-eabi/4.5.1/../../../../arm-eabi/lib\libm.a(lib_a-s_sin.o)
 .comment       0x00000000       0x23 c:/devkitpro/devkitarm/bin/../lib/gcc/arm-eabi/4.5.1/../../../../arm-eabi/lib\libm.a(lib_a-w_pow.o)
 .comment       0x00000000       0x23 c:/devkitpro/devkitarm/bin/../lib/gcc/arm-eabi/4.5.1/../../../../arm-eabi/lib\libm.a(lib_a-e_pow.o)
 .comment       0x00000000       0x23 c:/devkitpro/devkitarm/bin/../lib/gcc/arm-eabi/4.5.1/../../../../arm-eabi/lib\libm.a(lib_a-e_rem_pio2.o)
 .comment       0x00000000       0x23 c:/devkitpro/devkitarm/bin/../lib/gcc/arm-eabi/4.5.1/../../../../arm-eabi/lib\libm.a(lib_a-e_sqrt.o)
 .comment       0x00000000       0x23 c:/devkitpro/devkitarm/bin/../lib/gcc/arm-eabi/4.5.1/../../../../arm-eabi/lib\libm.a(lib_a-k_cos.o)
 .comment       0x00000000       0x23 c:/devkitpro/devkitarm/bin/../lib/gcc/arm-eabi/4.5.1/../../../../arm-eabi/lib\libm.a(lib_a-k_rem_pio2.o)
 .comment       0x00000000       0x23 c:/devkitpro/devkitarm/bin/../lib/gcc/arm-eabi/4.5.1/../../../../arm-eabi/lib\libm.a(lib_a-k_sin.o)
 .comment       0x00000000       0x23 c:/devkitpro/devkitarm/bin/../lib/gcc/arm-eabi/4.5.1/../../../../arm-eabi/lib\libm.a(lib_a-s_fabs.o)
 .comment       0x00000000       0x23 c:/devkitpro/devkitarm/bin/../lib/gcc/arm-eabi/4.5.1/../../../../arm-eabi/lib\libm.a(lib_a-s_finite.o)
 .comment       0x00000000       0x23 c:/devkitpro/devkitarm/bin/../lib/gcc/arm-eabi/4.5.1/../../../../arm-eabi/lib\libm.a(lib_a-s_floor.o)
 .comment       0x00000000       0x23 c:/devkitpro/devkitarm/bin/../lib/gcc/arm-eabi/4.5.1/../../../../arm-eabi/lib\libm.a(lib_a-s_fpclassify.o)
 .comment       0x00000000       0x23 c:/devkitpro/devkitarm/bin/../lib/gcc/arm-eabi/4.5.1/../../../../arm-eabi/lib\libm.a(lib_a-s_lib_ver.o)
 .comment       0x00000000       0x23 c:/devkitpro/devkitarm/bin/../lib/gcc/arm-eabi/4.5.1/../../../../arm-eabi/lib\libm.a(lib_a-s_matherr.o)
 .comment       0x00000000       0x23 c:/devkitpro/devkitarm/bin/../lib/gcc/arm-eabi/4.5.1/../../../../arm-eabi/lib\libm.a(lib_a-s_nan.o)
 .comment       0x00000000       0x23 c:/devkitpro/devkitarm/bin/../lib/gcc/arm-eabi/4.5.1/../../../../arm-eabi/lib\libm.a(lib_a-s_rint.o)
 .comment       0x00000000       0x23 c:/devkitpro/devkitarm/bin/../lib/gcc/arm-eabi/4.5.1/../../../../arm-eabi/lib\libm.a(lib_a-s_scalbn.o)
 .comment       0x00000000       0x23 c:/devkitpro/devkitarm/bin/../lib/gcc/arm-eabi/4.5.1/../../../../arm-eabi/lib\libm.a(lib_a-s_copysign.o)
 .comment       0x00000000       0x23 c:/devkitpro/devkitarm/bin/../lib/gcc/arm-eabi/4.5.1\libgcc.a(_muldi3.o)
 .comment       0x00000000       0x23 c:/devkitpro/devkitarm/bin/../lib/gcc/arm-eabi/4.5.1/../../../../arm-eabi/lib\libg.a(lib_a-abort.o)
 .comment       0x00000000       0x23 c:/devkitpro/devkitarm/bin/../lib/gcc/arm-eabi/4.5.1/../../../../arm-eabi/lib\libg.a(lib_a-bsearch.o)
 .comment       0x00000000       0x23 c:/devkitpro/devkitarm/bin/../lib/gcc/arm-eabi/4.5.1/../../../../arm-eabi/lib\libg.a(lib_a-calloc.o)
 .comment       0x00000000       0x23 c:/devkitpro/devkitarm/bin/../lib/gcc/arm-eabi/4.5.1/../../../../arm-eabi/lib\libg.a(lib_a-callocr.o)
 .comment       0x00000000       0x23 c:/devkitpro/devkitarm/bin/../lib/gcc/arm-eabi/4.5.1/../../../../arm-eabi/lib\libg.a(lib_a-errno.o)
 .comment       0x00000000       0x23 c:/devkitpro/devkitarm/bin/../lib/gcc/arm-eabi/4.5.1/../../../../arm-eabi/lib\libg.a(lib_a-fclose.o)
 .comment       0x00000000       0x23 c:/devkitpro/devkitarm/bin/../lib/gcc/arm-eabi/4.5.1/../../../../arm-eabi/lib\libg.a(lib_a-fflush.o)
 .comment       0x00000000       0x23 c:/devkitpro/devkitarm/bin/../lib/gcc/arm-eabi/4.5.1/../../../../arm-eabi/lib\libg.a(lib_a-findfp.o)
 .comment       0x00000000       0x23 c:/devkitpro/devkitarm/bin/../lib/gcc/arm-eabi/4.5.1/../../../../arm-eabi/lib\libg.a(lib_a-fprintf.o)
 .comment       0x00000000       0x23 c:/devkitpro/devkitarm/bin/../lib/gcc/arm-eabi/4.5.1/../../../../arm-eabi/lib\libg.a(lib_a-fread.o)
 .comment       0x00000000       0x23 c:/devkitpro/devkitarm/bin/../lib/gcc/arm-eabi/4.5.1/../../../../arm-eabi/lib\libg.a(lib_a-freer.o)
 .comment       0x00000000       0x23 c:/devkitpro/devkitarm/bin/../lib/gcc/arm-eabi/4.5.1/../../../../arm-eabi/lib\libg.a(lib_a-fwalk.o)
 .comment       0x00000000       0x23 c:/devkitpro/devkitarm/bin/../lib/gcc/arm-eabi/4.5.1/../../../../arm-eabi/lib\libg.a(lib_a-impure.o)
 .comment       0x00000000       0x23 c:/devkitpro/devkitarm/bin/../lib/gcc/arm-eabi/4.5.1/../../../../arm-eabi/lib\libg.a(lib_a-init.o)
 .comment       0x00000000       0x23 c:/devkitpro/devkitarm/bin/../lib/gcc/arm-eabi/4.5.1/../../../../arm-eabi/lib\libg.a(lib_a-malloc.o)
 .comment       0x00000000       0x23 c:/devkitpro/devkitarm/bin/../lib/gcc/arm-eabi/4.5.1/../../../../arm-eabi/lib\libg.a(lib_a-mallocr.o)
 .comment       0x00000000       0x23 c:/devkitpro/devkitarm/bin/../lib/gcc/arm-eabi/4.5.1/../../../../arm-eabi/lib\libg.a(lib_a-memcmp.o)
 .comment       0x00000000       0x23 c:/devkitpro/devkitarm/bin/../lib/gcc/arm-eabi/4.5.1/../../../../arm-eabi/lib\libg.a(lib_a-memcpy.o)
 .comment       0x00000000       0x23 c:/devkitpro/devkitarm/bin/../lib/gcc/arm-eabi/4.5.1/../../../../arm-eabi/lib\libg.a(lib_a-memmove.o)
 .comment       0x00000000       0x23 c:/devkitpro/devkitarm/bin/../lib/gcc/arm-eabi/4.5.1/../../../../arm-eabi/lib\libg.a(lib_a-memset.o)
 .comment       0x00000000       0x23 c:/devkitpro/devkitarm/bin/../lib/gcc/arm-eabi/4.5.1/../../../../arm-eabi/lib\libg.a(lib_a-mlock.o)
 .comment       0x00000000       0x23 c:/devkitpro/devkitarm/bin/../lib/gcc/arm-eabi/4.5.1/../../../../arm-eabi/lib\libg.a(lib_a-rand.o)
 .comment       0x00000000       0x23 c:/devkitpro/devkitarm/bin/../lib/gcc/arm-eabi/4.5.1/../../../../arm-eabi/lib\libg.a(lib_a-realloc.o)
 .comment       0x00000000       0x23 c:/devkitpro/devkitarm/bin/../lib/gcc/arm-eabi/4.5.1/../../../../arm-eabi/lib\libg.a(lib_a-reallocr.o)
 .comment       0x00000000       0x23 c:/devkitpro/devkitarm/bin/../lib/gcc/arm-eabi/4.5.1/../../../../arm-eabi/lib\libg.a(lib_a-refill.o)
 .comment       0x00000000       0x23 c:/devkitpro/devkitarm/bin/../lib/gcc/arm-eabi/4.5.1/../../../../arm-eabi/lib\libg.a(lib_a-signal.o)
 .comment       0x00000000       0x23 c:/devkitpro/devkitarm/bin/../lib/gcc/arm-eabi/4.5.1/../../../../arm-eabi/lib\libg.a(lib_a-snprintf.o)
 .comment       0x00000000       0x23 c:/devkitpro/devkitarm/bin/../lib/gcc/arm-eabi/4.5.1/../../../../arm-eabi/lib\libg.a(lib_a-stdio.o)
 .comment       0x00000000       0x23 c:/devkitpro/devkitarm/bin/../lib/gcc/arm-eabi/4.5.1/../../../../arm-eabi/lib\libg.a(lib_a-strcmp.o)
 .comment       0x00000000       0x23 c:/devkitpro/devkitarm/bin/../lib/gcc/arm-eabi/4.5.1/../../../../arm-eabi/lib\libg.a(lib_a-strlen.o)
 .comment       0x00000000       0x23 c:/devkitpro/devkitarm/bin/../lib/gcc/arm-eabi/4.5.1/../../../../arm-eabi/lib\libg.a(lib_a-strtod.o)
 .comment       0x00000000       0x23 c:/devkitpro/devkitarm/bin/../lib/gcc/arm-eabi/4.5.1/../../../../arm-eabi/lib\libg.a(lib_a-svfprintf.o)
 .comment       0x00000000       0x23 c:/devkitpro/devkitarm/bin/../lib/gcc/arm-eabi/4.5.1/../../../../arm-eabi/lib\libg.a(lib_a-vfprintf.o)
 .comment       0x00000000       0x23 c:/devkitpro/devkitarm/bin/../lib/gcc/arm-eabi/4.5.1/../../../../arm-eabi/lib\libg.a(lib_a-wcrtomb.o)
 .comment       0x00000000       0x23 c:/devkitpro/devkitarm/bin/../lib/gcc/arm-eabi/4.5.1/../../../../arm-eabi/lib\libg.a(lib_a-wcsrtombs.o)
 .comment       0x00000000       0x23 c:/devkitpro/devkitarm/bin/../lib/gcc/arm-eabi/4.5.1/../../../../arm-eabi/lib\libg.a(lib_a-wctomb_r.o)
 .comment       0x00000000       0x23 c:/devkitpro/devkitarm/bin/../lib/gcc/arm-eabi/4.5.1/../../../../arm-eabi/lib\libg.a(lib_a-wsetup.o)
 .comment       0x00000000       0x23 c:/devkitpro/devkitarm/bin/../lib/gcc/arm-eabi/4.5.1/../../../../arm-eabi/lib\libg.a(lib_a-dtoa.o)
 .comment       0x00000000       0x23 c:/devkitpro/devkitarm/bin/../lib/gcc/arm-eabi/4.5.1/../../../../arm-eabi/lib\libg.a(lib_a-gdtoa-gethex.o)
 .comment       0x00000000       0x23 c:/devkitpro/devkitarm/bin/../lib/gcc/arm-eabi/4.5.1/../../../../arm-eabi/lib\libg.a(lib_a-gdtoa-hexnan.o)
 .comment       0x00000000       0x23 c:/devkitpro/devkitarm/bin/../lib/gcc/arm-eabi/4.5.1/../../../../arm-eabi/lib\libg.a(lib_a-locale.o)
 .comment       0x00000000       0x23 c:/devkitpro/devkitarm/bin/../lib/gcc/arm-eabi/4.5.1/../../../../arm-eabi/lib\libg.a(lib_a-makebuf.o)
 .comment       0x00000000       0x23 c:/devkitpro/devkitarm/bin/../lib/gcc/arm-eabi/4.5.1/../../../../arm-eabi/lib\libg.a(lib_a-mbtowc_r.o)
 .comment       0x00000000       0x23 c:/devkitpro/devkitarm/bin/../lib/gcc/arm-eabi/4.5.1/../../../../arm-eabi/lib\libg.a(lib_a-memchr.o)
 .comment       0x00000000       0x23 c:/devkitpro/devkitarm/bin/../lib/gcc/arm-eabi/4.5.1/../../../../arm-eabi/lib\libg.a(lib_a-mprec.o)
 .comment       0x00000000       0x23 c:/devkitpro/devkitarm/bin/../lib/gcc/arm-eabi/4.5.1/../../../../arm-eabi/lib\libg.a(lib_a-sf_nan.o)
 .comment       0x00000000       0x23 c:/devkitpro/devkitarm/bin/../lib/gcc/arm-eabi/4.5.1/../../../../arm-eabi/lib\libg.a(lib_a-strcasecmp.o)
 .comment       0x00000000       0x23 c:/devkitpro/devkitarm/bin/../lib/gcc/arm-eabi/4.5.1/../../../../arm-eabi/lib\libg.a(lib_a-strcat.o)
 .comment       0x00000000       0x23 c:/devkitpro/devkitarm/bin/../lib/gcc/arm-eabi/4.5.1/../../../../arm-eabi/lib\libg.a(lib_a-strchr.o)
 .comment       0x00000000       0x23 c:/devkitpro/devkitarm/bin/../lib/gcc/arm-eabi/4.5.1/../../../../arm-eabi/lib\libg.a(lib_a-strcpy.o)
 .comment       0x00000000       0x23 c:/devkitpro/devkitarm/bin/../lib/gcc/arm-eabi/4.5.1/../../../../arm-eabi/lib\libg.a(lib_a-strlcpy.o)
 .comment       0x00000000       0x23 c:/devkitpro/devkitarm/bin/../lib/gcc/arm-eabi/4.5.1/../../../../arm-eabi/lib\libg.a(lib_a-strncasecmp.o)
 .comment       0x00000000       0x23 c:/devkitpro/devkitarm/bin/../lib/gcc/arm-eabi/4.5.1/../../../../arm-eabi/lib\libg.a(lib_a-strncmp.o)
 .comment       0x00000000       0x23 c:/devkitpro/devkitarm/bin/../lib/gcc/arm-eabi/4.5.1/../../../../arm-eabi/lib\libg.a(lib_a-strncpy.o)
 .comment       0x00000000       0x23 c:/devkitpro/devkitarm/bin/../lib/gcc/arm-eabi/4.5.1/../../../../arm-eabi/lib\libg.a(lib_a-strtol.o)
 .comment       0x00000000       0x23 c:/devkitpro/devkitarm/bin/../lib/gcc/arm-eabi/4.5.1/../../../../arm-eabi/lib\libg.a(lib_a-svfiprintf.o)
 .comment       0x00000000       0x23 c:/devkitpro/devkitarm/bin/../lib/gcc/arm-eabi/4.5.1/../../../../arm-eabi/lib\libg.a(lib_a-vfiprintf.o)
 .comment       0x00000000       0x23 c:/devkitpro/devkitarm/bin/../lib/gcc/arm-eabi/4.5.1/../../../../arm-eabi/lib\libg.a(lib_a-wcsnrtombs.o)
 .comment       0x00000000       0x23 c:/devkitpro/devkitarm/bin/../lib/gcc/arm-eabi/4.5.1/../../../../arm-eabi/lib\libg.a(lib_a-ctype_.o)
 .comment       0x00000000       0x23 c:/devkitpro/devkitarm/bin/../lib/gcc/arm-eabi/4.5.1/../../../../arm-eabi/lib\libg.a(lib_a-fputwc.o)
 .comment       0x00000000       0x23 c:/devkitpro/devkitarm/bin/../lib/gcc/arm-eabi/4.5.1/../../../../arm-eabi/lib\libg.a(lib_a-fvwrite.o)
 .comment       0x00000000       0x23 c:/devkitpro/devkitarm/bin/../lib/gcc/arm-eabi/4.5.1/../../../../arm-eabi/lib\libg.a(lib_a-getenv_r.o)
 .comment       0x00000000       0x23 c:/devkitpro/devkitarm/bin/../lib/gcc/arm-eabi/4.5.1/../../../../arm-eabi/lib\libg.a(lib_a-wbuf.o)
 .comment       0x00000000       0x23 c:/devkitpro/devkitarm/bin/../lib/gcc/arm-eabi/4.5.1/../../../../arm-eabi/lib\libg.a(lib_a-environ.o)
 .comment       0x00000000       0x23 c:/devkitpro/devkitarm/bin/../lib/gcc/arm-eabi/4.5.1/../../../../arm-eabi/lib\libg.a(lib_a-envlock.o)
 .comment       0x00000000       0x23 c:/devkitpro/devkitarm/bin/../lib/gcc/arm-eabi/4.5.1/../../../../arm-eabi/lib\libsysbase.a(close.o)
 .comment       0x00000000       0x23 c:/devkitpro/devkitarm/bin/../lib/gcc/arm-eabi/4.5.1/../../../../arm-eabi/lib\libsysbase.a(fstat.o)
 .comment       0x00000000       0x23 c:/devkitpro/devkitarm/bin/../lib/gcc/arm-eabi/4.5.1/../../../../arm-eabi/lib\libsysbase.a(getpid.o)
 .comment       0x00000000       0x23 c:/devkitpro/devkitarm/bin/../lib/gcc/arm-eabi/4.5.1/../../../../arm-eabi/lib\libsysbase.a(isatty.o)
 .comment       0x00000000       0x23 c:/devkitpro/devkitarm/bin/../lib/gcc/arm-eabi/4.5.1/../../../../arm-eabi/lib\libsysbase.a(kill.o)
 .comment       0x00000000       0x23 c:/devkitpro/devkitarm/bin/../lib/gcc/arm-eabi/4.5.1/../../../../arm-eabi/lib\libsysbase.a(lseek.o)
 .comment       0x00000000       0x23 c:/devkitpro/devkitarm/bin/../lib/gcc/arm-eabi/4.5.1/../../../../arm-eabi/lib\libsysbase.a(read.o)
 .comment       0x00000000       0x23 c:/devkitpro/devkitarm/bin/../lib/gcc/arm-eabi/4.5.1/../../../../arm-eabi/lib\libsysbase.a(sbrk.o)
 .comment       0x00000000       0x23 c:/devkitpro/devkitarm/bin/../lib/gcc/arm-eabi/4.5.1/../../../../arm-eabi/lib\libsysbase.a(times.o)
 .comment       0x00000000       0x23 c:/devkitpro/devkitarm/bin/../lib/gcc/arm-eabi/4.5.1/../../../../arm-eabi/lib\libsysbase.a(write.o)
 .comment       0x00000000       0x23 c:/devkitpro/devkitarm/bin/../lib/gcc/arm-eabi/4.5.1/../../../../arm-eabi/lib\libsysbase.a(_exit.o)
 .comment       0x00000000       0x23 c:/devkitpro/devkitarm/bin/../lib/gcc/arm-eabi/4.5.1/../../../../arm-eabi/lib\libsysbase.a(malloc_vars.o)
 .comment       0x00000000       0x23 c:/devkitpro/devkitarm/bin/../lib/gcc/arm-eabi/4.5.1/../../../../arm-eabi/lib\libsysbase.a(build_argv.o)
 .comment       0x00000000       0x23 c:/devkitpro/devkitarm/bin/../lib/gcc/arm-eabi/4.5.1/../../../../arm-eabi/lib\libsysbase.a(syscall_support.o)
 .comment       0x00000000       0x23 c:/devkitpro/devkitarm/bin/../lib/gcc/arm-eabi/4.5.1/../../../../arm-eabi/lib\libsysbase.a(handle_manager.o)
 .comment       0x00000000       0x23 c:/devkitpro/devkitarm/bin/../lib/gcc/arm-eabi/4.5.1/../../../../arm-eabi/lib\libsysbase.a(iosupport.o)
 .comment       0x00000000       0x23 c:/devkitpro/devkitarm/bin/../lib/gcc/arm-eabi/4.5.1\libgcc.a(bpabi.o)
 .comment       0x00000000       0x23 c:/devkitpro/devkitarm/bin/../lib/gcc/arm-eabi/4.5.1\libgcc.a(unwind-arm.o)
 .comment       0x00000000       0x23 c:/devkitpro/devkitarm/bin/../lib/gcc/arm-eabi/4.5.1\libgcc.a(pr-support.o)
 .comment       0x00000000       0x23 c:/devkitpro/devkitarm/bin/../lib/gcc/arm-eabi/4.5.1\libgcc.a(_divdi3.o)
 .comment       0x00000000       0x23 c:/devkitpro/devkitarm/bin/../lib/gcc/arm-eabi/4.5.1\libgcc.a(_udivdi3.o)
 .comment       0x00000000       0x23 c:/devkitpro/devkitarm/bin/../lib/gcc/arm-eabi/4.5.1/crtend.o

.debug
 *(.debug)

.line
 *(.line)

.debug_srcinfo
 *(.debug_srcinfo)

.debug_sfnames
 *(.debug_sfnames)

.debug_aranges  0x00000000      0x580 load address 0x020485f8
 *(.debug_aranges)
 .debug_aranges
                0x00000000       0x20 main.o
 .debug_aranges
                0x00000020       0x20 c:/devkitPro/libnds/lib\libul.a(ulib.o)
 .debug_aranges
                0x00000040       0x20 c:/devkitPro/libnds/lib\libul.a(drawing.o)
 .debug_aranges
                0x00000060       0x20 c:/devkitPro/libnds/lib\libul.a(text.o)
 .debug_aranges
                0x00000080       0x20 c:/devkitPro/libnds/lib\libul.a(VirtualFile.o)
 .debug_aranges
                0x000000a0       0x20 c:/devkitPro/libnds/lib\libul.a(texVramManager.o)
 .debug_aranges
                0x000000c0       0x20 c:/devkitPro/libnds/lib\libul.a(texPalManager.o)
 .debug_aranges
                0x000000e0       0x20 c:/devkitPro/libnds/lib\libul.a(keys.o)
 .debug_aranges
                0x00000100       0x20 c:/devkitPro/libnds/lib\libul.a(ulDrawImage.o)
 .debug_aranges
                0x00000120       0x20 c:/devkitPro/libnds/lib\libul.a(ulCreateImagePalette.o)
 .debug_aranges
                0x00000140       0x20 c:/devkitPro/libnds/lib\libul.a(ulDrawGradientRect.o)
 .debug_aranges
                0x00000160       0x20 c:/devkitPro/libnds/lib\libul.a(ulLoadImageFilePNG.o)
 .debug_aranges
                0x00000180       0x20 c:/devkitPro/libnds/lib\libul.a(ulShowSplashScreen1.o)
 .debug_aranges
                0x000001a0       0x20 c:/devkitPro/libnds/lib\libul.a(ulShowSplashScreen2.o)
 .debug_aranges
                0x000001c0       0x20 c:/devkitPro/libnds/lib\libul.a(glWrapper.o)
 .debug_aranges
                0x000001e0       0x20 c:/devkitPro/libnds/lib\libul.a(libLoadPng.o)
 .debug_aranges
                0x00000200       0x20 c:/devkitPro/libnds/lib\libul.a(ulDrawFillRect.o)
 .debug_aranges
                0x00000220       0x20 c:/devkitPro/libnds/lib\libul.a(ulSetImagePixel.o)
 .debug_aranges
                0x00000240       0x20 c:/devkitPro/libnds/lib\libul.a(ulGetImagePixel.o)
 .debug_aranges
                0x00000260       0x20 c:/devkitPro/libnds/lib\libul.a(textSize.o)
 .debug_aranges
                0x00000280       0x20 c:/devkitPro/libnds/lib\libul.a(ulLoadImageFileJPG.o)
 .debug_aranges
                0x000002a0       0x20 c:/devkitPro/libnds/lib\libul.a(ulLoadImageFileGIF.o)
 .debug_aranges
                0x000002c0       0x20 c:/devkitPro/libnds/lib\libul.a(libLoadJpg.o)
 .debug_aranges
                0x000002e0       0x20 c:/devkitPro/libnds/lib\libul.a(libLoadGif.o)
 .debug_aranges
                0x00000300       0x20 c:/devkitPro/libnds/lib\libul.a(dgif_lib.o)
 .debug_aranges
                0x00000320       0x20 c:/devkitPro/libnds/lib\libul.a(gif_err.o)
 .debug_aranges
                0x00000340       0x20 c:/devkitPro/libnds/lib\libul.a(gifalloc.o)
 .debug_aranges
                0x00000360       0x20 c:/devkitPro/libnds/lib\libul.a(ulReadEntireFileToMemory.o)
 .debug_aranges
                0x00000380       0x20 c:/devkitPro/libnds/lib\libul.a(gba-jpeg-decode.o)
 .debug_aranges
                0x000003a0       0x20 c:/devkitPro/libnds/lib\libnds9.a(dynamicArray.o)
 .debug_aranges
                0x000003c0       0x20 c:/devkitPro/libnds/lib\libnds9.a(keys.o)
 .debug_aranges
                0x000003e0       0x20 c:/devkitPro/libnds/lib\libnds9.a(system.o)
 .debug_aranges
                0x00000400       0x20 c:/devkitPro/libnds/lib\libnds9.a(touch.o)
 .debug_aranges
                0x00000420       0x20 c:/devkitPro/libnds/lib\libnds9.a(trig.o)
 .debug_aranges
                0x00000440       0x20 c:/devkitPro/libnds/lib\libnds9.a(videoGL.o)
 .debug_aranges
                0x00000460       0x20 c:/devkitPro/libnds/lib\libnds9.a(initSystem.o)
 .debug_aranges
                0x00000480       0x20 c:/devkitPro/libnds/lib\libnds9.a(fifosystem.o)
 .debug_aranges
                0x000004a0       0x20 c:/devkitPro/libnds/lib\libnds9.a(interrupts.o)
 .debug_aranges
                0x000004c0       0x20 c:/devkitPro/libnds/lib\libnds9.a(libnds_exit.o)
 .debug_aranges
                0x000004e0       0x20 c:/devkitPro/libnds/lib\libnds9.a(mpu_setup.o)
 .debug_aranges
                0x00000500       0x20 c:/devkitPro/libnds/lib\libnds9.a(biosCalls.o)
 .debug_aranges
                0x00000520       0x20 c:/devkitPro/libnds/lib\libnds9.a(interruptDispatcher.o)
 .debug_aranges
                0x00000540       0x20 c:/devkitPro/libnds/lib\libnds9.a(swiSoftReset.o)
 .debug_aranges
                0x00000560       0x20 c:/devkitPro/libnds/lib\libnds9.a(video.o)

.debug_pubnames
                0x00000000     0x1c81 load address 0x020485f8
 *(.debug_pubnames)
 .debug_pubnames
                0x00000000       0x1b main.o
 .debug_pubnames
                0x0000001b       0x84 c:/devkitPro/libnds/lib\libul.a(ulib.o)
 .debug_pubnames
                0x0000009f      0x33e c:/devkitPro/libnds/lib\libul.a(drawing.o)
 .debug_pubnames
                0x000003dd      0x119 c:/devkitPro/libnds/lib\libul.a(text.o)
 .debug_pubnames
                0x000004f6      0x1c5 c:/devkitPro/libnds/lib\libul.a(VirtualFile.o)
 .debug_pubnames
                0x000006bb      0x259 c:/devkitPro/libnds/lib\libul.a(texVramManager.o)
 .debug_pubnames
                0x00000914      0x176 c:/devkitPro/libnds/lib\libul.a(texPalManager.o)
 .debug_pubnames
                0x00000a8a       0x2d c:/devkitPro/libnds/lib\libul.a(keys.o)
 .debug_pubnames
                0x00000ab7       0x22 c:/devkitPro/libnds/lib\libul.a(ulDrawImage.o)
 .debug_pubnames
                0x00000ad9       0x2b c:/devkitPro/libnds/lib\libul.a(ulCreateImagePalette.o)
 .debug_pubnames
                0x00000b04       0x29 c:/devkitPro/libnds/lib\libul.a(ulDrawGradientRect.o)
 .debug_pubnames
                0x00000b2d       0x29 c:/devkitPro/libnds/lib\libul.a(ulLoadImageFilePNG.o)
 .debug_pubnames
                0x00000b56      0x1cb c:/devkitPro/libnds/lib\libul.a(ulShowSplashScreen1.o)
 .debug_pubnames
                0x00000d21       0x97 c:/devkitPro/libnds/lib\libul.a(ulShowSplashScreen2.o)
 .debug_pubnames
                0x00000db8       0x2d c:/devkitPro/libnds/lib\libul.a(glWrapper.o)
 .debug_pubnames
                0x00000de5       0x25 c:/devkitPro/libnds/lib\libul.a(libLoadPng.o)
 .debug_pubnames
                0x00000e0a       0x25 c:/devkitPro/libnds/lib\libul.a(ulDrawFillRect.o)
 .debug_pubnames
                0x00000e2f       0x26 c:/devkitPro/libnds/lib\libul.a(ulSetImagePixel.o)
 .debug_pubnames
                0x00000e55       0x26 c:/devkitPro/libnds/lib\libul.a(ulGetImagePixel.o)
 .debug_pubnames
                0x00000e7b       0x3e c:/devkitPro/libnds/lib\libul.a(textSize.o)
 .debug_pubnames
                0x00000eb9       0x2e c:/devkitPro/libnds/lib\libul.a(loading_utility.o)
 .debug_pubnames
                0x00000ee7       0x29 c:/devkitPro/libnds/lib\libul.a(ulLoadImageFileJPG.o)
 .debug_pubnames
                0x00000f10       0x29 c:/devkitPro/libnds/lib\libul.a(ulLoadImageFileGIF.o)
 .debug_pubnames
                0x00000f39       0x25 c:/devkitPro/libnds/lib\libul.a(libLoadJpg.o)
 .debug_pubnames
                0x00000f5e       0x9f c:/devkitPro/libnds/lib\libul.a(libLoadGif.o)
 .debug_pubnames
                0x00000ffd       0xf8 c:/devkitPro/libnds/lib\libul.a(dgif_lib.o)
 .debug_pubnames
                0x000010f5       0x31 c:/devkitPro/libnds/lib\libul.a(gif_err.o)
 .debug_pubnames
                0x00001126       0xe1 c:/devkitPro/libnds/lib\libul.a(gifalloc.o)
 .debug_pubnames
                0x00001207       0x2f c:/devkitPro/libnds/lib\libul.a(ulReadEntireFileToMemory.o)
 .debug_pubnames
                0x00001236      0x14b c:/devkitPro/libnds/lib\libul.a(gba-jpeg-decode.o)
 .debug_pubnames
                0x00001381       0x66 c:/devkitPro/libnds/lib\libnds9.a(dynamicArray.o)
 .debug_pubnames
                0x000013e7       0x79 c:/devkitPro/libnds/lib\libnds9.a(keys.o)
 .debug_pubnames
                0x00001460       0x87 c:/devkitPro/libnds/lib\libnds9.a(system.o)
 .debug_pubnames
                0x000014e7       0x30 c:/devkitPro/libnds/lib\libnds9.a(touch.o)
 .debug_pubnames
                0x00001517       0xa4 c:/devkitPro/libnds/lib\libnds9.a(trig.o)
 .debug_pubnames
                0x000015bb      0x2c2 c:/devkitPro/libnds/lib\libnds9.a(videoGL.o)
 .debug_pubnames
                0x0000187d       0x2f c:/devkitPro/libnds/lib\libnds9.a(initSystem.o)
 .debug_pubnames
                0x000018ac      0x259 c:/devkitPro/libnds/lib\libnds9.a(fifosystem.o)
 .debug_pubnames
                0x00001b05       0x80 c:/devkitPro/libnds/lib\libnds9.a(interrupts.o)
 .debug_pubnames
                0x00001b85       0x38 c:/devkitPro/libnds/lib\libnds9.a(libnds_exit.o)
 .debug_pubnames
                0x00001bbd       0xc4 c:/devkitPro/libnds/lib\libnds9.a(video.o)

.debug_info     0x00000000    0x1ed29 load address 0x020485f8
 *(.debug_info)
 .debug_info    0x00000000      0xc56 main.o
 .debug_info    0x00000c56      0x908 c:/devkitPro/libnds/lib\libul.a(ulib.o)
 .debug_info    0x0000155e     0x2312 c:/devkitPro/libnds/lib\libul.a(drawing.o)
 .debug_info    0x00003870     0x1342 c:/devkitPro/libnds/lib\libul.a(text.o)
 .debug_info    0x00004bb2      0xeef c:/devkitPro/libnds/lib\libul.a(VirtualFile.o)
 .debug_info    0x00005aa1      0xebb c:/devkitPro/libnds/lib\libul.a(texVramManager.o)
 .debug_info    0x0000695c      0xb0e c:/devkitPro/libnds/lib\libul.a(texPalManager.o)
 .debug_info    0x0000746a      0xa76 c:/devkitPro/libnds/lib\libul.a(keys.o)
 .debug_info    0x00007ee0      0x9da c:/devkitPro/libnds/lib\libul.a(ulDrawImage.o)
 .debug_info    0x000088ba      0x8d1 c:/devkitPro/libnds/lib\libul.a(ulCreateImagePalette.o)
 .debug_info    0x0000918b      0x761 c:/devkitPro/libnds/lib\libul.a(ulDrawGradientRect.o)
 .debug_info    0x000098ec      0x8eb c:/devkitPro/libnds/lib\libul.a(ulLoadImageFilePNG.o)
 .debug_info    0x0000a1d7     0x16af c:/devkitPro/libnds/lib\libul.a(ulShowSplashScreen1.o)
 .debug_info    0x0000b886      0xe89 c:/devkitPro/libnds/lib\libul.a(ulShowSplashScreen2.o)
 .debug_info    0x0000c70f      0x795 c:/devkitPro/libnds/lib\libul.a(glWrapper.o)
 .debug_info    0x0000cea4     0x240b c:/devkitPro/libnds/lib\libul.a(libLoadPng.o)
 .debug_info    0x0000f2af      0x737 c:/devkitPro/libnds/lib\libul.a(ulDrawFillRect.o)
 .debug_info    0x0000f9e6      0x8c7 c:/devkitPro/libnds/lib\libul.a(ulSetImagePixel.o)
 .debug_info    0x000102ad      0x8bc c:/devkitPro/libnds/lib\libul.a(ulGetImagePixel.o)
 .debug_info    0x00010b69      0x9ac c:/devkitPro/libnds/lib\libul.a(textSize.o)
 .debug_info    0x00011515       0x3f c:/devkitPro/libnds/lib\libul.a(loading_utility.o)
 .debug_info    0x00011554      0x8eb c:/devkitPro/libnds/lib\libul.a(ulLoadImageFileJPG.o)
 .debug_info    0x00011e3f      0x8eb c:/devkitPro/libnds/lib\libul.a(ulLoadImageFileGIF.o)
 .debug_info    0x0001272a      0xc62 c:/devkitPro/libnds/lib\libul.a(libLoadJpg.o)
 .debug_info    0x0001338c     0x12ff c:/devkitPro/libnds/lib\libul.a(libLoadGif.o)
 .debug_info    0x0001468b     0x1634 c:/devkitPro/libnds/lib\libul.a(dgif_lib.o)
 .debug_info    0x00015cbf       0xbe c:/devkitPro/libnds/lib\libul.a(gif_err.o)
 .debug_info    0x00015d7d      0x65c c:/devkitPro/libnds/lib\libul.a(gifalloc.o)
 .debug_info    0x000163d9      0x917 c:/devkitPro/libnds/lib\libul.a(ulReadEntireFileToMemory.o)
 .debug_info    0x00016cf0     0x1e32 c:/devkitPro/libnds/lib\libul.a(gba-jpeg-decode.o)
 .debug_info    0x00018b22      0x1e7 c:/devkitPro/libnds/lib\libnds9.a(dynamicArray.o)
 .debug_info    0x00018d09      0x3d0 c:/devkitPro/libnds/lib\libnds9.a(keys.o)
 .debug_info    0x000190d9      0x6f4 c:/devkitPro/libnds/lib\libnds9.a(system.o)
 .debug_info    0x000197cd      0x2c2 c:/devkitPro/libnds/lib\libnds9.a(touch.o)
 .debug_info    0x00019a8f      0x4b6 c:/devkitPro/libnds/lib\libnds9.a(trig.o)
 .debug_info    0x00019f45     0x1dc7 c:/devkitPro/libnds/lib\libnds9.a(videoGL.o)
 .debug_info    0x0001bd0c      0xed0 c:/devkitPro/libnds/lib\libnds9.a(initSystem.o)
 .debug_info    0x0001cbdc     0x10ca c:/devkitPro/libnds/lib\libnds9.a(fifosystem.o)
 .debug_info    0x0001dca6      0x466 c:/devkitPro/libnds/lib\libnds9.a(interrupts.o)
 .debug_info    0x0001e10c      0x2a6 c:/devkitPro/libnds/lib\libnds9.a(libnds_exit.o)
 .debug_info    0x0001e3b2       0xca c:/devkitPro/libnds/lib\libnds9.a(mpu_setup.o)
 .debug_info    0x0001e47c       0xc5 c:/devkitPro/libnds/lib\libnds9.a(biosCalls.o)
 .debug_info    0x0001e541       0xcf c:/devkitPro/libnds/lib\libnds9.a(interruptDispatcher.o)
 .debug_info    0x0001e610       0xc8 c:/devkitPro/libnds/lib\libnds9.a(swiSoftReset.o)
 .debug_info    0x0001e6d8      0x651 c:/devkitPro/libnds/lib\libnds9.a(video.o)

.debug_abbrev   0x00000000     0x51fa load address 0x020485f8
 *(.debug_abbrev)
 .debug_abbrev  0x00000000      0x21b main.o
 .debug_abbrev  0x0000021b      0x1a9 c:/devkitPro/libnds/lib\libul.a(ulib.o)
 .debug_abbrev  0x000003c4      0x4ca c:/devkitPro/libnds/lib\libul.a(drawing.o)
 .debug_abbrev  0x0000088e      0x279 c:/devkitPro/libnds/lib\libul.a(text.o)
 .debug_abbrev  0x00000b07      0x29d c:/devkitPro/libnds/lib\libul.a(VirtualFile.o)
 .debug_abbrev  0x00000da4      0x30f c:/devkitPro/libnds/lib\libul.a(texVramManager.o)
 .debug_abbrev  0x000010b3      0x245 c:/devkitPro/libnds/lib\libul.a(texPalManager.o)
 .debug_abbrev  0x000012f8      0x1cf c:/devkitPro/libnds/lib\libul.a(keys.o)
 .debug_abbrev  0x000014c7      0x1d7 c:/devkitPro/libnds/lib\libul.a(ulDrawImage.o)
 .debug_abbrev  0x0000169e      0x16c c:/devkitPro/libnds/lib\libul.a(ulCreateImagePalette.o)
 .debug_abbrev  0x0000180a      0x13f c:/devkitPro/libnds/lib\libul.a(ulDrawGradientRect.o)
 .debug_abbrev  0x00001949      0x164 c:/devkitPro/libnds/lib\libul.a(ulLoadImageFilePNG.o)
 .debug_abbrev  0x00001aad      0x3b5 c:/devkitPro/libnds/lib\libul.a(ulShowSplashScreen1.o)
 .debug_abbrev  0x00001e62      0x2a9 c:/devkitPro/libnds/lib\libul.a(ulShowSplashScreen2.o)
 .debug_abbrev  0x0000210b      0x171 c:/devkitPro/libnds/lib\libul.a(glWrapper.o)
 .debug_abbrev  0x0000227c      0x289 c:/devkitPro/libnds/lib\libul.a(libLoadPng.o)
 .debug_abbrev  0x00002505      0x13f c:/devkitPro/libnds/lib\libul.a(ulDrawFillRect.o)
 .debug_abbrev  0x00002644      0x176 c:/devkitPro/libnds/lib\libul.a(ulSetImagePixel.o)
 .debug_abbrev  0x000027ba      0x178 c:/devkitPro/libnds/lib\libul.a(ulGetImagePixel.o)
 .debug_abbrev  0x00002932      0x1b5 c:/devkitPro/libnds/lib\libul.a(textSize.o)
 .debug_abbrev  0x00002ae7       0x30 c:/devkitPro/libnds/lib\libul.a(loading_utility.o)
 .debug_abbrev  0x00002b17      0x164 c:/devkitPro/libnds/lib\libul.a(ulLoadImageFileJPG.o)
 .debug_abbrev  0x00002c7b      0x164 c:/devkitPro/libnds/lib\libul.a(ulLoadImageFileGIF.o)
 .debug_abbrev  0x00002ddf      0x1bd c:/devkitPro/libnds/lib\libul.a(libLoadJpg.o)
 .debug_abbrev  0x00002f9c      0x294 c:/devkitPro/libnds/lib\libul.a(libLoadGif.o)
 .debug_abbrev  0x00003230      0x2fa c:/devkitPro/libnds/lib\libul.a(dgif_lib.o)
 .debug_abbrev  0x0000352a       0x74 c:/devkitPro/libnds/lib\libul.a(gif_err.o)
 .debug_abbrev  0x0000359e      0x206 c:/devkitPro/libnds/lib\libul.a(gifalloc.o)
 .debug_abbrev  0x000037a4      0x193 c:/devkitPro/libnds/lib\libul.a(ulReadEntireFileToMemory.o)
 .debug_abbrev  0x00003937      0x348 c:/devkitPro/libnds/lib\libul.a(gba-jpeg-decode.o)
 .debug_abbrev  0x00003c7f       0xf6 c:/devkitPro/libnds/lib\libnds9.a(dynamicArray.o)
 .debug_abbrev  0x00003d75      0x176 c:/devkitPro/libnds/lib\libnds9.a(keys.o)
 .debug_abbrev  0x00003eeb      0x19a c:/devkitPro/libnds/lib\libnds9.a(system.o)
 .debug_abbrev  0x00004085      0x123 c:/devkitPro/libnds/lib\libnds9.a(touch.o)
 .debug_abbrev  0x000041a8      0x1c2 c:/devkitPro/libnds/lib\libnds9.a(trig.o)
 .debug_abbrev  0x0000436a      0x390 c:/devkitPro/libnds/lib\libnds9.a(videoGL.o)
 .debug_abbrev  0x000046fa      0x242 c:/devkitPro/libnds/lib\libnds9.a(initSystem.o)
 .debug_abbrev  0x0000493c      0x3af c:/devkitPro/libnds/lib\libnds9.a(fifosystem.o)
 .debug_abbrev  0x00004ceb      0x1d5 c:/devkitPro/libnds/lib\libnds9.a(interrupts.o)
 .debug_abbrev  0x00004ec0      0x131 c:/devkitPro/libnds/lib\libnds9.a(libnds_exit.o)
 .debug_abbrev  0x00004ff1       0x14 c:/devkitPro/libnds/lib\libnds9.a(mpu_setup.o)
 .debug_abbrev  0x00005005       0x14 c:/devkitPro/libnds/lib\libnds9.a(biosCalls.o)
 .debug_abbrev  0x00005019       0x14 c:/devkitPro/libnds/lib\libnds9.a(interruptDispatcher.o)
 .debug_abbrev  0x0000502d       0x14 c:/devkitPro/libnds/lib\libnds9.a(swiSoftReset.o)
 .debug_abbrev  0x00005041      0x1b9 c:/devkitPro/libnds/lib\libnds9.a(video.o)

.debug_line     0x00000000     0x7b4d load address 0x020485f8
 *(.debug_line)
 .debug_line    0x00000000      0x276 main.o
 .debug_line    0x00000276      0x1c8 c:/devkitPro/libnds/lib\libul.a(ulib.o)
 .debug_line    0x0000043e      0x81c c:/devkitPro/libnds/lib\libul.a(drawing.o)
 .debug_line    0x00000c5a      0x3de c:/devkitPro/libnds/lib\libul.a(text.o)
 .debug_line    0x00001038      0x2f3 c:/devkitPro/libnds/lib\libul.a(VirtualFile.o)
 .debug_line    0x0000132b      0x385 c:/devkitPro/libnds/lib\libul.a(texVramManager.o)
 .debug_line    0x000016b0      0x29c c:/devkitPro/libnds/lib\libul.a(texPalManager.o)
 .debug_line    0x0000194c      0x1c5 c:/devkitPro/libnds/lib\libul.a(keys.o)
 .debug_line    0x00001b11      0x2c1 c:/devkitPro/libnds/lib\libul.a(ulDrawImage.o)
 .debug_line    0x00001dd2      0x1e4 c:/devkitPro/libnds/lib\libul.a(ulCreateImagePalette.o)
 .debug_line    0x00001fb6      0x1d9 c:/devkitPro/libnds/lib\libul.a(ulDrawGradientRect.o)
 .debug_line    0x0000218f      0x1b0 c:/devkitPro/libnds/lib\libul.a(ulLoadImageFilePNG.o)
 .debug_line    0x0000233f      0x4a8 c:/devkitPro/libnds/lib\libul.a(ulShowSplashScreen1.o)
 .debug_line    0x000027e7      0x367 c:/devkitPro/libnds/lib\libul.a(ulShowSplashScreen2.o)
 .debug_line    0x00002b4e      0x190 c:/devkitPro/libnds/lib\libul.a(glWrapper.o)
 .debug_line    0x00002cde      0x442 c:/devkitPro/libnds/lib\libul.a(libLoadPng.o)
 .debug_line    0x00003120      0x1cf c:/devkitPro/libnds/lib\libul.a(ulDrawFillRect.o)
 .debug_line    0x000032ef      0x1b0 c:/devkitPro/libnds/lib\libul.a(ulSetImagePixel.o)
 .debug_line    0x0000349f      0x1ac c:/devkitPro/libnds/lib\libul.a(ulGetImagePixel.o)
 .debug_line    0x0000364b      0x1cb c:/devkitPro/libnds/lib\libul.a(textSize.o)
 .debug_line    0x00003816       0x3b c:/devkitPro/libnds/lib\libul.a(loading_utility.o)
 .debug_line    0x00003851      0x1b0 c:/devkitPro/libnds/lib\libul.a(ulLoadImageFileJPG.o)
 .debug_line    0x00003a01      0x1b0 c:/devkitPro/libnds/lib\libul.a(ulLoadImageFileGIF.o)
 .debug_line    0x00003bb1      0x1bf c:/devkitPro/libnds/lib\libul.a(libLoadJpg.o)
 .debug_line    0x00003d70      0x30f c:/devkitPro/libnds/lib\libul.a(libLoadGif.o)
 .debug_line    0x0000407f      0x54d c:/devkitPro/libnds/lib\libul.a(dgif_lib.o)
 .debug_line    0x000045cc       0x42 c:/devkitPro/libnds/lib\libul.a(gif_err.o)
 .debug_line    0x0000460e      0x1cf c:/devkitPro/libnds/lib\libul.a(gifalloc.o)
 .debug_line    0x000047dd      0x1ff c:/devkitPro/libnds/lib\libul.a(ulReadEntireFileToMemory.o)
 .debug_line    0x000049dc      0xac8 c:/devkitPro/libnds/lib\libul.a(gba-jpeg-decode.o)
 .debug_line    0x000054a4      0x178 c:/devkitPro/libnds/lib\libnds9.a(dynamicArray.o)
 .debug_line    0x0000561c      0x254 c:/devkitPro/libnds/lib\libnds9.a(keys.o)
 .debug_line    0x00005870      0x26c c:/devkitPro/libnds/lib\libnds9.a(system.o)
 .debug_line    0x00005adc      0x22d c:/devkitPro/libnds/lib\libnds9.a(touch.o)
 .debug_line    0x00005d09      0x224 c:/devkitPro/libnds/lib\libnds9.a(trig.o)
 .debug_line    0x00005f2d      0x93f c:/devkitPro/libnds/lib\libnds9.a(videoGL.o)
 .debug_line    0x0000686c      0x36c c:/devkitPro/libnds/lib\libnds9.a(initSystem.o)
 .debug_line    0x00006bd8      0x6c8 c:/devkitPro/libnds/lib\libnds9.a(fifosystem.o)
 .debug_line    0x000072a0      0x1d0 c:/devkitPro/libnds/lib\libnds9.a(interrupts.o)
 .debug_line    0x00007470      0x1d8 c:/devkitPro/libnds/lib\libnds9.a(libnds_exit.o)
 .debug_line    0x00007648       0xe3 c:/devkitPro/libnds/lib\libnds9.a(mpu_setup.o)
 .debug_line    0x0000772b       0xc5 c:/devkitPro/libnds/lib\libnds9.a(biosCalls.o)
 .debug_line    0x000077f0       0xc4 c:/devkitPro/libnds/lib\libnds9.a(interruptDispatcher.o)
 .debug_line    0x000078b4       0x93 c:/devkitPro/libnds/lib\libnds9.a(swiSoftReset.o)
 .debug_line    0x00007947      0x206 c:/devkitPro/libnds/lib\libnds9.a(video.o)

.debug_frame    0x00000000     0x1e30 load address 0x020485f8
 *(.debug_frame)
 .debug_frame   0x00000000       0x30 main.o
 .debug_frame   0x00000030       0x70 c:/devkitPro/libnds/lib\libul.a(ulib.o)
 .debug_frame   0x000000a0      0x220 c:/devkitPro/libnds/lib\libul.a(drawing.o)
 .debug_frame   0x000002c0      0x160 c:/devkitPro/libnds/lib\libul.a(text.o)
 .debug_frame   0x00000420      0x1b0 c:/devkitPro/libnds/lib\libul.a(VirtualFile.o)
 .debug_frame   0x000005d0      0x1a0 c:/devkitPro/libnds/lib\libul.a(texVramManager.o)
 .debug_frame   0x00000770      0x10c c:/devkitPro/libnds/lib\libul.a(texPalManager.o)
 .debug_frame   0x0000087c       0x30 c:/devkitPro/libnds/lib\libul.a(keys.o)
 .debug_frame   0x000008ac       0x3c c:/devkitPro/libnds/lib\libul.a(ulDrawImage.o)
 .debug_frame   0x000008e8       0x30 c:/devkitPro/libnds/lib\libul.a(ulCreateImagePalette.o)
 .debug_frame   0x00000918       0x38 c:/devkitPro/libnds/lib\libul.a(ulDrawGradientRect.o)
 .debug_frame   0x00000950       0x2c c:/devkitPro/libnds/lib\libul.a(ulLoadImageFilePNG.o)
 .debug_frame   0x0000097c      0x128 c:/devkitPro/libnds/lib\libul.a(ulShowSplashScreen1.o)
 .debug_frame   0x00000aa4       0x68 c:/devkitPro/libnds/lib\libul.a(ulShowSplashScreen2.o)
 .debug_frame   0x00000b0c       0x28 c:/devkitPro/libnds/lib\libul.a(glWrapper.o)
 .debug_frame   0x00000b34       0x68 c:/devkitPro/libnds/lib\libul.a(libLoadPng.o)
 .debug_frame   0x00000b9c       0x30 c:/devkitPro/libnds/lib\libul.a(ulDrawFillRect.o)
 .debug_frame   0x00000bcc       0x2c c:/devkitPro/libnds/lib\libul.a(ulSetImagePixel.o)
 .debug_frame   0x00000bf8       0x28 c:/devkitPro/libnds/lib\libul.a(ulGetImagePixel.o)
 .debug_frame   0x00000c20       0x44 c:/devkitPro/libnds/lib\libul.a(textSize.o)
 .debug_frame   0x00000c64       0x2c c:/devkitPro/libnds/lib\libul.a(ulLoadImageFileJPG.o)
 .debug_frame   0x00000c90       0x2c c:/devkitPro/libnds/lib\libul.a(ulLoadImageFileGIF.o)
 .debug_frame   0x00000cbc       0x38 c:/devkitPro/libnds/lib\libul.a(libLoadJpg.o)
 .debug_frame   0x00000cf4       0xa4 c:/devkitPro/libnds/lib\libul.a(libLoadGif.o)
 .debug_frame   0x00000d98      0x208 c:/devkitPro/libnds/lib\libul.a(dgif_lib.o)
 .debug_frame   0x00000fa0       0x20 c:/devkitPro/libnds/lib\libul.a(gif_err.o)
 .debug_frame   0x00000fc0      0x140 c:/devkitPro/libnds/lib\libul.a(gifalloc.o)
 .debug_frame   0x00001100       0x34 c:/devkitPro/libnds/lib\libul.a(ulReadEntireFileToMemory.o)
 .debug_frame   0x00001134      0x1cc c:/devkitPro/libnds/lib\libul.a(gba-jpeg-decode.o)
 .debug_frame   0x00001300       0x78 c:/devkitPro/libnds/lib\libnds9.a(dynamicArray.o)
 .debug_frame   0x00001378       0x8c c:/devkitPro/libnds/lib\libnds9.a(keys.o)
 .debug_frame   0x00001404       0xbc c:/devkitPro/libnds/lib\libnds9.a(system.o)
 .debug_frame   0x000014c0       0x44 c:/devkitPro/libnds/lib\libnds9.a(touch.o)
 .debug_frame   0x00001504       0xf4 c:/devkitPro/libnds/lib\libnds9.a(trig.o)
 .debug_frame   0x000015f8      0x3b4 c:/devkitPro/libnds/lib\libnds9.a(videoGL.o)
 .debug_frame   0x000019ac       0x28 c:/devkitPro/libnds/lib\libnds9.a(initSystem.o)
 .debug_frame   0x000019d4      0x2b4 c:/devkitPro/libnds/lib\libnds9.a(fifosystem.o)
 .debug_frame   0x00001c88       0xb4 c:/devkitPro/libnds/lib\libnds9.a(interrupts.o)
 .debug_frame   0x00001d3c       0x38 c:/devkitPro/libnds/lib\libnds9.a(libnds_exit.o)
 .debug_frame   0x00001d74       0xbc c:/devkitPro/libnds/lib\libnds9.a(video.o)

.debug_str      0x00000000     0x5f5e load address 0x020485f8
 *(.debug_str)
 .debug_str     0x00000000      0x710 main.o
                                0x798 (size before relaxing)
 .debug_str     0x00000710      0x247 c:/devkitPro/libnds/lib\libul.a(ulib.o)
                                0x701 (size before relaxing)
 .debug_str     0x00000957      0xec7 c:/devkitPro/libnds/lib\libul.a(drawing.o)
                               0x1595 (size before relaxing)
 .debug_str     0x0000181e      0x2e4 c:/devkitPro/libnds/lib\libul.a(text.o)
                                0x949 (size before relaxing)
 .debug_str     0x00001b02      0x1ca c:/devkitPro/libnds/lib\libul.a(VirtualFile.o)
                                0x720 (size before relaxing)
 .debug_str     0x00001ccc      0x30e c:/devkitPro/libnds/lib\libul.a(texVramManager.o)
                                0x8e1 (size before relaxing)
 .debug_str     0x00001fda      0x151 c:/devkitPro/libnds/lib\libul.a(texPalManager.o)
                                0x784 (size before relaxing)
 .debug_str     0x0000212b       0xde c:/devkitPro/libnds/lib\libul.a(keys.o)
                                0x687 (size before relaxing)
 .debug_str     0x00002209       0x38 c:/devkitPro/libnds/lib\libul.a(ulDrawImage.o)
                                0x57c (size before relaxing)
 .debug_str     0x00002241       0x32 c:/devkitPro/libnds/lib\libul.a(ulCreateImagePalette.o)
                                0x5ce (size before relaxing)
 .debug_str     0x00002273       0x4a c:/devkitPro/libnds/lib\libul.a(ulDrawGradientRect.o)
                                0x4b0 (size before relaxing)
 .debug_str     0x000022bd       0x75 c:/devkitPro/libnds/lib\libul.a(ulLoadImageFilePNG.o)
                                0x54f (size before relaxing)
 .debug_str     0x00002332      0x261 c:/devkitPro/libnds/lib\libul.a(ulShowSplashScreen1.o)
                                0xf83 (size before relaxing)
 .debug_str     0x00002593       0xaa c:/devkitPro/libnds/lib\libul.a(ulShowSplashScreen2.o)
                                0x942 (size before relaxing)
 .debug_str     0x0000263d       0x92 c:/devkitPro/libnds/lib\libul.a(glWrapper.o)
                                0x603 (size before relaxing)
 .debug_str     0x000026cf      0xd03 c:/devkitPro/libnds/lib\libul.a(libLoadPng.o)
                               0x14e8 (size before relaxing)
 .debug_str     0x000033d2       0x26 c:/devkitPro/libnds/lib\libul.a(ulDrawFillRect.o)
                                0x492 (size before relaxing)
 .debug_str     0x000033f8       0x3a c:/devkitPro/libnds/lib\libul.a(ulSetImagePixel.o)
                                0x569 (size before relaxing)
 .debug_str     0x00003432       0x28 c:/devkitPro/libnds/lib\libul.a(ulGetImagePixel.o)
                                0x55e (size before relaxing)
 .debug_str     0x0000345a       0x41 c:/devkitPro/libnds/lib\libul.a(textSize.o)
                                0x571 (size before relaxing)
 .debug_str     0x0000349b       0x1b c:/devkitPro/libnds/lib\libul.a(loading_utility.o)
                                 0x5c (size before relaxing)
 .debug_str     0x000034b6       0x31 c:/devkitPro/libnds/lib\libul.a(ulLoadImageFileJPG.o)
                                0x54f (size before relaxing)
 .debug_str     0x000034e7       0x31 c:/devkitPro/libnds/lib\libul.a(ulLoadImageFileGIF.o)
                                0x54f (size before relaxing)
 .debug_str     0x00003518      0x359 c:/devkitPro/libnds/lib\libul.a(libLoadJpg.o)
                                0x875 (size before relaxing)
 .debug_str     0x00003871      0x253 c:/devkitPro/libnds/lib\libul.a(libLoadGif.o)
                                0xa46 (size before relaxing)
 .debug_str     0x00003ac4      0x5c7 c:/devkitPro/libnds/lib\libul.a(dgif_lib.o)
                                0x904 (size before relaxing)
 .debug_str     0x0000408b       0x1b c:/devkitPro/libnds/lib\libul.a(gif_err.o)
                                 0xd7 (size before relaxing)
 .debug_str     0x000040a6      0x10f c:/devkitPro/libnds/lib\libul.a(gifalloc.o)
                                0x35e (size before relaxing)
 .debug_str     0x000041b5       0x4a c:/devkitPro/libnds/lib\libul.a(ulReadEntireFileToMemory.o)
                                0x4da (size before relaxing)
 .debug_str     0x000041ff      0x3dc c:/devkitPro/libnds/lib\libul.a(gba-jpeg-decode.o)
                                0xc4d (size before relaxing)
 .debug_str     0x000045db       0xaa c:/devkitPro/libnds/lib\libnds9.a(dynamicArray.o)
                                0x18f (size before relaxing)
 .debug_str     0x00004685      0x175 c:/devkitPro/libnds/lib\libnds9.a(keys.o)
                                0x2dc (size before relaxing)
 .debug_str     0x000047fa      0x348 c:/devkitPro/libnds/lib\libnds9.a(system.o)
                                0x510 (size before relaxing)
 .debug_str     0x00004b42       0x72 c:/devkitPro/libnds/lib\libnds9.a(touch.o)
                                0x1f8 (size before relaxing)
 .debug_str     0x00004bb4       0xdf c:/devkitPro/libnds/lib\libnds9.a(trig.o)
                                0x1d7 (size before relaxing)
 .debug_str     0x00004c93      0xa19 c:/devkitPro/libnds/lib\libnds9.a(videoGL.o)
                               0x130f (size before relaxing)
 .debug_str     0x000056ac       0xc2 c:/devkitPro/libnds/lib\libnds9.a(initSystem.o)
                                0x95d (size before relaxing)
 .debug_str     0x0000576e      0x524 c:/devkitPro/libnds/lib\libnds9.a(fifosystem.o)
                                0x74c (size before relaxing)
 .debug_str     0x00005c92      0x128 c:/devkitPro/libnds/lib\libnds9.a(interrupts.o)
                                0x34a (size before relaxing)
 .debug_str     0x00005dba       0x88 c:/devkitPro/libnds/lib\libnds9.a(libnds_exit.o)
                                0x298 (size before relaxing)
 .debug_str     0x00005e42      0x11c c:/devkitPro/libnds/lib\libnds9.a(video.o)
                                0xb12 (size before relaxing)

.debug_loc      0x00000000     0xb8ae load address 0x020485f8
 *(.debug_loc)
 .debug_loc     0x00000000       0x4a main.o
 .debug_loc     0x0000004a       0xa4 c:/devkitPro/libnds/lib\libul.a(ulib.o)
 .debug_loc     0x000000ee      0xa4b c:/devkitPro/libnds/lib\libul.a(drawing.o)
 .debug_loc     0x00000b39      0x804 c:/devkitPro/libnds/lib\libul.a(text.o)
 .debug_loc     0x0000133d      0x776 c:/devkitPro/libnds/lib\libul.a(VirtualFile.o)
 .debug_loc     0x00001ab3      0x81d c:/devkitPro/libnds/lib\libul.a(texVramManager.o)
 .debug_loc     0x000022d0      0x413 c:/devkitPro/libnds/lib\libul.a(texPalManager.o)
 .debug_loc     0x000026e3       0x99 c:/devkitPro/libnds/lib\libul.a(keys.o)
 .debug_loc     0x0000277c      0x133 c:/devkitPro/libnds/lib\libul.a(ulDrawImage.o)
 .debug_loc     0x000028af       0xdd c:/devkitPro/libnds/lib\libul.a(ulCreateImagePalette.o)
 .debug_loc     0x0000298c       0x78 c:/devkitPro/libnds/lib\libul.a(ulDrawGradientRect.o)
 .debug_loc     0x00002a04       0xd5 c:/devkitPro/libnds/lib\libul.a(ulLoadImageFilePNG.o)
 .debug_loc     0x00002ad9      0x899 c:/devkitPro/libnds/lib\libul.a(ulShowSplashScreen1.o)
 .debug_loc     0x00003372      0x2d1 c:/devkitPro/libnds/lib\libul.a(ulShowSplashScreen2.o)
 .debug_loc     0x00003643       0x76 c:/devkitPro/libnds/lib\libul.a(glWrapper.o)
 .debug_loc     0x000036b9      0x9ca c:/devkitPro/libnds/lib\libul.a(libLoadPng.o)
 .debug_loc     0x00004083       0x6c c:/devkitPro/libnds/lib\libul.a(ulDrawFillRect.o)
 .debug_loc     0x000040ef       0xae c:/devkitPro/libnds/lib\libul.a(ulSetImagePixel.o)
 .debug_loc     0x0000419d       0xa6 c:/devkitPro/libnds/lib\libul.a(ulGetImagePixel.o)
 .debug_loc     0x00004243      0x1d4 c:/devkitPro/libnds/lib\libul.a(textSize.o)
 .debug_loc     0x00004417       0xd5 c:/devkitPro/libnds/lib\libul.a(ulLoadImageFileJPG.o)
 .debug_loc     0x000044ec       0xd5 c:/devkitPro/libnds/lib\libul.a(ulLoadImageFileGIF.o)
 .debug_loc     0x000045c1      0x17e c:/devkitPro/libnds/lib\libul.a(libLoadJpg.o)
 .debug_loc     0x0000473f      0x72a c:/devkitPro/libnds/lib\libul.a(libLoadGif.o)
 .debug_loc     0x00004e69      0xd7b c:/devkitPro/libnds/lib\libul.a(dgif_lib.o)
 .debug_loc     0x00005be4      0x4ea c:/devkitPro/libnds/lib\libul.a(gifalloc.o)
 .debug_loc     0x000060ce      0x14e c:/devkitPro/libnds/lib\libul.a(ulReadEntireFileToMemory.o)
 .debug_loc     0x0000621c     0x1b73 c:/devkitPro/libnds/lib\libul.a(gba-jpeg-decode.o)
 .debug_loc     0x00007d8f      0x196 c:/devkitPro/libnds/lib\libnds9.a(dynamicArray.o)
 .debug_loc     0x00007f25       0x20 c:/devkitPro/libnds/lib\libnds9.a(keys.o)
 .debug_loc     0x00007f45      0x1ba c:/devkitPro/libnds/lib\libnds9.a(system.o)
 .debug_loc     0x000080ff       0x40 c:/devkitPro/libnds/lib\libnds9.a(touch.o)
 .debug_loc     0x0000813f      0x5b9 c:/devkitPro/libnds/lib\libnds9.a(trig.o)
 .debug_loc     0x000086f8     0x1c39 c:/devkitPro/libnds/lib\libnds9.a(videoGL.o)
 .debug_loc     0x0000a331       0x64 c:/devkitPro/libnds/lib\libnds9.a(initSystem.o)
 .debug_loc     0x0000a395     0x1131 c:/devkitPro/libnds/lib\libnds9.a(fifosystem.o)
 .debug_loc     0x0000b4c6      0x17b c:/devkitPro/libnds/lib\libnds9.a(interrupts.o)
 .debug_loc     0x0000b641       0x5c c:/devkitPro/libnds/lib\libnds9.a(libnds_exit.o)
 .debug_loc     0x0000b69d      0x211 c:/devkitPro/libnds/lib\libnds9.a(video.o)

.debug_macinfo
 *(.debug_macinfo)

.debug_weaknames
 *(.debug_weaknames)

.debug_funcnames
 *(.debug_funcnames)

.debug_typenames
 *(.debug_typenames)

.debug_varnames
 *(.debug_varnames)

.stack          0x00080000        0x0 load address 0x020485f8
                0x00080000                _stack = .
 *(.stack)
LOAD c:/devkitpro/devkitarm/bin/../lib/gcc/arm-eabi/4.5.1/../../../../arm-eabi/lib/ds_arm9_crt0.o
LOAD c:/devkitpro/devkitarm/bin/../lib/gcc/arm-eabi/4.5.1/crti.o
LOAD c:/devkitpro/devkitarm/bin/../lib/gcc/arm-eabi/4.5.1/crtbegin.o
LOAD tails.png.o
LOAD main.o
LOAD c:/devkitPro/libnds/lib\libul.a
LOAD c:/devkitPro/libnds/lib\libpng.a
LOAD c:/devkitPro/libnds/lib\libz.a
LOAD c:/devkitPro/libnds/lib\libfat.a
LOAD c:/devkitPro/libnds/lib\libnds9.a
LOAD c:/devkitpro/devkitarm/bin/../lib/gcc/arm-eabi/4.5.1/../../../../arm-eabi/lib\libm.a
START GROUP
LOAD c:/devkitpro/devkitarm/bin/../lib/gcc/arm-eabi/4.5.1\libgcc.a
LOAD c:/devkitpro/devkitarm/bin/../lib/gcc/arm-eabi/4.5.1/../../../../arm-eabi/lib\libg.a
LOAD c:/devkitpro/devkitarm/bin/../lib/gcc/arm-eabi/4.5.1/../../../../arm-eabi/lib\libc.a
LOAD c:/devkitpro/devkitarm/bin/../lib/gcc/arm-eabi/4.5.1/../../../../arm-eabi/lib\libsysbase.a
END GROUP
LOAD c:/devkitpro/devkitarm/bin/../lib/gcc/arm-eabi/4.5.1/crtend.o
LOAD c:/devkitpro/devkitarm/bin/../lib/gcc/arm-eabi/4.5.1/crtn.o
OUTPUT(c:/devkitpro/uLibrary/Examples/Example02/Example02.elf elf32-littlearm)

.debug_pubtypes
                0x00000000     0x42f1 load address 0x020485f8
 .debug_pubtypes
                0x00000000      0x1e5 main.o
 .debug_pubtypes
                0x000001e5      0x192 c:/devkitPro/libnds/lib\libul.a(ulib.o)
 .debug_pubtypes
                0x00000377      0x335 c:/devkitPro/libnds/lib\libul.a(drawing.o)
 .debug_pubtypes
                0x000006ac      0x21f c:/devkitPro/libnds/lib\libul.a(text.o)
 .debug_pubtypes
                0x000008cb      0x1ab c:/devkitPro/libnds/lib\libul.a(VirtualFile.o)
 .debug_pubtypes
                0x00000a76      0x1d0 c:/devkitPro/libnds/lib\libul.a(texVramManager.o)
 .debug_pubtypes
                0x00000c46      0x19e c:/devkitPro/libnds/lib\libul.a(texPalManager.o)
 .debug_pubtypes
                0x00000de4      0x1c9 c:/devkitPro/libnds/lib\libul.a(keys.o)
 .debug_pubtypes
                0x00000fad      0x186 c:/devkitPro/libnds/lib\libul.a(ulDrawImage.o)
 .debug_pubtypes
                0x00001133      0x1b3 c:/devkitPro/libnds/lib\libul.a(ulCreateImagePalette.o)
 .debug_pubtypes
                0x000012e6      0x17d c:/devkitPro/libnds/lib\libul.a(ulDrawGradientRect.o)
 .debug_pubtypes
                0x00001463      0x197 c:/devkitPro/libnds/lib\libul.a(ulLoadImageFilePNG.o)
 .debug_pubtypes
                0x000015fa      0x23b c:/devkitPro/libnds/lib\libul.a(ulShowSplashScreen1.o)
 .debug_pubtypes
                0x00001835      0x205 c:/devkitPro/libnds/lib\libul.a(ulShowSplashScreen2.o)
 .debug_pubtypes
                0x00001a3a      0x19c c:/devkitPro/libnds/lib\libul.a(glWrapper.o)
 .debug_pubtypes
                0x00001bd6      0x67d c:/devkitPro/libnds/lib\libul.a(libLoadPng.o)
 .debug_pubtypes
                0x00002253      0x17d c:/devkitPro/libnds/lib\libul.a(ulDrawFillRect.o)
 .debug_pubtypes
                0x000023d0      0x189 c:/devkitPro/libnds/lib\libul.a(ulSetImagePixel.o)
 .debug_pubtypes
                0x00002559      0x189 c:/devkitPro/libnds/lib\libul.a(ulGetImagePixel.o)
 .debug_pubtypes
                0x000026e2      0x180 c:/devkitPro/libnds/lib\libul.a(textSize.o)
 .debug_pubtypes
                0x00002862      0x197 c:/devkitPro/libnds/lib\libul.a(ulLoadImageFileJPG.o)
 .debug_pubtypes
                0x000029f9      0x197 c:/devkitPro/libnds/lib\libul.a(ulLoadImageFileGIF.o)
 .debug_pubtypes
                0x00002b90      0x2a9 c:/devkitPro/libnds/lib\libul.a(libLoadJpg.o)
 .debug_pubtypes
                0x00002e39      0x2cb c:/devkitPro/libnds/lib\libul.a(libLoadGif.o)
 .debug_pubtypes
                0x00003104      0x23d c:/devkitPro/libnds/lib\libul.a(dgif_lib.o)
 .debug_pubtypes
                0x00003341       0x12 c:/devkitPro/libnds/lib\libul.a(gif_err.o)
 .debug_pubtypes
                0x00003353       0xfa c:/devkitPro/libnds/lib\libul.a(gifalloc.o)
 .debug_pubtypes
                0x0000344d      0x194 c:/devkitPro/libnds/lib\libul.a(ulReadEntireFileToMemory.o)
 .debug_pubtypes
                0x000035e1      0x2a1 c:/devkitPro/libnds/lib\libul.a(gba-jpeg-decode.o)
 .debug_pubtypes
                0x00003882       0x3d c:/devkitPro/libnds/lib\libnds9.a(dynamicArray.o)
 .debug_pubtypes
                0x000038bf       0xdd c:/devkitPro/libnds/lib\libnds9.a(keys.o)
 .debug_pubtypes
                0x0000399c      0x109 c:/devkitPro/libnds/lib\libnds9.a(system.o)
 .debug_pubtypes
                0x00003aa5       0xc4 c:/devkitPro/libnds/lib\libnds9.a(touch.o)
 .debug_pubtypes
                0x00003b69       0x58 c:/devkitPro/libnds/lib\libnds9.a(trig.o)
 .debug_pubtypes
                0x00003bc1      0x20c c:/devkitPro/libnds/lib\libnds9.a(videoGL.o)
 .debug_pubtypes
                0x00003dcd      0x1e5 c:/devkitPro/libnds/lib\libnds9.a(initSystem.o)
 .debug_pubtypes
                0x00003fb2      0x126 c:/devkitPro/libnds/lib\libnds9.a(fifosystem.o)
 .debug_pubtypes
                0x000040d8       0xaa c:/devkitPro/libnds/lib\libnds9.a(interrupts.o)
 .debug_pubtypes
                0x00004182       0x8b c:/devkitPro/libnds/lib\libnds9.a(libnds_exit.o)
 .debug_pubtypes
                0x0000420d       0xe4 c:/devkitPro/libnds/lib\libnds9.a(video.o)

.debug_ranges   0x00000000     0x1ab8 load address 0x020485f8
 .debug_ranges  0x00000000       0x20 main.o
 .debug_ranges  0x00000020      0x4d8 c:/devkitPro/libnds/lib\libul.a(drawing.o)
 .debug_ranges  0x000004f8       0x40 c:/devkitPro/libnds/lib\libul.a(text.o)
 .debug_ranges  0x00000538      0x100 c:/devkitPro/libnds/lib\libul.a(texVramManager.o)
 .debug_ranges  0x00000638       0x38 c:/devkitPro/libnds/lib\libul.a(texPalManager.o)
 .debug_ranges  0x00000670       0xf8 c:/devkitPro/libnds/lib\libul.a(ulDrawImage.o)
 .debug_ranges  0x00000768      0x150 c:/devkitPro/libnds/lib\libul.a(ulShowSplashScreen1.o)
 .debug_ranges  0x000008b8       0x90 c:/devkitPro/libnds/lib\libul.a(ulShowSplashScreen2.o)
 .debug_ranges  0x00000948       0x30 c:/devkitPro/libnds/lib\libul.a(glWrapper.o)
 .debug_ranges  0x00000978       0x30 c:/devkitPro/libnds/lib\libul.a(libLoadPng.o)
 .debug_ranges  0x000009a8       0x60 c:/devkitPro/libnds/lib\libul.a(libLoadGif.o)
 .debug_ranges  0x00000a08       0x58 c:/devkitPro/libnds/lib\libul.a(dgif_lib.o)
 .debug_ranges  0x00000a60      0x4b8 c:/devkitPro/libnds/lib\libul.a(gba-jpeg-decode.o)
 .debug_ranges  0x00000f18       0x18 c:/devkitPro/libnds/lib\libnds9.a(touch.o)
 .debug_ranges  0x00000f30       0x80 c:/devkitPro/libnds/lib\libnds9.a(trig.o)
 .debug_ranges  0x00000fb0      0x730 c:/devkitPro/libnds/lib\libnds9.a(videoGL.o)
 .debug_ranges  0x000016e0      0x378 c:/devkitPro/libnds/lib\libnds9.a(fifosystem.o)
 .debug_ranges  0x00001a58       0x30 c:/devkitPro/libnds/lib\libnds9.a(interrupts.o)
 .debug_ranges  0x00001a88       0x30 c:/devkitPro/libnds/lib\libnds9.a(video.o)
